 qagamex86

 Timestamp is 51f1958d (Thu Jul 25 16:15:57 2013)

 Preferred load address is 20000000

 Start         Length     Name                   Class
 0001:00000000 0004ee86H .text                   CODE
 0002:00000000 0000010cH .idata$5                DATA
 0002:0000010c 00000004H .CRT$XCA                DATA
 0002:00000110 00000004H .CRT$XCZ                DATA
 0002:00000114 00000004H .CRT$XIA                DATA
 0002:00000118 00000014H .CRT$XIC                DATA
 0002:0000012c 00000004H .CRT$XIZ                DATA
 0002:00000130 00000004H .CRT$XPA                DATA
 0002:00000134 00000008H .CRT$XPX                DATA
 0002:0000013c 00000004H .CRT$XPXA               DATA
 0002:00000140 00000004H .CRT$XPZ                DATA
 0002:00000144 00000004H .CRT$XTA                DATA
 0002:00000148 00000004H .CRT$XTZ                DATA
 0002:00000150 0000cca0H .rdata                  DATA
 0002:0000cdf0 0000000cH .rdata$sxdata           DATA
 0002:0000cdfc 00000004H .rtc$IAA                DATA
 0002:0000ce00 00000004H .rtc$IZZ                DATA
 0002:0000ce04 00000004H .rtc$TAA                DATA
 0002:0000ce08 00000004H .rtc$TZZ                DATA
 0002:0000ce10 00000334H .xdata$x                DATA
 0002:0000d144 00000014H .idata$2                DATA
 0002:0000d158 00000014H .idata$3                DATA
 0002:0000d16c 0000010cH .idata$4                DATA
 0002:0000d278 000004d0H .idata$6                DATA
 0002:0000d750 0000005aH .edata                  DATA
 0003:00000000 00003354H .data                   DATA
 0003:00003360 00150d60H .bss                    DATA
 0004:00000000 00000058H .rsrc$01                DATA
 0004:00000060 00000180H .rsrc$02                DATA

  Address         Publics by Value              Rva+Base       Lib:Object

 0000:00000000       __except_list              00000000     <absolute>
 0000:00000003       ___safe_se_handler_count   00000003     <absolute>
 0000:00000000       ___ImageBase               20000000     <linker-defined>
 0001:00000000       _BotChatTest               20001000 f   ai_chat.obj
 0001:00000940       _BotChatTime               20001940 f   ai_chat.obj
 0001:00000970       _BotChat_Death             20001970 f   ai_chat.obj
 0001:00000d50       _BotChat_EndLevel          20001d50 f   ai_chat.obj
 0001:00000f50       _BotChat_EnemySuicide      20001f50 f   ai_chat.obj
 0001:00001090       _BotChat_EnterGame         20002090 f   ai_chat.obj
 0001:000011d0       _BotChat_ExitGame          200021d0 f   ai_chat.obj
 0001:00001300       _BotChat_HitNoDeath        20002300 f   ai_chat.obj
 0001:000014d0       _BotChat_HitNoKill         200024d0 f   ai_chat.obj
 0001:00001670       _BotChat_HitTalking        20002670 f   ai_chat.obj
 0001:00001820       _BotChat_Kill              20002820 f   ai_chat.obj
 0001:00001a80       _BotChat_Random            20002a80 f   ai_chat.obj
 0001:00001d20       _BotChat_StartLevel        20002d20 f   ai_chat.obj
 0001:00001e50       _BotFirstClientInRankings  20002e50 f   ai_chat.obj
 0001:00001f60       _BotIsFirstInRankings      20002f60 f   ai_chat.obj
 0001:00002070       _BotIsLastInRankings       20003070 f   ai_chat.obj
 0001:00002180       _BotLastClientInRankings   20003180 f   ai_chat.obj
 0001:00002290       _BotMapTitle               20003290 f   ai_chat.obj
 0001:00002300       _BotNumActivePlayers       20003300 f   ai_chat.obj
 0001:000023d0       _BotRandomOpponentName     200033d0 f   ai_chat.obj
 0001:00002560       _BotRandomWeaponName       20003560 f   ai_chat.obj
 0001:00002610       _BotValidChatPosition      20003610 f   ai_chat.obj
 0001:000027c0       _BotVisibleEnemies         200037c0 f   ai_chat.obj
 0001:000028c0       _BotWeaponNameForMeansOfDeath 200038c0 f   ai_chat.obj
 0001:000029b0       _BotAddressedToBot         200039b0 f   ai_cmd.obj
 0001:00002c30       _BotGetItemTeamGoal        20003c30 f   ai_cmd.obj
 0001:00002c90       _BotGetMessageTeamGoal     20003c90 f   ai_cmd.obj
 0001:00002ce0       _BotGetPatrolWaypoints     20003ce0 f   ai_cmd.obj
 0001:00002ee0       _BotGetTime                20003ee0 f   ai_cmd.obj
 0001:00003030       _BotMatchMessage           20004030 f   ai_cmd.obj
 0001:00003350       _BotMatch_AttackEnemyBase  20004350 f   ai_cmd.obj
 0001:00003480       _BotMatch_CTF              20004480 f   ai_cmd.obj
 0001:00003650       _BotMatch_Camp             20004650 f   ai_cmd.obj
 0001:00003980       _BotMatch_CheckPoint       20004980 f   ai_cmd.obj
 0001:00003bd0       _BotMatch_DefendKeyArea    20004bd0 f   ai_cmd.obj
 0001:00003d30       _BotMatch_Dismiss          20004d30 f   ai_cmd.obj
 0001:00003de0       _BotMatch_EnterGame        20004de0 f   ai_cmd.obj
 0001:00003e30       _BotMatch_FormationSpace   20004e30 f   ai_cmd.obj
 0001:00003f20       _BotMatch_GetFlag          20004f20 f   ai_cmd.obj
 0001:00004080       _BotMatch_GetItem          20005080 f   ai_cmd.obj
 0001:000041a0       _BotMatch_Harvest          200051a0 f   ai_cmd.obj
 0001:000042c0       _BotMatch_HelpAccompany    200052c0 f   ai_cmd.obj
 0001:000046b0       _BotMatch_JoinSubteam      200056b0 f   ai_cmd.obj
 0001:00004770       _BotMatch_Kill             20005770 f   ai_cmd.obj
 0001:000048a0       _BotMatch_LeadTheWay       200058a0 f   ai_cmd.obj
 0001:00004b10       _BotMatch_LeaveSubteam     20005b10 f   ai_cmd.obj
 0001:00004bb0       _BotMatch_NewLeader        20005bb0 f   ai_cmd.obj
 0001:00004c10       _BotMatch_Patrol           20005c10 f   ai_cmd.obj
 0001:00004d40       _BotMatch_ReturnFlag       20005d40 f   ai_cmd.obj
 0001:00004e40       _BotMatch_RushBase         20005e40 f   ai_cmd.obj
 0001:00004f80       _BotMatch_StartTeamLeaderShip 20005f80 f   ai_cmd.obj
 0001:00005030       _BotMatch_StopTeamLeaderShip 20006030 f   ai_cmd.obj
 0001:00005100       _BotMatch_Suicide          20006100 f   ai_cmd.obj
 0001:00005190       _BotMatch_TaskPreference   20006190 f   ai_cmd.obj
 0001:000052a0       _BotMatch_WhatAreYouDoing  200062a0 f   ai_cmd.obj
 0001:000054b0       _BotMatch_WhatIsMyCommand  200064b0 f   ai_cmd.obj
 0001:00005510       _BotMatch_WhereAreYou      20006510 f   ai_cmd.obj
 0001:00005830       _BotMatch_WhichTeam        20006830 f   ai_cmd.obj
 0001:000058b0       _BotMatch_WhoIsTeamLeader  200068b0 f   ai_cmd.obj
 0001:00005920       _BotNearestVisibleItem     20006920 f   ai_cmd.obj
 0001:00005a80       _FindClientByName          20006a80 f   ai_cmd.obj
 0001:00005b60       _FindEnemyByName           20006b60 f   ai_cmd.obj
 0001:00005c60       _NumPlayersOnSameTeam      20006c60 f   ai_cmd.obj
 0001:00005d10       _AIEnter_Battle_Chase      20006d10 f   ai_dmnet.obj
 0001:00005d50       _AIEnter_Battle_Fight      20006d50 f   ai_dmnet.obj
 0001:00005d90       _AIEnter_Battle_NBG        20006d90 f   ai_dmnet.obj
 0001:00005dc0       _AIEnter_Battle_Retreat    20006dc0 f   ai_dmnet.obj
 0001:00005df0       _AIEnter_Battle_SuicidalFight 20006df0 f   ai_dmnet.obj
 0001:00005e30       _AIEnter_Intermission      20006e30 f   ai_dmnet.obj
 0001:00005e80       _AIEnter_Observer          20006e80 f   ai_dmnet.obj
 0001:00005eb0       _AIEnter_Respawn           20006eb0 f   ai_dmnet.obj
 0001:00005f90       _AIEnter_Seek_ActivateEntity 20006f90 f   ai_dmnet.obj
 0001:00005fc0       _AIEnter_Seek_LTG          20006fc0 f   ai_dmnet.obj
 0001:00006060       _AIEnter_Seek_NBG          20007060 f   ai_dmnet.obj
 0001:00006100       _AIEnter_Stand             20007100 f   ai_dmnet.obj
 0001:00006150       _AINode_Battle_Chase       20007150 f   ai_dmnet.obj
 0001:00006630       _AINode_Battle_Fight       20007630 f   ai_dmnet.obj
 0001:00006b60       _AINode_Battle_NBG         20007b60 f   ai_dmnet.obj
 0001:00007010       _AINode_Battle_Retreat     20008010 f   ai_dmnet.obj
 0001:00007600       _AINode_Intermission       20008600 f   ai_dmnet.obj
 0001:00007670       _AINode_Observer           20008670 f   ai_dmnet.obj
 0001:000076a0       _AINode_Respawn            200086a0 f   ai_dmnet.obj
 0001:00007780       _AINode_Seek_ActivateEntity 20008780 f   ai_dmnet.obj
 0001:00007dc0       _AINode_Seek_LTG           20008dc0 f   ai_dmnet.obj
 0001:00008420       _AINode_Seek_NBG           20009420 f   ai_dmnet.obj
 0001:00008850       _AINode_Stand              20009850 f   ai_dmnet.obj
 0001:00008970       _BotClearPath              20009970 f   ai_dmnet.obj
 0001:00008d80       _BotDumpNodeSwitches       20009d80 f   ai_dmnet.obj
 0001:00008e20       _BotGetAirGoal             20009e20 f   ai_dmnet.obj
 0001:00008fb0       _BotGetItemLongTermGoal    20009fb0 f   ai_dmnet.obj
 0001:000090c0       _BotGetLongTermGoal        2000a0c0 f   ai_dmnet.obj
 0001:0000b050       _BotGoForAir               2000c050 f   ai_dmnet.obj
 0001:0000b170       _BotLongTermGoal           2000c170 f   ai_dmnet.obj
 0001:0000b620       _BotNearbyGoal             2000c620 f   ai_dmnet.obj
 0001:0000b6c0       _BotReachedGoal            2000c6c0 f   ai_dmnet.obj
 0001:0000b820       _BotRecordNodeSwitch       2000c820 f   ai_dmnet.obj
 0001:0000b8b0       _BotResetNodeSwitches      2000c8b0 f   ai_dmnet.obj
 0001:0000b8c0       _BotSelectActivateWeapon   2000c8c0 f   ai_dmnet.obj
 0001:0000b9b0       _Bot1FCTFCarryingFlag      2000c9b0 f   ai_dmq3.obj
 0001:0000b9d0       _Bot1FCTFRetreatGoals      2000c9d0 f   ai_dmq3.obj
 0001:0000ba50       _Bot1FCTFSeekGoals         2000ca50 f   ai_dmq3.obj
 0001:0000c050       _BotAIBlocked              2000d050 f   ai_dmq3.obj
 0001:0000c340       _BotAIPredictObstacles     2000d340 f   ai_dmq3.obj
 0001:0000c4a0       _BotAggression             2000d4a0 f   ai_dmq3.obj
 0001:0000c5b0       _BotAimAtEnemy             2000d5b0 f   ai_dmq3.obj
 0001:0000d9f0       _BotAlternateRoute         2000e9f0 f   ai_dmq3.obj
 0001:0000da70       _BotAttackMove             2000ea70 f   ai_dmq3.obj
 0001:0000e0d0       _BotBattleUseItems         2000f0d0 f   ai_dmq3.obj
 0001:0000e150       _BotCTFCarryingFlag        2000f150 f   ai_dmq3.obj
 0001:0000e190       _BotCTFRetreatGoals        2000f190 f   ai_dmq3.obj
 0001:0000e200       _BotCTFSeekGoals           2000f200 f   ai_dmq3.obj
 0001:0000ea20       _BotCanAndWantsToRocketJump 2000fa20 f   ai_dmq3.obj
 0001:0000eab0       _BotCheckAir               2000fab0 f   ai_dmq3.obj
 0001:0000eaf0       _BotCheckAttack            2000faf0 f   ai_dmq3.obj
 0001:0000f000       _BotCheckConsoleMessages   20010000 f   ai_dmq3.obj
 0001:0000f3c0       _BotCheckEvents            200103c0 f   ai_dmq3.obj
 0001:0000f8b0       _BotCheckForGrenades       200108b0 f   ai_dmq3.obj
 0001:0000f8f0       _BotCheckForKamikazeBody   200108f0 f   ai_dmq3.obj
 0001:0000f920       _BotCheckForProxMines      20010920 f   ai_dmq3.obj
 0001:0000f9d0       _BotCheckItemPickup        200109d0 f   ai_dmq3.obj
 0001:0000fbb0       _BotCheckSnapshot          20010bb0 f   ai_dmq3.obj
 0001:0000fca0       _BotChooseWeapon           20010ca0 f   ai_dmq3.obj
 0001:0000fd10       _BotClearActivateGoalStack 20010d10 f   ai_dmq3.obj
 0001:0000fd40       _BotCreateWayPoint         20010d40 f   ai_dmq3.obj
 0001:0000fde0       _BotDeathmatchAI           20010de0 f   ai_dmq3.obj
 0001:000100c0       _BotDontAvoid              200110c0 f   ai_dmq3.obj
 0001:00010130       _BotEnableActivateGoalAreas 20011130 f   ai_dmq3.obj
 0001:00010190       _BotEnemyCubeCarrierVisible 20011190 f   ai_dmq3.obj
 0001:00010270       _BotEnemyFlag              20011270 f   ai_dmq3.obj
 0001:000102a0       _BotEnemyFlagCarrierVisible 200112a0 f   ai_dmq3.obj
 0001:00010380       _BotEntityVisible          20011380 f   ai_dmq3.obj
 0001:000107f0       _BotFeelingBad             200117f0 f   ai_dmq3.obj
 0001:00010840       _BotFindEnemy              20011840 f   ai_dmq3.obj
 0001:00010df0       _BotFindWayPoint           20011df0 f   ai_dmq3.obj
 0001:00010e30       _BotFreeWaypoints          20011e30 f   ai_dmq3.obj
 0001:00010e60       _BotFuncButtonActivateGoal 20011e60 f   ai_dmq3.obj
 0001:000118f0       _BotFuncDoorActivateGoal   200128f0 f   ai_dmq3.obj
 0001:00011a50       _BotGetActivateGoal        20012a50 f   ai_dmq3.obj
 0001:00012240       _BotGetAlternateRouteGoal  20013240 f   ai_dmq3.obj
 0001:00012340       _BotGoCamp                 20013340 f   ai_dmq3.obj
 0001:00012440       _BotGoForActivateGoal      20013440 f   ai_dmq3.obj
 0001:00012510       _BotGoForPowerups          20013510 f   ai_dmq3.obj
 0001:00012560       _BotGoHarvest              20013560 f   ai_dmq3.obj
 0001:000125d0       _BotHarvesterCarryingCubes 200135d0 f   ai_dmq3.obj
 0001:00012600       _BotHarvesterRetreatGoals  20013600 f   ai_dmq3.obj
 0001:00012670       _BotHarvesterSeekGoals     20013670 f   ai_dmq3.obj
 0001:00012ac0       _BotHasPersistantPowerupAndWeapon 20013ac0 f   ai_dmq3.obj
 0001:00012bb0       _BotInLavaOrSlime          20013bb0 f   ai_dmq3.obj
 0001:00012c10       _BotInitWaypoints          20013c10 f   ai_dmq3.obj
 0001:00012c30       _BotIntermission           20013c30 f   ai_dmq3.obj
 0001:00012c60       _BotIsDead                 20013c60 f   ai_dmq3.obj
 0001:00012c80       _BotIsGoingToActivateEntity 20013c80 f   ai_dmq3.obj
 0001:00012d00       _BotIsObserver             20013d00 f   ai_dmq3.obj
 0001:00012d90       _BotMapScripts             20013d90 f   ai_dmq3.obj
 0001:00013110       _BotModelMinsMaxs          20014110 f   ai_dmq3.obj
 0001:00013230       _BotObeliskSeekGoals       20014230 f   ai_dmq3.obj
 0001:00013510       _BotOppositeTeam           20014510 f   ai_dmq3.obj
 0001:00013540       _BotPointAreaNum           20014540 f   ai_dmq3.obj
 0001:000135c0       _BotPopFromActivateGoalStack 200145c0 f   ai_dmq3.obj
 0001:00013620       _BotPushOntoActivateGoalStack 20014620 f   ai_dmq3.obj
 0001:00013780       _BotRandomMove             20014780 f   ai_dmq3.obj
 0001:00013830       _BotRefuseOrder            20014830 f   ai_dmq3.obj
 0001:000138a0       _BotRememberLastOrderedTask 200148a0 f   ai_dmq3.obj
 0001:000138f0       _BotRoamGoal               200148f0 f   ai_dmq3.obj
 0001:00013c50       _BotSameTeam               20014c50 f   ai_dmq3.obj
 0001:00013d30       _BotSetEntityNumForGoal    20014d30 f   ai_dmq3.obj
 0001:00013dd0       _BotSetLastOrderedTask     20014dd0 f   ai_dmq3.obj
 0001:00013f00       _BotSetMovedir             20014f00 f   ai_dmq3.obj
 0001:00013fe0       _BotSetTeamStatus          20014fe0 f   ai_dmq3.obj
 0001:000140f0       _BotSetTeleportTime        200150f0 f   ai_dmq3.obj
 0001:00014120       _BotSetUserInfo            20015120 f   ai_dmq3.obj
 0001:00014190       _BotSetupAlternativeRouteGoals 20015190 f   ai_dmq3.obj
 0001:000142f0       _BotSetupDeathmatchAI      200152f0 f   ai_dmq3.obj
 0001:00014660       _BotSetupForMovement       20015660 f   ai_dmq3.obj
 0001:000147b0       _BotSynonymContext         200157b0 f   ai_dmq3.obj
 0001:00014830       _BotTeam                   20015830 f   ai_dmq3.obj
 0001:000148e0       _BotTeamCubeCarrierVisible 200158e0 f   ai_dmq3.obj
 0001:000149c0       _BotTeamFlag               200159c0 f   ai_dmq3.obj
 0001:000149f0       _BotTeamFlagCarrier        200159f0 f   ai_dmq3.obj
 0001:00014a90       _BotTeamFlagCarrierVisible 20015a90 f   ai_dmq3.obj
 0001:00014b70       _BotTeamGoals              20015b70 f   ai_dmq3.obj
 0001:00014c50       _BotTriggerMultipleActivateGoal 20015c50 f   ai_dmq3.obj
 0001:00014ed0       _BotUpdateBattleInventory  20015ed0 f   ai_dmq3.obj
 0001:00014f80       _BotUpdateInventory        20015f80 f   ai_dmq3.obj
 0001:00015290       _BotUseInvulnerability     20016290 f   ai_dmq3.obj
 0001:000154f0       _BotUseKamikaze            200164f0 f   ai_dmq3.obj
 0001:00015870       _BotVisibleTeamMatesAndEnemies 20016870 f   ai_dmq3.obj
 0001:000159c0       _BotWantsToCamp            200169c0 f   ai_dmq3.obj
 0001:00015bd0       _BotWantsToChase           20016bd0 f   ai_dmq3.obj
 0001:00015d00       _BotWantsToRetreat         20016d00 f   ai_dmq3.obj
 0001:00015e40       _ClientFromName            20016e40 f   ai_dmq3.obj
 0001:00015f00       _ClientName                20016f00 f   ai_dmq3.obj
 0001:00015fa0       _ClientOnSameTeamFromName  20016fa0 f   ai_dmq3.obj
 0001:00016070       _EasyClientName            20017070 f   ai_dmq3.obj
 0001:00016290       _EntityCarriesCubes        20017290 f   ai_dmq3.obj
 0001:000162f0       _EntityCarriesFlag         200172f0 f   ai_dmq3.obj
 0001:00016320       _EntityIsChatting          20017320 f   ai_dmq3.obj
 0001:00016340       _EntityIsDead              20017340 f   ai_dmq3.obj
 0001:000163a0       _EntityIsInvisible         200173a0 f   ai_dmq3.obj
 0001:000163d0       _EntityIsShooting          200173d0 f   ai_dmq3.obj
 0001:000163f0       _InFieldOfVision           200173f0 f   ai_dmq3.obj
 0001:000164e0       _TeamPlayIsOn              200174e0 f   ai_dmq3.obj
 0001:000164f0       _stristr                   200174f0 f   ai_dmq3.obj
 0001:00016580       _AngleDifference           20017580 f   ai_main.obj
 0001:000165f0       _BotAI                     200175f0 f   ai_main.obj
 0001:000169e0       _BotAILoadMap              200179e0 f   ai_main.obj
 0001:00016a70       _BotAIRegularUpdate        20017a70 f   ai_main.obj
 0001:00016ab0       _BotAISetup                20017ab0 f   ai_main.obj
 0001:00016c10       _BotAISetupClient          20017c10 f   ai_main.obj
 0001:00016fa0       _BotAIShutdown             20017fa0 f   ai_main.obj
 0001:00016ff0       _BotAIShutdownClient       20017ff0 f   ai_main.obj
 0001:000170c0       _BotAIStartFrame           200180c0 f   ai_main.obj
 0001:000175b0       _BotAI_BotInitialChat      200185b0 f   ai_main.obj
 0001:00017630       _BotAI_GetClientState      20018630 f   ai_main.obj
 0001:00017680       _BotAI_GetEntityState      20018680 f   ai_main.obj
 0001:000176e0       _BotAI_GetSnapshotEntity   200186e0 f   ai_main.obj
 0001:00017730       _BotAI_Print               20018730 f   ai_main.obj
 0001:00017850       _BotAI_Trace               20018850 f   ai_main.obj
 0001:00017930       _BotChangeViewAngle        20018930 f   ai_main.obj
 0001:000179f0       _BotChangeViewAngles       200189f0 f   ai_main.obj
 0001:00017c80       _BotEntityInfo             20018c80 f   ai_main.obj
 0001:00017c90       _BotInitLibrary            20018c90 f   ai_main.obj
 0001:00018150       _BotInputToUserCommand     20019150 f   ai_main.obj
 0001:00018400       _BotInterbreedBots         20019400 f   ai_main.obj
 0001:00018530       _BotInterbreedEndMatch     20019530 f   ai_main.obj
 0001:000185a0       _BotInterbreeding          200195a0 f   ai_main.obj
 0001:000186a0       _BotReadSessionData        200196a0 f   ai_main.obj
 0001:00018770       _BotResetState             20019770 f   ai_main.obj
 0001:000188e0       _BotScheduleBotThink       200198e0 f   ai_main.obj
 0001:00018920       _BotSetInfoConfigString    20019920 f   ai_main.obj
 0001:00018bf0       _BotTeamLeader             20019bf0 f   ai_main.obj
 0001:00018c30       _BotTestAAS                20019c30 f   ai_main.obj
 0001:00018d30       _BotUpdateInfoConfigStrings 20019d30 f   ai_main.obj
 0001:00018df0       _BotUpdateInput            20019df0 f   ai_main.obj
 0001:00018f30       _BotWriteInterbreeded      20019f30 f   ai_main.obj
 0001:00018fa0       _BotWriteSessionData       20019fa0 f   ai_main.obj
 0001:000190a0       _NumBots                   2001a0a0 f   ai_main.obj
 0001:000190b0       _RemoveColorEscapeSequences 2001a0b0 f   ai_main.obj
 0001:00019100       _Bot1FCTFOrders            2001a100 f   ai_team.obj
 0001:00019150       _Bot1FCTFOrders_EnemyDroppedFlag 2001a150 f   ai_team.obj
 0001:000195b0       _Bot1FCTFOrders_EnemyHasFlag 2001a5b0 f   ai_team.obj
 0001:00019a50       _Bot1FCTFOrders_FlagAtCenter 2001aa50 f   ai_team.obj
 0001:00019eb0       _Bot1FCTFOrders_TeamHasFlag 2001aeb0 f   ai_team.obj
 0001:0001a570       _BotCTFOrders              2001b570 f   ai_team.obj
 0001:0001a5f0       _BotCTFOrders_BothFlagsAtBase 2001b5f0 f   ai_team.obj
 0001:0001aa40       _BotCTFOrders_BothFlagsNotAtBase 2001ba40 f   ai_team.obj
 0001:0001adf0       _BotCTFOrders_EnemyFlagNotAtBase 2001bdf0 f   ai_team.obj
 0001:0001b150       _BotCTFOrders_FlagNotAtBase 2001c150 f   ai_team.obj
 0001:0001b5a0       _BotClientTravelTimeToGoal 2001c5a0 f   ai_team.obj
 0001:0001b620       _BotCreateGroup            2001c620 f   ai_team.obj
 0001:0001b6c0       _BotGetTeamMateTaskPreference 2001c6c0 f   ai_team.obj
 0001:0001b730       _BotHarvesterOrders        2001c730 f   ai_team.obj
 0001:0001bb90       _BotNumTeamMates           2001cb90 f   ai_team.obj
 0001:0001bc80       _BotObeliskOrders          2001cc80 f   ai_team.obj
 0001:0001c0e0       _BotSayTeamOrder           2001d0e0 f   ai_team.obj
 0001:0001c120       _BotSayTeamOrderAlways     2001d120 f   ai_team.obj
 0001:0001c1d0       _BotSayVoiceTeamOrder      2001d1d0 f   ai_team.obj
 0001:0001c1e0       _BotSetTeamMateTaskPreference 2001d1e0 f   ai_team.obj
 0001:0001c240       _BotSortTeamMatesByBaseTravelTime 2001d240 f   ai_team.obj
 0001:0001c460       _BotSortTeamMatesByTaskPreference 2001d460 f   ai_team.obj
 0001:0001c570       _BotTeamAI                 2001d570 f   ai_team.obj
 0001:0001cb70       _BotTeamOrders             2001db70 f   ai_team.obj
 0001:0001cd40       _BotValidTeamLeader        2001dd40 f   ai_team.obj
 0001:0001cd80       _BotVoiceChat              2001dd80 f   ai_team.obj
 0001:0001cdd0       _BotVoiceChatOnly          2001ddd0 f   ai_team.obj
 0001:0001ce20       _FindHumanTeamLeader       2001de20 f   ai_team.obj
 0001:0001cea0       _BotVoiceChat_Defend       2001dea0 f   ai_vcmd.obj
 0001:0001cfb0       _BotVoiceChat_GetFlag      2001dfb0 f   ai_vcmd.obj
 0001:0001d0b0       _BotVoiceChat_Offense      2001e0b0 f   ai_vcmd.obj
 0001:0001d1e0       _BotVoiceChat_DefendFlag   2001e1e0 f   ai_vcmd.obj
 0001:0001d1f0       _BotVoiceChat_Patrol       2001e1f0 f   ai_vcmd.obj
 0001:0001d260       _BotVoiceChat_Camp         2001e260 f   ai_vcmd.obj
 0001:0001d420       _BotVoiceChat_FollowMe     2001e420 f   ai_vcmd.obj
 0001:0001d5f0       _BotVoiceChat_FollowFlagCarrier 2001e5f0 f   ai_vcmd.obj
 0001:0001d610       _BotVoiceChat_ReturnFlag   2001e610 f   ai_vcmd.obj
 0001:0001d6c0       _BotVoiceChat_StartLeader  2001e6c0 f   ai_vcmd.obj
 0001:0001d6e0       _BotVoiceChat_StopLeader   2001e6e0 f   ai_vcmd.obj
 0001:0001d740       _BotVoiceChat_WhoIsLeader  2001e740 f   ai_vcmd.obj
 0001:0001d7d0       _BotVoiceChat_WantOnDefense 2001e7d0 f   ai_vcmd.obj
 0001:0001d860       _BotVoiceChat_WantOnOffense 2001e860 f   ai_vcmd.obj
 0001:0001d8f0       _BotVoiceChatCommand       2001e8f0 f   ai_vcmd.obj
 0001:0001da80       _BG_AddPredictableEventToPlayerstate 2001ea80 f   bg_misc.obj
 0001:0001dab0       _BG_CanItemBeGrabbed       2001eab0 f   bg_misc.obj
 0001:0001dd00       _BG_EvaluateTrajectory     2001ed00 f   bg_misc.obj
 0001:0001dea0       _BG_EvaluateTrajectoryDelta 2001eea0 f   bg_misc.obj
 0001:0001e000       _BG_FindItem               2001f000 f   bg_misc.obj
 0001:0001e040       _BG_FindItemForPowerup     2001f040 f   bg_misc.obj
 0001:0001e090       _BG_FindItemForWeapon      2001f090 f   bg_misc.obj
 0001:0001e0d0       _BG_PlayerStateToEntityState 2001f0d0 f   bg_misc.obj
 0001:0001e310       _BG_PlayerStateToEntityStateExtraPolate 2001f310 f   bg_misc.obj
 0001:0001e550       _BG_PlayerTouchesItem      2001f550 f   bg_misc.obj
 0001:0001e5e0       _BG_TouchJumpPad           2001f5e0 f   bg_misc.obj
 0001:0001e750       _PM_AddEvent               2001f750 f   bg_pmove.obj
 0001:0001e770       _PM_AddTouchEnt            2001f770 f   bg_pmove.obj
 0001:0001eeb0       _PM_ClipVelocity           2001feb0 f   bg_pmove.obj
 0001:00020540       _PM_UpdateViewAngles       20021540 f   bg_pmove.obj
 0001:00020fe0       _Pmove                     20021fe0 f   bg_pmove.obj
 0001:00021070       _PmoveSingle               20022070 f   bg_pmove.obj
 0001:00021400       _PM_SlideMove              20022400 f   bg_slidemove.obj
 0001:00021c10       _PM_StepSlideMove          20022c10 f   bg_slidemove.obj
 0001:00021f60       _ClientEndFrame            20022f60 f   g_active.obj
 0001:00022150       _ClientEvents              20023150 f   g_active.obj
 0001:00022470       _ClientImpacts             20023470 f   g_active.obj
 0001:00022530       _ClientInactivityTimer     20023530 f   g_active.obj
 0001:00022640       _ClientIntermissionThink   20023640 f   g_active.obj
 0001:00022680       _ClientThink               20023680 f   g_active.obj
 0001:000226e0       _ClientThink_real          200236e0 f   g_active.obj
 0001:00022da0       _ClientTimerActions        20023da0 f   g_active.obj
 0001:000230a0       _G_RunClient               200240a0 f   g_active.obj
 0001:000230e0       _G_SetClientSound          200240e0 f   g_active.obj
 0001:00023150       _G_TouchTriggers           20024150 f   g_active.obj
 0001:000233b0       _P_DamageFeedback          200243b0 f   g_active.obj
 0001:00023510       _P_WorldEffects            20024510 f   g_active.obj
 0001:000236b0       _SendPendingPredictableEvents 200246b0 f   g_active.obj
 0001:00023750       _SpectatorClientEndFrame   20024750 f   g_active.obj
 0001:00023840       _SpectatorThink            20024840 f   g_active.obj
 0001:00023a10       _Svcmd_AbortPodium_f       20024a10 f   g_arenas.obj
 0001:00023a40       _UpdateTournamentInfo      20024a40 f   g_arenas.obj
 0001:00024110       _G_AddRandomBot            20025110 f   g_bot.obj
 0001:00024390       _G_BotConnect              20025390 f   g_bot.obj
 0001:00024480       _G_CheckBotSpawn           20025480 f   g_bot.obj
 0001:00024510       _G_CheckMinimumPlayers     20025510 f   g_bot.obj
 0001:00024690       _G_CountBotPlayers         20025690 f   g_bot.obj
 0001:00024730       _G_CountHumanPlayers       20025730 f   g_bot.obj
 0001:00024790       _G_GetArenaInfoByMap       20025790 f   g_bot.obj
 0001:000247e0       _G_GetBotInfoByName        200257e0 f   g_bot.obj
 0001:00024830       _G_InitBots                20025830 f   g_bot.obj
 0001:00024e90       _G_ParseInfos              20025e90 f   g_bot.obj
 0001:000250b0       _G_RemoveQueuedBotBegin    200260b0 f   g_bot.obj
 0001:000250e0       _G_RemoveRandomBot         200260e0 f   g_bot.obj
 0001:00025380       _Svcmd_AddBot_f            20026380 f   g_bot.obj
 0001:00025500       _Svcmd_BotList_f           20026500 f   g_bot.obj
 0001:000256c0       _trap_Cvar_VariableValue   200266c0 f   g_bot.obj
 0001:00025720       _BodySink                  20026720 f   g_client.obj
 0001:00025770       _ClientBegin               20026770 f   g_client.obj
 0001:00025930       _ClientConnect             20026930 f   g_client.obj
 0001:00025b70       _ClientDisconnect          20026b70 f   g_client.obj
 0001:00025d40       _ClientSpawn               20026d40 f   g_client.obj
 0001:000264b0       _ClientUserinfoChanged     200274b0 f   g_client.obj
 0001:000269c0       _CopyToBodyQue             200279c0 f   g_client.obj
 0001:00026cb0       _InitBodyQue               20027cb0 f   g_client.obj
 0001:00026cf0       _PickTeam                  20027cf0 f   g_client.obj
 0001:00026d40       _SP_info_player_deathmatch 20027d40 f   g_client.obj
 0001:00026da0       _SP_team_CTF_bluespawn     20027da0 f   g_team.obj
 0001:00026da0       _SP_team_CTF_redspawn      20027da0 f   g_team.obj
 0001:00026da0       _SP_misc_teleporter_dest   20027da0 f   g_misc.obj
 0001:00026da0       _BotVoiceChat_Dummy        20027da0 f   ai_vcmd.obj
 0001:00026da0       _SP_info_player_intermission 20027da0 f   g_client.obj
 0001:00026da0       _SP_item_botroam           20027da0 f   g_spawn.obj
 0001:00026da0       _SP_team_CTF_blueplayer    20027da0 f   g_team.obj
 0001:00026da0       _SP_team_CTF_redplayer     20027da0 f   g_team.obj
 0001:00026db0       _SP_info_player_start      20027db0 f   g_client.obj
 0001:00026dd0       _SelectInitialSpawnPoint   20027dd0 f   g_client.obj
 0001:00026e70       _SelectRandomFurthestSpawnPoint 20027e70 f   g_client.obj
 0001:00027180       _SelectSpawnPoint          20028180 f   g_client.obj
 0001:00027190       _SelectSpectatorSpawnPoint 20028190 f   g_client.obj
 0001:000271f0       _SetClientViewAngle        200281f0 f   g_client.obj
 0001:000272b0       _SpotWouldTelefrag         200282b0 f   g_client.obj
 0001:00027390       _TeamCount                 20028390 f   g_client.obj
 0001:000273e0       _TeamLeader                200283e0 f   g_client.obj
 0001:00027430       _respawn                   20028430 f   g_client.obj
 0001:00027470       _BroadcastTeamChange       20028470 f   g_cmds.obj
 0001:000274e0       _CheatsOk                  200284e0 f   g_cmds.obj
 0001:00027570       _ClientCommand             20028570 f   g_cmds.obj
 0001:00027bd0       _ClientNumberFromString    20028bd0 f   g_cmds.obj
 0001:00027d60       _Cmd_CallTeamVote_f        20028d60 f   g_cmds.obj
 0001:00028320       _Cmd_CallVote_f            20029320 f   g_cmds.obj
 0001:00028930       _Cmd_FollowCycle_f         20029930 f   g_cmds.obj
 0001:00028a20       _Cmd_Follow_f              20029a20 f   g_cmds.obj
 0001:00028b20       _Cmd_GameCommand_f         20029b20 f   g_cmds.obj
 0001:00028bd0       _Cmd_Give_f                20029bd0 f   g_cmds.obj
 0001:00028e50       _Cmd_God_f                 20029e50 f   g_cmds.obj
 0001:00028eb0       _Cmd_Kill_f                20029eb0 f   g_cmds.obj
 0001:00028f00       _Cmd_LevelShot_f           20029f00 f   g_cmds.obj
 0001:00028f60       _Cmd_Noclip_f              20029f60 f   g_cmds.obj
 0001:00028fd0       _Cmd_Notarget_f            20029fd0 f   g_cmds.obj
 0001:00029070       _Cmd_Score_f               2002a070 f   g_cmds.obj
 0001:00029080       _Cmd_SetViewpos_f          2002a080 f   g_cmds.obj
 0001:00029190       _Cmd_TeamTask_f            2002a190 f   g_cmds.obj
 0001:00029250       _Cmd_TeamVote_f            2002a250 f   g_cmds.obj
 0001:000293e0       _Cmd_Team_f                2002a3e0 f   g_cmds.obj
 0001:000299c0       _Cmd_Vote_f                2002a9c0 f   g_cmds.obj
 0001:00029b30       _Cmd_Where_f               2002ab30 f   g_cmds.obj
 0001:00029b80       _ConcatArgs                2002ab80 f   g_cmds.obj
 0001:00029c50       _DeathmatchScoreboardMessage 2002ac50 f   g_cmds.obj
 0001:00029e40       _G_Say                     2002ae40 f   g_cmds.obj
 0001:0002a190       _G_Voice                   2002b190 f   g_cmds.obj
 0001:0002a2f0       _SanitizeString            2002b2f0 f   g_cmds.obj
 0001:0002a340       _SetTeam                   2002b340 f   g_cmds.obj
 0001:0002a6a0       _StopFollowing             2002b6a0 f   g_cmds.obj
 0001:0002a710       _AddScore                  2002b710 f   g_combat.obj
 0001:0002a770       _CanDamage                 2002b770 f   g_combat.obj
 0001:0002aa10       _CheckAlmostCapture        2002ba10 f   g_combat.obj
 0001:0002ab20       _CheckAlmostScored         2002bb20 f   g_combat.obj
 0001:0002abe0       _CheckArmor                2002bbe0 f   g_combat.obj
 0001:0002ac60       _G_Damage                  2002bc60 f   g_combat.obj
 0001:0002b1b0       _G_InvulnerabilityEffect   2002c1b0 f   g_combat.obj
 0001:0002b330       _G_RadiusDamage            2002c330 f   g_combat.obj
 0001:0002b5b0       _GibEntity                 2002c5b0 f   g_combat.obj
 0001:0002b660       _Kamikaze_DeathActivate    2002c660 f   g_combat.obj
 0001:0002b680       _Kamikaze_DeathTimer       2002c680 f   g_combat.obj
 0001:0002b6e0       _LookAtKiller              2002c6e0 f   g_combat.obj
 0001:0002b790       _RaySphereIntersections    2002c790 f   g_combat.obj
 0001:0002b970       _ScorePlum                 2002c970 f   g_combat.obj
 0001:0002b9b0       _TossClientCubes           2002c9b0 f   g_combat.obj
 0001:0002bb80       _TossClientItems           2002cb80 f   g_combat.obj
 0001:0002bcc0       _TossClientPersistantPowerups 2002ccc0 f   g_combat.obj
 0001:0002bd20       _body_die                  2002cd20 f   g_combat.obj
 0001:0002bd60       _player_die                2002cd60 f   g_combat.obj
 0001:0002c2d0       _Add_Ammo                  2002d2d0 f   g_items.obj
 0001:0002c310       _ClearRegisteredItems      2002d310 f   g_items.obj
 0001:0002c370       _Drop_Item                 2002d370 f   g_items.obj
 0001:0002c460       _FinishSpawningItem        2002d460 f   g_items.obj
 0001:0002c6a0       _G_BounceItem              2002d6a0 f   g_items.obj
 0001:0002c880       _G_CheckTeamItems          2002d880 f   g_items.obj
 0001:0002cab0       _G_ItemDisabled            2002dab0 f   g_items.obj
 0001:0002cb00       _G_RunItem                 2002db00 f   g_items.obj
 0001:0002cc60       _G_SpawnItem               2002dc60 f   g_items.obj
 0001:0002cd20       _LaunchItem                2002dd20 f   g_items.obj
 0001:0002ce60       _Pickup_Ammo               2002de60 f   g_items.obj
 0001:0002cea0       _Pickup_Armor              2002dea0 f   g_items.obj
 0001:0002cf00       _Pickup_Health             2002df00 f   g_items.obj
 0001:0002cf90       _Pickup_Holdable           2002df90 f   g_items.obj
 0001:0002cff0       _Pickup_PersistantPowerup  2002dff0 f   g_items.obj
 0001:0002d2b0       _Pickup_Powerup            2002e2b0 f   g_items.obj
 0001:0002d4b0       _Pickup_Weapon             2002e4b0 f   g_items.obj
 0001:0002d570       _RegisterItem              2002e570 f   g_items.obj
 0001:0002d5b0       _RespawnItem               2002e5b0 f   g_items.obj
 0001:0002d6f0       _SaveRegisteredItems       2002e6f0 f   g_items.obj
 0001:0002d780       _Touch_Item                2002e780 f   g_items.obj
 0001:0002da50       _Use_Item                  2002ea50 f   g_items.obj
 0001:0002da60       _AddTournamentPlayer       2002ea60 f   g_main.obj
 0001:0002db20       _AdjustTournamentScores    2002eb20 f   g_main.obj
 0001:0002db80       _BeginIntermission         2002eb80 f   g_main.obj
 0001:0002dc20       _CalculateRanks            2002ec20 f   g_main.obj
 0001:0002df50       _CheckCvars                2002ef50 f   g_main.obj
 0001:0002dfb0       _CheckExitRules            2002efb0 f   g_main.obj
 0001:0002e170       _CheckIntermissionExit     2002f170 f   g_main.obj
 0001:0002e290       _CheckTeamLeader           2002f290 f   g_main.obj
 0001:0002e350       _CheckTeamVote             2002f350 f   g_main.obj
 0001:0002e440       _CheckTournament           2002f440 f   g_main.obj
 0001:0002e660       _CheckVote                 2002f660 f   g_main.obj
 0001:0002e710       _Com_Error                 2002f710 f   g_main.obj
 0001:0002e760       _Com_Printf                2002f760 f   g_main.obj
 0001:0002e7b0       _ExitLevel                 2002f7b0 f   g_main.obj
 0001:0002e8c0       _FindIntermissionPoint     2002f8c0 f   g_main.obj
 0001:0002e9d0       _G_Error                   2002f9d0 f   g_main.obj
 0001:0002ea20       _G_FindTeams               2002fa20 f   g_main.obj
 0001:0002eb90       _G_InitGame                2002fb90 f   g_main.obj
 0001:0002eea0       _G_LogPrintf               2002fea0 f   g_main.obj
 0001:0002ef90       _G_Printf                  2002ff90 f   g_main.obj
 0001:0002efe0       _G_RegisterCvars           2002ffe0 f   g_main.obj
 0001:0002f070       _G_RemapTeamShaders        20030070 f   g_main.obj
 0001:0002f180       _G_RunFrame                20030180 f   g_main.obj
 0001:0002f390       _G_RunThink                20030390 f   g_main.obj
 0001:0002f3f0       _G_ShutdownGame            200303f0 f   g_main.obj
 0001:0002f450       _G_UpdateCvars             20030450 f   g_main.obj
 0001:0002f4d0       _LogExit                   200304d0 f   g_main.obj
 0001:0002f640       _MoveClientToIntermission  20030640 f   g_main.obj
 0001:0002f770       _PrintTeam                 20030770 f   g_main.obj
 0001:0002f7d0       _RemoveTournamentLoser     200307d0 f   g_main.obj
 0001:0002f820       _ScoreIsTied               20030820 f   g_main.obj
 0001:0002f880       _SendScoreboardMessageToAllClients 20030880 f   g_main.obj
 0001:0002f8e0       _SetLeader                 200308e0 f   g_main.obj
 0001:0002f9e0       _SortRanks                 200309e0 f   g_main.obj
 0001:0002faa0       _vmMain                    20030aa0 f   g_main.obj
 0001:0002fb90       _G_Alloc                   20030b90 f   g_mem.obj
 0001:0002fc00       _G_InitMemory              20030c00 f   g_mem.obj
 0001:0002fc10       _Svcmd_GameMem_f           20030c10 f   g_mem.obj
 0001:0002fc30       _DropPortalDestination     20030c30 f   g_misc.obj
 0001:0002fdc0       _DropPortalSource          20030dc0 f   g_misc.obj
 0001:0002ff80       _InitShooter               20030f80 f   g_misc.obj
 0001:00030250       _SP_info_null              20031250 f   g_misc.obj
 0001:00030250       _SP_misc_model             20031250 f   g_misc.obj
 0001:00030250       _SP_light                  20031250 f   g_misc.obj
 0001:00030260       _SP_misc_portal_camera     20031260 f   g_misc.obj
 0001:000302f0       _SP_misc_portal_surface    200312f0 f   g_misc.obj
 0001:00030390       _SP_shooter_grenade        20031390 f   g_misc.obj
 0001:000303b0       _SP_shooter_plasma         200313b0 f   g_misc.obj
 0001:000303d0       _SP_shooter_rocket         200313d0 f   g_misc.obj
 0001:000303f0       _TeleportPlayer            200313f0 f   g_misc.obj
 0001:00030580       _Use_Shooter               20031580 f   g_misc.obj
 0001:000307d0       _locateCamera              200317d0 f   g_misc.obj
 0001:00030900       _G_BounceMissile           20031900 f   g_missile.obj
 0001:00030af0       _G_ExplodeMissile          20031af0 f   g_missile.obj
 0001:00030c10       _G_MissileImpact           20031c10 f   g_missile.obj
 0001:000312c0       _G_RunMissile              200322c0 f   g_missile.obj
 0001:00031740       _ProximityMine_Trigger     20032740 f   g_missile.obj
 0001:00031820       _fire_bfg                  20032820 f   g_missile.obj
 0001:00031980       _fire_grapple              20032980 f   g_missile.obj
 0001:00031ad0       _fire_grenade              20032ad0 f   g_missile.obj
 0001:00031c40       _fire_nail                 20032c40 f   g_missile.obj
 0001:00031f50       _fire_plasma               20032f50 f   g_missile.obj
 0001:000320b0       _fire_prox                 200330b0 f   g_missile.obj
 0001:00032230       _fire_rocket               20033230 f   g_missile.obj
 0001:00032390       _Blocked_Door              20033390 f   g_mover.obj
 0001:00032410       _G_CheckProxMinePosition   20033410 f   g_mover.obj
 0001:00032530       _G_CreateRotationMatrix    20033530 f   g_mover.obj
 0001:00032580       _G_MoverPush               20033580 f   g_mover.obj
 0001:00032bf0       _G_MoverTeam               20033bf0 f   g_mover.obj
 0001:00032da0       _G_RotatePoint             20033da0 f   g_mover.obj
 0001:00032e30       _G_RunMover                20033e30 f   g_mover.obj
 0001:00032e70       _G_TestEntityPosition      20033e70 f   g_mover.obj
 0001:00032f00       _G_TransposeMatrix         20033f00 f   g_mover.obj
 0001:00032f40       _G_TryPushingEntity        20033f40 f   g_mover.obj
 0001:00033320       _G_TryPushingProxMine      20034320 f   g_mover.obj
 0001:000334d0       _InitMover                 200344d0 f   g_mover.obj
 0001:00033750       _MatchTeam                 20034750 f   g_mover.obj
 0001:00033780       _Reached_BinaryMover       20034780 f   g_mover.obj
 0001:00033870       _Reached_Train             20034870 f   g_mover.obj
 0001:00033a00       _ReturnToPos1              20034a00 f   g_mover.obj
 0001:00033a40       _SP_func_bobbing           20034a40 f   g_mover.obj
 0001:00033b50       _SP_func_button            20034b50 f   g_mover.obj
 0001:00033d10       _SP_func_door              20034d10 f   g_mover.obj
 0001:00033f90       _SP_func_pendulum          20034f90 f   g_mover.obj
 0001:000340d0       _SP_func_plat              200350d0 f   g_mover.obj
 0001:00034240       _SP_func_rotating          20035240 f   g_mover.obj
 0001:00034320       _SP_func_static            20035320 f   g_mover.obj
 0001:00034380       _SP_func_train             20035380 f   g_mover.obj
 0001:00034450       _SP_path_corner            20035450 f   g_mover.obj
 0001:00034480       _SetMoverState             20035480 f   g_mover.obj
 0001:000345f0       _SpawnPlatTrigger          200355f0 f   g_mover.obj
 0001:00034780       _Think_BeginMoving         20035780 f   g_mover.obj
 0001:000347a0       _Think_MatchTeam           200357a0 f   g_mover.obj
 0001:000347c0       _Think_SetupTrainTargets   200357c0 f   g_mover.obj
 0001:000348d0       _Think_SpawnNewDoorTrigger 200358d0 f   g_mover.obj
 0001:00034ac0       _Touch_Button              20035ac0 f   g_mover.obj
 0001:00034af0       _Touch_DoorTrigger         20035af0 f   g_mover.obj
 0001:00034cb0       _Touch_Plat                20035cb0 f   g_mover.obj
 0001:00034cf0       _Touch_PlatCenterTrigger   20035cf0 f   g_mover.obj
 0001:00034d30       _Use_BinaryMover           20035d30 f   g_mover.obj
 0001:00034e60       _G_InitSessionData         20035e60 f   g_session.obj
 0001:00034f20       _G_InitWorldSession        20035f20 f   g_session.obj
 0001:00034f90       _G_ReadSessionData         20035f90 f   g_session.obj
 0001:00035060       _G_WriteClientSessionData  20036060 f   g_session.obj
 0001:000350d0       _G_WriteSessionData        200360d0 f   g_session.obj
 0001:00035130       _G_AddSpawnVarToken        20036130 f   g_spawn.obj
 0001:000351a0       _G_CallSpawn               200361a0 f   g_spawn.obj
 0001:00035290       _G_NewString               20036290 f   g_spawn.obj
 0001:00035300       _G_ParseField              20036300 f   g_spawn.obj
 0001:00035490       _G_ParseSpawnVars          20036490 f   g_spawn.obj
 0001:000355e0       _G_SpawnEntitiesFromString 200365e0 f   g_spawn.obj
 0001:00035640       _G_SpawnFloat              20036640 f   g_spawn.obj
 0001:00035670       _G_SpawnGEntityFromSpawnVars 20036670 f   g_spawn.obj
 0001:000357d0       _G_SpawnInt                200367d0 f   g_spawn.obj
 0001:00035800       _G_SpawnString             20036800 f   g_spawn.obj
 0001:00035870       _G_SpawnVector             20036870 f   g_spawn.obj
 0001:000358b0       _SP_worldspawn             200368b0 f   g_spawn.obj
 0001:00035ab0       _ClientForString           20036ab0 f   g_svcmds.obj
 0001:00035b90       _ConsoleCommand            20036b90 f   g_svcmds.obj
 0001:00035de0       _G_FilterPacket            20036de0 f   g_svcmds.obj
 0001:00035e90       _G_ProcessIPBans           20036e90 f   g_svcmds.obj
 0001:00036020       _Svcmd_AddIP_f             20037020 f   g_svcmds.obj
 0001:00036090       _Svcmd_EntityList_f        20037090 f   g_svcmds.obj
 0001:00036220       _Svcmd_ForceTeam_f         20037220 f   g_svcmds.obj
 0001:000362b0       _Svcmd_RemoveIP_f          200372b0 f   g_svcmds.obj
 0001:00036500       _PASSFLOAT                 20037500 f   g_syscalls.obj
 0001:00036520       _dllEntry                  20037520 f   g_syscalls.obj
 0001:00036530       _trap_AAS_AlternativeRouteGoals 20037530 f   g_syscalls.obj
 0001:00036560       _trap_AAS_AreaInfo         20037560 f   g_syscalls.obj
 0001:00036580       _trap_AAS_AreaReachability 20037580 f   g_syscalls.obj
 0001:000365a0       _trap_AAS_AreaTravelTimeToGoalArea 200375a0 f   g_syscalls.obj
 0001:000365c0       _trap_AAS_BBoxAreas        200375c0 f   g_syscalls.obj
 0001:000365e0       _trap_AAS_EnableRoutingArea 200375e0 f   g_syscalls.obj
 0001:00036600       _trap_AAS_EntityInfo       20037600 f   g_syscalls.obj
 0001:00036620       _trap_AAS_FloatForBSPEpairKey 20037620 f   g_syscalls.obj
 0001:00036640       _trap_AAS_Initialized      20037640 f   g_syscalls.obj
 0001:00036650       _trap_AAS_IntForBSPEpairKey 20037650 f   g_syscalls.obj
 0001:00036670       _trap_AAS_NextBSPEntity    20037670 f   g_syscalls.obj
 0001:00036690       _trap_AAS_PointAreaNum     20037690 f   g_syscalls.obj
 0001:000366b0       _trap_AAS_PointContents    200376b0 f   g_syscalls.obj
 0001:000366d0       _trap_AAS_PredictClientMovement 200376d0 f   g_syscalls.obj
 0001:00036720       _trap_AAS_PredictRoute     20037720 f   g_syscalls.obj
 0001:00036760       _trap_AAS_PresenceTypeBoundingBox 20037760 f   g_syscalls.obj
 0001:00036780       _trap_AAS_Swimming         20037780 f   g_syscalls.obj
 0001:000367a0       _trap_AAS_Time             200377a0 f   g_syscalls.obj
 0001:000367c0       _trap_AAS_TraceAreas       200377c0 f   g_syscalls.obj
 0001:000367f0       _trap_AAS_ValueForBSPEpairKey 200377f0 f   g_syscalls.obj
 0001:00036810       _trap_AAS_VectorForBSPEpairKey 20037810 f   g_syscalls.obj
 0001:00036830       _trap_AdjustAreaPortalState 20037830 f   g_syscalls.obj
 0001:00036850       _trap_Argc                 20037850 f   g_syscalls.obj
 0001:00036860       _trap_Argv                 20037860 f   g_syscalls.obj
 0001:00036880       _trap_BotAddAvoidSpot      20037880 f   g_syscalls.obj
 0001:000368b0       _trap_BotAllocChatState    200378b0 f   g_syscalls.obj
 0001:000368c0       _trap_BotAllocGoalState    200378c0 f   g_syscalls.obj
 0001:000368e0       _trap_BotAllocMoveState    200378e0 f   g_syscalls.obj
 0001:000368f0       _trap_BotAllocWeaponState  200378f0 f   g_syscalls.obj
 0001:00036900       _trap_BotAllocateClient    20037900 f   g_syscalls.obj
 0001:00036910       _trap_BotChooseBestFightWeapon 20037910 f   g_syscalls.obj
 0001:00036930       _trap_BotChooseLTGItem     20037930 f   g_syscalls.obj
 0001:00036950       _trap_BotChooseNBGItem     20037950 f   g_syscalls.obj
 0001:00036990       _trap_BotDumpAvoidGoals    20037990 f   g_syscalls.obj
 0001:000369b0       _trap_BotDumpGoalStack     200379b0 f   g_syscalls.obj
 0001:000369d0       _trap_BotEmptyGoalStack    200379d0 f   g_syscalls.obj
 0001:000369f0       _trap_BotEnterChat         200379f0 f   g_syscalls.obj
 0001:00036a10       _trap_BotFindMatch         20037a10 f   g_syscalls.obj
 0001:00036a30       _trap_BotFreeCharacter     20037a30 f   g_syscalls.obj
 0001:00036a50       _trap_BotFreeChatState     20037a50 f   g_syscalls.obj
 0001:00036a70       _trap_BotFreeGoalState     20037a70 f   g_syscalls.obj
 0001:00036a90       _trap_BotFreeMoveState     20037a90 f   g_syscalls.obj
 0001:00036ab0       _trap_BotFreeWeaponState   20037ab0 f   g_syscalls.obj
 0001:00036ad0       _trap_BotGetChatMessage    20037ad0 f   g_syscalls.obj
 0001:00036af0       _trap_BotGetLevelItemGoal  20037af0 f   g_syscalls.obj
 0001:00036b10       _trap_BotGetNextCampSpotGoal 20037b10 f   g_syscalls.obj
 0001:00036b30       _trap_BotGetSecondGoal     20037b30 f   g_syscalls.obj
 0001:00036b50       _trap_BotGetServerCommand  20037b50 f   g_syscalls.obj
 0001:00036b70       _trap_BotGetSnapshotEntity 20037b70 f   g_syscalls.obj
 0001:00036b90       _trap_BotGetTopGoal        20037b90 f   g_syscalls.obj
 0001:00036bb0       _trap_BotGetWeaponInfo     20037bb0 f   g_syscalls.obj
 0001:00036bd0       _trap_BotGoalName          20037bd0 f   g_syscalls.obj
 0001:00036bf0       _trap_BotInitMoveState     20037bf0 f   g_syscalls.obj
 0001:00036c10       _trap_BotInitialChat       20037c10 f   g_syscalls.obj
 0001:00036c50       _trap_BotInterbreedGoalFuzzyLogic 20037c50 f   g_syscalls.obj
 0001:00036c70       _trap_BotItemGoalInVisButNotVisible 20037c70 f   g_syscalls.obj
 0001:00036c90       _trap_BotLibDefine         20037c90 f   g_syscalls.obj
 0001:00036cb0       _trap_BotLibLoadMap        20037cb0 f   g_syscalls.obj
 0001:00036cd0       _trap_BotLibSetup          20037cd0 f   g_syscalls.obj
 0001:00036ce0       _trap_BotLibShutdown       20037ce0 f   g_syscalls.obj
 0001:00036cf0       _trap_BotLibStartFrame     20037cf0 f   g_syscalls.obj
 0001:00036d20       _trap_BotLibUpdateEntity   20037d20 f   g_syscalls.obj
 0001:00036d40       _trap_BotLibVarSet         20037d40 f   g_syscalls.obj
 0001:00036d60       _trap_BotLoadCharacter     20037d60 f   g_syscalls.obj
 0001:00036d90       _trap_BotLoadChatFile      20037d90 f   g_syscalls.obj
 0001:00036db0       _trap_BotLoadItemWeights   20037db0 f   g_syscalls.obj
 0001:00036dd0       _trap_BotLoadWeaponWeights 20037dd0 f   g_syscalls.obj
 0001:00036df0       _trap_BotMatchVariable     20037df0 f   g_syscalls.obj
 0001:00036e10       _trap_BotMoveInDirection   20037e10 f   g_syscalls.obj
 0001:00036e40       _trap_BotMoveToGoal        20037e40 f   g_syscalls.obj
 0001:00036e60       _trap_BotMovementViewTarget 20037e60 f   g_syscalls.obj
 0001:00036ea0       _trap_BotMutateGoalFuzzyLogic 20037ea0 f   g_syscalls.obj
 0001:00036ed0       _trap_BotNextConsoleMessage 20037ed0 f   g_syscalls.obj
 0001:00036ef0       _trap_BotNumConsoleMessages 20037ef0 f   g_syscalls.obj
 0001:00036f10       _trap_BotNumInitialChats   20037f10 f   g_syscalls.obj
 0001:00036f30       _trap_BotPopGoal           20037f30 f   g_syscalls.obj
 0001:00036f50       _trap_BotPredictVisiblePosition 20037f50 f   g_syscalls.obj
 0001:00036f80       _trap_BotPushGoal          20037f80 f   g_syscalls.obj
 0001:00036fa0       _trap_BotQueueConsoleMessage 20037fa0 f   g_syscalls.obj
 0001:00036fc0       _trap_BotRemoveConsoleMessage 20037fc0 f   g_syscalls.obj
 0001:00036fe0       _trap_BotRemoveFromAvoidGoals 20037fe0 f   g_syscalls.obj
 0001:00037000       _trap_BotReplaceSynonyms   20038000 f   g_syscalls.obj
 0001:00037020       _trap_BotReplyChat         20038020 f   g_syscalls.obj
 0001:00037060       _trap_BotResetAvoidGoals   20038060 f   g_syscalls.obj
 0001:00037080       _trap_BotResetAvoidReach   20038080 f   g_syscalls.obj
 0001:000370a0       _trap_BotResetGoalState    200380a0 f   g_syscalls.obj
 0001:000370c0       _trap_BotResetLastAvoidReach 200380c0 f   g_syscalls.obj
 0001:000370e0       _trap_BotResetMoveState    200380e0 f   g_syscalls.obj
 0001:00037100       _trap_BotResetWeaponState  20038100 f   g_syscalls.obj
 0001:00037120       _trap_BotSaveGoalFuzzyLogic 20038120 f   g_syscalls.obj
 0001:00037140       _trap_BotSetAvoidGoalTime  20038140 f   g_syscalls.obj
 0001:00037170       _trap_BotSetChatGender     20038170 f   g_syscalls.obj
 0001:00037190       _trap_BotSetChatName       20038190 f   g_syscalls.obj
 0001:000371b0       _trap_BotTouchingGoal      200381b0 f   g_syscalls.obj
 0001:000371d0       _trap_BotUpdateEntityItems 200381d0 f   g_syscalls.obj
 0001:000371e0       _trap_BotUserCommand       200381e0 f   g_syscalls.obj
 0001:00037200       _trap_Characteristic_BFloat 20038200 f   g_syscalls.obj
 0001:00037250       _trap_Characteristic_BInteger 20038250 f   g_syscalls.obj
 0001:00037270       _trap_Characteristic_String 20038270 f   g_syscalls.obj
 0001:00037290       _trap_Cvar_Register        20038290 f   g_syscalls.obj
 0001:000372b0       _trap_Cvar_Set             200382b0 f   g_syscalls.obj
 0001:000372d0       _trap_Cvar_Update          200382d0 f   g_syscalls.obj
 0001:000372f0       _trap_Cvar_VariableIntegerValue 200382f0 f   g_syscalls.obj
 0001:00037310       _trap_Cvar_VariableStringBuffer 20038310 f   g_syscalls.obj
 0001:00037330       _trap_DropClient           20038330 f   g_syscalls.obj
 0001:00037350       _trap_EA_Action            20038350 f   g_syscalls.obj
 0001:00037370       _trap_EA_Attack            20038370 f   g_syscalls.obj
 0001:00037390       _trap_EA_Command           20038390 f   g_syscalls.obj
 0001:000373b0       _trap_EA_Crouch            200383b0 f   g_syscalls.obj
 0001:000373d0       _trap_EA_Gesture           200383d0 f   g_syscalls.obj
 0001:000373f0       _trap_EA_GetInput          200383f0 f   g_syscalls.obj
 0001:00037420       _trap_EA_ResetInput        20038420 f   g_syscalls.obj
 0001:00037440       _trap_EA_Respawn           20038440 f   g_syscalls.obj
 0001:00037460       _trap_EA_SayTeam           20038460 f   g_syscalls.obj
 0001:00037480       _trap_EA_SelectWeapon      20038480 f   g_syscalls.obj
 0001:000374a0       _trap_EA_Talk              200384a0 f   g_syscalls.obj
 0001:000374c0       _trap_EA_Use               200384c0 f   g_syscalls.obj
 0001:000374e0       _trap_EA_View              200384e0 f   g_syscalls.obj
 0001:00037500       _trap_EntitiesInBox        20038500 f   g_syscalls.obj
 0001:00037520       _trap_EntityContact        20038520 f   g_syscalls.obj
 0001:00037540       _trap_Error                20038540 f   g_syscalls.obj
 0001:00037560       _trap_FS_FCloseFile        20038560 f   g_syscalls.obj
 0001:00037580       _trap_FS_FOpenFile         20038580 f   g_syscalls.obj
 0001:000375a0       _trap_FS_GetFileList       200385a0 f   g_syscalls.obj
 0001:000375c0       _trap_FS_Read              200385c0 f   g_syscalls.obj
 0001:000375e0       _trap_FS_Write             200385e0 f   g_syscalls.obj
 0001:00037600       _trap_GeneticParentsAndChildSelection 20038600 f   g_syscalls.obj
 0001:00037630       _trap_GetConfigstring      20038630 f   g_syscalls.obj
 0001:00037650       _trap_GetEntityToken       20038650 f   g_syscalls.obj
 0001:00037670       _trap_GetServerinfo        20038670 f   g_syscalls.obj
 0001:00037690       _trap_GetUsercmd           20038690 f   g_syscalls.obj
 0001:000376b0       _trap_GetUserinfo          200386b0 f   g_syscalls.obj
 0001:000376d0       _trap_InPVS                200386d0 f   g_syscalls.obj
 0001:000376f0       _trap_LinkEntity           200386f0 f   g_syscalls.obj
 0001:00037710       _trap_LocateGameData       20038710 f   g_syscalls.obj
 0001:00037730       _trap_Milliseconds         20038730 f   g_syscalls.obj
 0001:00037740       _trap_PointContents        20038740 f   g_syscalls.obj
 0001:00037760       _trap_Printf               20038760 f   g_syscalls.obj
 0001:00037780       _trap_SendConsoleCommand   20038780 f   g_syscalls.obj
 0001:000377a0       _trap_SendServerCommand    200387a0 f   g_syscalls.obj
 0001:000377c0       _trap_SetBrushModel        200387c0 f   g_syscalls.obj
 0001:000377e0       _trap_SetConfigstring      200387e0 f   g_syscalls.obj
 0001:00037800       _trap_SetUserinfo          20038800 f   g_syscalls.obj
 0001:00037820       _trap_SnapVector           20038820 f   g_syscalls.obj
 0001:00037840       _trap_Trace                20038840 f   g_syscalls.obj
 0001:00037870       _trap_UnifyWhiteSpaces     20038870 f   g_syscalls.obj
 0001:00037890       _trap_UnlinkEntity         20038890 f   g_syscalls.obj
 0001:000378b0       _SP_target_delay           200388b0 f   g_target.obj
 0001:00037910       _SP_target_give            20038910 f   g_target.obj
 0001:00037930       _SP_target_kill            20038930 f   g_target.obj
 0001:00037950       _SP_target_laser           20038950 f   g_target.obj
 0001:00037970       _SP_target_location        20038970 f   g_target.obj
 0001:000379a0       _SP_info_camp              200389a0 f   g_misc.obj
 0001:000379a0       _SP_target_position        200389a0 f   g_target.obj
 0001:000379a0       _SP_info_notnull           200389a0 f   g_misc.obj
 0001:000379c0       _SP_target_print           200389c0 f   g_target.obj
 0001:000379e0       _SP_target_relay           200389e0 f   g_target.obj
 0001:00037a00       _SP_target_remove_powerups 20038a00 f   g_target.obj
 0001:00037a20       _SP_target_score           20038a20 f   g_target.obj
 0001:00037a50       _SP_target_speaker         20038a50 f   g_target.obj
 0001:00037bb0       _SP_target_teleporter      20038bb0 f   g_target.obj
 0001:00037bf0       _Think_Target_Delay        20038bf0 f   g_target.obj
 0001:00037c10       _Use_Target_Delay          20038c10 f   g_target.obj
 0001:00037ca0       _Use_Target_Give           20038ca0 f   g_target.obj
 0001:00037d50       _Use_Target_Print          20038d50 f   g_target.obj
 0001:00037e20       _Use_Target_Score          20038e20 f   g_target.obj
 0001:00037e40       _Use_Target_Speaker        20038e40 f   g_target.obj
 0001:00037eb0       _Use_target_remove_powerups 20038eb0 f   g_target.obj
 0001:00037f10       _target_kill_use           20038f10 f   g_target.obj
 0001:00037f40       _target_laser_off          20038f40 f   g_target.obj
 0001:00037f60       _target_laser_on           20038f60 f   g_target.obj
 0001:00037f90       _target_laser_start        20038f90 f   g_target.obj
 0001:00038050       _target_laser_think        20039050 f   g_target.obj
 0001:00038240       _target_laser_use          20039240 f   g_target.obj
 0001:00038310       _target_relay_use          20039310 f   g_target.obj
 0001:00038390       _target_teleporter_use     20039390 f   g_target.obj
 0001:000383e0       _AddTeamScore              200393e0 f   g_team.obj
 0001:000384b0       _CheckObeliskAttack        200394b0 f   g_team.obj
 0001:00038580       _CheckTeamStatus           20039580 f   g_team.obj
 0001:000389e0       _OnSameTeam                200399e0 f   g_team.obj
 0001:00038a20       _OtherTeam                 20039a20 f   g_team.obj
 0001:00038a40       _Pickup_Team               20039a40 f   g_team.obj
 0001:00038bb0       _PrintMsg                  20039bb0 f   g_team.obj
 0001:00038c80       _SP_team_blueobelisk       20039c80 f   g_team.obj
 0001:00038d10       _SP_team_neutralobelisk    20039d10 f   g_team.obj
 0001:00038d80       _SP_team_redobelisk        20039d80 f   g_team.obj
 0001:00038e10       _SelectCTFSpawnPoint       20039e10 f   g_team.obj
 0001:00038e80       _SelectRandomTeamSpawnPoint 20039e80 f   g_team.obj
 0001:00038f60       _SpawnObelisk              20039f60 f   g_team.obj
 0001:00039170       _TeamName                  2003a170 f   g_team.obj
 0001:000391a0       _Team_CaptureFlagSound     2003a1a0 f   g_team.obj
 0001:000391e0       _Team_CheckDroppedItem     2003a1e0 f   g_team.obj
 0001:00039230       _Team_CheckHurtCarrier     2003a230 f   g_team.obj
 0001:000392c0       _Team_DroppedFlagThink     2003a2c0 f   g_team.obj
 0001:00039310       _Team_ForceGesture         2003a310 f   g_team.obj
 0001:00039350       _Team_FragBonuses          2003a350 f   g_team.obj
 0001:000399a0       _Team_FreeEntity           2003a9a0 f   g_team.obj
 0001:000399f0       _Team_GetLocation          2003a9f0 f   g_team.obj
 0001:00039ad0       _Team_GetLocationMsg       2003aad0 f   g_team.obj
 0001:00039b60       _Team_InitGame             2003ab60 f   g_team.obj
 0001:00039be0       _Team_ResetFlag            2003abe0 f   g_team.obj
 0001:00039c80       _Team_ResetFlags           2003ac80 f   g_team.obj
 0001:00039cb0       _Team_ReturnFlag           2003acb0 f   g_team.obj
 0001:00039d00       _Team_ReturnFlagSound      2003ad00 f   g_team.obj
 0001:00039d50       _Team_SetFlagStatus        2003ad50 f   g_team.obj
 0001:00039e00       _Team_TakeFlagSound        2003ae00 f   g_team.obj
 0001:00039ea0       _Team_TouchEnemyFlag       2003aea0 f   g_team.obj
 0001:00039f70       _Team_TouchOurFlag         2003af70 f   g_team.obj
 0001:0003a250       _TeamplayInfoMessage       2003b250 f   g_team.obj
 0001:0003a480       _AimAtTarget               2003b480 f   g_trigger.obj
 0001:0003a5e0       _InitTrigger               2003b5e0 f   g_trigger.obj
 0001:0003a660       _SP_func_timer             2003b660 f   g_trigger.obj
 0001:0003a710       _SP_target_push            2003b710 f   g_trigger.obj
 0001:0003a810       _SP_trigger_always         2003b810 f   g_trigger.obj
 0001:0003a840       _SP_trigger_hurt           2003b840 f   g_trigger.obj
 0001:0003a8b0       _SP_trigger_multiple       2003b8b0 f   g_trigger.obj
 0001:0003a940       _SP_trigger_push           2003b940 f   g_trigger.obj
 0001:0003a9a0       _SP_trigger_teleport       2003b9a0 f   g_trigger.obj
 0001:0003a9f0       _Touch_Multi               2003b9f0 f   g_trigger.obj
 0001:0003aa10       _Use_Multi                 2003ba10 f   g_trigger.obj
 0001:0003aa30       _Use_target_push           2003ba30 f   g_trigger.obj
 0001:0003aaa0       _func_timer_think          2003baa0 f   g_trigger.obj
 0001:0003ab30       _func_timer_use            2003bb30 f   g_trigger.obj
 0001:0003ab60       _hurt_touch                2003bb60 f   g_trigger.obj
 0001:0003abe0       _hurt_use                  2003bbe0 f   g_trigger.obj
 0001:0003ac10       _multi_trigger             2003bc10 f   g_trigger.obj
 0001:0003ad20       _multi_wait                2003bd20 f   g_trigger.obj
 0001:0003ad40       _trigger_always_think      2003bd40 f   g_trigger.obj
 0001:0003ad60       _trigger_push_touch        2003bd60 f   g_trigger.obj
 0001:0003ad80       _trigger_teleporter_touch  2003bd80 f   g_trigger.obj
 0001:0003adf0       _AddRemap                  2003bdf0 f   g_utils.obj
 0001:0003aec0       _BuildShaderStateConfig    2003bec0 f   g_utils.obj
 0001:0003af70       _G_AddEvent                2003bf70 f   g_utils.obj
 0001:0003b020       _G_AddPredictableEvent     2003c020 f   g_utils.obj
 0001:0003b050       _G_EntitiesFree            2003c050 f   g_utils.obj
 0001:0003b080       _G_Find                    2003c080 f   g_utils.obj
 0001:0003b110       _G_FindConfigstringIndex   2003c110 f   g_utils.obj
 0001:0003b210       _G_FreeEntity              2003c210 f   g_utils.obj
 0001:0003b260       _G_InitGentity             2003c260 f   g_utils.obj
 0001:0003b2b0       _G_KillBox                 2003c2b0 f   g_utils.obj
 0001:0003b3b0       _G_ModelIndex              2003c3b0 f   g_utils.obj
 0001:0003b3d0       _G_PickTarget              2003c3d0 f   g_utils.obj
 0001:0003b460       _G_SetMovedir              2003c460 f   g_utils.obj
 0001:0003b550       _G_SetOrigin               2003c550 f   g_utils.obj
 0001:0003b5b0       _G_Sound                   2003c5b0 f   g_utils.obj
 0001:0003b5e0       _G_SoundIndex              2003c5e0 f   g_utils.obj
 0001:0003b600       _G_Spawn                   2003c600 f   g_utils.obj
 0001:0003b700       _G_TeamCommand             2003c700 f   g_utils.obj
 0001:0003b770       _G_TempEntity              2003c770 f   g_utils.obj
 0001:0003b800       _G_UseTargets              2003c800 f   g_utils.obj
 0001:0003b8e0       _vectoyaw                  2003c8e0 f   g_utils.obj
 0001:0003b990       _vtos                      2003c990 f   g_utils.obj
 0001:0003b9e0       _BFG_Fire                  2003c9e0 f   g_weapon.obj
 0001:0003ba40       _Bullet_Fire               2003ca40 f   g_weapon.obj
 0001:0003bde0       _CalcMuzzlePoint           2003cde0 f   g_weapon.obj
 0001:0003be90       _CalcMuzzlePointOrigin     2003ce90 f   g_weapon.obj
 0001:0003bf40       _CheckGauntletAttack       2003cf40 f   g_weapon.obj
 0001:0003c130       _FireWeapon                2003d130 f   g_weapon.obj
 0001:0003c310       _G_BounceProjectile        2003d310 f   g_weapon.obj
 0001:0003c400       _G_StartKamikaze           2003d400 f   g_weapon.obj
 0001:0003cd80       _LogAccuracyHit            2003dd80 f   g_weapon.obj
 0001:0003cdd0       _ShotgunPattern            2003ddd0 f   g_weapon.obj
 0001:0003cf80       _ShotgunPellet             2003df80 f   g_weapon.obj
 0001:0003d130       _SnapVectorTowards         2003e130 f   g_weapon.obj
 0001:0003d170       _Weapon_GrapplingHook_Fire 2003e170 f   g_weapon.obj
 0001:0003d1c0       _Weapon_HookFree           2003e1c0 f   g_weapon.obj
 0001:0003d200       _Weapon_HookThink          2003e200 f   g_weapon.obj
 0001:0003d350       _Weapon_LightningFire      2003e350 f   g_weapon.obj
 0001:0003d660       _Weapon_Nailgun_Fire       2003e660 f   g_weapon.obj
 0001:0003d6d0       _Weapon_Plasmagun_Fire     2003e6d0 f   g_weapon.obj
 0001:0003d730       _Weapon_RocketLauncher_Fire 2003e730 f   g_weapon.obj
 0001:0003d790       _weapon_grenadelauncher_fire 2003e790 f   g_weapon.obj
 0001:0003d810       _weapon_proxlauncher_fire  2003e810 f   g_weapon.obj
 0001:0003d890       _weapon_railgun_fire       2003e890 f   g_weapon.obj
 0001:0003dce0       _weapon_supershotgun_fire  2003ece0 f   g_weapon.obj
 0001:0003dda0       _AddPointToBounds          2003eda0 f   q_math.obj
 0001:0003de20       _AngleMod                  2003ee20 f   q_math.obj
 0001:0003de60       _AngleNormalize180         2003ee60 f   q_math.obj
 0001:0003dea0       _AngleNormalize360         2003eea0 f   q_math.obj
 0001:0003def0       _AngleVectors              2003eef0 f   q_math.obj
 0001:0003e0b0       _DirToByte                 2003f0b0 f   q_math.obj
 0001:0003e120       _PerpendicularVector       2003f120 f   q_math.obj
 0001:0003e1f0       _ProjectPointOnPlane       2003f1f0 f   q_math.obj
 0001:0003e2a0       _Q_crandom                 2003f2a0 f   q_math.obj
 0001:0003e2e0       _Q_rand                    2003f2e0 f   q_math.obj
 0001:0003e300       _Q_random                  2003f300 f   q_math.obj
 0001:0003e330       _RadiusFromBounds          2003f330 f   q_math.obj
 0001:0003e3f0       _VectorNormalize           2003f3f0 f   q_math.obj
 0001:0003e4b0       _VectorNormalize2          2003f4b0 f   q_math.obj
 0001:0003e560       _vectoangles               2003f560 f   q_math.obj
 0001:0003e6e0       _COM_Parse                 2003f6e0 f   q_shared.obj
 0001:0003e700       _COM_ParseExt              2003f700 f   q_shared.obj
 0001:0003e860       _Com_sprintf               2003f860 f   q_shared.obj
 0001:0003e8f0       _Info_RemoveKey            2003f8f0 f   q_shared.obj
 0001:0003ea00       _Info_SetValueForKey       2003fa00 f   q_shared.obj
 0001:0003ebb0       _Info_Validate             2003fbb0 f   q_shared.obj
 0001:0003ebe0       _Info_ValueForKey          2003fbe0 f   q_shared.obj
 0001:0003ed00       _Q_CleanStr                2003fd00 f   q_shared.obj
 0001:0003ed50       _Q_strcat                  2003fd50 f   q_shared.obj
 0001:0003eda0       _Q_stricmp                 2003fda0 f   q_shared.obj
 0001:0003edd0       _Q_stricmpn                2003fdd0 f   q_shared.obj
 0001:0003ee50       _Q_strncmp                 2003fe50 f   q_shared.obj
 0001:0003eea0       _Q_strncpyz                2003fea0 f   q_shared.obj
 0001:0003ef00       _Q_strrchr                 2003ff00 f   q_shared.obj
 0001:0003ef80       _va                        2003ff80 f   q_shared.obj
 0001:0003efc0       _strncpy                   2003ffc0 f   LIBCMT:strncpy.obj
 0001:0003f0e4       _atoi                      200400e4 f   LIBCMT:atox.obj
 0001:0003f0ed       _atol                      200400ed f   LIBCMT:atox.obj
 0001:0003f101       _rand                      20040101 f   LIBCMT:rand.obj
 0001:0003f124       _srand                     20040124 f   LIBCMT:rand.obj
 0001:0003f134       @__security_check_cookie@4 20040134 f   LIBCMT:secchk.obj
 0001:0003f143       __fpmath                   20040143 f   LIBCMT:fpinit.obj
 0001:0003f15a       __cfltcvt_init             2004015a f   LIBCMT:fpinit.obj
 0001:0003f1ba       ??0_LocaleUpdate@@QAE@PAUlocaleinfo_struct@@@Z 200401ba f i LIBCMT:atof.obj
 0001:0003f242       __atof_l                   20040242 f   LIBCMT:atof.obj
 0001:0003f2de       _atof                      200402de f   LIBCMT:atof.obj
 0001:0003f2ef       _sscanf                    200402ef f   LIBCMT:sscanf.obj
 0001:0003f380       __libm_sse2_sqrt_precise   20040380 f   LIBCMT:sqrt_sse2_precise.obj
 0001:0003f480       _memset                    20040480 f   LIBCMT:memset.obj
 0001:0003f510       _memmove                   20040510 f   LIBCMT:memmove.obj
 0001:0003fb60       _strstr                    20040b60 f   LIBCMT:strstr.obj
 0001:0003fdc3       __toupper_l                20040dc3 f   LIBCMT:toupper.obj
 0001:0003ff05       _toupper                   20040f05 f   LIBCMT:toupper.obj
 0001:0003ff31       __vsprintf_l               20040f31 f   LIBCMT:vsprintf.obj
 0001:0003ffb3       _vsprintf                  20040fb3 f   LIBCMT:vsprintf.obj
 0001:0003ffd0       _strchr                    20040fd0 f   LIBCMT:strchr.obj
 0001:0004003e       ___from_strstr_to_strchr   2004103e     LIBCMT:strchr.obj
 0001:00040100       _memcpy                    20041100 f   LIBCMT:memcpy.obj
 0001:00040750       __libm_sse2_cos_precise    20041750 f   LIBCMT:cos_sse2_precise.obj
 0001:00040910       __libm_sse2_sin_precise    20041910 f   LIBCMT:sin_sse2_precise.obj
 0001:00040ae0       __alloca_probe             20041ae0     LIBCMT:chkstk.obj
 0001:00040ae0       __chkstk                   20041ae0 f   LIBCMT:chkstk.obj
 0001:00040b0b       ___raise_securityfailure   20041b0b f   LIBCMT:gs_report.obj
 0001:00040b48       ___report_gsfailure        20041b48 f   LIBCMT:gs_report.obj
 0001:00040c41       ___report_rangecheckfailure 20041c41 f   LIBCMT:gs_report.obj
 0001:00040c4d       ___report_securityfailure  20041c4d f   LIBCMT:gs_report.obj
 0001:00040d1b       __tolower_l                20041d1b f   LIBCMT:tolower.obj
 0001:00040e5c       _tolower                   20041e5c f   LIBCMT:tolower.obj
 0001:00040e90       _ceil                      20041e90 f   LIBCMT:ceil_pentium4.obj
 0001:00040ed0       __ceil_pentium4            20041ed0 f   LIBCMT:ceil_pentium4.obj
 0001:00040fb0       __ftol2_sse                20041fb0 f   LIBCMT:ftol2.obj
 0001:00040fb9       __ftol2_pentium4           20041fb9 f   LIBCMT:ftol2.obj
 0001:00040fcc       __ftol2_sse_excpt          20041fcc f   LIBCMT:ftol2.obj
 0001:00040fe6       __ftol2                    20041fe6 f   LIBCMT:ftol2.obj
 0001:00041060       _qsort                     20042060 f   LIBCMT:qsort.obj
 0001:0004138c       ___isa_available_init      2004238c f   LIBCMT:cpu_disp.obj
 0001:000414d0       _atan2                     200424d0 f   LIBCMT:87ctriga.obj
 0001:000414da       __CIatan2                  200424da f   LIBCMT:87ctriga.obj
 0001:000414e4       __CRT_INIT@12              200424e4 f   LIBCMT:dllcrt0.obj
 0001:00041656       __DllMainCRTStartup@12     20042656 f   LIBCMT:dllcrt0.obj
 0001:00041787       ___DllXcptFilter           20042787 f   LIBCMT:dllcrt0.obj
 0001:000419d0       _strtol                    200429d0 f   LIBCMT:strtol.obj
 0001:000419fa       __freefls@4                200429fa f   LIBCMT:tidtable.obj
 0001:00041b31       __freeptd                  20042b31 f   LIBCMT:tidtable.obj
 0001:00041b67       __getptd                   20042b67 f   LIBCMT:tidtable.obj
 0001:00041b7f       __getptd_noexit            20042b7f f   LIBCMT:tidtable.obj
 0001:00041bee       __initptd                  20042bee f   LIBCMT:tidtable.obj
 0001:00041ca1       __mtinit                   20042ca1 f   LIBCMT:tidtable.obj
 0001:00041d17       __mtterm                   20042d17 f   LIBCMT:tidtable.obj
 0001:00041d34       __cfltcvt                  20042d34 f   LIBCMT:cvt.obj
 0001:00041d55       __cfltcvt_l                20042d55 f   LIBCMT:cvt.obj
 0001:00041ddb       __cftoa_l                  20042ddb f   LIBCMT:cvt.obj
 0001:00042135       __cftoe                    20043135 f   LIBCMT:cvt.obj
 0001:000422a2       __cftoe_l                  200432a2 f   LIBCMT:cvt.obj
 0001:00042458       __cftof_l                  20043458 f   LIBCMT:cvt.obj
 0001:00042517       __cftog_l                  20043517 f   LIBCMT:cvt.obj
 0001:00042614       __cropzeros                20043614 f   LIBCMT:cvt.obj
 0001:00042625       __cropzeros_l              20043625 f   LIBCMT:cvt.obj
 0001:000426a3       __fassign                  200436a3 f   LIBCMT:cvt.obj
 0001:000426bb       __fassign_l                200436bb f   LIBCMT:cvt.obj
 0001:000426fb       __forcdecpt                200436fb f   LIBCMT:cvt.obj
 0001:0004270c       __forcdecpt_l              2004370c f   LIBCMT:cvt.obj
 0001:0004277e       __positive                 2004377e f   LIBCMT:cvt.obj
 0001:000427c0       __setdefaultprecision      200437c0 f   LIBCMT:fp8.obj
 0001:000427e7       __initp_misc_cfltcvt_tab   200437e7 f   LIBCMT:cmiscdat.obj
 0001:00042806       __call_reportfault         20043806 f   LIBCMT:invarg.obj
 0001:00042929       __initp_misc_invarg        20043929 f   LIBCMT:invarg.obj
 0001:00042936       __invalid_parameter        20043936 f   LIBCMT:invarg.obj
 0001:00042961       __invalid_parameter_noinfo 20043961 f   LIBCMT:invarg.obj
 0001:00042971       __invoke_watson            20043971 f   LIBCMT:invarg.obj
 0001:0004299c       ___doserrno                2004399c f   LIBCMT:dosmap.obj
 0001:000429af       __dosmaperr                200439af f   LIBCMT:dosmap.obj
 0001:000429d0       __errno                    200439d0 f   LIBCMT:dosmap.obj
 0001:000429e3       __get_errno_from_oserr     200439e3 f   LIBCMT:dosmap.obj
 0001:00042a24       __fltin2                   20043a24 f   LIBCMT:cfin.obj
 0001:00042ac9       ___strgtold12_l            20043ac9 f   LIBCMT:strgtold.obj
 0001:00043245       ___addlocaleref            20044245 f   LIBCMT:localref.obj
 0001:000432d5       ___freetlocinfo            200442d5 f   LIBCMT:localref.obj
 0001:0004342f       ___removelocaleref         2004442f f   LIBCMT:localref.obj
 0001:000434ca       ___updatetlocinfo          200444ca f   LIBCMT:localref.obj
 0001:00043546       __updatetlocinfoEx_nolock  20044546 f   LIBCMT:localref.obj
 0001:00043591       ___initmbctable            20044591 f   LIBCMT:mbctype.obj
 0001:0004384c       ___updatetmbcinfo          2004484c f   LIBCMT:mbctype.obj
 0001:000438f1       __setmbcp                  200448f1 f   LIBCMT:mbctype.obj
 0001:00043a9f       __setmbcp_nolock           20044a9f f   LIBCMT:mbctype.obj
 0001:00043c94       __isctype_l                20044c94 f   LIBCMT:isctype.obj
 0001:00043d50       _strlen                    20044d50 f   LIBCMT:strlen.obj
 0001:00043e7d       __input_l                  20044e7d f   LIBCMT:input.obj
 0001:00044f99       ___libm_error_support      20045f99 f   LIBCMT:libm_error.obj
 0001:00045290       __CIsqrt                   20046290 f   LIBCMT:sqrt.obj
 0001:000452a4       _sqrt                      200462a4     LIBCMT:sqrt.obj
 0001:0004534a       __VEC_memset               2004634a f   LIBCMT:p4_memset.obj
 0001:00045412       __isleadbyte_l             20046412 f i LIBCMT:_wctype.obj
 0001:00045448       _isleadbyte                20046448 f i LIBCMT:_wctype.obj
 0001:00045642       ___crtLCMapStringA         20046642 f   LIBCMT:a_map.obj
 0001:00045686       __freea                    20046686 f i LIBCMT:a_map.obj
 0001:000456a4       __locterm                  200466a4 f   LIBCMT:wsetloca.obj
 0001:000456f6       __flsbuf                   200466f6 f   LIBCMT:_flsbuf.obj
 0001:00045843       __output_l                 20046843 f   LIBCMT:output.obj
 0001:000464c0       _cos                       200474c0 f   LIBCMT:cos.obj
 0001:00046500       __CIcos                    20047500 f   LIBCMT:cos.obj
 0001:0004653b       __CIcos_default            2004753b f   LIBCMT:cos.obj
 0001:0004654f       __cos_default              2004754f     LIBCMT:cos.obj
 0001:000465f0       _sin                       200475f0 f   LIBCMT:sin.obj
 0001:00046630       __CIsin                    20047630 f   LIBCMT:sin.obj
 0001:0004666b       __CIsin_default            2004766b f   LIBCMT:sin.obj
 0001:0004667f       __sin_default              2004767f     LIBCMT:sin.obj
 0001:00046719       __crt_debugger_hook        20047719 f   LIBCMT:dbghook.obj
 0001:00046721       ___crtFlsAlloc             20047721 f   LIBCMT:winapisupp.obj
 0001:0004673f       ___crtFlsFree              2004773f f   LIBCMT:winapisupp.obj
 0001:0004675e       ___crtFlsGetValue          2004775e f   LIBCMT:winapisupp.obj
 0001:0004677d       ___crtFlsSetValue          2004777d f   LIBCMT:winapisupp.obj
 0001:0004679f       ___crtIsPackagedApp        2004779f f   LIBCMT:winapisupp.obj
 0001:000467dd       ___crtLoadWinApiPointers   200477dd f   LIBCMT:winapisupp.obj
 0001:00046a1c       ___crtTerminateProcess     20047a1c f   LIBCMT:winapisupp.obj
 0001:00046a31       ___crtUnhandledException   20047a31 f   LIBCMT:winapisupp.obj
 0001:00046a47       __sse2_mathfcns_init       20047a47 f   LIBCMT:mathfcns.obj
 0001:00046a56       __ceil_default             20047a56 f   LIBCMT:ceil.obj
 0001:00046b4c       __fFATN2                   20047b4c     LIBCMT:87triga.obj
 0001:00046b9c       __rtpiby2                  20047b9c     LIBCMT:87triga.obj
 0001:00046be0       __cintrindisp2             20047be0 f   LIBCMT:87cdisp.obj
 0001:00046c1e       __cintrindisp1             20047c1e f   LIBCMT:87cdisp.obj
 0001:00046c5b       __ctrandisp2               20047c5b f   LIBCMT:87cdisp.obj
 0001:00046dea       __ctrandisp1               20047dea f   LIBCMT:87cdisp.obj
 0001:00046e1d       __fload                    20047e1d f   LIBCMT:87cdisp.obj
 0001:00046e59       __XcptFilter               20047e59 f   LIBCMT:winxfltr.obj
 0001:00046fb4       ___CppXcptFilter           20047fb4 f   LIBCMT:winxfltr.obj
 0001:00046fd2       ___crtCorExitProcess       20047fd2 f   LIBCMT:crt0dat.obj
 0001:00047004       ___crtExitProcess          20048004 f   LIBCMT:crt0dat.obj
 0001:0004701a       ___freeCrtMemory           2004801a f   LIBCMT:crt0dat.obj
 0001:0004712a       __amsg_exit                2004812a f   LIBCMT:crt0dat.obj
 0001:00047146       __cexit                    20048146 f   LIBCMT:crt0dat.obj
 0001:00047155       __cinit                    20048155 f   LIBCMT:crt0dat.obj
 0001:000471e6       __exit                     200481e6 f   LIBCMT:crt0dat.obj
 0001:000471fa       __init_pointers            200481fa f   LIBCMT:crt0dat.obj
 0001:0004724e       __initterm_e               2004824e f   LIBCMT:crt0dat.obj
 0001:00047270       __lockexit                 20048270 f   LIBCMT:crt0dat.obj
 0001:00047279       __unlockexit               20048279 f   LIBCMT:crt0dat.obj
 0001:000473b1       __heap_init                200483b1 f   LIBCMT:heapinit.obj
 0001:000473c6       __heap_term                200483c6 f   LIBCMT:heapinit.obj
 0001:000473ce       __ioinit                   200483ce f   LIBCMT:ioinit.obj
 0001:0004767c       __ioterm                   2004867c f   LIBCMT:ioinit.obj
 0001:000476ce       __setargv                  200486ce f   LIBCMT:stdargv.obj
 0001:000478fb       __setenvp                  200488fb f   LIBCMT:stdenvp.obj
 0001:000479dc       _free                      200489dc f   LIBCMT:free.obj
 0001:00047a14       ___security_init_cookie    20048a14 f   LIBCMT:gs_support.obj
 0001:00047aae       _DllMain@12                20048aae f   LIBCMT:dllmain.obj
 0001:00047ab4       ___crtGetEnvironmentStringsA 20048ab4 f   LIBCMT:a_env.obj
 0001:00047b3f       __calloc_crt               20048b3f f   LIBCMT:crtheap.obj
 0001:00047b89       __malloc_crt               20048b89 f   LIBCMT:crtheap.obj
 0001:00047bd2       __realloc_crt              20048bd2 f   LIBCMT:crtheap.obj
 0001:00047c1e       __recalloc_crt             20048c1e f   LIBCMT:crtheap.obj
 0001:00047c6e       __RTC_Initialize           20048c6e f   LIBCMT:initsect.obj
 0001:00047c8e       __RTC_Terminate            20048c8e f   LIBCMT:initsect.obj
 0001:00047cb0       __SEH_prolog4              20048cb0 f   LIBCMT:sehprolg4.obj
 0001:00047cf5       __SEH_epilog4              20048cf5 f   LIBCMT:sehprolg4.obj
 0001:00047d10       __except_handler4          20048d10 f   LIBCMT:chandler4.obj
 0001:00047eb0       __allmul                   20048eb0 f   LIBCMT:llmul.obj
 0001:00047ef0       __aulldvrm                 20048ef0 f   LIBCMT:ulldvrm.obj
 0001:00047f85       __lock                     20048f85 f   LIBCMT:mlock.obj
 0001:00047fb9       __mtdeletelocks            20048fb9 f   LIBCMT:mlock.obj
 0001:0004800d       __mtinitlocknum            2004900d f   LIBCMT:mlock.obj
 0001:000480b4       __mtinitlocks              200490b4 f   LIBCMT:mlock.obj
 0001:000480e9       __unlock                   200490e9 f   LIBCMT:mlock.obj
 0001:000480fe       __isdigit_l                200490fe f i LIBCMT:_ctype.obj
 0001:0004814e       __isspace_l                2004914e f i LIBCMT:_ctype.obj
 0001:0004819e       __isxdigit_l               2004919e f i LIBCMT:_ctype.obj
 0001:000481f4       _isdigit                   200491f4 f i LIBCMT:_ctype.obj
 0001:0004821f       _isspace                   2004921f f i LIBCMT:_ctype.obj
 0001:0004824a       _isxdigit                  2004924a f i LIBCMT:_ctype.obj
 0001:00048277       _strcpy_s                  20049277 f   LIBCMT:strcpy_s.obj
 0001:000482d0       _strrchr                   200492d0 f   LIBCMT:strrchr.obj
 0001:00048407       __fptostr                  20049407 f   LIBCMT:_fptostr.obj
 0001:000484b7       __atodbl_l                 200494b7 f   LIBCMT:atodbl.obj
 0001:00048543       __atoflt_l                 20049543 f   LIBCMT:atodbl.obj
 0001:000485cf       ___dtold                   200495cf f   LIBCMT:cfout.obj
 0001:00048695       __fltout2                  20049695 f   LIBCMT:cfout.obj
 0001:00048730       __alldvrm                  20049730 f   LIBCMT:lldvrm.obj
 0001:00048810       __aullshr                  20049810 f   LIBCMT:ullshr.obj
 0001:0004882f       __controlfp_s              2004982f f   LIBCMT:contrlfp.obj
 0001:0004888c       __fptrap                   2004988c f   LIBCMT:crt0fp.obj
 0001:00048895       __ld12tod                  20049895 f   LIBCMT:intrncvt.obj
 0001:00048e05       __ld12tof                  20049e05 f   LIBCMT:intrncvt.obj
 0001:00049375       ___mtold12                 2004a375 f   LIBCMT:mantold.obj
 0001:00049557       ___free_lconv_mon          2004a557 f   LIBCMT:initmon.obj
 0001:00049653       ___free_lconv_num          2004a653 f   LIBCMT:initnum.obj
 0001:000496ba       ___free_lc_time            2004a6ba f   LIBCMT:inittime.obj
 0001:00049b26       ___crtGetStringTypeA       2004ab26 f   LIBCMT:a_str.obj
 0001:00049b64       __filbuf                   2004ab64 f   LIBCMT:_filbuf.obj
 0001:00049c85       __fileno                   2004ac85 f   LIBCMT:fileno.obj
 0001:00049ca9       __ungetc_nolock            2004aca9 f   LIBCMT:ungetc.obj
 0001:00049d89       __mbtowc_l                 2004ad89 f   LIBCMT:mbtowc.obj
 0001:00049e7c       _mbtowc                    2004ae7c f   LIBCMT:mbtowc.obj
 0001:00049e94       __matherr                  2004ae94 f   LIBCMT:matherr.obj
 0001:00049ea0       __trandisp1                2004aea0 f   LIBCMT:87disp.obj
 0001:00049f07       __trandisp2                2004af07 f   LIBCMT:87disp.obj
 0001:00049f93       __rttospopde               2004af93     LIBCMT:87disp.obj
 0001:00049f98       __rttospop                 2004af98     LIBCMT:87disp.obj
 0001:00049f9a       __rtnospop                 2004af9a     LIBCMT:87disp.obj
 0001:00049f9c       __rttosnpop                2004af9c     LIBCMT:87disp.obj
 0001:00049f9d       __rtnospopde               2004af9d     LIBCMT:87disp.obj
 0001:00049fa4       __rtzeropop                2004afa4     LIBCMT:87disp.obj
 0001:00049fa6       __rtzeronpop               2004afa6     LIBCMT:87disp.obj
 0001:00049fab       __rtonepop                 2004afab     LIBCMT:87disp.obj
 0001:00049fad       __rtonenpop                2004afad     LIBCMT:87disp.obj
 0001:00049fb2       __tosnan1                  2004afb2     LIBCMT:87disp.obj
 0001:00049fdd       __nosnan2                  2004afdd     LIBCMT:87disp.obj
 0001:00049fdf       __tosnan2                  2004afdf     LIBCMT:87disp.obj
 0001:0004a007       __nan2                     2004b007     LIBCMT:87disp.obj
 0001:0004a046       __rtindfpop                2004b046     LIBCMT:87disp.obj
 0001:0004a048       __rtindfnpop               2004b048     LIBCMT:87disp.obj
 0001:0004a059       __rttosnpopde              2004b059     LIBCMT:87disp.obj
 0001:0004a063       __rtchsifneg               2004b063     LIBCMT:87disp.obj
 0001:0004a070       __startTwoArgErrorHandling 2004b070 f   LIBCMT:genexcep.obj
 0001:0004a087       __startOneArgErrorHandling 2004b087 f   LIBCMT:genexcep.obj
 0001:0004a0d0       __twoToTOS                 2004b0d0 f   LIBCMT:common.obj
 0001:0004a0e5       __load_CW                  2004b0e5 f   LIBCMT:common.obj
 0001:0004a0fc       __convertTOStoQNaN         2004b0fc f   LIBCMT:common.obj
 0001:0004a115       __fload_withFB             2004b115 f   LIBCMT:common.obj
 0001:0004a158       __checkTOS_withFB          2004b158 f   LIBCMT:common.obj
 0001:0004a16e       __fast_exit                2004b16e f   LIBCMT:common.obj
 0001:0004a17b       __math_exit                2004b17b f   LIBCMT:common.obj
 0001:0004a1a5       __check_overflow_exit      2004b1a5 f   LIBCMT:common.obj
 0001:0004a1b9       __check_range_exit         2004b1b9 f   LIBCMT:common.obj
 0001:0004a25c       _malloc                    2004b25c f   LIBCMT:malloc.obj
 0001:0004a2ee       _GetTableIndexFromLocaleName 2004b2ee f   LIBCMT:winapinls.obj
 0001:0004a33c       ___crtDownlevelLocaleNameToLCID 2004b33c f   LIBCMT:winapinls.obj
 0001:0004a366       ___crtLCMapStringEx        2004b366 f   LIBCMT:winapinls.obj
 0001:0004a3b2       ___wcsnicmp_ascii          2004b3b2 f   LIBCMT:winapinls.obj
 0001:0004a420       __alloca_probe_16          2004b420 f   LIBCMT:alloca16.obj
 0001:0004a436       __alloca_probe_8           2004b436     LIBCMT:alloca16.obj
 0001:0004a44c       _wcscat_s                  2004b44c f   LIBCMT:wcscat_s.obj
 0001:0004a4b8       _wcscpy_s                  2004b4b8 f   LIBCMT:wcscpy_s.obj
 0001:0004a514       _wcslen                    2004b514 f   LIBCMT:wcslen.obj
 0001:0004a52d       _wcsncpy_s                 2004b52d f   LIBCMT:wcsncpy_s.obj
 0001:0004a5eb       ___initstdio               2004b5eb f   LIBCMT:_file.obj
 0001:0004a65e       ___endstdio                2004b65e f   LIBCMT:_file.obj
 0001:0004a685       ___iob_func                2004b685 f   LIBCMT:_file.obj
 0001:0004a68b       __lock_file                2004b68b f   LIBCMT:_file.obj
 0001:0004a6ca       __lock_file2               2004b6ca f   LIBCMT:_file.obj
 0001:0004a6fa       __unlock_file              2004b6fa f   LIBCMT:_file.obj
 0001:0004a734       __unlock_file2             2004b734 f   LIBCMT:_file.obj
 0001:0004a761       __isatty                   2004b761 f   LIBCMT:isatty.obj
 0001:0004a7b5       __write                    2004b7b5 f   LIBCMT:write.obj
 0001:0004a897       __write_nolock             2004b897 f   LIBCMT:write.obj
 0001:0004b0c1       __lseeki64                 2004c0c1 f   LIBCMT:lseeki64.obj
 0001:0004b1bd       __lseeki64_nolock          2004c1bd f   LIBCMT:lseeki64.obj
 0001:0004b22e       __getbuf                   2004c22e f   LIBCMT:_getbuf.obj
 0001:0004b274       __get_printf_count_output  2004c274 f   LIBCMT:printf.obj
 0001:0004b289       __wctomb_s_l               2004c289 f   LIBCMT:wctomb.obj
 0001:0004b3ab       _wctomb_s                  2004c3ab f   LIBCMT:wctomb.obj
 0001:0004b3d0       __CIcos_pentium4           2004c3d0 f   LIBCMT:cos_pentium4.obj
 0001:0004b3e8       __cos_pentium4             2004c3e8     LIBCMT:cos_pentium4.obj
 0001:0004b580       __CIsin_pentium4           2004c580 f   LIBCMT:sin_pentium4.obj
 0001:0004b598       __sin_pentium4             2004c598     LIBCMT:sin_pentium4.obj
 0001:0004b748       __frnd                     2004c748 f   LIBCMT:frnd.obj
 0001:0004b75a       __errcode                  2004c75a f   LIBCMT:fpexcept.obj
 0001:0004b78c       __except1                  2004c78c f   LIBCMT:fpexcept.obj
 0001:0004b854       __handle_exc               2004c854 f   LIBCMT:fpexcept.obj
 0001:0004ba30       __handle_qnan1             2004ca30 f   LIBCMT:fpexcept.obj
 0001:0004ba80       __raise_exc                2004ca80 f   LIBCMT:fpexcept.obj
 0001:0004baa1       __raise_exc_ex             2004caa1 f   LIBCMT:fpexcept.obj
 0001:0004bd86       __set_errno_from_matherr   2004cd86 f   LIBCMT:fpexcept.obj
 0001:0004bdb3       __umatherr                 2004cdb3 f   LIBCMT:fpexcept.obj
 0001:0004be51       __decomp                   2004ce51 f   LIBCMT:util.obj
 0001:0004bf23       __set_exp                  2004cf23 f   LIBCMT:util.obj
 0001:0004bf4e       __sptype                   2004cf4e f   LIBCMT:util.obj
 0001:0004bfaa       ___set_fpsr_sse2           2004cfaa f   LIBCMT:fpctrl.obj
 0001:0004c020       __clrfp                    2004d020 f   LIBCMT:fpctrl.obj
 0001:0004c02f       __ctrlfp                   2004d02f f   LIBCMT:fpctrl.obj
 0001:0004c058       __set_statfp               2004d058 f   LIBCMT:fpctrl.obj
 0001:0004c0ae       __statfp                   2004d0ae f   LIBCMT:fpctrl.obj
 0001:0004c0bc       __87except                 2004d0bc f   LIBCMT:87except.obj
 0001:0004c1c5       __FF_MSGBANNER             2004d1c5 f   LIBCMT:crt0msg.obj
 0001:0004c1fe       __GET_RTERRMSG             2004d1fe f   LIBCMT:crt0msg.obj
 0001:0004c222       __NMSG_WRITE               2004d222 f   LIBCMT:crt0msg.obj
 0001:0004c3e0       __FindPESection            2004d3e0 f   LIBCMT:pesect.obj
 0001:0004c430       __IsNonwritableInCurrentImage 2004d430 f   LIBCMT:pesect.obj
 0001:0004c4f0       __ValidateImageBase        2004d4f0 f   LIBCMT:pesect.obj
 0001:0004c521       ___onexitinit              2004d521 f   LIBCMT:onexit.obj
 0001:0004c550       __onexit                   2004d550 f   LIBCMT:onexit.obj
 0001:0004c646       _atexit                    2004d646 f   LIBCMT:onexit.obj
 0001:0004c65b       ?terminate@@YAXXZ          2004d65b f   LIBCMT:hooks.obj
 0001:0004c68f       __initp_eh_hooks           2004d68f f   LIBCMT:hooks.obj
 0001:0004c6a0       __callnewh                 2004d6a0 f   LIBCMT:handler.obj
 0001:0004c6c6       __initp_heap_handler       2004d6c6 f   LIBCMT:handler.obj
 0001:0004c6d3       __initp_misc_purevirt      2004d6d3 f   LIBCMT:inithelp.obj
 0001:0004c6e0       __initp_misc_rand_s        2004d6e0 f   LIBCMT:rand_s.obj
 0001:0004c6ed       ___get_sigabrt             2004d6ed f   LIBCMT:winsig.obj
 0001:0004c6fa       __initp_misc_winsig        2004d6fa f   LIBCMT:winsig.obj
 0001:0004c716       _raise                     2004d716 f   LIBCMT:winsig.obj
 0001:0004c910       __local_unwind4            2004d910 f   LIBCMT:exsup4.obj
 0001:0004c9e6       __seh_longjmp_unwind4@4    2004d9e6 f   LIBCMT:exsup4.obj
 0001:0004ca02       @_EH4_CallFilterFunc@8     2004da02 f   LIBCMT:exsup4.obj
 0001:0004ca19       @_EH4_TransferToHandler@8  2004da19 f   LIBCMT:exsup4.obj
 0001:0004ca32       @_EH4_GlobalUnwind2@8      2004da32 f   LIBCMT:exsup4.obj
 0001:0004ca4b       @_EH4_LocalUnwind@16       2004da4b f   LIBCMT:exsup4.obj
 0001:0004cab8       __ismbblead                2004dab8 f   LIBCMT:ismbbyte.obj
 0001:0004cace       _realloc                   2004dace f   LIBCMT:realloc.obj
 0001:0004cb79       __recalloc                 2004db79 f   LIBCMT:recalloc.obj
 0001:0004cbe2       __calloc_impl              2004dbe2 f   LIBCMT:calloc_impl.obj
 0001:0004cc5c       _$I10_OUTPUT               2004dc5c f   LIBCMT:x10fout.obj
 0001:0004d6c9       __control87                2004e6c9 f i LIBCMT:ieee87.obj
 0001:0004da60       __read                     2004ea60 f   LIBCMT:read.obj
 0001:0004db68       __read_nolock              2004eb68 f   LIBCMT:read.obj
 0001:0004e2f7       __fcloseall                2004f2f7 f   LIBCMT:closeall.obj
 0001:0004e394       __fflush_nolock            2004f394 f   LIBCMT:fflush.obj
 0001:0004e3da       __flush                    2004f3da f   LIBCMT:fflush.obj
 0001:0004e43e       __flushall                 2004f43e f   LIBCMT:fflush.obj
 0001:0004e52b       ___lock_fhandle            2004f52b f   LIBCMT:osfinfo.obj
 0001:0004e5b7       __free_osfhnd              2004f5b7 f   LIBCMT:osfinfo.obj
 0001:0004e63d       __get_osfhandle            2004f63d f   LIBCMT:osfinfo.obj
 0001:0004e6a4       __unlock_fhandle           2004f6a4 f   LIBCMT:osfinfo.obj
 0001:0004e6ca       __putwch_nolock            2004f6ca f   LIBCMT:putwch.obj
 0001:0004e70b       __set_error_mode           2004f70b f   LIBCMT:errmode.obj
 0001:0004e74b       ___crtMessageBoxW          2004f74b f   LIBCMT:crtmboxw.obj
 0001:0004e92d       __msize                    2004f92d f   LIBCMT:msize.obj
 0001:0004e95e       _abort                     2004f95e f   LIBCMT:abort.obj
 0001:0004e9b0       __global_unwind2           2004f9b0 f   LIBCMT:exsup.obj
 0001:0004ea15       __local_unwind2            2004fa15 f   LIBCMT:exsup.obj
 0001:0004ea99       __abnormal_termination     2004fa99 f   LIBCMT:exsup.obj
 0001:0004eabc       __NLG_Notify1              2004fabc f   LIBCMT:exsup.obj
 0001:0004eac5       __NLG_Notify               2004fac5 f   LIBCMT:exsup.obj
 0001:0004eadc       __NLG_Dispatch             2004fadc     LIBCMT:exsup.obj
 0001:0004eadc       __NLG_Dispatch2            2004fadc     LIBCMT:exsup.obj
 0001:0004eae4       __NLG_Call                 2004fae4 f   LIBCMT:exsup.obj
 0001:0004eae6       __NLG_Return2              2004fae6     LIBCMT:exsup.obj
 0001:0004eae7       __fclose_nolock            2004fae7 f   LIBCMT:fclose.obj
 0001:0004eb53       _fclose                    2004fb53 f   LIBCMT:fclose.obj
 0001:0004ebca       __commit                   2004fbca f   LIBCMT:commit.obj
 0001:0004ecb0       ___termconout              2004fcb0 f   LIBCMT:initcon.obj
 0001:0004ecc7       ___initconout              2004fcc7 f   LIBCMT:initcon.obj
 0001:0004ece6       __close                    2004fce6 f   LIBCMT:close.obj
 0001:0004edb0       __close_nolock             2004fdb0 f   LIBCMT:close.obj
 0001:0004ee4a       __freebuf                  2004fe4a f   LIBCMT:_freebuf.obj
 0001:0004ee7a       _IsProcessorFeaturePresent@4 2004fe7a f   kernel32:KERNEL32.dll
 0001:0004ee80       _RtlUnwind@16              2004fe80 f   kernel32:KERNEL32.dll
 0002:00000000       __imp__IsDebuggerPresent@0 20050000     kernel32:KERNEL32.dll
 0002:00000004       __imp__IsProcessorFeaturePresent@4 20050004     kernel32:KERNEL32.dll
 0002:00000008       __imp__GetCommandLineA@0   20050008     kernel32:KERNEL32.dll
 0002:0000000c       __imp__GetCurrentThreadId@0 2005000c     kernel32:KERNEL32.dll
 0002:00000010       __imp__GetLastError@0      20050010     kernel32:KERNEL32.dll
 0002:00000014       __imp__SetLastError@4      20050014     kernel32:KERNEL32.dll
 0002:00000018       __imp__InterlockedIncrement@4 20050018     kernel32:KERNEL32.dll
 0002:0000001c       __imp__InterlockedDecrement@4 2005001c     kernel32:KERNEL32.dll
 0002:00000020       __imp__EncodePointer@4     20050020     kernel32:KERNEL32.dll
 0002:00000024       __imp__DecodePointer@4     20050024     kernel32:KERNEL32.dll
 0002:00000028       __imp__IsValidCodePage@4   20050028     kernel32:KERNEL32.dll
 0002:0000002c       __imp__GetACP@0            2005002c     kernel32:KERNEL32.dll
 0002:00000030       __imp__GetOEMCP@0          20050030     kernel32:KERNEL32.dll
 0002:00000034       __imp__GetCPInfo@8         20050034     kernel32:KERNEL32.dll
 0002:00000038       __imp__MultiByteToWideChar@24 20050038     kernel32:KERNEL32.dll
 0002:0000003c       __imp__WideCharToMultiByte@32 2005003c     kernel32:KERNEL32.dll
 0002:00000040       __imp__UnhandledExceptionFilter@4 20050040     kernel32:KERNEL32.dll
 0002:00000044       __imp__SetUnhandledExceptionFilter@4 20050044     kernel32:KERNEL32.dll
 0002:00000048       __imp__InitializeCriticalSectionAndSpinCount@8 20050048     kernel32:KERNEL32.dll
 0002:0000004c       __imp__GetCurrentProcess@0 2005004c     kernel32:KERNEL32.dll
 0002:00000050       __imp__TerminateProcess@8  20050050     kernel32:KERNEL32.dll
 0002:00000054       __imp__TlsAlloc@0          20050054     kernel32:KERNEL32.dll
 0002:00000058       __imp__TlsGetValue@4       20050058     kernel32:KERNEL32.dll
 0002:0000005c       __imp__TlsSetValue@8       2005005c     kernel32:KERNEL32.dll
 0002:00000060       __imp__TlsFree@4           20050060     kernel32:KERNEL32.dll
 0002:00000064       __imp__GetStartupInfoW@4   20050064     kernel32:KERNEL32.dll
 0002:00000068       __imp__GetModuleHandleW@4  20050068     kernel32:KERNEL32.dll
 0002:0000006c       __imp__GetProcAddress@8    2005006c     kernel32:KERNEL32.dll
 0002:00000070       __imp__ExitProcess@4       20050070     kernel32:KERNEL32.dll
 0002:00000074       __imp__GetModuleHandleExW@12 20050074     kernel32:KERNEL32.dll
 0002:00000078       __imp__GetProcessHeap@0    20050078     kernel32:KERNEL32.dll
 0002:0000007c       __imp__GetStdHandle@4      2005007c     kernel32:KERNEL32.dll
 0002:00000080       __imp__GetFileType@4       20050080     kernel32:KERNEL32.dll
 0002:00000084       __imp__DeleteCriticalSection@4 20050084     kernel32:KERNEL32.dll
 0002:00000088       __imp__GetModuleFileNameA@12 20050088     kernel32:KERNEL32.dll
 0002:0000008c       __imp__HeapFree@12         2005008c     kernel32:KERNEL32.dll
 0002:00000090       __imp__QueryPerformanceCounter@4 20050090     kernel32:KERNEL32.dll
 0002:00000094       __imp__GetCurrentProcessId@0 20050094     kernel32:KERNEL32.dll
 0002:00000098       __imp__GetSystemTimeAsFileTime@4 20050098     kernel32:KERNEL32.dll
 0002:0000009c       __imp__GetEnvironmentStringsW@0 2005009c     kernel32:KERNEL32.dll
 0002:000000a0       __imp__FreeEnvironmentStringsW@4 200500a0     kernel32:KERNEL32.dll
 0002:000000a4       __imp__Sleep@4             200500a4     kernel32:KERNEL32.dll
 0002:000000a8       __imp__EnterCriticalSection@4 200500a8     kernel32:KERNEL32.dll
 0002:000000ac       __imp__LeaveCriticalSection@4 200500ac     kernel32:KERNEL32.dll
 0002:000000b0       __imp__GetStringTypeW@16   200500b0     kernel32:KERNEL32.dll
 0002:000000b4       __imp__HeapAlloc@12        200500b4     kernel32:KERNEL32.dll
 0002:000000b8       __imp__LCMapStringW@24     200500b8     kernel32:KERNEL32.dll
 0002:000000bc       __imp__WriteFile@20        200500bc     kernel32:KERNEL32.dll
 0002:000000c0       __imp__GetConsoleCP@0      200500c0     kernel32:KERNEL32.dll
 0002:000000c4       __imp__GetConsoleMode@8    200500c4     kernel32:KERNEL32.dll
 0002:000000c8       __imp__SetFilePointerEx@20 200500c8     kernel32:KERNEL32.dll
 0002:000000cc       __imp__RaiseException@16   200500cc     kernel32:KERNEL32.dll
 0002:000000d0       __imp__GetModuleFileNameW@12 200500d0     kernel32:KERNEL32.dll
 0002:000000d4       __imp__LoadLibraryExW@12   200500d4     kernel32:KERNEL32.dll
 0002:000000d8       __imp__RtlUnwind@16        200500d8     kernel32:KERNEL32.dll
 0002:000000dc       __imp__HeapReAlloc@16      200500dc     kernel32:KERNEL32.dll
 0002:000000e0       __imp__ReadFile@20         200500e0     kernel32:KERNEL32.dll
 0002:000000e4       __imp__ReadConsoleW@20     200500e4     kernel32:KERNEL32.dll
 0002:000000e8       __imp__SetStdHandle@8      200500e8     kernel32:KERNEL32.dll
 0002:000000ec       __imp__WriteConsoleW@20    200500ec     kernel32:KERNEL32.dll
 0002:000000f0       __imp__OutputDebugStringW@4 200500f0     kernel32:KERNEL32.dll
 0002:000000f4       __imp__LoadLibraryW@4      200500f4     kernel32:KERNEL32.dll
 0002:000000f8       __imp__HeapSize@12         200500f8     kernel32:KERNEL32.dll
 0002:000000fc       __imp__FlushFileBuffers@4  200500fc     kernel32:KERNEL32.dll
 0002:00000100       __imp__CreateFileW@28      20050100     kernel32:KERNEL32.dll
 0002:00000104       __imp__CloseHandle@4       20050104     kernel32:KERNEL32.dll
 0002:00000108       \177KERNEL32_NULL_THUNK_DATA 20050108     kernel32:KERNEL32.dll
 0002:0000010c       ___xc_a                    2005010c     LIBCMT:crt0init.obj
 0002:00000110       ___xc_z                    20050110     LIBCMT:crt0init.obj
 0002:00000114       ___xi_a                    20050114     LIBCMT:crt0init.obj
 0002:0000012c       ___xi_z                    2005012c     LIBCMT:crt0init.obj
 0002:00000130       ___xp_a                    20050130     LIBCMT:crt0init.obj
 0002:00000140       ___xp_z                    20050140     LIBCMT:crt0init.obj
 0002:00000144       ___xt_a                    20050144     LIBCMT:crt0init.obj
 0002:00000148       ___xt_z                    20050148     LIBCMT:crt0init.obj
 0002:00000150       ??_C@_0O@OCOCOONB@sv_maxclients?$AA@ 20050150     ai_chat.obj
 0002:00000160       ??_C@_01EFFIKLCJ@n?$AA@    20050160     ai_chat.obj
 0002:00000164       ??_C@_01PFHFFBPC@t?$AA@    20050164     ai_chat.obj
 0002:00000168       ??_C@_07KMNEBLH@mapname?$AA@ 20050168     ai_chat.obj
 0002:00000170       ??_C@_07DGIAOJJ@Shotgun?$AA@ 20050170     ai_chat.obj
 0002:00000178       ??_C@_08ELAHAPJB@Gauntlet?$AA@ 20050178     ai_chat.obj
 0002:00000184       ??_C@_0L@KDNGMPND@Machinegun?$AA@ 20050184     ai_chat.obj
 0002:00000190       ??_C@_0BB@GIEOMMBO@Grenade?5Launcher?$AA@ 20050190     ai_chat.obj
 0002:000001a4       ??_C@_0BA@DJIGCIDL@Rocket?5Launcher?$AA@ 200501a4     ai_chat.obj
 0002:000001b4       ??_C@_09MBHKGILD@Plasmagun?$AA@ 200501b4     ai_chat.obj
 0002:000001c0       ??_C@_07NMJDHEIK@Railgun?$AA@ 200501c0     ai_chat.obj
 0002:000001c8       ??_C@_0O@HOCKKNKE@Lightning?5Gun?$AA@ 200501c8     ai_chat.obj
 0002:000001d8       ??_C@_06PNKEMFGD@BFG10K?$AA@ 200501d8     ai_chat.obj
 0002:000001e0       ??_C@_07PHIHFAOO@Nailgun?$AA@ 200501e0     ai_chat.obj
 0002:000001e8       ??_C@_08NGGKJMFK@Chaingun?$AA@ 200501e8     ai_chat.obj
 0002:000001f4       ??_C@_0BD@BODMPPMP@Proximity?5Launcher?$AA@ 200501f4     ai_chat.obj
 0002:00000208       ??_C@_08LAHOABEH@Kamikaze?$AA@ 20050208     ai_chat.obj
 0002:00000214       ??_C@_09NHJLKBEC@Prox?5mine?$AA@ 20050214     ai_chat.obj
 0002:00000220       ??_C@_07MKHABLGK@Grapple?$AA@ 20050220     ai_chat.obj
 0002:00000228       ??_C@_0BB@FPHHFAJG@?$FLunknown?5weapon?$FN?$AA@ 20050228     ai_chat.obj
 0002:0000023c       ??_C@_0O@IGAOFANI@?$FLinvalid?5var?$FN?$AA@ 2005023c     ai_chat.obj
 0002:0000024c       ??_C@_0L@PKHLIBCF@game_enter?$AA@ 2005024c     ai_chat.obj
 0002:00000258       ??_C@_09PIOCENHO@game_exit?$AA@ 20050258     ai_chat.obj
 0002:00000264       ??_C@_06IMDBNOMM@vtaunt?$AA@ 20050264     ai_chat.obj
 0002:0000026c       ??_C@_0M@CJNDJGDH@level_start?$AA@ 2005026c     ai_chat.obj
 0002:00000278       ??_C@_0BC@GKFLFIDK@level_end_victory?$AA@ 20050278     ai_chat.obj
 0002:0000028c       ??_C@_0P@LPKGAAGE@level_end_lose?$AA@ 2005028c     ai_chat.obj
 0002:0000029c       ??_C@_09PILOJEEK@level_end?$AA@ 2005029c     ai_chat.obj
 0002:000002a8       ??_C@_07PANFCHNN@?$FLworld?$FN?$AA@ 200502a8     ai_chat.obj
 0002:000002b0       ??_C@_0P@LLJEDFBD@death_teammate?$AA@ 200502b0     ai_chat.obj
 0002:000002c0       ??_C@_0M@BCPGKKBA@death_drown?$AA@ 200502c0     ai_chat.obj
 0002:000002cc       ??_C@_0M@ENLBBGB@death_slime?$AA@ 200502cc     ai_chat.obj
 0002:000002d8       ??_C@_0L@JGPKJCJO@death_lava?$AA@ 200502d8     ai_chat.obj
 0002:000002e4       ??_C@_0P@FHLBDKHM@death_cratered?$AA@ 200502e4     ai_chat.obj
 0002:000002f4       ??_C@_0O@EGKCFKBF@death_suicide?$AA@ 200502f4     ai_chat.obj
 0002:00000304       ??_C@_0P@CLLHBMMH@death_telefrag?$AA@ 20050304     ai_chat.obj
 0002:00000314       ??_C@_0P@JFEIEGIB@death_kamikaze?$AA@ 20050314     ai_chat.obj
 0002:00000324       ??_C@_0P@GODBEIFH@death_gauntlet?$AA@ 20050324     ai_chat.obj
 0002:00000334       ??_C@_0L@OLPOCBHN@death_rail?$AA@ 20050334     ai_chat.obj
 0002:00000340       ??_C@_09HPMGADCC@death_bfg?$AA@ 20050340     ai_chat.obj
 0002:0000034c       ??_C@_0N@EPKIJPHK@death_insult?$AA@ 2005034c     ai_chat.obj
 0002:0000035c       ??_C@_0N@INLGGPBP@death_praise?$AA@ 2005035c     ai_chat.obj
 0002:0000036c       ??_C@_0O@FOOLABNO@kill_teammate?$AA@ 2005036c     ai_chat.obj
 0002:0000037c       ??_C@_0O@ILEOHMJK@kill_gauntlet?$AA@ 2005037c     ai_chat.obj
 0002:0000038c       ??_C@_09HNPOIBHL@kill_rail?$AA@ 2005038c     ai_chat.obj
 0002:00000398       ??_C@_0O@MOMICIAK@kill_telefrag?$AA@ 20050398     ai_chat.obj
 0002:000003a8       ??_C@_0O@HADHHCEM@kill_kamikaze?$AA@ 200503a8     ai_chat.obj
 0002:000003b8       ??_C@_0M@MPCEANBE@kill_insult?$AA@ 200503b8     ai_chat.obj
 0002:000003c4       ??_C@_0M@NDKPNHB@kill_praise?$AA@ 200503c4     ai_chat.obj
 0002:000003d0       ??_C@_0O@CCLFCPCH@enemy_suicide?$AA@ 200503d0     ai_chat.obj
 0002:000003e0       ??_C@_0M@GJHANCBL@hit_talking?$AA@ 200503e0     ai_chat.obj
 0002:000003ec       ??_C@_0M@NEMKKKCP@hit_nodeath?$AA@ 200503ec     ai_chat.obj
 0002:000003f8       ??_C@_0L@HALGAHGK@hit_nokill?$AA@ 200503f8     ai_chat.obj
 0002:00000404       ??_C@_0M@DCDJELGA@random_misc?$AA@ 20050404     ai_chat.obj
 0002:00000410       ??_C@_0O@BCFFFDNI@random_insult?$AA@ 20050410     ai_chat.obj
 0002:00000420       __real@3e800000            20050420     ai_chat.obj
 0002:00000424       __real@3f000000            20050424     ai_chat.obj
 0002:00000428       __real@3f800000            20050428     ai_chat.obj
 0002:00000430       __real@3fb999999999999a    20050430     ai_chat.obj
 0002:00000438       __real@3fe0000000000000    20050438     ai_chat.obj
 0002:00000440       __real@40000000            20050440     ai_chat.obj
 0002:00000448       __real@4027cccccccccccd    20050448     ai_chat.obj
 0002:00000450       __real@41200000            20050450     ai_chat.obj
 0002:00000454       __real@41c00000            20050454     ai_chat.obj
 0002:00000458       __real@41c80000            20050458     ai_chat.obj
 0002:0000045c       __real@42000000            2005045c     ai_chat.obj
 0002:00000460       __real@46fffe00            20050460     ai_chat.obj
 0002:00000464       ??_C@_0BB@PGBIDPPC@what?5do?5you?5say?$DP?$AA@ 20050464     ai_cmd.obj
 0002:00000478       ??_C@_0CC@BCALNIDF@I?5need?5more?5key?5points?5to?5patrol@ 20050478     ai_cmd.obj
 0002:0000049c       ??_C@_05NBAJGCGG@whois?$AA@ 2005049c     ai_cmd.obj
 0002:000004a4       ??_C@_07BANGEKHA@whereis?$AA@ 200504a4     ai_cmd.obj
 0002:000004ac       ??_C@_0M@HCHCFBDA@whereareyou?$AA@ 200504ac     ai_cmd.obj
 0002:000004b8       ??_C@_0L@CCGDOBMA@keepinmind?$AA@ 200504b8     ai_cmd.obj
 0002:000004c4       ??_C@_03ICICOMAL@yes?$AA@  200504c4     ai_cmd.obj
 0002:000004c8       ??_C@_0L@OAEJIBOJ@joinedteam?$AA@ 200504c8     ai_cmd.obj
 0002:000004d4       ??_C@_08NKJDPEPF@leftteam?$AA@ 200504d4     ai_cmd.obj
 0002:000004e0       ??_C@_06NHKPLCFO@inteam?$AA@ 200504e0     ai_cmd.obj
 0002:000004e8       ??_C@_06NJFEFPHF@noteam?$AA@ 200504e8     ai_cmd.obj
 0002:000004f0       ??_C@_08OEKJENGB@?$CFf?5?$CFf?5?$CFf?$AA@ 200504f0     ai_cmd.obj
 0002:000004fc       ??_C@_0BD@GKCAPLMB@checkpoint_invalid?$AA@ 200504fc     ai_cmd.obj
 0002:00000510       ??_C@_0BC@PAJMIFOG@?$CF1?40f?5?$CF1?40f?5?$CF1?40f?$AA@ 20050510     ai_cmd.obj
 0002:00000524       ??_C@_0BD@PGFNLHLB@checkpoint_confirm?$AA@ 20050524     ai_cmd.obj
 0002:00000538       ??_C@_09FLIJNDLN@dismissed?$AA@ 20050538     ai_cmd.obj
 0002:00000544       ??_C@_04BJJEOANI@kill?$AA@ 20050544     ai_cmd.obj
 0002:0000054c       ??_C@_05CPCHEFAA@taunt?$AA@ 2005054c     ai_cmd.obj
 0002:00000554       ??_C@_0BF@EGOEAANC@I?8m?5the?5team?5leader?6?$AA@ 20050554     ai_cmd.obj
 0002:0000056c       ??_C@_07OIGCHEPH@helping?$AA@ 2005056c     ai_cmd.obj
 0002:00000574       ??_C@_0N@FBKCFEPP@accompanying?$AA@ 20050574     ai_cmd.obj
 0002:00000584       ??_C@_09GNBACBHC@defending?$AA@ 20050584     ai_cmd.obj
 0002:00000590       ??_C@_0M@EEGCLMEK@gettingitem?$AA@ 20050590     ai_cmd.obj
 0002:0000059c       ??_C@_07EFNGDOD@killing?$AA@ 2005059c     ai_cmd.obj
 0002:000005a4       ??_C@_07IKBLJPBH@camping?$AA@ 200505a4     ai_cmd.obj
 0002:000005ac       ??_C@_0L@GHJELNDI@patrolling?$AA@ 200505ac     ai_cmd.obj
 0002:000005b8       ??_C@_0O@KMOOAPPA@capturingflag?$AA@ 200505b8     ai_cmd.obj
 0002:000005c8       ??_C@_0M@BGGCILAH@rushingbase?$AA@ 200505c8     ai_cmd.obj
 0002:000005d4       ??_C@_0O@PNEKPGNP@returningflag?$AA@ 200505d4     ai_cmd.obj
 0002:000005e4       ??_C@_0BD@KJPNFKAE@attackingenemybase?$AA@ 200505e4     ai_cmd.obj
 0002:000005f8       ??_C@_0L@ICJBNMIF@harvesting?$AA@ 200505f8     ai_cmd.obj
 0002:00000604       ??_C@_07IFIHEGLH@roaming?$AA@ 20050604     ai_cmd.obj
 0002:0000060c       ??_C@_0M@KOJLOALK@Quad?5Damage?$AA@ 2005060c     ai_cmd.obj
 0002:00000618       ??_C@_0N@CBPBLBHG@Regeneration?$AA@ 20050618     ai_cmd.obj
 0002:00000628       ??_C@_0M@ONKEJEFE@Battle?5Suit?$AA@ 20050628     ai_cmd.obj
 0002:00000634       ??_C@_05HOIAGEJD@Speed?$AA@ 20050634     ai_cmd.obj
 0002:0000063c       ??_C@_0N@LCCEENAK@Invisibility?$AA@ 2005063c     ai_cmd.obj
 0002:0000064c       ??_C@_06FDKFDAP@Flight?$AA@ 2005064c     ai_cmd.obj
 0002:00000654       ??_C@_05JOOFIMIN@Armor?$AA@ 20050654     ai_cmd.obj
 0002:0000065c       ??_C@_0M@ICCAHGAD@Heavy?5Armor?$AA@ 2005065c     ai_cmd.obj
 0002:00000668       ??_C@_08GAOGPIJL@Red?5Flag?$AA@ 20050668     ai_cmd.obj
 0002:00000674       ??_C@_09MDBFHCAB@Blue?5Flag?$AA@ 20050674     ai_cmd.obj
 0002:00000680       ??_C@_0O@FJMBMGCL@Prox?5Launcher?$AA@ 20050680     ai_cmd.obj
 0002:00000690       ??_C@_05GAJJNIIE@Scout?$AA@ 20050690     ai_cmd.obj
 0002:00000698       ??_C@_05LICMIJMM@Guard?$AA@ 20050698     ai_cmd.obj
 0002:000006a0       ??_C@_07NAAMDCNG@Doubler?$AA@ 200506a0     ai_cmd.obj
 0002:000006a8       ??_C@_0L@MPPKDLBN@Ammo?5Regen?$AA@ 200506a8     ai_cmd.obj
 0002:000006b4       ??_C@_0N@DLICDFNJ@Neutral?5Flag?$AA@ 200506b4     ai_cmd.obj
 0002:000006c4       ??_C@_0M@FBOLLEBE@Red?5Obelisk?$AA@ 200506c4     ai_cmd.obj
 0002:000006d0       ??_C@_0N@EELHFKPG@Blue?5Obelisk?$AA@ 200506d0     ai_cmd.obj
 0002:000006e0       ??_C@_0BA@BGHOOBKD@Neutral?5Obelisk?$AA@ 200506e0     ai_cmd.obj
 0002:000006f0       ??_C@_03FAAAOPJM@red?$AA@  200506f0     ai_cmd.obj
 0002:000006f4       ??_C@_0N@LHJHAMNN@teamlocation?$AA@ 200506f4     ai_cmd.obj
 0002:00000704       ??_C@_04OBGPFBCN@blue?$AA@ 20050704     ai_cmd.obj
 0002:0000070c       ??_C@_08CBBFJFMD@location?$AA@ 2005070c     ai_cmd.obj
 0002:00000718       ??_C@_0DL@ENJHCNMJ@the?5part?5of?5my?5brain?5to?5create?5f@ 20050718     ai_cmd.obj
 0002:00000754       ??_C@_0BE@NHGFGLLF@unknown?5match?5type?6?$AA@ 20050754     ai_cmd.obj
 0002:00000768       __real@00000000            20050768     ai_cmd.obj
 0002:00000770       __real@3fd999999999999a    20050770     ai_cmd.obj
 0002:00000778       __real@402381d7dbf487fd    20050778     ai_cmd.obj
 0002:00000780       __real@4040000000000000    20050780     ai_cmd.obj
 0002:00000788       __real@404e000000000000    20050788     ai_cmd.obj
 0002:00000790       __real@42400000            20050790     ai_cmd.obj
 0002:00000794       __real@42700000            20050794     ai_cmd.obj
 0002:00000798       __real@42c80000            20050798     ai_cmd.obj
 0002:0000079c       __real@42f00000            2005079c     ai_cmd.obj
 0002:000007a0       __real@43340000            200507a0     ai_cmd.obj
 0002:000007a4       __real@43fa0000            200507a4     ai_cmd.obj
 0002:000007a8       __real@44160000            200507a8     ai_cmd.obj
 0002:000007ac       __real@44e10000            200507ac     ai_cmd.obj
 0002:000007b0       __real@497423f0            200507b0     ai_cmd.obj
 0002:000007b4       __real@4cbebc20            200507b4     ai_cmd.obj
 0002:000007c0       __xmm@80000000800000008000000080000000 200507c0     ai_cmd.obj
 0002:000007d0       ??_C@_0CM@FBOPNIPA@?$CFs?5at?5?$CF1?41f?5switched?5more?5than?5?$CF@ 200507d0     ai_dmnet.obj
 0002:000007fc       ??_C@_00CNPNBAHC@?$AA@     200507fc     ai_dmnet.obj
 0002:00000800       ??_C@_0CE@EJLGIIOB@?$CFs?5at?5?$CF2?41f?5entered?5?$CFs?3?5?$CFs?5from?5@ 20050800     ai_dmnet.obj
 0002:00000824       ??_C@_0L@JEGDCFOO@help_start?$AA@ 20050824     ai_dmnet.obj
 0002:00000830       ??_C@_0BA@JEJAJCPN@accompany_start?$AA@ 20050830     ai_dmnet.obj
 0002:00000840       ??_C@_0P@JLGJIDCE@accompany_stop?$AA@ 20050840     ai_dmnet.obj
 0002:00000850       ??_C@_0BB@FONGAGIJ@accompany_arrive?$AA@ 20050850     ai_dmnet.obj
 0002:00000864       ??_C@_0BM@KDEEGPGK@BotLongTermGoal?3?5go?5for?5air?$AA@ 20050864     ai_dmnet.obj
 0002:00000880       ??_C@_0BF@DCOBNKPB@accompany_cannotfind?$AA@ 20050880     ai_dmnet.obj
 0002:00000898       ??_C@_0N@KFKEFAB@defend_start?$AA@ 20050898     ai_dmnet.obj
 0002:000008a8       ??_C@_09DPKMICOA@ondefense?$AA@ 200508a8     ai_dmnet.obj
 0002:000008b4       ??_C@_0M@DFCLNMCD@defend_stop?$AA@ 200508b4     ai_dmnet.obj
 0002:000008c0       ??_C@_0L@DMKJIHAF@kill_start?$AA@ 200508c0     ai_dmnet.obj
 0002:000008cc       ??_C@_09KGAMDJKG@kill_done?$AA@ 200508cc     ai_dmnet.obj
 0002:000008d8       ??_C@_0O@LBCALMFN@getitem_start?$AA@ 200508d8     ai_dmnet.obj
 0002:000008e8       ??_C@_0BB@GOIMPKGP@getitem_notthere?$AA@ 200508e8     ai_dmnet.obj
 0002:000008fc       ??_C@_0O@EJODLBHP@getitem_gotit?$AA@ 200508fc     ai_dmnet.obj
 0002:0000090c       ??_C@_0L@KJNCBGJD@camp_start?$AA@ 2005090c     ai_dmnet.obj
 0002:00000918       ??_C@_09BHIDKEB@camp_stop?$AA@ 20050918     ai_dmnet.obj
 0002:00000924       ??_C@_0M@PEOBAIFC@camp_arrive?$AA@ 20050924     ai_dmnet.obj
 0002:00000930       ??_C@_0L@IJFFADDJ@inposition?$AA@ 20050930     ai_dmnet.obj
 0002:0000093c       ??_C@_04MKEOLIJC@?5to?5?$AA@ 2005093c     ai_dmnet.obj
 0002:00000944       ??_C@_0N@IKJEFKFP@patrol_start?$AA@ 20050944     ai_dmnet.obj
 0002:00000954       ??_C@_0M@JOFDEJLG@patrol_stop?$AA@ 20050954     ai_dmnet.obj
 0002:00000960       ??_C@_0BC@BPHAAOLA@captureflag_start?$AA@ 20050960     ai_dmnet.obj
 0002:00000974       ??_C@_09DPAAIBFE@ongetflag?$AA@ 20050974     ai_dmnet.obj
 0002:00000980       ??_C@_0BB@BFOOKAAN@returnflag_start?$AA@ 20050980     ai_dmnet.obj
 0002:00000994       ??_C@_0N@INDGBJCC@onreturnflag?$AA@ 20050994     ai_dmnet.obj
 0002:000009a4       ??_C@_0BG@HGBCNFGM@attackenemybase_start?$AA@ 200509a4     ai_dmnet.obj
 0002:000009bc       ??_C@_09FDCOIECL@onoffense?$AA@ 200509bc     ai_dmnet.obj
 0002:000009c8       ??_C@_0O@IBHMAMPN@harvest_start?$AA@ 200509c8     ai_dmnet.obj
 0002:000009d8       ??_C@_09GJKBJNFC@lead_stop?$AA@ 200509d8     ai_dmnet.obj
 0002:000009e4       ??_C@_08LJGLPHPA@followme?$AA@ 200509e4     ai_dmnet.obj
 0002:000009f0       ??_C@_0N@IHDBPIFK@intermission?$AA@ 200509f0     ai_dmnet.obj
 0002:00000a00       ??_C@_0BD@FAEFJCHC@intermission?3?5chat?$AA@ 20050a00     ai_dmnet.obj
 0002:00000a14       ??_C@_08BDAIAION@observer?$AA@ 20050a14     ai_dmnet.obj
 0002:00000a20       ??_C@_0BI@BGMGILOO@observer?3?5left?5observer?$AA@ 20050a20     ai_dmnet.obj
 0002:00000a38       ??_C@_05PJLLPND@stand?$AA@ 20050a38     ai_dmnet.obj
 0002:00000a40       ??_C@_0BD@EFNKCGD@stand?3?5found?5enemy?$AA@ 20050a40     ai_dmnet.obj
 0002:00000a54       ??_C@_0BA@EJJPLHJN@stand?3?5time?5out?$AA@ 20050a54     ai_dmnet.obj
 0002:00000a64       ??_C@_07PABIOCAD@respawn?$AA@ 20050a64     ai_dmnet.obj
 0002:00000a6c       ??_C@_0BD@MNFAOLC@respawn?3?5respawned?$AA@ 20050a6c     ai_dmnet.obj
 0002:00000a80       ??_C@_0BA@OLIPHEKA@activate?5entity?$AA@ 20050a80     ai_dmnet.obj
 0002:00000a90       ??_C@_0BI@CFBHMKPG@active?5entity?3?5observer?$AA@ 20050a90     ai_dmnet.obj
 0002:00000aa8       ??_C@_0BO@DDGLLAGC@activate?5entity?3?5intermission?$AA@ 20050aa8     ai_dmnet.obj
 0002:00000ac8       ??_C@_0BK@EGCINOOI@activate?5entity?3?5bot?5dead?$AA@ 20050ac8     ai_dmnet.obj
 0002:00000ae4       ??_C@_0BJ@EEHKLOIJ@activate?5entity?3?5no?5goal?$AA@ 20050ae4     ai_dmnet.obj
 0002:00000b00       ??_C@_0BK@GBGNKJEG@activate?5entity?3?5time?5out?$AA@ 20050b00     ai_dmnet.obj
 0002:00000b1c       ??_C@_0BL@KOANFMEA@activate?5entity?3?5activated?$AA@ 20050b1c     ai_dmnet.obj
 0002:00000b38       ??_C@_0BN@CHDNEHF@activate?5entity?3?5found?5enemy?$AA@ 20050b38     ai_dmnet.obj
 0002:00000b58       ??_C@_08IFECKGCD@seek?5NBG?$AA@ 20050b58     ai_dmnet.obj
 0002:00000b64       ??_C@_07ONOEGCJB@no?5goal?$AA@ 20050b64     ai_dmnet.obj
 0002:00000b6c       ??_C@_0BD@GLAPFIFB@seek?5nbg?3?5observer?$AA@ 20050b6c     ai_dmnet.obj
 0002:00000b80       ??_C@_0BG@FJPIPBDN@seek?5nbg?3?5intermision?$AA@ 20050b80     ai_dmnet.obj
 0002:00000b98       ??_C@_0BD@CNOKIINO@seek?5nbg?3?5bot?5dead?$AA@ 20050b98     ai_dmnet.obj
 0002:00000bac       ??_C@_0BD@KKPPPHA@seek?5nbg?3?5time?5out?$AA@ 20050bac     ai_dmnet.obj
 0002:00000bc0       ??_C@_0BG@LLBOBEHC@seek?5nbg?3?5found?5enemy?$AA@ 20050bc0     ai_dmnet.obj
 0002:00000bd8       ??_C@_08DHOALBGK@seek?5LTG?$AA@ 20050bd8     ai_dmnet.obj
 0002:00000be4       ??_C@_0BD@JOIDOFPL@seek?5ltg?3?5observer?$AA@ 20050be4     ai_dmnet.obj
 0002:00000bf8       ??_C@_0BH@BIAHANPH@seek?5ltg?3?5intermission?$AA@ 20050bf8     ai_dmnet.obj
 0002:00000c10       ??_C@_0BD@NIGGDFHE@seek?5ltg?3?5bot?5dead?$AA@ 20050c10     ai_dmnet.obj
 0002:00000c24       ??_C@_0BG@FMPBNGLO@seek?5ltg?3?5random?5chat?$AA@ 20050c24     ai_dmnet.obj
 0002:00000c3c       ??_C@_0BG@NKJENDMP@seek?5ltg?3?5found?5enemy?$AA@ 20050c3c     ai_dmnet.obj
 0002:00000c54       ??_C@_0O@OMHBKBBP@ltg?5seek?3?5nbg?$AA@ 20050c54     ai_dmnet.obj
 0002:00000c64       ??_C@_0N@JAICAHME@battle?5fight?$AA@ 20050c64     ai_dmnet.obj
 0002:00000c74       ??_C@_0BH@GEIFMEHN@battle?5fight?3?5observer?$AA@ 20050c74     ai_dmnet.obj
 0002:00000c8c       ??_C@_0BL@OCIIHEED@battle?5fight?3?5intermission?$AA@ 20050c8c     ai_dmnet.obj
 0002:00000ca8       ??_C@_0BH@CCGABEPC@battle?5fight?3?5bot?5dead?$AA@ 20050ca8     ai_dmnet.obj
 0002:00000cc0       ??_C@_0BH@PAJNDMEE@battle?5fight?3?5no?5enemy?$AA@ 20050cc0     ai_dmnet.obj
 0002:00000cd8       ??_C@_0BJ@JCMOALOB@battle?5fight?3?5enemy?5dead?$AA@ 20050cd8     ai_dmnet.obj
 0002:00000cf4       ??_C@_0BI@PALDJFNB@battle?5fight?3?5invisible?$AA@ 20050cf4     ai_dmnet.obj
 0002:00000d0c       ??_C@_0CE@HNIMDJBG@battle?5fight?3?5chat?5health?5decrea@ 20050d0c     ai_dmnet.obj
 0002:00000d30       ??_C@_0BP@NBCPEGCG@battle?5fight?3?5chat?5hit?5someone?$AA@ 20050d30     ai_dmnet.obj
 0002:00000d50       ??_C@_0CB@IGGJLKOL@battle?5fight?3?5enemy?5out?5of?5sight@ 20050d50     ai_dmnet.obj
 0002:00000d74       ??_C@_0BP@KNHNJPON@battle?5fight?3?5wants?5to?5retreat?$AA@ 20050d74     ai_dmnet.obj
 0002:00000d94       ??_C@_0N@JLOOIPJK@battle?5chase?$AA@ 20050d94     ai_dmnet.obj
 0002:00000da4       ??_C@_0BH@JLJGDBNP@battle?5chase?3?5observer?$AA@ 20050da4     ai_dmnet.obj
 0002:00000dbc       ??_C@_0BL@PKAILKOJ@battle?5chase?3?5intermission?$AA@ 20050dbc     ai_dmnet.obj
 0002:00000dd8       ??_C@_0BH@NNHDOBFA@battle?5chase?3?5bot?5dead?$AA@ 20050dd8     ai_dmnet.obj
 0002:00000df0       ??_C@_0BH@PIOMJOG@battle?5chase?3?5no?5enemy?$AA@ 20050df0     ai_dmnet.obj
 0002:00000e08       ??_C@_0BL@BJLICKPC@battle?5chase?3?5better?5enemy?$AA@ 20050e08     ai_dmnet.obj
 0002:00000e24       ??_C@_0BM@JANANJEH@battle?5chase?3?5no?5enemy?5area?$AA@ 20050e24     ai_dmnet.obj
 0002:00000e40       ??_C@_0BH@PKDGJGPO@battle?5chase?3?5time?5out?$AA@ 20050e40     ai_dmnet.obj
 0002:00000e58       ??_C@_0BC@MBHDFOHG@battle?5chase?3?5nbg?$AA@ 20050e58     ai_dmnet.obj
 0002:00000e6c       ??_C@_0BP@DMHFNNNL@battle?5chase?3?5wants?5to?5retreat?$AA@ 20050e6c     ai_dmnet.obj
 0002:00000e8c       ??_C@_0P@ELFCJAMH@battle?5retreat?$AA@ 20050e8c     ai_dmnet.obj
 0002:00000e9c       ??_C@_0BJ@IOJPHBCK@battle?5retreat?3?5observer?$AA@ 20050e9c     ai_dmnet.obj
 0002:00000eb8       ??_C@_0BN@IHDFIOBO@battle?5retreat?3?5intermission?$AA@ 20050eb8     ai_dmnet.obj
 0002:00000ed8       ??_C@_0BJ@MIHKKBKF@battle?5retreat?3?5bot?5dead?$AA@ 20050ed8     ai_dmnet.obj
 0002:00000ef4       ??_C@_0BJ@BKIHIJBD@battle?5retreat?3?5no?5enemy?$AA@ 20050ef4     ai_dmnet.obj
 0002:00000f10       ??_C@_0BL@NMDPGNGL@battle?5retreat?3?5enemy?5dead?$AA@ 20050f10     ai_dmnet.obj
 0002:00000f2c       ??_C@_0BP@PDKIMDBN@battle?5retreat?3?5wants?5to?5chase?$AA@ 20050f2c     ai_dmnet.obj
 0002:00000f4c       ??_C@_0BL@KBIAJDEJ@battle?5retreat?3?5lost?5enemy?$AA@ 20050f4c     ai_dmnet.obj
 0002:00000f68       ??_C@_0BO@JHDCIIFI@battle?5retreat?3?5another?5enemy?$AA@ 20050f68     ai_dmnet.obj
 0002:00000f88       ??_C@_0BL@IFDBGGDM@battle?5retreat?3?5no?5way?5out?$AA@ 20050f88     ai_dmnet.obj
 0002:00000fa4       ??_C@_0BE@EEPGNAKO@battle?5retreat?3?5nbg?$AA@ 20050fa4     ai_dmnet.obj
 0002:00000fb8       ??_C@_0L@EFLDDLAJ@battle?5NBG?$AA@ 20050fb8     ai_dmnet.obj
 0002:00000fc4       ??_C@_0BF@PHHGOFHO@battle?5nbg?3?5observer?$AA@ 20050fc4     ai_dmnet.obj
 0002:00000fdc       ??_C@_0BJ@JPCFIHPK@battle?5nbg?3?5intermission?$AA@ 20050fdc     ai_dmnet.obj
 0002:00000ff8       ??_C@_0BF@LBJDDFPB@battle?5nbg?3?5bot?5dead?$AA@ 20050ff8     ai_dmnet.obj
 0002:00001010       ??_C@_0BF@GDGOBNEH@battle?5nbg?3?5no?5enemy?$AA@ 20051010     ai_dmnet.obj
 0002:00001028       ??_C@_0BH@PFIKNLIP@battle?5nbg?3?5enemy?5dead?$AA@ 20051028     ai_dmnet.obj
 0002:00001040       ??_C@_0BF@JGNGECFP@battle?5nbg?3?5time?5out?$AA@ 20051040     ai_dmnet.obj
 0002:00001058       __real@3f847ae147ae147b    20051058     ai_dmnet.obj
 0002:00001060       __real@3fa999999999999a    20051060     ai_dmnet.obj
 0002:00001068       __real@3fc999999999999a    20051068     ai_dmnet.obj
 0002:00001070       __real@3fd3333333333333    20051070     ai_dmnet.obj
 0002:00001078       __real@3fe6666666666666    20051078     ai_dmnet.obj
 0002:00001080       __real@3fe999999999999a    20051080     ai_dmnet.obj
 0002:00001088       __real@3ff0000000000000    20051088     ai_dmnet.obj
 0002:00001090       __real@402e000000000000    20051090     ai_dmnet.obj
 0002:00001098       __real@40400000            20051098     ai_dmnet.obj
 0002:0000109c       __real@40800000            2005109c     ai_dmnet.obj
 0002:000010a0       __real@40a00000            200510a0     ai_dmnet.obj
 0002:000010a4       __real@40c00000            200510a4     ai_dmnet.obj
 0002:000010a8       __real@41000000            200510a8     ai_dmnet.obj
 0002:000010ac       __real@41700000            200510ac     ai_dmnet.obj
 0002:000010b0       __real@41800000            200510b0     ai_dmnet.obj
 0002:000010b4       __real@41a00000            200510b4     ai_dmnet.obj
 0002:000010b8       __real@42480000            200510b8     ai_dmnet.obj
 0002:000010bc       __real@42a00000            200510bc     ai_dmnet.obj
 0002:000010c0       __real@43160000            200510c0     ai_dmnet.obj
 0002:000010c4       __real@43960000            200510c4     ai_dmnet.obj
 0002:000010c8       __real@447a0000            200510c8     ai_dmnet.obj
 0002:000010cc       __real@45610000            200510cc     ai_dmnet.obj
 0002:000010d0       __real@45992000            200510d0     ai_dmnet.obj
 0002:000010d4       __real@461c4000            200510d4     ai_dmnet.obj
 0002:000010d8       __real@48742400            200510d8     ai_dmnet.obj
 0002:000010dc       ??_C@_02DPKJAMEF@?$CFd?$AA@ 200510dc     ai_dmq3.obj
 0002:000010e0       ??_C@_08OKGPDOIO@teamtask?$AA@ 200510e0     ai_dmq3.obj
 0002:000010ec       ??_C@_02KAJCLHKP@no?$AA@   200510ec     ai_dmq3.obj
 0002:000010f0       ??_C@_09BJNHNGHD@ihaveflag?$AA@ 200510f0     ai_dmq3.obj
 0002:000010fc       ??_C@_08EAEOGCCG@onfollow?$AA@ 200510fc     ai_dmq3.obj
 0002:00001108       ??_C@_0CB@FEANAAEF@ClientName?3?5client?5out?5of?5range?6@ 20051108     ai_dmq3.obj
 0002:0000112c       ??_C@_0BG@EPIHOAD@?$FLclient?5out?5of?5range?$FN?$AA@ 2005112c     ai_dmq3.obj
 0002:00001144       ??_C@_05NCCFOPHA@model?$AA@ 20051144     ai_dmq3.obj
 0002:0000114c       ??_C@_01CLKCMJKC@?5?$AA@   2005114c     ai_dmq3.obj
 0002:00001150       ??_C@_01OHGJGJJP@?$FL?$AA@ 20051150     ai_dmq3.obj
 0002:00001154       ??_C@_01LBDDMOBJ@?$FN?$AA@ 20051154     ai_dmq3.obj
 0002:00001158       ??_C@_0O@LCEABBKD@wantonoffense?$AA@ 20051158     ai_dmq3.obj
 0002:00001168       ??_C@_0O@NOMCBHGI@wantondefense?$AA@ 20051168     ai_dmq3.obj
 0002:00001178       ??_C@_0CF@BEIOCA@BotCreateWayPoint?3?5Out?5of?5waypoi@ 20051178     ai_dmq3.obj
 0002:000011a0       ??_C@_0L@IMOIIFCE@q3tourney6?$AA@ 200511a0     ai_dmq3.obj
 0002:000011ac       ??_C@_0N@IFIOEJJO@mpq3tourney6?$AA@ 200511ac     ai_dmq3.obj
 0002:000011bc       ??_C@_03MHHCOBAB@lip?$AA@  200511bc     ai_dmq3.obj
 0002:000011c0       ??_C@_05FECBCJJD@angle?$AA@ 200511c0     ai_dmq3.obj
 0002:000011c8       ??_C@_06KJINILIP@health?$AA@ 200511c8     ai_dmq3.obj
 0002:000011d0       ??_C@_03COCDEFBB@?$CK?$CFd?$AA@ 200511d0     ai_dmq3.obj
 0002:000011d4       ??_C@_0DD@KCKJBPAH@BotGetActivateGoal?3?5no?5entity?5fo@ 200511d4     ai_dmq3.obj
 0002:00001208       ??_C@_09CNJINBGN@classname?$AA@ 20051208     ai_dmq3.obj
 0002:00001214       ??_C@_09KJCKJKEG@func_door?$AA@ 20051214     ai_dmq3.obj
 0002:00001220       ??_C@_0L@HLIKNEFC@spawnflags?$AA@ 20051220     ai_dmq3.obj
 0002:0000122c       ??_C@_06NHCMNMEH@origin?$AA@ 2005122c     ai_dmq3.obj
 0002:00001234       ??_C@_0M@PNMKBMEP@func_button?$AA@ 20051234     ai_dmq3.obj
 0002:00001240       ??_C@_0L@FEPNPAJD@targetname?$AA@ 20051240     ai_dmq3.obj
 0002:0000124c       ??_C@_0DO@HIKLPKA@BotGetActivateGoal?3?5entity?5with?5@ 2005124c     ai_dmq3.obj
 0002:0000128c       ??_C@_06JJLAMBGK@target?$AA@ 2005128c     ai_dmq3.obj
 0002:00001294       ??_C@_0DA@LAOMJDKC@BotGetActivateGoal?3?5no?5entity?5wi@ 20051294     ai_dmq3.obj
 0002:000012c4       ??_C@_0DO@JNGNHOKO@BotGetActivateGoal?3?5entity?5with?5@ 200512c4     ai_dmq3.obj
 0002:00001304       ??_C@_0BB@LKHFHPEP@trigger_multiple?$AA@ 20051304     ai_dmq3.obj
 0002:00001318       ??_C@_0L@LNOJFPAO@func_timer?$AA@ 20051318     ai_dmq3.obj
 0002:00001324       ??_C@_0N@JGBHMGAI@target_relay?$AA@ 20051324     ai_dmq3.obj
 0002:00001334       ??_C@_0N@EDJICHIO@target_delay?$AA@ 20051334     ai_dmq3.obj
 0002:00001344       ??_C@_0BF@GIIMEEEB@BotGoForActivateGoal?$AA@ 20051344     ai_dmq3.obj
 0002:0000135c       ??_C@_01HIHLOKLC@1?$AA@    2005135c     ai_dmq3.obj
 0002:00001360       ??_C@_0O@BBHMLBKC@bot_testrchat?$AA@ 20051360     ai_dmq3.obj
 0002:00001370       ??_C@_0BK@ICOBFDNE@?9?9?9?9?9?9?9?9?9?9?9?9?9?9?9?9?9?9?9?9?9?9?9?9?6?$AA@ 20051370     ai_dmq3.obj
 0002:0000138c       ??_C@_0BK@IPGPBJPO@?$CK?$CK?$CK?$CK?5no?5valid?5reply?5?$CK?$CK?$CK?$CK?6?$AA@ 2005138c     ai_dmq3.obj
 0002:000013a8       ??_C@_0CE@HJEADBFH@BotCheckConsoleMessages?3?5reply?5c@ 200513a8     ai_dmq3.obj
 0002:000013cc       ??_C@_0CO@MPBFDNLO@EV_GLOBAL_SOUND?3?5eventParm?5?$CI?$CFd?$CJ?5@ 200513cc     ai_dmq3.obj
 0002:000013fc       ??_C@_0CA@FLGMIHAB@sound?1items?1kamikazerespawn?4wav?$AA@ 200513fc     ai_dmq3.obj
 0002:0000141c       ??_C@_0BP@NBLBCCPC@sound?1items?1poweruprespawn?4wav?$AA@ 2005141c     ai_dmq3.obj
 0002:0000143c       ??_C@_0CP@JEHKHMIG@EV_GENERAL_SOUND?3?5eventParm?5?$CI?$CFd?$CJ@ 2005143c     ai_dmq3.obj
 0002:0000146c       ??_C@_0O@LBBMLEKM@?$CKfalling1?4wav?$AA@ 2005146c     ai_dmq3.obj
 0002:0000147c       ??_C@_0CE@JCDEJDHJ@no?5alt?5routes?5without?5Neutral?5Fl@ 2005147c     ai_dmq3.obj
 0002:000014a0       ??_C@_0CD@DLDBHIJO@Harvester?5without?5neutral?5obelis@ 200514a0     ai_dmq3.obj
 0002:000014c4       ??_C@_03OMLNFKE@sex?$AA@   200514c4     ai_dmq3.obj
 0002:000014c8       ??_C@_07FDOFLCLN@team?5?$CFs?$AA@ 200514c8     ai_dmq3.obj
 0002:000014d0       ??_C@_0BM@EKLHMNBH@BotDeathmatchAI?3?5no?5ai?5node?$AA@ 200514d0     ai_dmq3.obj
 0002:000014ec       ??_C@_0CB@MGIHMDHM@BotDeathmatchAI?3?5chat?5enter?5game@ 200514ec     ai_dmq3.obj
 0002:00001510       ??_C@_0L@GFINLBEC@g_gametype?$AA@ 20051510     ai_dmq3.obj
 0002:0000151c       ??_C@_0P@OLNMGHML@bot_rocketjump?$AA@ 2005151c     ai_dmq3.obj
 0002:0000152c       ??_C@_01GBGANLPD@0?$AA@    2005152c     ai_dmq3.obj
 0002:00001530       ??_C@_0M@HIPNFLBG@bot_grapple?$AA@ 20051530     ai_dmq3.obj
 0002:0000153c       ??_C@_0N@JOELMLFL@bot_fastchat?$AA@ 2005153c     ai_dmq3.obj
 0002:0000154c       ??_C@_0L@JNAIAIAH@bot_nochat?$AA@ 2005154c     ai_dmq3.obj
 0002:00001558       ??_C@_0O@ILENLOKO@bot_challenge?$AA@ 20051558     ai_dmq3.obj
 0002:00001568       ??_C@_0BF@JHNEDFAH@bot_predictobstacles?$AA@ 20051568     ai_dmq3.obj
 0002:00001580       ??_C@_01FDFGLJHB@2?$AA@    20051580     ai_dmq3.obj
 0002:00001584       ??_C@_09OGEBNCBM@g_spSkill?$AA@ 20051584     ai_dmq3.obj
 0002:00001590       ??_C@_0BG@HPNDPJMP@CTF?5without?5Red?5Flag?6?$AA@ 20051590     ai_dmq3.obj
 0002:000015a8       ??_C@_0BH@KKMLANHJ@CTF?5without?5Blue?5Flag?6?$AA@ 200515a8     ai_dmq3.obj
 0002:000015c0       ??_C@_0CD@FCGJGPBJ@One?5Flag?5CTF?5without?5Neutral?5Fla@ 200515c0     ai_dmq3.obj
 0002:000015e4       ??_C@_0BN@KAPMIPOB@Obelisk?5without?5red?5obelisk?6?$AA@ 200515e4     ai_dmq3.obj
 0002:00001604       ??_C@_0BA@GIMOGCGC@team_redobelisk?$AA@ 20051604     ai_dmq3.obj
 0002:00001614       ??_C@_0BO@FLEBNDBG@Obelisk?5without?5blue?5obelisk?6?$AA@ 20051614     ai_dmq3.obj
 0002:00001634       ??_C@_0BB@JDBGHPJP@team_blueobelisk?$AA@ 20051634     ai_dmq3.obj
 0002:00001648       ??_C@_0BP@PAJGFONI@Harvester?5without?5red?5obelisk?6?$AA@ 20051648     ai_dmq3.obj
 0002:00001668       ??_C@_0CA@EBEDBMP@Harvester?5without?5blue?5obelisk?6?$AA@ 20051668     ai_dmq3.obj
 0002:00001688       ??_C@_0BE@IJGDOOPG@team_neutralobelisk?$AA@ 20051688     ai_dmq3.obj
 0002:0000169c       __real@38d1b717            2005169c     ai_dmq3.obj
 0002:000016a0       __real@3e4ccccd            200516a0     ai_dmq3.obj
 0002:000016a4       __real@3ecccccd            200516a4     ai_dmq3.obj
 0002:000016a8       __real@3f333333            200516a8     ai_dmq3.obj
 0002:000016ac       __real@3f400000            200516ac     ai_dmq3.obj
 0002:000016b0       __real@3f50624dd2f1a9fc    200516b0     ai_dmq3.obj
 0002:000016b8       __real@3f666666            200516b8     ai_dmq3.obj
 0002:000016c0       __real@3fe3333333333333    200516c0     ai_dmq3.obj
 0002:000016c8       __real@3feccccccccccccd    200516c8     ai_dmq3.obj
 0002:000016d0       __real@3fedeb851eb851ec    200516d0     ai_dmq3.obj
 0002:000016d8       __real@3fee666666666666    200516d8     ai_dmq3.obj
 0002:000016e0       __real@3fefae147ae147ae    200516e0     ai_dmq3.obj
 0002:000016e8       __real@3ff8000000000000    200516e8     ai_dmq3.obj
 0002:000016f0       __real@4000000000000000    200516f0     ai_dmq3.obj
 0002:000016f8       __real@4014000000000000    200516f8     ai_dmq3.obj
 0002:00001700       __real@4020000000000000    20051700     ai_dmq3.obj
 0002:00001708       __real@4024000000000000    20051708     ai_dmq3.obj
 0002:00001710       __real@4034000000000000    20051710     ai_dmq3.obj
 0002:00001718       __real@4049000000000000    20051718     ai_dmq3.obj
 0002:00001720       __real@4058000000000000    20051720     ai_dmq3.obj
 0002:00001728       __real@4076800000000000    20051728     ai_dmq3.obj
 0002:00001730       __real@408c200000000000    20051730     ai_dmq3.obj
 0002:00001738       __real@408f400000000000    20051738     ai_dmq3.obj
 0002:00001740       __real@40af400000000000    20051740     ai_dmq3.obj
 0002:00001748       __real@4129eb851eb851ec    20051748     ai_dmq3.obj
 0002:00001750       __real@41400000            20051750     ai_dmq3.obj
 0002:00001754       __real@41b80000            20051754     ai_dmq3.obj
 0002:00001758       __real@42200000            20051758     ai_dmq3.obj
 0002:0000175c       __real@42800000            2005175c     ai_dmq3.obj
 0002:00001760       __real@428c0000            20051760     ai_dmq3.obj
 0002:00001764       __real@42aa0000            20051764     ai_dmq3.obj
 0002:00001768       __real@42b40000            20051768     ai_dmq3.obj
 0002:0000176c       __real@42be0000            2005176c     ai_dmq3.obj
 0002:00001770       __real@43000000            20051770     ai_dmq3.obj
 0002:00001774       __real@430c0000            20051774     ai_dmq3.obj
 0002:00001778       __real@43480000            20051778     ai_dmq3.obj
 0002:0000177c       __real@434c0000            2005177c     ai_dmq3.obj
 0002:00001780       __real@43980000            20051780     ai_dmq3.obj
 0002:00001784       __real@43b00000            20051784     ai_dmq3.obj
 0002:00001788       __real@43b40000            20051788     ai_dmq3.obj
 0002:0000178c       __real@43ea0000            2005178c     ai_dmq3.obj
 0002:00001790       __real@44000000            20051790     ai_dmq3.obj
 0002:00001794       __real@44280000            20051794     ai_dmq3.obj
 0002:00001798       __real@442f0000            20051798     ai_dmq3.obj
 0002:0000179c       __real@44480000            2005179c     ai_dmq3.obj
 0002:000017a0       __real@44660000            200517a0     ai_dmq3.obj
 0002:000017a4       __real@44710000            200517a4     ai_dmq3.obj
 0002:000017a8       __real@4479c000            200517a8     ai_dmq3.obj
 0002:000017ac       __real@44800000            200517ac     ai_dmq3.obj
 0002:000017b0       __real@45100000            200517b0     ai_dmq3.obj
 0002:000017b4       __real@45c80000            200517b4     ai_dmq3.obj
 0002:000017b8       __real@45e3d000            200517b8     ai_dmq3.obj
 0002:000017bc       __real@461c3c00            200517bc     ai_dmq3.obj
 0002:000017c0       __real@471c4000            200517c0     ai_dmq3.obj
 0002:000017c4       __real@47afc800            200517c4     ai_dmq3.obj
 0002:000017c8       __real@47c34f80            200517c8     ai_dmq3.obj
 0002:000017cc       __real@49202e40            200517cc     ai_dmq3.obj
 0002:000017d0       __real@49800000            200517d0     ai_dmq3.obj
 0002:000017d8       __real@bff0000000000000    200517d8     ai_dmq3.obj
 0002:000017e0       __real@c3340000            200517e0     ai_dmq3.obj
 0002:000017f0       __xmm@7fffffffffffffff7fffffffffffffff 200517f0     ai_dmq3.obj
 0002:00001800       ??_C@_02DKCKIIND@?$CFs?$AA@ 20051800     ai_main.obj
 0002:00001804       ??_C@_0O@LHCIHOMB@?$FO3Warning?3?5?$CFs?$AA@ 20051804     ai_main.obj
 0002:00001814       ??_C@_0M@LKBEKEOF@?$FO1Error?3?5?$CFs?$AA@ 20051814     ai_main.obj
 0002:00001820       ??_C@_0M@GLOCHAGD@?$FO1Fatal?3?5?$CFs?$AA@ 20051820     ai_main.obj
 0002:0000182c       ??_C@_0L@CNJLHKJM@?$FO1Exit?3?5?$CFs?$AA@ 2005182c     ai_main.obj
 0002:00001838       ??_C@_0BE@HKMNOMAG@unknown?5print?5type?6?$AA@ 20051838     ai_main.obj
 0002:0000184c       ??_C@_0M@DHMCHLIE@?$ANemtpy?5area?$AA@ 2005184c     ai_main.obj
 0002:00001858       ??_C@_0O@IFLBEIIP@?$AN?$FO1SOLID?5area?$AA@ 20051858     ai_main.obj
 0002:00001868       ??_C@_0CI@JOJDDOJC@?$AN?$FO1Solid?$CB?5?5?5?5?5?5?5?5?5?5?5?5?5?5?5?5?5?5?5?5?5?5?5@ 20051868     ai_main.obj
 0002:00001890       ??_C@_0BM@BOKNIJ@?$ANarea?5?$CFd?0?5cluster?5?$CFd?5?5?5?5?5?5?5?$AA@ 20051890     ai_main.obj
 0002:000018ac       ??_C@_01OCOKONAJ@L?$AA@    200518ac     ai_main.obj
 0002:000018b0       ??_C@_02KNHHEEKP@?5?5?$AA@ 200518b0     ai_main.obj
 0002:000018b4       ??_C@_02OBCNPDDN@F?5?$AA@  200518b4     ai_main.obj
 0002:000018b8       ??_C@_03GPCJOALC@?$CF2d?$AA@ 200518b8     ai_main.obj
 0002:000018bc       ??_C@_0L@MCMCNIDL@helping?5?$CFs?$AA@ 200518bc     ai_main.obj
 0002:000018c8       ??_C@_0BA@MCDBGPCI@accompanying?5?$CFs?$AA@ 200518c8     ai_main.obj
 0002:000018d8       ??_C@_0N@FMPLLINE@defending?5?$CFs?$AA@ 200518d8     ai_main.obj
 0002:000018e8       ??_C@_0BA@FNOGAFMM@getting?5item?5?$CFs?$AA@ 200518e8     ai_main.obj
 0002:000018f8       ??_C@_0L@GKAIHKNA@killing?5?$CFs?$AA@ 200518f8     ai_main.obj
 0002:00001904       ??_C@_0P@PCPLLEMM@capturing?5flag?$AA@ 20051904     ai_main.obj
 0002:00001914       ??_C@_0N@GBHDPJKL@rushing?5base?$AA@ 20051914     ai_main.obj
 0002:00001924       ??_C@_0P@FJHLCNGM@returning?5flag?$AA@ 20051924     ai_main.obj
 0002:00001934       ??_C@_0BJ@PEPADENJ@attacking?5the?5enemy?5base?$AA@ 20051934     ai_main.obj
 0002:00001950       ??_C@_0L@IPEIBHBA@roaming?5?$CFs?$AA@ 20051950     ai_main.obj
 0002:0000195c       ??_C@_0P@LMJINGO@l?2?$CFs?2c?2?$CFs?2a?2?$CFs?$AA@ 2005195c     ai_main.obj
 0002:0000196c       ??_C@_0BE@IDNEOHBL@bot_interbreedwrite?$AA@ 2005196c     ai_main.obj
 0002:00001980       ??_C@_0BF@BBFOCAKO@bot_reloadcharacters?$AA@ 20051980     ai_main.obj
 0002:00001998       ??_C@_0BK@CCAPHDJA@addbot?5?$CFs?54?5free?5?$CFi?5?$CFs?$CFd?6?$AA@ 20051998     ai_main.obj
 0002:000019b4       ??_C@_0BD@MIDHDJEH@bot_interbreedchar?$AA@ 200519b4     ai_main.obj
 0002:000019c8       ??_C@_0BP@MGBLPCKB@BotAI?3?5client?5?$CFd?5is?5not?5setup?6?$AA@ 200519c8     ai_main.obj
 0002:000019e8       ??_C@_03DGFNDEPM@cp?5?$AA@ 200519e8     ai_main.obj
 0002:000019ec       ??_C@_02EODNHJKB@cs?$AA@   200519ec     ai_main.obj
 0002:000019f0       ??_C@_05IJDJACGD@print?$AA@ 200519f0     ai_main.obj
 0002:000019f8       ??_C@_04BLJLMHHG@chat?$AA@ 200519f8     ai_main.obj
 0002:00001a00       ??_C@_05PMMINOBP@tchat?$AA@ 20051a00     ai_main.obj
 0002:00001a08       ??_C@_05LBAAHPBE@vchat?$AA@ 20051a08     ai_main.obj
 0002:00001a10       ??_C@_06FPNOEFND@vtchat?$AA@ 20051a10     ai_main.obj
 0002:00001a18       ??_C@_05BLGJOHFB@vtell?$AA@ 20051a18     ai_main.obj
 0002:00001a20       ??_C@_06KBCJDMLG@scores?$AA@ 20051a20     ai_main.obj
 0002:00001a28       ??_C@_0BA@GNMFKLDC@clientLevelShot?$AA@ 20051a28     ai_main.obj
 0002:00001a38       ??_C@_0DD@CAOHNHKP@?$CFi?5?$CFi?5?$CFi?5?$CFi?5?$CFi?5?$CFi?5?$CFi?5?$CFi?5?$CFf?5?$CFf?5?$CFf@ 20051a38     ai_main.obj
 0002:00001a6c       ??_C@_0N@BLBFMIAO@botsession?$CFi?$AA@ 20051a6c     ai_main.obj
 0002:00001a7c       ??_C@_0CL@MOACODCL@BotAISetupClient?3?5client?5?$CFd?5alre@ 20051a7c     ai_main.obj
 0002:00001aa8       ??_C@_0BF@PINCHNMN@AAS?5not?5initialized?6?$AA@ 20051aa8     ai_main.obj
 0002:00001ac0       ??_C@_0CA@KCEBJEJI@couldn?8t?5load?5skill?5?$CFf?5from?5?$CFs?6?$AA@ 20051ac0     ai_main.obj
 0002:00001ae0       ??_C@_0O@HIGNEDPK@bot_testichat?$AA@ 20051ae0     ai_main.obj
 0002:00001af0       ??_C@_0L@JEKILDFB@memorydump?$AA@ 20051af0     ai_main.obj
 0002:00001afc       ??_C@_0P@CMKPBNJI@bot_memorydump?$AA@ 20051afc     ai_main.obj
 0002:00001b0c       ??_C@_0BB@GMCJAANP@saveroutingcache?$AA@ 20051b0c     ai_main.obj
 0002:00001b20       ??_C@_0BF@MDEDPJEF@bot_saveroutingcache?$AA@ 20051b20     ai_main.obj
 0002:00001b38       ??_C@_03HPLEMDKK@200?$AA@  20051b38     ai_main.obj
 0002:00001b3c       ??_C@_0O@NKIABNEG@bot_thinktime?$AA@ 20051b3c     ai_main.obj
 0002:00001b4c       ??_C@_0L@JKCONGEA@maxclients?$AA@ 20051b4c     ai_main.obj
 0002:00001b58       ??_C@_0M@KCCINJFC@maxentities?$AA@ 20051b58     ai_main.obj
 0002:00001b64       ??_C@_0P@HEEKJLPJ@sv_mapChecksum?$AA@ 20051b64     ai_main.obj
 0002:00001b74       ??_C@_0N@PMPJOGOE@max_aaslinks?$AA@ 20051b74     ai_main.obj
 0002:00001b84       ??_C@_0P@HIDOFLAM@max_levelitems?$AA@ 20051b84     ai_main.obj
 0002:00001b94       ??_C@_0O@IHEJFHJE@bot_developer?$AA@ 20051b94     ai_main.obj
 0002:00001ba4       ??_C@_03MGHMBJCF@log?$AA@  20051ba4     ai_main.obj
 0002:00001ba8       ??_C@_06GCPOGFCC@nochat?$AA@ 20051ba8     ai_main.obj
 0002:00001bb0       ??_C@_0BG@HILKKLKJ@bot_visualizejumppads?$AA@ 20051bb0     ai_main.obj
 0002:00001bc8       ??_C@_0BE@HANIKEON@bot_forceclustering?$AA@ 20051bc8     ai_main.obj
 0002:00001bdc       ??_C@_0BA@BADKHCEE@forceclustering?$AA@ 20051bdc     ai_main.obj
 0002:00001bec       ??_C@_0BG@GJKIOMNG@bot_forcereachability?$AA@ 20051bec     ai_main.obj
 0002:00001c04       ??_C@_0BC@HJNNPMHF@forcereachability?$AA@ 20051c04     ai_main.obj
 0002:00001c18       ??_C@_0P@HFCEKFCE@bot_forcewrite?$AA@ 20051c18     ai_main.obj
 0002:00001c28       ??_C@_0L@MNCDALON@forcewrite?$AA@ 20051c28     ai_main.obj
 0002:00001c34       ??_C@_0BA@CHMPBPHA@bot_aasoptimize?$AA@ 20051c34     ai_main.obj
 0002:00001c44       ??_C@_0M@MFMPGCMK@aasoptimize?$AA@ 20051c44     ai_main.obj
 0002:00001c50       ??_C@_0M@DGDBFJN@fs_basepath?$AA@ 20051c50     ai_main.obj
 0002:00001c5c       ??_C@_07BHPNMMNM@basedir?$AA@ 20051c5c     ai_main.obj
 0002:00001c64       ??_C@_07FMAMAFJE@fs_game?$AA@ 20051c64     ai_main.obj
 0002:00001c6c       ??_C@_07GGMBKBFD@gamedir?$AA@ 20051c6c     ai_main.obj
 0002:00001c74       ??_C@_09CIALLHHK@fs_cdpath?$AA@ 20051c74     ai_main.obj
 0002:00001c80       ??_C@_05ECKEHJKK@cddir?$AA@ 20051c80     ai_main.obj
 0002:00001c88       ??_C@_0M@FFDGAKJC@MISSIONPACK?$AA@ 20051c88     ai_main.obj
 0002:00001c94       ??_C@_03GNABGMEE@100?$AA@  20051c94     ai_main.obj
 0002:00001c98       ??_C@_09KJGEBPM@bot_pause?$AA@ 20051c98     ai_main.obj
 0002:00001ca4       ??_C@_0L@DIBKBFBJ@bot_report?$AA@ 20051ca4     ai_main.obj
 0002:00001cb0       ??_C@_0O@NEGDFLLI@bot_testsolid?$AA@ 20051cb0     ai_main.obj
 0002:00001cc0       ??_C@_0BB@LICKAML@bot_testclusters?$AA@ 20051cc0     ai_main.obj
 0002:00001cd4       ??_C@_02PKFBJPLJ@10?$AA@   20051cd4     ai_main.obj
 0002:00001cd8       ??_C@_0BD@GLHGHIJE@bot_interbreedbots?$AA@ 20051cd8     ai_main.obj
 0002:00001cec       ??_C@_02PIBHCBOA@20?$AA@   20051cec     ai_main.obj
 0002:00001cf0       ??_C@_0BE@BBMLIECL@bot_interbreedcycle?$AA@ 20051cf0     ai_main.obj
 0002:00001d04       __real@3d4ccccd            20051d04     ai_main.obj
 0002:00001d08       __real@3f76800000000000    20051d08     ai_main.obj
 0002:00001d10       __real@3fdccccccccccccd    20051d10     ai_main.obj
 0002:00001d18       __real@42fe0000            20051d18     ai_main.obj
 0002:00001d1c       __real@43700000            20051d1c     ai_main.obj
 0002:00001d20       __real@43c80000            20051d20     ai_main.obj
 0002:00001d24       __real@47800000            20051d24     ai_main.obj
 0002:00001d28       __real@bf800000            20051d28     ai_main.obj
 0002:00001d2c       ??_C@_0M@CFKBBDNA@?$BJ?$CI?$CFs?$BJ?$CJ?$BJ?3?5?$CFs?$AA@ 20051d2c     ai_team.obj
 0002:00001d38       ??_C@_0N@EGJLLCAG@vsay_team?5?$CFs?$AA@ 20051d38     ai_team.obj
 0002:00001d48       ??_C@_0M@GFLDEJBB@vtell?5?$CFd?5?$CFs?$AA@ 20051d48     ai_team.obj
 0002:00001d54       ??_C@_0O@LJGLNJIC@vosay_team?5?$CFs?$AA@ 20051d54     ai_team.obj
 0002:00001d64       ??_C@_0N@JKLCLNMI@votell?5?$CFd?5?$CFs?$AA@ 20051d64     ai_team.obj
 0002:00001d74       ??_C@_0M@KCHJGFOM@cmd_getflag?$AA@ 20051d74     ai_team.obj
 0002:00001d80       ??_C@_07NOFDDIA@getflag?$AA@ 20051d80     ai_team.obj
 0002:00001d88       ??_C@_0BA@MJCDCBAL@cmd_accompanyme?$AA@ 20051d88     ai_team.obj
 0002:00001d98       ??_C@_0O@FNPCOJLM@cmd_accompany?$AA@ 20051d98     ai_team.obj
 0002:00001da8       ??_C@_0BC@HILCMIJJ@followflagcarrier?$AA@ 20051da8     ai_team.obj
 0002:00001dbc       ??_C@_0L@BCFFODB@returnflag?$AA@ 20051dbc     ai_team.obj
 0002:00001dc8       ??_C@_0P@MGOFKCGO@cmd_defendbase?$AA@ 20051dc8     ai_team.obj
 0002:00001dd8       ??_C@_06BMABBLML@defend?$AA@ 20051dd8     ai_team.obj
 0002:00001de0       ??_C@_0BE@IIDNIHCF@cmd_attackenemybase?$AA@ 20051de0     ai_team.obj
 0002:00001df4       ??_C@_07GBMLDGPP@offense?$AA@ 20051df4     ai_team.obj
 0002:00001dfc       ??_C@_0P@FFLAEJGH@cmd_returnflag?$AA@ 20051dfc     ai_team.obj
 0002:00001e0c       ??_C@_0M@DKOKFOMK@cmd_harvest?$AA@ 20051e0c     ai_team.obj
 0002:00001e18       ??_C@_0BA@JCHIJEGJ@whoisteamleader?$AA@ 20051e18     ai_team.obj
 0002:00001e28       ??_C@_0O@EHLIMCMK@iamteamleader?$AA@ 20051e28     ai_team.obj
 0002:00001e38       ??_C@_0M@GEDMEPM@startleader?$AA@ 20051e38     ai_team.obj
 0002:00001e44       __real@41f00000            20051e44     ai_team.obj
 0002:00001e48       ??_C@_0L@LIAONOLJ@defendflag?$AA@ 20051e48     ai_vcmd.obj
 0002:00001e54       ??_C@_06KPEKKPL@patrol?$AA@ 20051e54     ai_vcmd.obj
 0002:00001e5c       ??_C@_04LOFLEJM@camp?$AA@  20051e5c     ai_vcmd.obj
 0002:00001e64       ??_C@_0L@HELMBEII@stopleader?$AA@ 20051e64     ai_vcmd.obj
 0002:00001e70       ??_C@_0M@JLDAEMIJ@whoisleader?$AA@ 20051e70     ai_vcmd.obj
 0002:00001e7c       ??_C@_08DHCKJNNH@onpatrol?$AA@ 20051e7c     ai_vcmd.obj
 0002:00001e88       ??_C@_0M@NLICANGB@ammo_shells?$AA@ 20051e88     bg_misc.obj
 0002:00001e94       ??_C@_0BH@DPAADLFH@sound?1misc?1am_pkup?4wav?$AA@ 20051e94     bg_misc.obj
 0002:00001eac       ??_C@_0CD@MBAGJHDE@models?1powerups?1ammo?1shotgunam?4m@ 20051eac     bg_misc.obj
 0002:00001ed0       ??_C@_0BE@NMAFHJEI@icons?1icona_shotgun?$AA@ 20051ed0     bg_misc.obj
 0002:00001ee4       ??_C@_06PBPEPGGL@Shells?$AA@ 20051ee4     bg_misc.obj
 0002:00001eec       ??_C@_0N@NHCMDNIK@ammo_bullets?$AA@ 20051eec     bg_misc.obj
 0002:00001efc       ??_C@_0CG@OLENEOKN@models?1powerups?1ammo?1machineguna@ 20051efc     bg_misc.obj
 0002:00001f24       ??_C@_0BH@HMOAGCNP@icons?1icona_machinegun?$AA@ 20051f24     bg_misc.obj
 0002:00001f3c       ??_C@_07DHNDKCGP@Bullets?$AA@ 20051f3c     bg_misc.obj
 0002:00001f44       ??_C@_0O@CMJIOKCF@ammo_grenades?$AA@ 20051f44     bg_misc.obj
 0002:00001f54       ??_C@_0CD@HNOBKKLC@models?1powerups?1ammo?1grenadeam?4m@ 20051f54     bg_misc.obj
 0002:00001f78       ??_C@_0BE@LHOKGGAM@icons?1icona_grenade?$AA@ 20051f78     bg_misc.obj
 0002:00001f8c       ??_C@_08PMBIADEN@Grenades?$AA@ 20051f8c     bg_misc.obj
 0002:00001f98       ??_C@_0L@LLNMBAJC@ammo_cells?$AA@ 20051f98     bg_misc.obj
 0002:00001fa4       ??_C@_0CC@FGLALJGN@models?1powerups?1ammo?1plasmaam?4md@ 20051fa4     bg_misc.obj
 0002:00001fc8       ??_C@_0BD@NCNJEHKB@icons?1icona_plasma?$AA@ 20051fc8     bg_misc.obj
 0002:00001fdc       ??_C@_05KCAMIOGJ@Cells?$AA@ 20051fdc     bg_misc.obj
 0002:00001fe4       ??_C@_0P@NBJHKAMD@ammo_lightning?$AA@ 20051fe4     bg_misc.obj
 0002:00001ff4       ??_C@_0CF@HDAADIIL@models?1powerups?1ammo?1lightningam@ 20051ff4     bg_misc.obj
 0002:0000201c       ??_C@_0BG@MEGMAGOM@icons?1icona_lightning?$AA@ 2005201c     bg_misc.obj
 0002:00002034       ??_C@_09JCCOMJEA@Lightning?$AA@ 20052034     bg_misc.obj
 0002:00002040       ??_C@_0N@CLEPKBOE@ammo_rockets?$AA@ 20052040     bg_misc.obj
 0002:00002050       ??_C@_0CC@KCOEDLFM@models?1powerups?1ammo?1rocketam?4md@ 20052050     bg_misc.obj
 0002:00002074       ??_C@_0BD@BFBJLPJK@icons?1icona_rocket?$AA@ 20052074     bg_misc.obj
 0002:00002088       ??_C@_07MLLADOAB@Rockets?$AA@ 20052088     bg_misc.obj
 0002:00002090       ??_C@_0L@JEFOIHIM@ammo_slugs?$AA@ 20052090     bg_misc.obj
 0002:0000209c       ??_C@_0CD@CAJEPMME@models?1powerups?1ammo?1railgunam?4m@ 2005209c     bg_misc.obj
 0002:000020c0       ??_C@_0BE@DPOADFL@icons?1icona_railgun?$AA@ 200520c0     bg_misc.obj
 0002:000020d4       ??_C@_05INIOBJHH@Slugs?$AA@ 200520d4     bg_misc.obj
 0002:000020dc       ??_C@_08EHEJHGBG@ammo_bfg?$AA@ 200520dc     bg_misc.obj
 0002:000020e8       ??_C@_0BP@BOBKFIKJ@models?1powerups?1ammo?1bfgam?4md3?$AA@ 200520e8     bg_misc.obj
 0002:00002108       ??_C@_0BA@NIKNDLKG@icons?1icona_bfg?$AA@ 20052108     bg_misc.obj
 0002:00002118       ??_C@_08LIBOGPIN@Bfg?5Ammo?$AA@ 20052118     bg_misc.obj
 0002:00002124       ??_C@_0BE@GNEKBMLB@holdable_teleporter?$AA@ 20052124     bg_misc.obj
 0002:00002138       ??_C@_0BJ@PNIOAJDI@sound?1items?1holdable?4wav?$AA@ 20052138     bg_misc.obj
 0002:00002154       ??_C@_0CI@FHEOFFOB@models?1powerups?1holdable?1telepor@ 20052154     bg_misc.obj
 0002:0000217c       ??_C@_0BB@HCFICFKF@icons?1teleporter?$AA@ 2005217c     bg_misc.obj
 0002:00002190       ??_C@_0BE@PCKJDFFA@Personal?5Teleporter?$AA@ 20052190     bg_misc.obj
 0002:000021a4       ??_C@_0BA@PDDMBOCP@holdable_medkit?$AA@ 200521a4     bg_misc.obj
 0002:000021b4       ??_C@_0CE@NKMJILL@models?1powerups?1holdable?1medkit?4@ 200521b4     bg_misc.obj
 0002:000021d8       ??_C@_0CL@LOBKLABC@models?1powerups?1holdable?1medkit_@ 200521d8     bg_misc.obj
 0002:00002204       ??_C@_0N@PNMDFAPK@icons?1medkit?$AA@ 20052204     bg_misc.obj
 0002:00002214       ??_C@_06JDLGEHAD@Medkit?$AA@ 20052214     bg_misc.obj
 0002:0000221c       ??_C@_0BL@GLIFPGGG@sound?1items?1use_medkit?4wav?$AA@ 2005221c     bg_misc.obj
 0002:00002238       ??_C@_09MDKNIFFH@item_quad?$AA@ 20052238     bg_misc.obj
 0002:00002244       ??_C@_0BL@GLEJLOCA@sound?1items?1quaddamage?4wav?$AA@ 20052244     bg_misc.obj
 0002:00002260       ??_C@_0CB@HIFGFDGN@models?1powerups?1instant?1quad?4md3@ 20052260     bg_misc.obj
 0002:00002284       ??_C@_0CG@JNMBMLHJ@models?1powerups?1instant?1quad_rin@ 20052284     bg_misc.obj
 0002:000022ac       ??_C@_0L@DICHEOBB@icons?1quad?$AA@ 200522ac     bg_misc.obj
 0002:000022b8       ??_C@_0DA@PPPPKFJI@sound?1items?1damage2?4wav?5sound?1it@ 200522b8     bg_misc.obj
 0002:000022e8       ??_C@_0M@HBCGNAN@item_enviro?$AA@ 200522e8     bg_misc.obj
 0002:000022f4       ??_C@_0BI@DEKBIKDD@sound?1items?1protect?4wav?$AA@ 200522f4     bg_misc.obj
 0002:0000230c       ??_C@_0CD@JLGNIGLA@models?1powerups?1instant?1enviro?4m@ 2005230c     bg_misc.obj
 0002:00002330       ??_C@_0CI@KAEDJDGE@models?1powerups?1instant?1enviro_r@ 20052330     bg_misc.obj
 0002:00002358       ??_C@_0BB@MGICBJOH@icons?1envirosuit?$AA@ 20052358     bg_misc.obj
 0002:0000236c       ??_C@_0DA@OCPACKGN@sound?1items?1airout?4wav?5sound?1ite@ 2005236c     bg_misc.obj
 0002:0000239c       ??_C@_0L@LKMJKIEF@item_haste?$AA@ 2005239c     bg_misc.obj
 0002:000023a8       ??_C@_0BG@IJMEPCOI@sound?1items?1haste?4wav?$AA@ 200523a8     bg_misc.obj
 0002:000023c0       ??_C@_0CC@NKPAJCMI@models?1powerups?1instant?1haste?4md@ 200523c0     bg_misc.obj
 0002:000023e4       ??_C@_0CH@KKDDKNEF@models?1powerups?1instant?1haste_ri@ 200523e4     bg_misc.obj
 0002:0000240c       ??_C@_0M@CFINMGCL@icons?1haste?$AA@ 2005240c     bg_misc.obj
 0002:00002418       ??_C@_0L@MMHNJJPH@item_invis?$AA@ 20052418     bg_misc.obj
 0002:00002424       ??_C@_0BN@OJBEBLGB@sound?1items?1invisibility?4wav?$AA@ 20052424     bg_misc.obj
 0002:00002444       ??_C@_0CC@HBONCEML@models?1powerups?1instant?1invis?4md@ 20052444     bg_misc.obj
 0002:00002468       ??_C@_0CH@IMIHJDNC@models?1powerups?1instant?1invis_ri@ 20052468     bg_misc.obj
 0002:00002490       ??_C@_0M@FDDJPHJJ@icons?1invis?$AA@ 20052490     bg_misc.obj
 0002:0000249c       ??_C@_0L@MMGPPPDM@item_regen?$AA@ 2005249c     bg_misc.obj
 0002:000024a8       ??_C@_0BN@OBGKHNFF@sound?1items?1regeneration?4wav?$AA@ 200524a8     bg_misc.obj
 0002:000024c8       ??_C@_0CC@OEAPIKIN@models?1powerups?1instant?1regen?4md@ 200524c8     bg_misc.obj
 0002:000024ec       ??_C@_0CH@FANACKJM@models?1powerups?1instant?1regen_ri@ 200524ec     bg_misc.obj
 0002:00002514       ??_C@_0M@FDCLJBFC@icons?1regen?$AA@ 20052514     bg_misc.obj
 0002:00002520       ??_C@_0BG@LHDLOKKN@sound?1items?1regen?4wav?$AA@ 20052520     bg_misc.obj
 0002:00002538       ??_C@_0M@MBNKEMMH@item_flight?$AA@ 20052538     bg_misc.obj
 0002:00002544       ??_C@_0BH@COLFHEAE@sound?1items?1flight?4wav?$AA@ 20052544     bg_misc.obj
 0002:0000255c       ??_C@_0CD@MKDGJOMG@models?1powerups?1instant?1flight?4m@ 2005255c     bg_misc.obj
 0002:00002580       ??_C@_0CI@IADFFEDP@models?1powerups?1instant?1flight_r@ 20052580     bg_misc.obj
 0002:000025a8       ??_C@_0N@GLEPEEPG@icons?1flight?$AA@ 200525a8     bg_misc.obj
 0002:000025b8       ??_C@_0BB@JNMMCIHG@team_CTF_redflag?$AA@ 200525b8     bg_misc.obj
 0002:000025cc       ??_C@_0BI@PEHEOJEO@models?1flags?1r_flag?4md3?$AA@ 200525cc     bg_misc.obj
 0002:000025e4       ??_C@_0BB@EMIEBEOP@icons?1iconf_red1?$AA@ 200525e4     bg_misc.obj
 0002:000025f8       ??_C@_0BC@NLKCOFAB@team_CTF_blueflag?$AA@ 200525f8     bg_misc.obj
 0002:0000260c       ??_C@_0BI@FKICCNIF@models?1flags?1b_flag?4md3?$AA@ 2005260c     bg_misc.obj
 0002:00002624       ??_C@_0BB@EMIIAFKA@icons?1iconf_blu1?$AA@ 20052624     bg_misc.obj
 0002:00002638       ??_C@_0BC@JLPIODDD@holdable_kamikaze?$AA@ 20052638     bg_misc.obj
 0002:0000264c       ??_C@_0BN@MHODGCLB@models?1powerups?1kamikazi?4md3?$AA@ 2005264c     bg_misc.obj
 0002:0000266c       ??_C@_0P@PGNDLAAB@icons?1kamikaze?$AA@ 2005266c     bg_misc.obj
 0002:0000267c       ??_C@_0BA@DPHMCMEN@holdable_portal?$AA@ 2005267c     bg_misc.obj
 0002:0000268c       ??_C@_0CE@BEFEBAKL@models?1powerups?1holdable?1porter?4@ 2005268c     bg_misc.obj
 0002:000026b0       ??_C@_0N@DBIDGCJI@icons?1portal?$AA@ 200526b0     bg_misc.obj
 0002:000026c0       ??_C@_06FPPGHFGB@Portal?$AA@ 200526c0     bg_misc.obj
 0002:000026c8       ??_C@_0BJ@KOFPDOJN@holdable_invulnerability?$AA@ 200526c8     bg_misc.obj
 0002:000026e4       ??_C@_0CN@BGILHOFB@models?1powerups?1holdable?1invulne@ 200526e4     bg_misc.obj
 0002:00002714       ??_C@_0BG@GEOEMBHE@icons?1invulnerability?$AA@ 20052714     bg_misc.obj
 0002:0000272c       ??_C@_0BA@KEGBBNCB@Invulnerability?$AA@ 2005272c     bg_misc.obj
 0002:0000273c       ??_C@_0L@MFBMFFLO@ammo_nails?$AA@ 2005273c     bg_misc.obj
 0002:00002748       ??_C@_0CD@GMNDFBIF@models?1powerups?1ammo?1nailgunam?4m@ 20052748     bg_misc.obj
 0002:0000276c       ??_C@_0BE@CIOKCHDP@icons?1icona_nailgun?$AA@ 2005276c     bg_misc.obj
 0002:00002780       ??_C@_05NMMMMLEF@Nails?$AA@ 20052780     bg_misc.obj
 0002:00002788       ??_C@_0L@OBPOGPOH@ammo_mines?$AA@ 20052788     bg_misc.obj
 0002:00002794       ??_C@_0CE@GLFPCGJF@models?1powerups?1ammo?1proxmineam?4@ 20052794     bg_misc.obj
 0002:000027b8       ??_C@_0BJ@EKLNPKGH@icons?1icona_proxlauncher?$AA@ 200527b8     bg_misc.obj
 0002:000027d4       ??_C@_0BA@CLMOKPGH@Proximity?5Mines?$AA@ 200527d4     bg_misc.obj
 0002:000027e4       ??_C@_09KBCAAANK@ammo_belt?$AA@ 200527e4     bg_misc.obj
 0002:000027f0       ??_C@_0CE@BDEKAODP@models?1powerups?1ammo?1chaingunam?4@ 200527f0     bg_misc.obj
 0002:00002814       ??_C@_0BF@CHGBBDGP@icons?1icona_chaingun?$AA@ 20052814     bg_misc.obj
 0002:0000282c       ??_C@_0O@DEOOCCIB@Chaingun?5Belt?$AA@ 2005282c     bg_misc.obj
 0002:0000283c       ??_C@_0L@OBMMKIHN@item_scout?$AA@ 2005283c     bg_misc.obj
 0002:00002848       ??_C@_0BG@DNJFFOJP@sound?1items?1scout?4wav?$AA@ 20052848     bg_misc.obj
 0002:00002860       ??_C@_0BK@NEMNNNAF@models?1powerups?1scout?4md3?$AA@ 20052860     bg_misc.obj
 0002:0000287c       ??_C@_0M@HOIIMGBD@icons?1scout?$AA@ 2005287c     bg_misc.obj
 0002:00002888       ??_C@_0L@DJHJPJDF@item_guard?$AA@ 20052888     bg_misc.obj
 0002:00002894       ??_C@_0BG@BPPBGKNB@sound?1items?1guard?4wav?$AA@ 20052894     bg_misc.obj
 0002:000028ac       ??_C@_0BK@PGKJOJEL@models?1powerups?1guard?4md3?$AA@ 200528ac     bg_misc.obj
 0002:000028c8       ??_C@_0M@KGDNJHFL@icons?1guard?$AA@ 200528c8     bg_misc.obj
 0002:000028d4       ??_C@_0N@EFHHJIEL@item_doubler?$AA@ 200528d4     bg_misc.obj
 0002:000028e4       ??_C@_0BI@BLENDCKK@sound?1items?1doubler?4wav?$AA@ 200528e4     bg_misc.obj
 0002:000028fc       ??_C@_0BM@JGFEKDCK@models?1powerups?1doubler?4md3?$AA@ 200528fc     bg_misc.obj
 0002:00002918       ??_C@_0O@BEADANHJ@icons?1doubler?$AA@ 20052918     bg_misc.obj
 0002:00002928       ??_C@_0P@HGOLPH@item_ammoregen?$AA@ 20052928     bg_misc.obj
 0002:00002938       ??_C@_0BK@IEMGDIND@sound?1items?1ammoregen?4wav?$AA@ 20052938     bg_misc.obj
 0002:00002954       ??_C@_0BJ@GKHKBOMB@models?1powerups?1ammo?4md3?$AA@ 20052954     bg_misc.obj
 0002:00002970       ??_C@_0BB@MIDDLDNN@icons?1ammo_regen?$AA@ 20052970     bg_misc.obj
 0002:00002984       ??_C@_0BF@NFGOPKAE@team_CTF_neutralflag?$AA@ 20052984     bg_misc.obj
 0002:0000299c       ??_C@_0BI@FAJILPEC@models?1flags?1n_flag?4md3?$AA@ 2005299c     bg_misc.obj
 0002:000029b4       ??_C@_0BF@OGGGKBMJ@icons?1iconf_neutral1?$AA@ 200529b4     bg_misc.obj
 0002:000029cc       ??_C@_0N@IDOEINCB@item_redcube?$AA@ 200529cc     bg_misc.obj
 0002:000029dc       ??_C@_0BO@LDKNFLC@models?1powerups?1orb?1r_orb?4md3?$AA@ 200529dc     bg_misc.obj
 0002:000029fc       ??_C@_0BB@PKDLFOID@icons?1iconh_rorb?$AA@ 200529fc     bg_misc.obj
 0002:00002a10       ??_C@_08LFGHLDCF@Red?5Cube?$AA@ 20052a10     bg_misc.obj
 0002:00002a1c       ??_C@_0O@NHDOFNIN@item_bluecube?$AA@ 20052a1c     bg_misc.obj
 0002:00002a2c       ??_C@_0BO@CMJEFEFK@models?1powerups?1orb?1b_orb?4md3?$AA@ 20052a2c     bg_misc.obj
 0002:00002a4c       ??_C@_0BB@JKNLMJAB@icons?1iconh_borb?$AA@ 20052a4c     bg_misc.obj
 0002:00002a60       ??_C@_09BGJEDJLP@Blue?5Cube?$AA@ 20052a60     bg_misc.obj
 0002:00002a6c       ??_C@_0P@HPOFIAHB@weapon_nailgun?$AA@ 20052a6c     bg_misc.obj
 0002:00002a7c       ??_C@_0CD@MNGDCPJM@models?1weapons?1nailgun?1nailgun?4m@ 20052a7c     bg_misc.obj
 0002:00002aa0       ??_C@_0BE@CFKNGJA@icons?1iconw_nailgun?$AA@ 20052aa0     bg_misc.obj
 0002:00002ab4       ??_C@_0BF@MHLODEOC@weapon_prox_launcher?$AA@ 20052ab4     bg_misc.obj
 0002:00002acc       ??_C@_0CF@NHOALGII@models?1weapons?1proxmine?1proxmine@ 20052acc     bg_misc.obj
 0002:00002af4       ??_C@_0BJ@CMCFLBNK@icons?1iconw_proxlauncher?$AA@ 20052af4     bg_misc.obj
 0002:00002b10       ??_C@_0NI@JLHICHPM@sound?1weapons?1proxmine?1wstbtick?4@ 20052b10     bg_misc.obj
 0002:00002be8       ??_C@_0BA@LGFCHAFP@weapon_chaingun?$AA@ 20052be8     bg_misc.obj
 0002:00002bf8       ??_C@_0CB@OFHHOHCC@models?1weapons?1vulcan?1vulcan?4md3@ 20052bf8     bg_misc.obj
 0002:00002c1c       ??_C@_0BF@GBCCBNOH@icons?1iconw_chaingun?$AA@ 20052c1c     bg_misc.obj
 0002:00002c34       ??_C@_0CC@JDOIBBDC@sound?1weapons?1vulcan?1wvulwind?4wa@ 20052c34     bg_misc.obj
 0002:00002c58       ??_C@_07JFMDDPHJ@EV_NONE?$AA@ 20052c58     bg_misc.obj
 0002:00002c60       ??_C@_0M@HLKBOJPO@EV_FOOTSTEP?$AA@ 20052c60     bg_misc.obj
 0002:00002c6c       ??_C@_0BC@DIJMAMMI@EV_FOOTSTEP_METAL?$AA@ 20052c6c     bg_misc.obj
 0002:00002c80       ??_C@_0O@HLJHKIDH@EV_FOOTSPLASH?$AA@ 20052c80     bg_misc.obj
 0002:00002c90       ??_C@_0M@NPJBGELA@EV_FOOTWADE?$AA@ 20052c90     bg_misc.obj
 0002:00002c9c       ??_C@_07FFIIIPLH@EV_SWIM?$AA@ 20052c9c     bg_misc.obj
 0002:00002ca4       ??_C@_09OLFOHJNB@EV_STEP_4?$AA@ 20052ca4     bg_misc.obj
 0002:00002cb0       ??_C@_09EHOLDGNN@EV_STEP_8?$AA@ 20052cb0     bg_misc.obj
 0002:00002cbc       ??_C@_0L@BKIECKKB@EV_STEP_12?$AA@ 20052cbc     bg_misc.obj
 0002:00002cc8       ??_C@_0L@HOOIOPKF@EV_STEP_16?$AA@ 20052cc8     bg_misc.obj
 0002:00002cd4       ??_C@_0O@EAFDHAJM@EV_FALL_SHORT?$AA@ 20052cd4     bg_misc.obj
 0002:00002ce4       ??_C@_0P@MGFLMCKC@EV_FALL_MEDIUM?$AA@ 20052ce4     bg_misc.obj
 0002:00002cf4       ??_C@_0M@LKJJNJOM@EV_FALL_FAR?$AA@ 20052cf4     bg_misc.obj
 0002:00002d00       ??_C@_0M@BPNFGBOJ@EV_JUMP_PAD?$AA@ 20052d00     bg_misc.obj
 0002:00002d0c       ??_C@_07GKBEHGAP@EV_JUMP?$AA@ 20052d0c     bg_misc.obj
 0002:00002d14       ??_C@_0P@GCDBKPMP@EV_WATER_TOUCH?$AA@ 20052d14     bg_misc.obj
 0002:00002d24       ??_C@_0P@LHDMOIIG@EV_WATER_LEAVE?$AA@ 20052d24     bg_misc.obj
 0002:00002d34       ??_C@_0P@MIAIODEJ@EV_WATER_UNDER?$AA@ 20052d34     bg_misc.obj
 0002:00002d44       ??_C@_0P@NIPCJOBG@EV_WATER_CLEAR?$AA@ 20052d44     bg_misc.obj
 0002:00002d54       ??_C@_0P@BGIOEPCB@EV_ITEM_PICKUP?$AA@ 20052d54     bg_misc.obj
 0002:00002d64       ??_C@_0BG@KFILGAMN@EV_GLOBAL_ITEM_PICKUP?$AA@ 20052d64     bg_misc.obj
 0002:00002d7c       ??_C@_09NMIICG@EV_NOAMMO?$AA@ 20052d7c     bg_misc.obj
 0002:00002d88       ??_C@_0BB@ENKPHJLP@EV_CHANGE_WEAPON?$AA@ 20052d88     bg_misc.obj
 0002:00002d9c       ??_C@_0P@PFJPAFGH@EV_FIRE_WEAPON?$AA@ 20052d9c     bg_misc.obj
 0002:00002dac       ??_C@_0N@CGCBJKGD@EV_USE_ITEM0?$AA@ 20052dac     bg_misc.obj
 0002:00002dbc       ??_C@_0N@DPDKKLCC@EV_USE_ITEM1?$AA@ 20052dbc     bg_misc.obj
 0002:00002dcc       ??_C@_0N@BEBHPIOB@EV_USE_ITEM2?$AA@ 20052dcc     bg_misc.obj
 0002:00002ddc       ??_C@_0N@NAMMJKA@EV_USE_ITEM3?$AA@ 20052ddc     bg_misc.obj
 0002:00002dec       ??_C@_0N@ECENFPGH@EV_USE_ITEM4?$AA@ 20052dec     bg_misc.obj
 0002:00002dfc       ??_C@_0N@FLFGGOCG@EV_USE_ITEM5?$AA@ 20052dfc     bg_misc.obj
 0002:00002e0c       ??_C@_0N@HAHLDNOF@EV_USE_ITEM6?$AA@ 20052e0c     bg_misc.obj
 0002:00002e1c       ??_C@_0N@GJGAAMKE@EV_USE_ITEM7?$AA@ 20052e1c     bg_misc.obj
 0002:00002e2c       ??_C@_0N@OOPIBAGL@EV_USE_ITEM8?$AA@ 20052e2c     bg_misc.obj
 0002:00002e3c       ??_C@_0N@PHODCBCK@EV_USE_ITEM9?$AA@ 20052e3c     bg_misc.obj
 0002:00002e4c       ??_C@_0O@KBJENLM@EV_USE_ITEM10?$AA@ 20052e4c     bg_misc.obj
 0002:00002e5c       ??_C@_0O@BDACHMPN@EV_USE_ITEM11?$AA@ 20052e5c     bg_misc.obj
 0002:00002e6c       ??_C@_0O@DICPCPDO@EV_USE_ITEM12?$AA@ 20052e6c     bg_misc.obj
 0002:00002e7c       ??_C@_0O@CBDEBOHP@EV_USE_ITEM13?$AA@ 20052e7c     bg_misc.obj
 0002:00002e8c       ??_C@_0O@GOHFIILI@EV_USE_ITEM14?$AA@ 20052e8c     bg_misc.obj
 0002:00002e9c       ??_C@_0O@HHGOLJPJ@EV_USE_ITEM15?$AA@ 20052e9c     bg_misc.obj
 0002:00002eac       ??_C@_0BA@GJNCODNG@EV_ITEM_RESPAWN?$AA@ 20052eac     bg_misc.obj
 0002:00002ebc       ??_C@_0M@ECGFPIMP@EV_ITEM_POP?$AA@ 20052ebc     bg_misc.obj
 0002:00002ec8       ??_C@_0BG@HBBJKNDP@EV_PLAYER_TELEPORT_IN?$AA@ 20052ec8     bg_misc.obj
 0002:00002ee0       ??_C@_0BH@FNNILPIN@EV_PLAYER_TELEPORT_OUT?$AA@ 20052ee0     bg_misc.obj
 0002:00002ef8       ??_C@_0BC@ECIIAFLJ@EV_GRENADE_BOUNCE?$AA@ 20052ef8     bg_misc.obj
 0002:00002f0c       ??_C@_0BB@LJGGMAII@EV_GENERAL_SOUND?$AA@ 20052f0c     bg_misc.obj
 0002:00002f20       ??_C@_0BA@JAMKLOPJ@EV_GLOBAL_SOUND?$AA@ 20052f20     bg_misc.obj
 0002:00002f30       ??_C@_0BF@DDOIKLHD@EV_GLOBAL_TEAM_SOUND?$AA@ 20052f30     bg_misc.obj
 0002:00002f48       ??_C@_0BE@KBABEJMP@EV_BULLET_HIT_FLESH?$AA@ 20052f48     bg_misc.obj
 0002:00002f5c       ??_C@_0BD@MFLMCLPN@EV_BULLET_HIT_WALL?$AA@ 20052f5c     bg_misc.obj
 0002:00002f70       ??_C@_0P@JFMFNBMO@EV_MISSILE_HIT?$AA@ 20052f70     bg_misc.obj
 0002:00002f80       ??_C@_0BA@CAHALNAE@EV_MISSILE_MISS?$AA@ 20052f80     bg_misc.obj
 0002:00002f90       ??_C@_0BG@LPAHEABB@EV_MISSILE_MISS_METAL?$AA@ 20052f90     bg_misc.obj
 0002:00002fa8       ??_C@_0N@HMLLJFGF@EV_RAILTRAIL?$AA@ 20052fa8     bg_misc.obj
 0002:00002fb8       ??_C@_0L@LHBIHDML@EV_SHOTGUN?$AA@ 20052fb8     bg_misc.obj
 0002:00002fc4       ??_C@_09ICDIPKFJ@EV_BULLET?$AA@ 20052fc4     bg_misc.obj
 0002:00002fd0       ??_C@_07EMHHKOOH@EV_PAIN?$AA@ 20052fd0     bg_misc.obj
 0002:00002fd8       ??_C@_09JPFBHKII@EV_DEATH1?$AA@ 20052fd8     bg_misc.obj
 0002:00002fe4       ??_C@_09LEHMCJEL@EV_DEATH2?$AA@ 20052fe4     bg_misc.obj
 0002:00002ff0       ??_C@_09KNGHBIAK@EV_DEATH3?$AA@ 20052ff0     bg_misc.obj
 0002:00002ffc       ??_C@_0M@PPLCDPP@EV_OBITUARY?$AA@ 20052ffc     bg_misc.obj
 0002:00003008       ??_C@_0BA@HLHGHIIE@EV_POWERUP_QUAD?$AA@ 20053008     bg_misc.obj
 0002:00003018       ??_C@_0BG@CHAMNADK@EV_POWERUP_BATTLESUIT?$AA@ 20053018     bg_misc.obj
 0002:00003030       ??_C@_0BB@EGIJIDAN@EV_POWERUP_REGEN?$AA@ 20053030     bg_misc.obj
 0002:00003044       ??_C@_0O@JLGFLKBE@EV_GIB_PLAYER?$AA@ 20053044     bg_misc.obj
 0002:00003054       ??_C@_0N@GAJBP@EV_SCOREPLUM?$AA@ 20053054     bg_misc.obj
 0002:00003064       ??_C@_0BI@KNJAKDGK@EV_PROXIMITY_MINE_STICK?$AA@ 20053064     bg_misc.obj
 0002:0000307c       ??_C@_0BK@PIFCIJEJ@EV_PROXIMITY_MINE_TRIGGER?$AA@ 2005307c     bg_misc.obj
 0002:00003098       ??_C@_0M@KACLGFEA@EV_KAMIKAZE?$AA@ 20053098     bg_misc.obj
 0002:000030a4       ??_C@_0BC@LMKNBBLF@EV_OBELISKEXPLODE?$AA@ 200530a4     bg_misc.obj
 0002:000030b8       ??_C@_0BA@NHKGBGBA@EV_INVUL_IMPACT?$AA@ 200530b8     bg_misc.obj
 0002:000030c8       ??_C@_09GLJGDJEJ@EV_JUICED?$AA@ 200530c8     bg_misc.obj
 0002:000030d4       ??_C@_0BB@HHACOGHI@EV_LIGHTNINGBOLT?$AA@ 200530d4     bg_misc.obj
 0002:000030e8       ??_C@_0O@PBPAKHP@EV_DEBUG_LINE?$AA@ 200530e8     bg_misc.obj
 0002:000030f8       ??_C@_0BE@OHJHDFJH@EV_STOPLOOPINGSOUND?$AA@ 200530f8     bg_misc.obj
 0002:0000310c       ??_C@_08GBKLDCBE@EV_TAUNT?$AA@ 2005310c     bg_misc.obj
 0002:00003118       ??_C@_0BB@DDGIAABK@item_armor_shard?$AA@ 20053118     bg_misc.obj
 0002:0000312c       ??_C@_0BI@DECNCEGL@sound?1misc?1ar1_pkup?4wav?$AA@ 2005312c     bg_misc.obj
 0002:00003144       ??_C@_0CA@NOFOCCIK@models?1powerups?1armor?1shard?4md3?$AA@ 20053144     bg_misc.obj
 0002:00003164       ??_C@_0CH@NEKDLKN@models?1powerups?1armor?1shard_sphe@ 20053164     bg_misc.obj
 0002:0000318c       ??_C@_0BC@LPFHDODA@icons?1iconr_shard?$AA@ 2005318c     bg_misc.obj
 0002:000031a0       ??_C@_0M@PJIPIDNH@Armor?5Shard?$AA@ 200531a0     bg_misc.obj
 0002:000031ac       ??_C@_0BC@FPPLPJIL@item_armor_combat?$AA@ 200531ac     bg_misc.obj
 0002:000031c0       ??_C@_0BI@KNMPECGK@sound?1misc?1ar2_pkup?4wav?$AA@ 200531c0     bg_misc.obj
 0002:000031d8       ??_C@_0CE@PHKMKHKB@models?1powerups?1armor?1armor_yel?4@ 200531d8     bg_misc.obj
 0002:000031fc       ??_C@_0BD@BKPFMPMP@icons?1iconr_yellow?$AA@ 200531fc     bg_misc.obj
 0002:00003210       ??_C@_0BA@EKKMHIH@item_armor_body?$AA@ 20053210     bg_misc.obj
 0002:00003220       ??_C@_0CE@EGJFDJJK@models?1powerups?1armor?1armor_red?4@ 20053220     bg_misc.obj
 0002:00003244       ??_C@_0BA@CEJNPBJG@icons?1iconr_red?$AA@ 20053244     bg_misc.obj
 0002:00003254       ??_C@_0BC@DOHAFEBI@item_health_small?$AA@ 20053254     bg_misc.obj
 0002:00003268       ??_C@_0BJ@BIFHONLM@sound?1items?1s_health?4wav?$AA@ 20053268     bg_misc.obj
 0002:00003284       ??_C@_0CH@JKNLMIJB@models?1powerups?1health?1small_cro@ 20053284     bg_misc.obj
 0002:000032ac       ??_C@_0CI@MPAPPIIE@models?1powerups?1health?1small_sph@ 200532ac     bg_misc.obj
 0002:000032d4       ??_C@_0BC@IMNPBGFF@icons?1iconh_green?$AA@ 200532d4     bg_misc.obj
 0002:000032e8       ??_C@_08IAIFJOAI@5?5Health?$AA@ 200532e8     bg_misc.obj
 0002:000032f4       ??_C@_0M@KCNAKNNL@item_health?$AA@ 200532f4     bg_misc.obj
 0002:00003300       ??_C@_0BJ@OLHMCLBI@sound?1items?1n_health?4wav?$AA@ 20053300     bg_misc.obj
 0002:0000331c       ??_C@_0CI@NAEMLIB@models?1powerups?1health?1medium_cr@ 2005331c     bg_misc.obj
 0002:00003344       ??_C@_0CJ@NCCPDHOD@models?1powerups?1health?1medium_sp@ 20053344     bg_misc.obj
 0002:00003370       ??_C@_0BD@CDBLAHCA@icons?1iconh_yellow?$AA@ 20053370     bg_misc.obj
 0002:00003384       ??_C@_09OJAALANF@25?5Health?$AA@ 20053384     bg_misc.obj
 0002:00003390       ??_C@_0BC@JGDLKFIO@item_health_large?$AA@ 20053390     bg_misc.obj
 0002:000033a4       ??_C@_0BJ@ILCAJOFD@sound?1items?1l_health?4wav?$AA@ 200533a4     bg_misc.obj
 0002:000033c0       ??_C@_0CH@NHFAKEFE@models?1powerups?1health?1large_cro@ 200533c0     bg_misc.obj
 0002:000033e8       ??_C@_0CI@CEEMEFNH@models?1powerups?1health?1large_sph@ 200533e8     bg_misc.obj
 0002:00003410       ??_C@_0BA@IGNANAGL@icons?1iconh_red?$AA@ 20053410     bg_misc.obj
 0002:00003420       ??_C@_09EBELOOOD@50?5Health?$AA@ 20053420     bg_misc.obj
 0002:0000342c       ??_C@_0BB@PBGAONGH@item_health_mega?$AA@ 2005342c     bg_misc.obj
 0002:00003440       ??_C@_0BJ@FGLGEHNG@sound?1items?1m_health?4wav?$AA@ 20053440     bg_misc.obj
 0002:0000345c       ??_C@_0CG@PDJMMGME@models?1powerups?1health?1mega_cros@ 2005345c     bg_misc.obj
 0002:00003484       ??_C@_0CH@NEGHBKPB@models?1powerups?1health?1mega_sphe@ 20053484     bg_misc.obj
 0002:000034ac       ??_C@_0BB@EGPGIMOM@icons?1iconh_mega?$AA@ 200534ac     bg_misc.obj
 0002:000034c0       ??_C@_0M@IOJDMPNO@Mega?5Health?$AA@ 200534c0     bg_misc.obj
 0002:000034cc       ??_C@_0BA@CLDPODJE@weapon_gauntlet?$AA@ 200534cc     bg_misc.obj
 0002:000034dc       ??_C@_0BG@BBKFHONL@sound?1misc?1w_pkup?4wav?$AA@ 200534dc     bg_misc.obj
 0002:000034f4       ??_C@_0CG@PFPPJBAC@models?1weapons2?1gauntlet?1gauntle@ 200534f4     bg_misc.obj
 0002:0000351c       ??_C@_0BF@PMEPIOCM@icons?1iconw_gauntlet?$AA@ 2005351c     bg_misc.obj
 0002:00003534       ??_C@_0P@ILAKNOAG@weapon_shotgun?$AA@ 20053534     bg_misc.obj
 0002:00003544       ??_C@_0CE@CJGCHKCN@models?1weapons2?1shotgun?1shotgun?4@ 20053544     bg_misc.obj
 0002:00003568       ??_C@_0BE@PGLFIIOH@icons?1iconw_shotgun?$AA@ 20053568     bg_misc.obj
 0002:0000357c       ??_C@_0BC@HHBNPFPN@weapon_machinegun?$AA@ 2005357c     bg_misc.obj
 0002:00003590       ??_C@_0CK@BBPFNIFO@models?1weapons2?1machinegun?1machi@ 20053590     bg_misc.obj
 0002:000035bc       ??_C@_0BH@GIACBLNI@icons?1iconw_machinegun?$AA@ 200535bc     bg_misc.obj
 0002:000035d4       ??_C@_0BH@DGCCJPLM@weapon_grenadelauncher?$AA@ 200535d4     bg_misc.obj
 0002:000035ec       ??_C@_0CG@INCGOMDL@models?1weapons2?1grenadel?1grenade@ 200535ec     bg_misc.obj
 0002:00003614       ??_C@_0BE@JNFKJHKD@icons?1iconw_grenade?$AA@ 20053614     bg_misc.obj
 0002:00003628       ??_C@_0EG@LFEMOCGK@sound?1weapons?1grenade?1hgrenb1a?4w@ 20053628     bg_misc.obj
 0002:00003670       ??_C@_0BG@HJKONAJE@weapon_rocketlauncher?$AA@ 20053670     bg_misc.obj
 0002:00003688       ??_C@_0CE@GGGFLKKE@models?1weapons2?1rocketl?1rocketl?4@ 20053688     bg_misc.obj
 0002:000036ac       ??_C@_0BD@MKMDIEGB@icons?1iconw_rocket?$AA@ 200536ac     bg_misc.obj
 0002:000036c0       ??_C@_0BB@OCCEAFCD@weapon_lightning?$AA@ 200536c0     bg_misc.obj
 0002:000036d4       ??_C@_0CI@MNAFJDPO@models?1weapons2?1lightning?1lightn@ 200536d4     bg_misc.obj
 0002:000036fc       ??_C@_0BG@CHEJEOPA@icons?1iconw_lightning?$AA@ 200536fc     bg_misc.obj
 0002:00003714       ??_C@_0P@FEPBKEBF@weapon_railgun?$AA@ 20053714     bg_misc.obj
 0002:00003724       ??_C@_0CE@JHJFFEBE@models?1weapons2?1railgun?1railgun?4@ 20053724     bg_misc.obj
 0002:00003748       ??_C@_0BE@CJEOPCPE@icons?1iconw_railgun?$AA@ 20053748     bg_misc.obj
 0002:0000375c       ??_C@_0BB@LBHAKENA@weapon_plasmagun?$AA@ 2005375c     bg_misc.obj
 0002:00003770       ??_C@_0CC@EHGHEDND@models?1weapons2?1plasma?1plasma?4md@ 20053770     bg_misc.obj
 0002:00003794       ??_C@_0BD@NADHMFK@icons?1iconw_plasma?$AA@ 20053794     bg_misc.obj
 0002:000037a8       ??_C@_0L@JFFCGJF@Plasma?5Gun?$AA@ 200537a8     bg_misc.obj
 0002:000037b4       ??_C@_0L@JBGNLNGG@weapon_bfg?$AA@ 200537b4     bg_misc.obj
 0002:000037c0       ??_C@_0BM@HHDGGOHP@models?1weapons2?1bfg?1bfg?4md3?$AA@ 200537c0     bg_misc.obj
 0002:000037dc       ??_C@_0BA@NCCNKCA@icons?1iconw_bfg?$AA@ 200537dc     bg_misc.obj
 0002:000037ec       ??_C@_0BF@MEMGGPGH@weapon_grapplinghook?$AA@ 200537ec     bg_misc.obj
 0002:00003804       ??_C@_0CE@LFAGANA@models?1weapons2?1grapple?1grapple?4@ 20053804     bg_misc.obj
 0002:00003828       ??_C@_0BE@DPKNJNBE@icons?1iconw_grapple?$AA@ 20053828     bg_misc.obj
 0002:0000383c       ??_C@_0P@CFJPDDC@Grappling?5Hook?$AA@ 2005383c     bg_misc.obj
 0002:0000384c       ??_C@_0CB@DEACFJO@Couldn?8t?5find?5item?5for?5weapon?5?$CFi@ 2005384c     bg_misc.obj
 0002:00003870       ??_C@_0CI@MFONMA@BG_CanItemBeGrabbed?3?5index?5out?5o@ 20053870     bg_misc.obj
 0002:00003898       ??_C@_0BM@NECGLAIF@BG_CanItemBeGrabbed?3?5IT_BAD?$AA@ 20053898     bg_misc.obj
 0002:000038b4       ??_C@_0CK@DNBGNAED@BG_EvaluateTrajectory?3?5unknown?5t@ 200538b4     bg_misc.obj
 0002:000038e0       ??_C@_0CP@MCFPOIMF@BG_EvaluateTrajectoryDelta?3?5unkn@ 200538e0     bg_misc.obj
 0002:00003910       __real@40490fdb            20053910     bg_misc.obj
 0002:00003918       __real@4079000000000000    20053918     bg_misc.obj
 0002:00003920       __real@42100000            20053920     bg_misc.obj
 0002:00003924       __real@42300000            20053924     bg_misc.obj
 0002:00003928       __real@42340000            20053928     bg_misc.obj
 0002:0000392c       __real@c2100000            2005392c     bg_misc.obj
 0002:00003930       __real@c2480000            20053930     bg_misc.obj
 0002:00003934       ??_C@_0N@KJCNHCBK@?$CFi?3allsolid?6?$AA@ 20053934     bg_pmove.obj
 0002:00003944       ??_C@_08EOGJDHPF@?$CFi?3lift?6?$AA@ 20053944     bg_pmove.obj
 0002:00003950       ??_C@_0M@CKJFDFGH@?$CFi?3kickoff?6?$AA@ 20053950     bg_pmove.obj
 0002:0000395c       ??_C@_09OPMLNNOA@?$CFi?3steep?6?$AA@ 2005395c     bg_pmove.obj
 0002:00003968       ??_C@_08KACHPCJN@?$CFi?3Land?6?$AA@ 20053968     bg_pmove.obj
 0002:00003974       __real@3e99999a            20053974     bg_pmove.obj
 0002:00003978       __real@3f1a36e2eb1c432d    20053978     bg_pmove.obj
 0002:00003980       __real@3fd0000000000000    20053980     bg_pmove.obj
 0002:00003988       __real@3ff4cccccccccccd    20053988     bg_pmove.obj
 0002:00003990       __real@4008000000000000    20053990     bg_pmove.obj
 0002:00003998       __real@405fc00000000000    20053998     bg_pmove.obj
 0002:000039a0       __real@40e00000            200539a0     bg_pmove.obj
 0002:000039a4       __real@c1800000            200539a4     bg_pmove.obj
 0002:000039a8       __real@c2700000            200539a8     bg_pmove.obj
 0002:000039ac       __real@c3480000            200539ac     bg_pmove.obj
 0002:000039b0       ??_C@_0BE@FLPNHHPN@?$CFi?3bend?5can?8t?5step?6?$AA@ 200539b0     bg_slidemove.obj
 0002:000039c4       ??_C@_0M@CDHDENEF@?$CFi?3stepped?6?$AA@ 200539c4     bg_slidemove.obj
 0002:000039d0       __real@41300000            200539d0     bg_slidemove.obj
 0002:000039d4       __real@41900000            200539d4     bg_slidemove.obj
 0002:000039d8       ??_C@_0L@FMIBJCKG@?$CKdrown?4wav?$AA@ 200539d8     g_active.obj
 0002:000039e4       ??_C@_0BH@KONMCHEF@sound?1player?1gurp1?4wav?$AA@ 200539e4     g_active.obj
 0002:000039fc       ??_C@_0BH@CIEIFFOL@sound?1player?1gurp2?4wav?$AA@ 200539fc     g_active.obj
 0002:00003a14       ??_C@_0CE@INJACILL@sound?1weapons?1proxmine?1wstbtick?4@ 20053a14     g_active.obj
 0002:00003a38       ??_C@_0BK@CMFHJBAI@Dropped?5due?5to?5inactivity?$AA@ 20053a38     g_active.obj
 0002:00003a54       ??_C@_0CJ@OOBJBOCC@cp?5?$CCTen?5seconds?5until?5inactivity@ 20053a54     g_active.obj
 0002:00003a80       ??_C@_01KJLJFBPL@8?$AA@    20053a80     g_active.obj
 0002:00003a84       ??_C@_0L@JLBEBBAD@pmove_msec?$AA@ 20053a84     g_active.obj
 0002:00003a90       ??_C@_02NCPIBIBE@33?$AA@   20053a90     g_active.obj
 0002:00003a94       ??_C@_0M@JFAIBOFL@centerview?6?$AA@ 20053a94     g_active.obj
 0002:00003aa0       __real@3ff199999999999a    20053aa0     g_active.obj
 0002:00003aa8       __real@4070000000000000    20053aa8     g_active.obj
 0002:00003ab0       __real@437f0000            20053ab0     g_active.obj
 0002:00003ab4       ??_C@_0CF@PHCCBJA@postgame?5?$CFi?5?$CFi?50?50?50?50?50?50?50?50?50@ 20053ab4     g_arenas.obj
 0002:00003adc       ??_C@_0DD@POHDNCLP@postgame?5?$CFi?5?$CFi?5?$CFi?5?$CFi?5?$CFi?5?$CFi?5?$CFi?5?$CFi@ 20053adc     g_arenas.obj
 0002:00003b10       ??_C@_09HCJPKLNL@?5?$CFi?5?$CFi?5?$CFi?$AA@ 20053b10     g_arenas.obj
 0002:00003b1c       ??_C@_0N@CBICAJMD@g_podiumDist?$AA@ 20053b1c     g_arenas.obj
 0002:00003b2c       ??_C@_0N@NHMKEGEN@g_podiumDrop?$AA@ 20053b2c     g_arenas.obj
 0002:00003b3c       ??_C@_0CF@MDONDONI@models?1mapobjects?1podium?1podium4@ 20053b3c     g_arenas.obj
 0002:00003b64       ??_C@_01HCONENDN@?$HL?$AA@ 20053b64     g_bot.obj
 0002:00003b68       ??_C@_0BI@BMEIBPEH@Missing?5?$HL?5in?5info?5file?6?$AA@ 20053b68     g_bot.obj
 0002:00003b80       ??_C@_0BE@IKMJLADL@Max?5infos?5exceeded?6?$AA@ 20053b80     g_bot.obj
 0002:00003b94       ??_C@_0BN@HAJDHEGK@Unexpected?5end?5of?5info?5file?6?$AA@ 20053b94     g_bot.obj
 0002:00003bb4       ??_C@_01CELHOKLL@?$HN?$AA@ 20053bb4     g_bot.obj
 0002:00003bb8       ??_C@_06CBHGEMFM@?$DMNULL?$DO?$AA@ 20053bb8     g_bot.obj
 0002:00003bc0       ??_C@_0BG@BJEIGKLP@?$FO1file?5not?5found?3?5?$CFs?6?$AA@ 20053bc0     g_bot.obj
 0002:00003bd8       ??_C@_0CO@OKDDPLPD@?$FO1file?5too?5large?3?5?$CFs?5is?5?$CFi?0?5max?5@ 20053bd8     g_bot.obj
 0002:00003c08       ??_C@_0N@BFDKEKMB@g_arenasFile?$AA@ 20053c08     g_bot.obj
 0002:00003c18       ??_C@_0BD@KEINBKFE@scripts?1arenas?4txt?$AA@ 20053c18     g_bot.obj
 0002:00003c2c       ??_C@_06IPPMLGON@?4arena?$AA@ 20053c2c     g_bot.obj
 0002:00003c34       ??_C@_07OMEBBDEO@scripts?$AA@ 20053c34     g_bot.obj
 0002:00003c3c       ??_C@_08IDJEBFOJ@scripts?1?$AA@ 20053c3c     g_bot.obj
 0002:00003c48       ??_C@_0BC@MIFKOHOA@?$CFi?5arenas?5parsed?6?$AA@ 20053c48     g_bot.obj
 0002:00003c5c       ??_C@_02IKAHHCAI@?$CFi?$AA@ 20053c5c     g_bot.obj
 0002:00003c60       ??_C@_03IHCLBPIC@num?$AA@  20053c60     g_bot.obj
 0002:00003c64       ??_C@_03HBNNNHNM@map?$AA@  20053c64     g_bot.obj
 0002:00003c68       ??_C@_07DLHCIBDH@default?$AA@ 20053c68     g_bot.obj
 0002:00003c70       ??_C@_0CD@DFNICLKJ@play?5sound?1player?1announce?1?$CFs?4wa@ 20053c70     g_bot.obj
 0002:00003c94       ??_C@_04MEMAJGDJ@name?$AA@ 20053c94     g_bot.obj
 0002:00003c9c       ??_C@_0BE@HKGNLKGC@addbot?5?$CFs?5?$CFf?5?$CFs?5?$CFi?6?$AA@ 20053c9c     g_bot.obj
 0002:00003cb0       ??_C@_08CKHMKINC@kick?5?$CFs?6?$AA@ 20053cb0     g_bot.obj
 0002:00003cbc       ??_C@_0BJ@JBHOCGJI@?$FO3Unable?5to?5delay?5spawn?6?$AA@ 20053cbc     g_bot.obj
 0002:00003cd8       ??_C@_0O@HKBPPLKD@characterfile?$AA@ 20053cd8     g_bot.obj
 0002:00003ce8       ??_C@_05ODMCMJAJ@skill?$AA@ 20053ce8     g_bot.obj
 0002:00003cf0       ??_C@_04KADBPNCB@team?$AA@ 20053cf0     g_bot.obj
 0002:00003cf8       ??_C@_0BI@KOJDMFEB@BotAISetupClient?5failed?$AA@ 20053cf8     g_bot.obj
 0002:00003d10       ??_C@_0BP@NGBNIFAK@?$FO1Error?3?5Bot?5?8?$CFs?8?5not?5defined?6?$AA@ 20053d10     g_bot.obj
 0002:00003d30       ??_C@_07PNOKIGNH@funname?$AA@ 20053d30     g_bot.obj
 0002:00003d38       ??_C@_05GFEIOEMO@25000?$AA@ 20053d38     g_bot.obj
 0002:00003d40       ??_C@_04HCCHHEEF@rate?$AA@ 20053d40     g_bot.obj
 0002:00003d48       ??_C@_05DGPADKBM@snaps?$AA@ 20053d48     g_bot.obj
 0002:00003d50       ??_C@_05NBLIHODN@?$CF1?42f?$AA@ 20053d50     g_bot.obj
 0002:00003d58       ??_C@_02PNFIDHGF@50?$AA@   20053d58     g_bot.obj
 0002:00003d5c       ??_C@_08HBHLIHAM@handicap?$AA@ 20053d5c     g_bot.obj
 0002:00003d68       ??_C@_02PONMODAL@70?$AA@   20053d68     g_bot.obj
 0002:00003d6c       ??_C@_02PEECMOAB@90?$AA@   20053d6c     g_bot.obj
 0002:00003d70       ??_C@_0O@CLCMCGPB@visor?1default?$AA@ 20053d70     g_bot.obj
 0002:00003d80       ??_C@_0L@KEDOKIKJ@team_model?$AA@ 20053d80     g_bot.obj
 0002:00003d8c       ??_C@_09DHBBGOBJ@headmodel?$AA@ 20053d8c     g_bot.obj
 0002:00003d98       ??_C@_0P@JMIBMNM@team_headmodel?$AA@ 20053d98     g_bot.obj
 0002:00003da8       ??_C@_06LFOIHHME@gender?$AA@ 20053da8     g_bot.obj
 0002:00003db0       ??_C@_04ICKCIGNO@male?$AA@ 20053db0     g_bot.obj
 0002:00003db8       ??_C@_06IPMAANOD@color1?$AA@ 20053db8     g_bot.obj
 0002:00003dc0       ??_C@_01FAMBOPH@4?$AA@     20053dc0     g_bot.obj
 0002:00003dc4       ??_C@_06KEONFOCA@color2?$AA@ 20053dc4     g_bot.obj
 0002:00003dcc       ??_C@_01BMBHCPLG@5?$AA@    20053dcc     g_bot.obj
 0002:00003dd0       ??_C@_06GJLCKOIA@aifile?$AA@ 20053dd0     g_bot.obj
 0002:00003dd8       ??_C@_0CG@GFPKDAFH@?$FO1Error?3?5bot?5has?5no?5aifile?5speci@ 20053dd8     g_bot.obj
 0002:00003e00       ??_C@_0DE@MKFCEMGM@?$FO1Unable?5to?5add?5bot?4?5?5All?5player@ 20053e00     g_bot.obj
 0002:00003e38       ??_C@_0FB@BKCBGING@?$FO1Start?5server?5with?5more?5?8open?8?5@ 20053e38     g_bot.obj
 0002:00003e8c       ??_C@_05CEDINIPN@?$CF5?42f?$AA@ 20053e8c     g_bot.obj
 0002:00003e94       ??_C@_0L@BKCPIMBP@bot_enable?$AA@ 20053e94     g_bot.obj
 0002:00003ea0       ??_C@_0ED@LBGLLNI@Usage?3?5Addbot?5?$DMbotname?$DO?5?$FLskill?51@ 20053ea0     g_bot.obj
 0002:00003ee4       ??_C@_0L@FBHMLJNH@cl_running?$AA@ 20053ee4     g_bot.obj
 0002:00003ef0       ??_C@_0N@GEFCGCPK@loaddefered?6?$AA@ 20053ef0     g_bot.obj
 0002:00003f00       ??_C@_0EB@OHFELCCO@?$FO1name?5?5?5?5?5?5?5?5?5?5?5?5?5model?5?5?5?5?5?5?5?5@ 20053f00     g_bot.obj
 0002:00003f44       ??_C@_0O@PCBPGDGA@UnnamedPlayer?$AA@ 20053f44     g_bot.obj
 0002:00003f54       ??_C@_0BB@OCLCLNLB@bots?1default_c?4c?$AA@ 20053f54     g_bot.obj
 0002:00003f68       ??_C@_0BJ@GPLOPMDF@?$CF?916s?5?$CF?916s?5?$CF?920s?5?$CF?920s?6?$AA@ 20053f68     g_bot.obj
 0002:00003f84       ??_C@_0BG@FOPKNLEB@addbot?5?$CFs?5?$CFf?5free?5?$CFi?6?$AA@ 20053f84     g_bot.obj
 0002:00003f9c       ??_C@_0L@IDJNDIMJ@g_botsFile?$AA@ 20053f9c     g_bot.obj
 0002:00003fa8       ??_C@_0BB@LMBKKAOC@scripts?1bots?4txt?$AA@ 20053fa8     g_bot.obj
 0002:00003fbc       ??_C@_04NONLJGOA@?4bot?$AA@ 20053fbc     g_bot.obj
 0002:00003fc4       ??_C@_0BA@KCNHFFOD@?$CFi?5bots?5parsed?6?$AA@ 20053fc4     g_bot.obj
 0002:00003fd4       ??_C@_0P@IGNPDGBD@bot_minplayers?$AA@ 20053fd4     g_bot.obj
 0002:00003fe4       ??_C@_09GCIEGDDN@fraglimit?$AA@ 20053fe4     g_bot.obj
 0002:00003ff0       ??_C@_09KPHKOKCC@timelimit?$AA@ 20053ff0     g_bot.obj
 0002:00003ffc       ??_C@_07BELCMIIP@special?$AA@ 20053ffc     g_bot.obj
 0002:00004004       ??_C@_08FACPJMEJ@training?$AA@ 20054004     g_bot.obj
 0002:00004010       ??_C@_04OOIACBCD@bots?$AA@ 20054010     g_bot.obj
 0002:00004018       ??_C@_06JHOFIDHH@nobots?$AA@ 20054018     g_client.obj
 0002:00004020       ??_C@_08MDEJHCAF@nohumans?$AA@ 20054020     g_client.obj
 0002:0000402c       ??_C@_0BH@IGAFCIL@info_player_deathmatch?$AA@ 2005402c     g_client.obj
 0002:00004044       ??_C@_0BM@DGHFFJBI@Couldn?8t?5find?5a?5spawn?5point?$AA@ 20054044     g_client.obj
 0002:00004060       ??_C@_07ILHJIGAO@bodyque?$AA@ 20054060     g_client.obj
 0002:00004068       ??_C@_0P@LIDDFKFD@kamikaze?5timer?$AA@ 20054068     g_client.obj
 0002:00004078       ??_C@_0O@JBDOHEEF@?2name?2badinfo?$AA@ 20054078     g_client.obj
 0002:00004088       ??_C@_02GIIHKPLE@ip?$AA@   20054088     g_client.obj
 0002:0000408c       ??_C@_09IPAEKDAI@localhost?$AA@ 2005408c     g_client.obj
 0002:00004098       ??_C@_0BA@PKAEEJJB@cg_predictItems?$AA@ 20054098     g_client.obj
 0002:000040a8       ??_C@_0L@PGGJLCHO@scoreboard?$AA@ 200540a8     g_client.obj
 0002:000040b4       ??_C@_0BM@IJFFLPEN@print?5?$CC?$CFs?$FO7?5renamed?5to?5?$CFs?6?$CC?$AA@ 200540b4     g_client.obj
 0002:000040d0       ??_C@_01KDCPPGHE@r?$AA@    200540d0     g_client.obj
 0002:000040d4       ??_C@_01OJONOECF@b?$AA@    200540d4     g_client.obj
 0002:000040d8       ??_C@_0M@IKKMOBIP@teamoverlay?$AA@ 200540d8     g_client.obj
 0002:000040e4       ??_C@_09LPNHELAH@g_redteam?$AA@ 200540e4     g_client.obj
 0002:000040f0       ??_C@_0L@CPNMJIBN@g_blueteam?$AA@ 200540f0     g_client.obj
 0002:00004100       ??_C@_0EO@IELCCCFM@n?2?$CFs?2t?2?$CFi?2model?2?$CFs?2hmodel?2?$CFs?2c1?2@ 20054100     g_client.obj
 0002:00004150       ??_C@_0GA@GJMCBBDN@n?2?$CFs?2t?2?$CFi?2model?2?$CFs?2hmodel?2?$CFs?2g_r@ 20054150     g_client.obj
 0002:000041b0       ??_C@_0BO@IFHBFKHP@ClientUserinfoChanged?3?5?$CFi?5?$CFs?6?$AA@ 200541b0     g_client.obj
 0002:000041d0       ??_C@_0CB@BAJJGAM@You?5are?5banned?5from?5this?5server?4@ 200541d0     g_client.obj
 0002:000041f4       ??_C@_08NLHBPEGP@password?$AA@ 200541f4     g_client.obj
 0002:00004200       ??_C@_04CGFJFPFD@none?$AA@ 20054200     g_client.obj
 0002:00004208       ??_C@_0BB@GKDCDICO@Invalid?5password?$AA@ 20054208     g_client.obj
 0002:0000421c       ??_C@_0BB@KINAMDJK@BotConnectfailed?$AA@ 2005421c     g_client.obj
 0002:00004230       ??_C@_0BD@LEMBFDEN@ClientConnect?3?5?$CFi?6?$AA@ 20054230     g_client.obj
 0002:00004244       ??_C@_0BI@LLOHFCPM@print?5?$CC?$CFs?$FO7?5connected?6?$CC?$AA@ 20054244     g_client.obj
 0002:0000425c       ??_C@_0BP@PGPGIDAG@print?5?$CC?$CFs?$FO7?5entered?5the?5game?6?$CC?$AA@ 2005425c     g_client.obj
 0002:0000427c       ??_C@_0BB@JCCEPCGJ@ClientBegin?3?5?$CFi?6?$AA@ 2005427c     g_client.obj
 0002:00004290       ??_C@_06BALNJMNP@player?$AA@ 20054290     g_client.obj
 0002:00004298       ??_C@_0BG@PJMKPFGA@ClientDisconnect?3?5?$CFi?6?$AA@ 20054298     g_client.obj
 0002:000042b0       ??_C@_0N@GGGDBMDO@disconnected?$AA@ 200542b0     g_client.obj
 0002:000042c0       __real@41100000            200542c0     g_client.obj
 0002:000042c4       ??_C@_0BD@BEPMJBOM@hold?5your?5position?$AA@ 200542c4     g_cmds.obj
 0002:000042d8       ??_C@_0BD@BGOJJIFC@hold?5this?5position?$AA@ 200542d8     g_cmds.obj
 0002:000042ec       ??_C@_09NKPGKNPA@come?5here?$AA@ 200542ec     g_cmds.obj
 0002:000042f8       ??_C@_08NJPHEENP@cover?5me?$AA@ 200542f8     g_cmds.obj
 0002:00004304       ??_C@_0P@BDHIOPIB@guard?5location?$AA@ 20054304     g_cmds.obj
 0002:00004314       ??_C@_0BD@JFEBCONJ@search?5and?5destroy?$AA@ 20054314     g_cmds.obj
 0002:00004328       ??_C@_06MHOMHIDM@report?$AA@ 20054328     g_cmds.obj
 0002:00004330       ??_C@_0N@PCEMCJC@Free?5For?5All?$AA@ 20054330     g_cmds.obj
 0002:00004340       ??_C@_0L@FENDKKGN@Tournament?$AA@ 20054340     g_cmds.obj
 0002:0000434c       ??_C@_0O@NNAOEDOE@Single?5Player?$AA@ 2005434c     g_cmds.obj
 0002:0000435c       ??_C@_0BA@KHHNIIJE@Team?5Deathmatch?$AA@ 2005435c     g_cmds.obj
 0002:0000436c       ??_C@_0BB@OOIHNFAG@Capture?5the?5Flag?$AA@ 2005436c     g_cmds.obj
 0002:00004380       ??_C@_0N@FCMBHKKN@One?5Flag?5CTF?$AA@ 20054380     g_cmds.obj
 0002:00004390       ??_C@_08JKIFACLF@Overload?$AA@ 20054390     g_cmds.obj
 0002:0000439c       ??_C@_09OKMOBHEE@Harvester?$AA@ 2005439c     g_cmds.obj
 0002:000043a8       ??_C@_0CL@EAFNPFGA@?5?$CFi?5?$CFi?5?$CFi?5?$CFi?5?$CFi?5?$CFi?5?$CFi?5?$CFi?5?$CFi?5?$CFi?5?$CF@ 200543a8     g_cmds.obj
 0002:000043d4       ??_C@_0BC@BADCIGBJ@scores?5?$CFi?5?$CFi?5?$CFi?$CFs?$AA@ 200543d4     g_cmds.obj
 0002:000043e8       ??_C@_0DA@DLJNDFCJ@print?5?$CCCheats?5are?5not?5enabled?5on@ 200543e8     g_cmds.obj
 0002:00004418       ??_C@_0DA@KHFNLLBI@print?5?$CCYou?5must?5be?5alive?5to?5use?5@ 20054418     g_cmds.obj
 0002:00004448       ??_C@_0BN@FGLBNIJH@print?5?$CCBad?5client?5slot?3?5?$CFi?6?$CC?$AA@ 20054448     g_cmds.obj
 0002:00004468       ??_C@_0CB@IOMDOEKP@print?5?$CCClient?5?$CFi?5is?5not?5active?6?$CC@ 20054468     g_cmds.obj
 0002:0000448c       ??_C@_0CG@OFMIDLCG@print?5?$CCUser?5?$CFs?5is?5not?5on?5the?5ser@ 2005448c     g_cmds.obj
 0002:000044b4       ??_C@_03NFKEKGGK@all?$AA@  200544b4     g_cmds.obj
 0002:000044b8       ??_C@_07PKKCMMCH@weapons?$AA@ 200544b8     g_cmds.obj
 0002:000044c0       ??_C@_04PGKJFGNK@ammo?$AA@ 200544c0     g_cmds.obj
 0002:000044c8       ??_C@_05JJEJIJLL@armor?$AA@ 200544c8     g_cmds.obj
 0002:000044d0       ??_C@_09MBDMPFOO@excellent?$AA@ 200544d0     g_cmds.obj
 0002:000044dc       ??_C@_0L@GBLMIJON@impressive?$AA@ 200544dc     g_cmds.obj
 0002:000044e8       ??_C@_0O@DCIHIELO@gauntletaward?$AA@ 200544e8     g_cmds.obj
 0002:000044f8       ??_C@_06CHFMFANC@assist?$AA@ 200544f8     g_cmds.obj
 0002:00004500       ??_C@_0N@POKEKLLJ@godmode?5OFF?6?$AA@ 20054500     g_cmds.obj
 0002:00004510       ??_C@_0M@MCLKHHDH@godmode?5ON?6?$AA@ 20054510     g_cmds.obj
 0002:0000451c       ??_C@_0L@GPCEIOHM@print?5?$CC?$CFs?$CC?$AA@ 2005451c     g_cmds.obj
 0002:00004528       ??_C@_0O@FBINJHBB@notarget?5OFF?6?$AA@ 20054528     g_cmds.obj
 0002:00004538       ??_C@_0N@OBJNJDJO@notarget?5ON?6?$AA@ 20054538     g_cmds.obj
 0002:00004548       ??_C@_0M@MIKGJGLH@noclip?5OFF?6?$AA@ 20054548     g_cmds.obj
 0002:00004554       ??_C@_0L@MDMNIPJN@noclip?5ON?6?$AA@ 20054554     g_cmds.obj
 0002:00004560       ??_C@_0CP@EMMMGMNN@print?5?$CCMust?5be?5in?5g_gametype?50?5f@ 20054560     g_cmds.obj
 0002:00004590       ??_C@_0CA@FCJONFGI@cp?5?$CC?$CFs?$FO7?5joined?5the?5red?5team?4?6?$CC?$AA@ 20054590     g_cmds.obj
 0002:000045b0       ??_C@_0CB@MALDLCDE@cp?5?$CC?$CFs?$FO7?5joined?5the?5blue?5team?4?6?$CC@ 200545b0     g_cmds.obj
 0002:000045d4       ??_C@_0CC@CKOABLEC@cp?5?$CC?$CFs?$FO7?5joined?5the?5spectators?4?6@ 200545d4     g_cmds.obj
 0002:000045f8       ??_C@_0BO@HCBBHHLG@cp?5?$CC?$CFs?$FO7?5joined?5the?5battle?4?6?$CC?$AA@ 200545f8     g_cmds.obj
 0002:00004618       ??_C@_05DBKDOICH@score?$AA@ 20054618     g_cmds.obj
 0002:00004620       ??_C@_07CGPFHOPJ@follow1?$AA@ 20054620     g_cmds.obj
 0002:00004628       ??_C@_07NNICNDK@follow2?$AA@ 20054628     g_cmds.obj
 0002:00004630       ??_C@_09FNMDCDOI@spectator?$AA@ 20054630     g_cmds.obj
 0002:0000463c       ??_C@_01LKDEMHDF@s?$AA@    2005463c     g_cmds.obj
 0002:00004640       ??_C@_0CF@OMMGDNAE@cp?5?$CCRed?5team?5has?5too?5many?5player@ 20054640     g_cmds.obj
 0002:00004668       ??_C@_0CG@BNBAGBGM@cp?5?$CCBlue?5team?5has?5too?5many?5playe@ 20054668     g_cmds.obj
 0002:00004690       ??_C@_0BD@PGCCOEMO@print?5?$CCBlue?5team?6?$CC?$AA@ 20054690     g_cmds.obj
 0002:000046a4       ??_C@_0BC@HGAENHGG@print?5?$CCRed?5team?6?$CC?$AA@ 200546a4     g_cmds.obj
 0002:000046b8       ??_C@_0BD@COAKLBJE@print?5?$CCFree?5team?6?$CC?$AA@ 200546b8     g_cmds.obj
 0002:000046cc       ??_C@_0BI@PDLENAMN@print?5?$CCSpectator?5team?6?$CC?$AA@ 200546cc     g_cmds.obj
 0002:000046e4       ??_C@_0DM@NEIAOCHE@print?5?$CCMay?5not?5switch?5teams?5more@ 200546e4     g_cmds.obj
 0002:00004720       ??_C@_0BO@KJIMFOBJ@Cmd_FollowCycle_f?3?5bad?5dir?5?$CFi?$AA@ 20054720     g_cmds.obj
 0002:00004740       ??_C@_0O@CCPEDGNK@?$CFs?5?$CC?$CFs?$CFc?$CFc?$CFs?$CC?$AA@ 20054740     g_cmds.obj
 0002:00004750       ??_C@_0N@PIPLJLA@say?3?5?$CFs?3?5?$CFs?6?$AA@ 20054750     g_cmds.obj
 0002:00004760       ??_C@_09GPHNFPKO@?$CFs?$CFc?$CFc?$BJ?3?5?$AA@ 20054760     g_cmds.obj
 0002:0000476c       ??_C@_0BB@OADDLILN@sayteam?3?5?$CFs?3?5?$CFs?6?$AA@ 2005476c     g_cmds.obj
 0002:00004780       ??_C@_0BD@LHDLGCNL@?$BJ?$CI?$CFs?$CFc?$CFc?$BJ?$CJ?5?$CI?$CFs?$CJ?$BJ?3?5?$AA@ 20054780     g_cmds.obj
 0002:00004794       ??_C@_0O@FGLMEIPO@?$BJ?$CI?$CFs?$CFc?$CFc?$BJ?$CJ?$BJ?3?5?$AA@ 20054794     g_cmds.obj
 0002:000047a4       ??_C@_0BD@GLHHAOBD@?$BJ?$FL?$CFs?$CFc?$CFc?$BJ?$FN?5?$CI?$CFs?$CJ?$BJ?3?5?$AA@ 200547a4     g_cmds.obj
 0002:000047b8       ??_C@_0O@FNNABOLL@?$BJ?$FL?$CFs?$CFc?$CFc?$BJ?$FN?$BJ?3?5?$AA@ 200547b8     g_cmds.obj
 0002:000047c8       ??_C@_05JMJKDBEJ@?$CFs?$CFs?6?$AA@ 200547c8     g_cmds.obj
 0002:000047d0       ??_C@_0BE@DNAOGBCN@tell?3?5?$CFs?5to?5?$CFs?3?5?$CFs?6?$AA@ 200547d0     g_cmds.obj
 0002:000047e4       ??_C@_0P@GLNDPPNN@?$CFs?5?$CFd?5?$CFd?5?$CFd?5?$CFs?$AA@ 200547e4     g_cmds.obj
 0002:000047f4       ??_C@_0O@PGEGBHPB@voice?3?5?$CFs?5?$CFs?6?$AA@ 200547f4     g_cmds.obj
 0002:00004804       ??_C@_0BF@KNCPEACI@vtell?3?5?$CFs?5to?5?$CFs?3?5?$CFs?6?$AA@ 20054804     g_cmds.obj
 0002:0000481c       ??_C@_06GEFAPDPP@praise?$AA@ 2005481c     g_cmds.obj
 0002:00004824       ??_C@_0M@MIDAEIOB@print?5?$CC?$CFs?6?$CC?$AA@ 20054824     g_cmds.obj
 0002:00004830       ??_C@_0CC@MKEOLBNH@print?5?$CCVoting?5not?5allowed?5here?4?6@ 20054830     g_cmds.obj
 0002:00004854       ??_C@_0CI@IOOGHLKJ@print?5?$CCA?5vote?5is?5already?5in?5prog@ 20054854     g_cmds.obj
 0002:0000487c       ??_C@_0DG@PHEGLJKA@print?5?$CCYou?5have?5called?5the?5maxim@ 2005487c     g_cmds.obj
 0002:000048b4       ??_C@_0DC@KBNBHNDJ@print?5?$CCNot?5allowed?5to?5call?5a?5vot@ 200548b4     g_cmds.obj
 0002:000048e8       ??_C@_0BO@PMPHENKD@print?5?$CCInvalid?5vote?5string?4?6?$CC?$AA@ 200548e8     g_cmds.obj
 0002:00004908       ??_C@_0M@NBIMEKNE@map_restart?$AA@ 20054908     g_cmds.obj
 0002:00004914       ??_C@_07MCHHMPMB@nextmap?$AA@ 20054914     g_cmds.obj
 0002:0000491c       ??_C@_04FNIJDBCC@kick?$AA@ 2005491c     g_cmds.obj
 0002:00004924       ??_C@_0L@NBDAICFL@clientkick?$AA@ 20054924     g_cmds.obj
 0002:00004930       ??_C@_0L@LPENDGCI@g_doWarmup?$AA@ 20054930     g_cmds.obj
 0002:00004940       ??_C@_0KJ@BAKDCPAJ@print?5?$CCVote?5commands?5are?3?5map_re@ 20054940     g_cmds.obj
 0002:000049ec       ??_C@_03OFAPEBGM@?$CFs?6?$AA@ 200549ec     g_cmds.obj
 0002:000049f0       ??_C@_0BL@HOKFFIC@print?5?$CCInvalid?5gametype?4?6?$CC?$AA@ 200549f0     g_cmds.obj
 0002:00004a0c       ??_C@_05DIALNFFA@?$CFs?5?$CFd?$AA@ 20054a0c     g_cmds.obj
 0002:00004a14       ??_C@_05DNIIFBMG@?$CFs?5?$CFs?$AA@ 20054a14     g_cmds.obj
 0002:00004a1c       ??_C@_0BI@EHIPCLJD@?$CFs?5?$CFs?$DL?5set?5nextmap?5?$CC?$CFs?$CC?$AA@ 20054a1c     g_cmds.obj
 0002:00004a34       ??_C@_0BK@IOHPLFMM@print?5?$CCnextmap?5not?5set?4?6?$CC?$AA@ 20054a34     g_cmds.obj
 0002:00004a50       ??_C@_0N@NPFCFAAA@vstr?5nextmap?$AA@ 20054a50     g_cmds.obj
 0002:00004a60       ??_C@_07CMIPDAGF@?$CFs?5?$CC?$CFs?$CC?$AA@ 20054a60     g_cmds.obj
 0002:00004a68       ??_C@_0BL@LDCKNKB@print?5?$CC?$CFs?5called?5a?5vote?4?6?$CC?$AA@ 20054a68     g_cmds.obj
 0002:00004a84       ??_C@_0BO@JJMMHDFC@print?5?$CCNo?5vote?5in?5progress?4?6?$CC?$AA@ 20054a84     g_cmds.obj
 0002:00004aa4       ??_C@_0BM@JAOFDBMB@print?5?$CCVote?5already?5cast?4?6?$CC?$AA@ 20054aa4     g_cmds.obj
 0002:00004ac0       ??_C@_0CL@KIACKMGK@print?5?$CCNot?5allowed?5to?5vote?5as?5sp@ 20054ac0     g_cmds.obj
 0002:00004aec       ??_C@_0BE@KBOHCPHM@print?5?$CCVote?5cast?4?6?$CC?$AA@ 20054aec     g_cmds.obj
 0002:00004b00       ??_C@_0CN@INNKCADJ@print?5?$CCA?5team?5vote?5is?5already?5in@ 20054b00     g_cmds.obj
 0002:00004b30       ??_C@_0DL@IFNKHCNG@print?5?$CCYou?5have?5called?5the?5maxim@ 20054b30     g_cmds.obj
 0002:00004b6c       ??_C@_06DFLPLEOP@leader?$AA@ 20054b6c     g_cmds.obj
 0002:00004b74       ??_C@_0DA@BDICJJF@print?5?$CC?$CFs?5is?5not?5a?5valid?5player?5@ 20054b74     g_cmds.obj
 0002:00004ba4       ??_C@_0DC@JMKMFJGE@print?5?$CCTeam?5vote?5commands?5are?3?5l@ 20054ba4     g_cmds.obj
 0002:00004bd8       ??_C@_0CA@ENAIANHJ@print?5?$CC?$CFs?5called?5a?5team?5vote?4?6?$CC?$AA@ 20054bd8     g_cmds.obj
 0002:00004bf8       ??_C@_0CD@BLODMPFK@print?5?$CCNo?5team?5vote?5in?5progress?4@ 20054bf8     g_cmds.obj
 0002:00004c1c       ??_C@_0CB@LGGMNIHI@print?5?$CCTeam?5vote?5already?5cast?4?6?$CC@ 20054c1c     g_cmds.obj
 0002:00004c40       ??_C@_0BJ@DCKHGAB@print?5?$CCTeam?5vote?5cast?4?6?$CC?$AA@ 20054c40     g_cmds.obj
 0002:00004c5c       ??_C@_0CF@GJFHLKOA@print?5?$CCusage?3?5setviewpos?5x?5y?5z?5y@ 20054c5c     g_cmds.obj
 0002:00004c84       ??_C@_03BANJEMDJ@say?$AA@  20054c84     g_cmds.obj
 0002:00004c88       ??_C@_08NBFNGOHN@say_team?$AA@ 20054c88     g_cmds.obj
 0002:00004c94       ??_C@_04LBPCFPDD@tell?$AA@ 20054c94     g_cmds.obj
 0002:00004c9c       ??_C@_04IBCNHBFH@vsay?$AA@ 20054c9c     g_cmds.obj
 0002:00004ca4       ??_C@_09CPIJOHHK@vsay_team?$AA@ 20054ca4     g_cmds.obj
 0002:00004cb0       ??_C@_05EGEGDMMG@vosay?$AA@ 20054cb0     g_cmds.obj
 0002:00004cb8       ??_C@_0L@GKKIAMHC@vosay_team?$AA@ 20054cb8     g_cmds.obj
 0002:00004cc4       ??_C@_06JMKGCPMO@votell?$AA@ 20054cc4     g_cmds.obj
 0002:00004ccc       ??_C@_04BMBHJADG@give?$AA@ 20054ccc     g_cmds.obj
 0002:00004cd4       ??_C@_03DKFAMNOH@god?$AA@  20054cd4     g_cmds.obj
 0002:00004cd8       ??_C@_08HPLPOCJL@notarget?$AA@ 20054cd8     g_cmds.obj
 0002:00004ce4       ??_C@_06IHODGGMJ@noclip?$AA@ 20054ce4     g_cmds.obj
 0002:00004cec       ??_C@_09EFOFPGPE@levelshot?$AA@ 20054cec     g_cmds.obj
 0002:00004cf8       ??_C@_06HNJAFFAK@follow?$AA@ 20054cf8     g_cmds.obj
 0002:00004d00       ??_C@_0L@GBHEMAKD@follownext?$AA@ 20054d00     g_cmds.obj
 0002:00004d0c       ??_C@_0L@FFKCNEMH@followprev?$AA@ 20054d0c     g_cmds.obj
 0002:00004d18       ??_C@_05LCFPHLEE@where?$AA@ 20054d18     g_cmds.obj
 0002:00004d20       ??_C@_08NNMLCPB@callvote?$AA@ 20054d20     g_cmds.obj
 0002:00004d2c       ??_C@_04GHHIKFLG@vote?$AA@ 20054d2c     g_cmds.obj
 0002:00004d34       ??_C@_0N@JDBKAFAM@callteamvote?$AA@ 20054d34     g_cmds.obj
 0002:00004d44       ??_C@_08OLLMCBNG@teamvote?$AA@ 20054d44     g_cmds.obj
 0002:00004d50       ??_C@_02DPGMDCM@gc?$AA@    20054d50     g_cmds.obj
 0002:00004d54       ??_C@_0L@CCEFBCKP@setviewpos?$AA@ 20054d54     g_cmds.obj
 0002:00004d60       ??_C@_05BLKJBNOD@stats?$AA@ 20054d60     g_cmds.obj
 0002:00004d68       ??_C@_0BI@FJNBDMBJ@print?5?$CCunknown?5cmd?5?$CFs?6?$CC?$AA@ 20054d68     g_cmds.obj
 0002:00004d80       ??_C@_0M@BKDMLGAO@MOD_UNKNOWN?$AA@ 20054d80     g_combat.obj
 0002:00004d8c       ??_C@_0M@MIHCLLAH@MOD_SHOTGUN?$AA@ 20054d8c     g_combat.obj
 0002:00004d98       ??_C@_0N@MJPPIPMF@MOD_GAUNTLET?$AA@ 20054d98     g_combat.obj
 0002:00004da8       ??_C@_0P@DNHADEBJ@MOD_MACHINEGUN?$AA@ 20054da8     g_combat.obj
 0002:00004db8       ??_C@_0M@KDJNKEED@MOD_GRENADE?$AA@ 20054db8     g_combat.obj
 0002:00004dc4       ??_C@_0BD@PLGCKMBF@MOD_GRENADE_SPLASH?$AA@ 20054dc4     g_combat.obj
 0002:00004dd8       ??_C@_0L@FIOJJPEO@MOD_ROCKET?$AA@ 20054dd8     g_combat.obj
 0002:00004de4       ??_C@_0BC@KJDNONBC@MOD_ROCKET_SPLASH?$AA@ 20054de4     g_combat.obj
 0002:00004df8       ??_C@_0L@JPCJGHHF@MOD_PLASMA?$AA@ 20054df8     g_combat.obj
 0002:00004e04       ??_C@_0BC@PIBHLJKK@MOD_PLASMA_SPLASH?$AA@ 20054e04     g_combat.obj
 0002:00004e18       ??_C@_0M@BHIJMBBE@MOD_RAILGUN?$AA@ 20054e18     g_combat.obj
 0002:00004e24       ??_C@_0O@GLCOIAIP@MOD_LIGHTNING?$AA@ 20054e24     g_combat.obj
 0002:00004e34       ??_C@_07EOLOFKFM@MOD_BFG?$AA@ 20054e34     g_combat.obj
 0002:00004e3c       ??_C@_0P@OHBIPEGK@MOD_BFG_SPLASH?$AA@ 20054e3c     g_combat.obj
 0002:00004e4c       ??_C@_09MAPLCDLI@MOD_WATER?$AA@ 20054e4c     g_combat.obj
 0002:00004e58       ??_C@_09KBJPPHD@MOD_SLIME?$AA@ 20054e58     g_combat.obj
 0002:00004e64       ??_C@_08LEPCJCFO@MOD_LAVA?$AA@ 20054e64     g_combat.obj
 0002:00004e70       ??_C@_09GPMGMMBL@MOD_CRUSH?$AA@ 20054e70     g_combat.obj
 0002:00004e7c       ??_C@_0N@IMHJNLFF@MOD_TELEFRAG?$AA@ 20054e7c     g_combat.obj
 0002:00004e8c       ??_C@_0M@JONLOPJN@MOD_FALLING?$AA@ 20054e8c     g_combat.obj
 0002:00004e98       ??_C@_0M@NECNIJDJ@MOD_SUICIDE?$AA@ 20054e98     g_combat.obj
 0002:00004ea4       ??_C@_0BB@HMLMKPCA@MOD_TARGET_LASER?$AA@ 20054ea4     g_combat.obj
 0002:00004eb8       ??_C@_0BB@JHNHPELL@MOD_TRIGGER_HURT?$AA@ 20054eb8     g_combat.obj
 0002:00004ecc       ??_C@_08GMOGFLDO@MOD_NAIL?$AA@ 20054ecc     g_combat.obj
 0002:00004ed8       ??_C@_0N@FEJCBMAO@MOD_CHAINGUN?$AA@ 20054ed8     g_combat.obj
 0002:00004ee8       ??_C@_0BD@MFBJFBN@MOD_PROXIMITY_MINE?$AA@ 20054ee8     g_combat.obj
 0002:00004efc       ??_C@_0N@DCIGIBBD@MOD_KAMIKAZE?$AA@ 20054efc     g_combat.obj
 0002:00004f0c       ??_C@_0L@GLFDEOAF@MOD_JUICED?$AA@ 20054f0c     g_combat.obj
 0002:00004f18       ??_C@_0M@BGKKOPE@MOD_GRAPPLE?$AA@ 20054f18     g_combat.obj
 0002:00004f24       ??_C@_0N@HGAIBNNB@?$DMnon?9client?$DO?$AA@ 20054f24     g_combat.obj
 0002:00004f34       ??_C@_07GECLLGBL@?$DMworld?$DO?$AA@ 20054f34     g_combat.obj
 0002:00004f3c       ??_C@_0P@BDPEDPJP@?$DMbad?5obituary?$DO?$AA@ 20054f3c     g_combat.obj
 0002:00004f4c       ??_C@_0CE@HGPMHBOH@Kill?3?5?$CFi?5?$CFi?5?$CFi?3?5?$CFs?5killed?5?$CFs?5by?5@ 20054f4c     g_combat.obj
 0002:00004f70       ??_C@_0CM@LEIIGBFN@?$CFi?3?5client?3?$CFi?5health?3?$CFi?5damage?3?$CF@ 20054f70     g_combat.obj
 0002:00004fa0       __real@3fe51eb851eb851f    20054fa0     g_combat.obj
 0002:00004fa8       __real@4069000000000000    20054fa8     g_combat.obj
 0002:00004fb0       ??_C@_0BM@BNLFEEPK@RespawnItem?3?5bad?5teammaster?$AA@ 20054fb0     g_items.obj
 0002:00004fcc       ??_C@_0N@OCCHADDH@Item?3?5?$CFi?5?$CFs?6?$AA@ 20054fcc     g_items.obj
 0002:00004fdc       ??_C@_0CJ@EMOANFCC@FinishSpawningItem?3?5?$CFs?5startsoli@ 20054fdc     g_items.obj
 0002:00005008       ??_C@_0CG@DNHJENHJ@?$FO3WARNING?3?5No?5team_CTF_redflag?5i@ 20055008     g_items.obj
 0002:00005030       ??_C@_0CH@HHMBIMLK@?$FO3WARNING?3?5No?5team_CTF_blueflag?5@ 20055030     g_items.obj
 0002:00005058       ??_C@_0CK@LHDOIMIG@?$FO3WARNING?3?5No?5team_CTF_neutralfl@ 20055058     g_items.obj
 0002:00005084       ??_C@_0CF@EHLILGO@?$FO3WARNING?3?5No?5team_redobelisk?5in@ 20055084     g_items.obj
 0002:000050ac       ??_C@_0CG@JJFAIGDJ@?$FO3WARNING?3?5No?5team_blueobelisk?5i@ 200550ac     g_items.obj
 0002:000050d4       ??_C@_0CJ@JOMGOOIG@?$FO3WARNING?3?5No?5team_neutralobelis@ 200550d4     g_items.obj
 0002:00005100       ??_C@_0BD@LOGEPNHD@RegisterItem?3?5NULL?$AA@ 20055100     g_items.obj
 0002:00005114       ??_C@_0BF@PHBDLOMN@?$CFi?5items?5registered?6?$AA@ 20055114     g_items.obj
 0002:0000512c       ??_C@_0L@BHNPAADM@disable_?$CFs?$AA@ 2005512c     g_items.obj
 0002:00005138       ??_C@_06NLFCANPD@random?$AA@ 20055138     g_items.obj
 0002:00005140       ??_C@_04PNOAOIAG@wait?$AA@ 20055140     g_items.obj
 0002:00005148       ??_C@_0O@MNEGCFDN@noglobalsound?$AA@ 20055148     g_items.obj
 0002:00005158       __real@4046800000000000    20055158     g_items.obj
 0002:00005160       __real@43400000            20055160     g_items.obj
 0002:00005164       __real@45800000            20055164     g_items.obj
 0002:00005168       __real@c0000000            20055168     g_items.obj
 0002:0000516c       ??_C@_09NFOPKLIK@sv_cheats?$AA@ 2005516c     g_main.obj
 0002:00005178       ??_C@_08HCPAIKAO@gamename?$AA@ 20055178     g_main.obj
 0002:00005184       ??_C@_06KOMAFLML@baseq3?$AA@ 20055184     g_main.obj
 0002:0000518c       ??_C@_08CLLHAKFA@gamedate?$AA@ 2005518c     g_main.obj
 0002:00005198       ??_C@_0M@FIDGNMPO@Jul?525?52013?$AA@ 20055198     g_main.obj
 0002:000051a4       ??_C@_0M@GHMJJAD@g_restarted?$AA@ 200551a4     g_main.obj
 0002:000051b0       ??_C@_0L@DFBEGALI@sv_mapname?$AA@ 200551b0     g_main.obj
 0002:000051bc       ??_C@_0BB@JCLDAPBF@g_maxGameClients?$AA@ 200551bc     g_main.obj
 0002:000051d0       ??_C@_07GMGCLCAP@dmflags?$AA@ 200551d0     g_main.obj
 0002:000051d8       ??_C@_0N@FCAHJCDA@capturelimit?$AA@ 200551d8     g_main.obj
 0002:000051e8       ??_C@_0BF@LICFCALK@g_synchronousClients?$AA@ 200551e8     g_main.obj
 0002:00005200       ??_C@_0P@IEOFAMLI@g_friendlyFire?$AA@ 20055200     g_main.obj
 0002:00005210       ??_C@_0P@PONBNCIE@g_teamAutoJoin?$AA@ 20055210     g_main.obj
 0002:00005220       ??_C@_0BD@CLGJCDLA@g_teamForceBalance?$AA@ 20055220     g_main.obj
 0002:00005234       ??_C@_08HAMOJLDA@g_warmup?$AA@ 20055234     g_main.obj
 0002:00005240       ??_C@_05PJEIAAGC@g_log?$AA@ 20055240     g_main.obj
 0002:00005248       ??_C@_09BNLGBMID@games?4log?$AA@ 20055248     g_main.obj
 0002:00005254       ??_C@_09IPDDEHO@g_logSync?$AA@ 20055254     g_main.obj
 0002:00005260       ??_C@_0L@GHAPAPFD@g_password?$AA@ 20055260     g_main.obj
 0002:0000526c       ??_C@_08NKMDLNHL@g_banIPs?$AA@ 2005526c     g_main.obj
 0002:00005278       ??_C@_0M@NIKBMNDP@g_filterBan?$AA@ 20055278     g_main.obj
 0002:00005284       ??_C@_0L@MLCEEGBP@g_needpass?$AA@ 20055284     g_main.obj
 0002:00005290       ??_C@_09BJOAODLF@dedicated?$AA@ 20055290     g_main.obj
 0002:0000529c       ??_C@_07KCHPCPJD@g_speed?$AA@ 2005529c     g_main.obj
 0002:000052a4       ??_C@_03MEIMHAKB@320?$AA@  200552a4     g_main.obj
 0002:000052a8       ??_C@_09HNGNBNKN@g_gravity?$AA@ 200552a8     g_main.obj
 0002:000052b4       ??_C@_03BAAJCDMO@800?$AA@  200552b4     g_main.obj
 0002:000052b8       ??_C@_0M@PDFGFIOM@g_knockback?$AA@ 200552b8     g_main.obj
 0002:000052c4       ??_C@_04KOJKLCBG@1000?$AA@ 200552c4     g_main.obj
 0002:000052cc       ??_C@_0N@LCBCFAFA@g_quadfactor?$AA@ 200552cc     g_main.obj
 0002:000052dc       ??_C@_01EKENIIDA@3?$AA@    200552dc     g_main.obj
 0002:000052e0       ??_C@_0BA@CMOCDPF@g_weaponrespawn?$AA@ 200552e0     g_main.obj
 0002:000052f0       ??_C@_0BE@CNNPIPEC@g_weaponTeamRespawn?$AA@ 200552f0     g_main.obj
 0002:00005304       ??_C@_02PJNFELNH@30?$AA@   20055304     g_main.obj
 0002:00005308       ??_C@_0P@JEPDGNEP@g_forcerespawn?$AA@ 20055308     g_main.obj
 0002:00005318       ??_C@_0N@JGEKALLI@g_inactivity?$AA@ 20055318     g_main.obj
 0002:00005328       ??_C@_0M@EPOBGCBB@g_debugMove?$AA@ 20055328     g_main.obj
 0002:00005334       ??_C@_0O@JCLHDLKF@g_debugDamage?$AA@ 20055334     g_main.obj
 0002:00005344       ??_C@_0N@CGHOHBHC@g_debugAlloc?$AA@ 20055344     g_main.obj
 0002:00005354       ??_C@_06IBNENCEO@g_motd?$AA@ 20055354     g_main.obj
 0002:0000535c       ??_C@_09DKNLLEN@com_blood?$AA@ 2005535c     g_main.obj
 0002:00005368       ??_C@_02PFIAKEDG@80?$AA@   20055368     g_main.obj
 0002:0000536c       ??_C@_0M@MECNLONK@g_allowVote?$AA@ 2005536c     g_main.obj
 0002:00005378       ??_C@_0N@JIFICDHI@g_listEntity?$AA@ 20055378     g_main.obj
 0002:00005388       ??_C@_0BA@DOMKFDAP@g_obeliskHealth?$AA@ 20055388     g_main.obj
 0002:00005398       ??_C@_04NOOEDIPE@2500?$AA@ 20055398     g_main.obj
 0002:000053a0       ??_C@_0BF@GIGPINFA@g_obeliskRegenPeriod?$AA@ 200553a0     g_main.obj
 0002:000053b8       ??_C@_0BF@IMCKFLDF@g_obeliskRegenAmount?$AA@ 200553b8     g_main.obj
 0002:000053d0       ??_C@_02IHCGGLPM@15?$AA@   200553d0     g_main.obj
 0002:000053d4       ??_C@_0BG@GHPGJFPD@g_obeliskRespawnDelay?$AA@ 200553d4     g_main.obj
 0002:000053ec       ??_C@_0O@KKCHPANF@g_cubeTimeout?$AA@ 200553ec     g_main.obj
 0002:000053fc       ??_C@_07OLKAFEPH@Stroggs?$AA@ 200553fc     g_main.obj
 0002:00005404       ??_C@_06GMDNOCON@Pagans?$AA@ 20055404     g_main.obj
 0002:0000540c       ??_C@_0BG@JDIGCOKJ@ui_singlePlayerActive?$AA@ 2005540c     g_main.obj
 0002:00005424       ??_C@_0N@CMGOADK@g_enableDust?$AA@ 20055424     g_main.obj
 0002:00005434       ??_C@_0P@INMNNPOJ@g_enableBreath?$AA@ 20055434     g_main.obj
 0002:00005444       ??_C@_0BC@FFMPHOOM@g_proxMineTimeout?$AA@ 20055444     g_main.obj
 0002:00005458       ??_C@_05KNKIGLLO@20000?$AA@ 20055458     g_main.obj
 0002:00005460       ??_C@_0BA@EKPBHCCJ@g_smoothClients?$AA@ 20055460     g_main.obj
 0002:00005470       ??_C@_0M@HOGKGHBI@pmove_fixed?$AA@ 20055470     g_main.obj
 0002:0000547c       ??_C@_0L@NIHHPBKG@g_rankings?$AA@ 2005547c     g_main.obj
 0002:00005488       ??_C@_0BL@EIPAHDOP@?$CFi?5teams?5with?5?$CFi?5entities?6?$AA@ 20055488     g_main.obj
 0002:000054a4       ??_C@_0BB@EALBBJPC@team_icon?1?$CFs_red?$AA@ 200554a4     g_main.obj
 0002:000054b8       ??_C@_0BI@LPMPCCFD@textures?1ctf2?1redteam01?$AA@ 200554b8     g_main.obj
 0002:000054d0       ??_C@_0BI@JEOCHBJA@textures?1ctf2?1redteam02?$AA@ 200554d0     g_main.obj
 0002:000054e8       ??_C@_0BC@ELHFKMIE@team_icon?1?$CFs_blue?$AA@ 200554e8     g_main.obj
 0002:000054fc       ??_C@_0BJ@MKKEMFHN@textures?1ctf2?1blueteam01?$AA@ 200554fc     g_main.obj
 0002:00005518       ??_C@_0BJ@OBIJJGLO@textures?1ctf2?1blueteam02?$AA@ 20055518     g_main.obj
 0002:00005534       ??_C@_0DA@HFHMPEPI@g_gametype?5?$CFi?5is?5out?5of?5range?0?5d@ 20055534     g_main.obj
 0002:00005564       ??_C@_0CC@FFJICNKE@print?5?$CCServer?3?5?$CFs?5changed?5to?5?$CFs?6@ 20055564     g_main.obj
 0002:00005588       ??_C@_0CF@FDKFKNJ@?9?9?9?9?9?9?9?5Game?5Initialization?5?9?9?9?9@ 20055588     g_main.obj
 0002:000055b0       ??_C@_0O@MKINOKNK@gamename?3?5?$CFs?6?$AA@ 200555b0     g_main.obj
 0002:000055c0       ??_C@_0O@LOFLFABD@gamedate?3?5?$CFs?6?$AA@ 200555c0     g_main.obj
 0002:000055d0       ??_C@_0BF@CCJLMEBG@sound?1player?1fry?4wav?$AA@ 200555d0     g_main.obj
 0002:000055e8       ??_C@_0CE@PLBPIHPI@WARNING?3?5Couldn?8t?5open?5logfile?3?5@ 200555e8     g_main.obj
 0002:0000560c       ??_C@_0DO@BDNDJIG@?9?9?9?9?9?9?9?9?9?9?9?9?9?9?9?9?9?9?9?9?9?9?9?9?9?9?9?9?9?9?9?9@ 2005560c     g_main.obj
 0002:0000564c       ??_C@_0O@DEDEBKNJ@InitGame?3?5?$CFs?6?$AA@ 2005564c     g_main.obj
 0002:0000565c       ??_C@_0BG@MOMCCAKP@Not?5logging?5to?5disk?4?6?$AA@ 2005565c     g_main.obj
 0002:00005674       ??_C@_0CF@MLCIJBNO@?9?9?9?9?9?9?9?9?9?9?9?9?9?9?9?9?9?9?9?9?9?9?9?9?9?9?9?9?9?9?9?9@ 20055674     g_main.obj
 0002:0000569c       ??_C@_0BA@MOHNLIKA@com_buildScript?$AA@ 2005569c     g_main.obj
 0002:000056ac       ??_C@_0BI@EOKPGBAF@?$DN?$DN?$DN?$DN?5ShutdownGame?5?$DN?$DN?$DN?$DN?6?$AA@ 200556ac     g_main.obj
 0002:000056c4       ??_C@_0P@OFNEJLIL@ShutdownGame?3?6?$AA@ 200556c4     g_main.obj
 0002:000056d4       ??_C@_01INIBCBCB@f?$AA@    200556d4     g_main.obj
 0002:000056d8       ??_C@_0BJ@LMMLDPE@info_player_intermission?$AA@ 200556d8     g_main.obj
 0002:000056f4       ??_C@_0P@BKKOFHJN@map_restart?50?6?$AA@ 200556f4     g_main.obj
 0002:00005704       ??_C@_0O@PKDALKNK@vstr?5nextmap?6?$AA@ 20055704     g_main.obj
 0002:00005714       ??_C@_09OHCHOIDO@?$CF3i?3?$CFi?$CFi?5?$AA@ 20055714     g_main.obj
 0002:00005720       ??_C@_09KHIKBPEI@Exit?3?5?$CFs?6?$AA@ 20055720     g_main.obj
 0002:0000572c       ??_C@_0BB@HEGEAGAN@red?3?$CFi?5?5blue?3?$CFi?6?$AA@ 2005572c     g_main.obj
 0002:00005740       ??_C@_0CE@CGGOAMCD@score?3?5?$CFi?5?5ping?3?5?$CFi?5?5client?3?5?$CFi?5@ 20055740     g_main.obj
 0002:00005764       ??_C@_06MAIKECAE@spWin?6?$AA@ 20055764     g_main.obj
 0002:0000576c       ??_C@_07PKOLKCHG@spLose?6?$AA@ 2005576c     g_main.obj
 0002:00005774       ??_C@_0BI@GKJLDCNN@print?5?$CCTimelimit?5hit?4?6?$CC?$AA@ 20055774     g_main.obj
 0002:0000578c       ??_C@_0P@EKMAOGJF@Timelimit?5hit?4?$AA@ 2005578c     g_main.obj
 0002:0000579c       ??_C@_0CA@KPFPAKGG@print?5?$CCRed?5hit?5the?5fraglimit?4?6?$CC?$AA@ 2005579c     g_main.obj
 0002:000057bc       ??_C@_0P@PJCPOIKO@Fraglimit?5hit?4?$AA@ 200557bc     g_main.obj
 0002:000057cc       ??_C@_0CB@OIEPEJAM@print?5?$CCBlue?5hit?5the?5fraglimit?4?6?$CC@ 200557cc     g_main.obj
 0002:000057f0       ??_C@_0CB@FMCEIKLA@print?5?$CC?$CFs?$FO7?5hit?5the?5fraglimit?4?6?$CC@ 200557f0     g_main.obj
 0002:00005814       ??_C@_0CD@JENHKKNP@print?5?$CCRed?5hit?5the?5capturelimit?4@ 20055814     g_main.obj
 0002:00005838       ??_C@_0BC@NGNDEIFJ@Capturelimit?5hit?4?$AA@ 20055838     g_main.obj
 0002:0000584c       ??_C@_0CE@BHHEOIMM@print?5?$CCBlue?5hit?5the?5capturelimit@ 2005584c     g_main.obj
 0002:00005870       ??_C@_08FFAHPNKC@Warmup?3?6?$AA@ 20055870     g_main.obj
 0002:0000587c       ??_C@_0BG@NEFGNBIH@print?5?$CCVote?5failed?4?6?$CC?$AA@ 2005587c     g_main.obj
 0002:00005894       ??_C@_0BG@ICALOBOM@print?5?$CCVote?5passed?4?6?$CC?$AA@ 20055894     g_main.obj
 0002:000058ac       ??_C@_0BN@PMDPLBOA@print?5?$CC?$CFs?5is?5not?5connected?6?$CC?$AA@ 200558ac     g_main.obj
 0002:000058cc       ??_C@_0CH@IFAGPGDJ@print?5?$CC?$CFs?5is?5not?5on?5the?5team?5any@ 200558cc     g_main.obj
 0002:000058f4       ??_C@_0CD@EKLBBMMK@print?5?$CC?$CFs?5is?5the?5new?5team?5leader@ 200558f4     g_main.obj
 0002:00005918       ??_C@_0BL@FMHAJNKB@print?5?$CCTeam?5vote?5failed?4?6?$CC?$AA@ 20055918     g_main.obj
 0002:00005934       ??_C@_0BL@KCNKNMK@print?5?$CCTeam?5vote?5passed?4?6?$CC?$AA@ 20055934     g_main.obj
 0002:00005950       ??_C@_0BA@JGLONBEK@NULL?5ent?9?$DOthink?$AA@ 20055950     g_main.obj
 0002:00005960       ??_C@_08JBKNBCEM@?$CF4i?3?5?$CFs?6?$AA@ 20055960     g_main.obj
 0002:00005970       __xmm@00000003000000020000000100000000 20055970     g_main.obj
 0002:00005980       __xmm@0000034c0000034c0000034c0000034c 20055980     g_main.obj
 0002:00005990       ??_C@_0BP@CMDJHEKJ@G_Alloc?5of?5?$CFi?5bytes?5?$CI?$CFi?5left?$CJ?6?$AA@ 20055990     g_mem.obj
 0002:000059b0       ??_C@_0CL@HPAAECKJ@G_Alloc?3?5failed?5on?5allocation?5of@ 200559b0     g_mem.obj
 0002:000059dc       ??_C@_0DC@GFNDCLPP@Game?5memory?5status?3?5?$CFi?5out?5of?5?$CFi@ 200559dc     g_mem.obj
 0002:00005a10       ??_C@_0CO@BGNILIGB@Couldn?8t?5find?5target?5for?5misc_pa@ 20055a10     g_misc.obj
 0002:00005a40       ??_C@_04FBAPEKPH@roll?$AA@ 20055a40     g_misc.obj
 0002:00005a48       ??_C@_0CJ@JOLEIAMI@models?1powerups?1teleporter?1tele_@ 20055a48     g_misc.obj
 0002:00005a74       ??_C@_0BG@HPDIECDM@hi_portal?5destination?$AA@ 20055a74     g_misc.obj
 0002:00005a8c       ??_C@_0CK@OIGDIOOD@models?1powerups?1teleporter?1tele_@ 20055a8c     g_misc.obj
 0002:00005ab8       ??_C@_0BB@CDJBNFLC@hi_portal?5source?$AA@ 20055ab8     g_misc.obj
 0002:00005acc       ??_C@_0BB@DKBBLPA@proxmine_trigger?$AA@ 20055acc     g_missile.obj
 0002:00005ae0       ??_C@_04DGFIONEK@hook?$AA@ 20055ae0     g_missile.obj
 0002:00005ae8       ??_C@_06BAPMGMJB@plasma?$AA@ 20055ae8     g_missile.obj
 0002:00005af0       ??_C@_07JBPBHDIL@grenade?$AA@ 20055af0     g_missile.obj
 0002:00005af8       ??_C@_03CJHCFFJJ@bfg?$AA@  20055af8     g_missile.obj
 0002:00005afc       ??_C@_06NHDMJEKK@rocket?$AA@ 20055afc     g_missile.obj
 0002:00005b04       ??_C@_04BCALIFKM@nail?$AA@ 20055b04     g_missile.obj
 0002:00005b0c       ??_C@_09JIMGKCJC@prox?5mine?$AA@ 20055b0c     g_missile.obj
 0002:00005b18       __real@3fe4cccccccccccd    20055b18     g_missile.obj
 0002:00005b20       __real@4030000000000000    20055b20     g_missile.obj
 0002:00005b28       __real@407f400000000000    20055b28     g_missile.obj
 0002:00005b30       __real@440ac000            20055b30     g_missile.obj
 0002:00005b34       __real@44610000            20055b34     g_missile.obj
 0002:00005b38       __real@44fa0000            20055b38     g_missile.obj
 0002:00005b3c       __real@48000000            20055b3c     g_missile.obj
 0002:00005b40       ??_C@_0CC@FGLHJPEN@pushed_p?5?$DO?5?$CGpushed?$FLMAX_GENTITIES@ 20055b40     g_mover.obj
 0002:00005b64       ??_C@_0CE@HFNOCNBN@Reached_BinaryMover?3?5bad?5moverSt@ 20055b64     g_mover.obj
 0002:00005b88       ??_C@_05GPLCCBII@noise?$AA@ 20055b88     g_mover.obj
 0002:00005b90       ??_C@_05OEPGNJB@light?$AA@ 20055b90     g_mover.obj
 0002:00005b98       ??_C@_05PGFNHLMG@1?51?51?$AA@ 20055b98     g_mover.obj
 0002:00005ba0       ??_C@_05PEENBMOG@color?$AA@ 20055ba0     g_mover.obj
 0002:00005ba8       ??_C@_0N@FKJMDFJC@door_trigger?$AA@ 20055ba8     g_mover.obj
 0002:00005bb8       ??_C@_0CA@KGLPIIML@sound?1movers?1doors?1dr1_strt?4wav?$AA@ 20055bb8     g_mover.obj
 0002:00005bd8       ??_C@_0BP@MPMCKOBA@sound?1movers?1doors?1dr1_end?4wav?$AA@ 20055bd8     g_mover.obj
 0002:00005bf8       ??_C@_03EMOFKE@dmg?$AA@    20055bf8     g_mover.obj
 0002:00005bfc       ??_C@_0N@GNEHAGP@plat_trigger?$AA@ 20055bfc     g_mover.obj
 0002:00005c0c       ??_C@_0CA@DPCFJLJP@sound?1movers?1plats?1pt1_strt?4wav?$AA@ 20055c0c     g_mover.obj
 0002:00005c2c       ??_C@_0BP@FMIAEABD@sound?1movers?1plats?1pt1_end?4wav?$AA@ 20055c2c     g_mover.obj
 0002:00005c4c       ??_C@_05HJCMGBKF@speed?$AA@ 20055c4c     g_mover.obj
 0002:00005c54       ??_C@_06LNLHEAAG@height?$AA@ 20055c54     g_mover.obj
 0002:00005c5c       ??_C@_0CA@HPFJMDOC@sound?1movers?1switches?1butn2?4wav?$AA@ 20055c5c     g_mover.obj
 0002:00005c7c       ??_C@_0CJ@BMOHOFCP@func_train?5at?5?$CFs?5with?5an?5unfound@ 20055c7c     g_mover.obj
 0002:00005ca8       ??_C@_0CF@EGOCJBJB@Train?5corner?5at?5?$CFs?5without?5a?5tar@ 20055ca8     g_mover.obj
 0002:00005cd0       ??_C@_0DB@KEBMPPOD@Train?5corner?5at?5?$CFs?5without?5a?5tar@ 20055cd0     g_mover.obj
 0002:00005d04       ??_C@_0M@ONCHNMHP@path_corner?$AA@ 20055d04     g_mover.obj
 0002:00005d10       ??_C@_0CG@DHHNMBFP@path_corner?5with?5no?5targetname?5a@ 20055d10     g_mover.obj
 0002:00005d38       ??_C@_0CD@BNKPEMCB@func_train?5without?5a?5target?5at?5?$CF@ 20055d38     g_mover.obj
 0002:00005d5c       ??_C@_02MLODCJFF@32?$AA@   20055d5c     g_mover.obj
 0002:00005d60       ??_C@_05CBPKLGJM@phase?$AA@ 20055d60     g_mover.obj
 0002:00005d68       __real@3fc0000000000000    20055d68     g_mover.obj
 0002:00005d70       __real@3fc45f3060000000    20055d70     g_mover.obj
 0002:00005d78       __real@42040000            20055d78     g_mover.obj
 0002:00005d7c       ??_C@_0BF@GKKABID@?$CFi?5?$CFi?5?$CFi?5?$CFi?5?$CFi?5?$CFi?5?$CFi?$AA@ 20055d7c     g_session.obj
 0002:00005d94       ??_C@_09INHJFLOH@session?$CFi?$AA@ 20055d94     g_session.obj
 0002:00005da0       ??_C@_07KMJDECGK@session?$AA@ 20055da0     g_session.obj
 0002:00005da8       ??_C@_0CK@FAAHDCAM@Gametype?5changed?0?5clearing?5sessi@ 20055da8     g_session.obj
 0002:00005dd4       ??_C@_06LNKHAAKC@model2?$AA@ 20055dd4     g_spawn.obj
 0002:00005ddc       ??_C@_07ONPBMBOP@message?$AA@ 20055ddc     g_spawn.obj
 0002:00005de4       ??_C@_05IOMEMJEC@count?$AA@ 20055de4     g_spawn.obj
 0002:00005dec       ??_C@_06GNEAMJOC@angles?$AA@ 20055dec     g_spawn.obj
 0002:00005df4       ??_C@_0BB@FKLCNMKK@targetShaderName?$AA@ 20055df4     g_spawn.obj
 0002:00005e08       ??_C@_0BE@OHABMMFD@targetShaderNewName?$AA@ 20055e08     g_spawn.obj
 0002:00005e1c       ??_C@_0BC@IHPKIKNE@info_player_start?$AA@ 20055e1c     g_spawn.obj
 0002:00005e30       ??_C@_09MBOCECHK@info_null?$AA@ 20055e30     g_spawn.obj
 0002:00005e3c       ??_C@_0N@FHKCBFMD@info_notnull?$AA@ 20055e3c     g_spawn.obj
 0002:00005e4c       ??_C@_09BLMHBGJ@info_camp?$AA@ 20055e4c     g_spawn.obj
 0002:00005e58       ??_C@_09HCDLIOGG@func_plat?$AA@ 20055e58     g_spawn.obj
 0002:00005e64       ??_C@_0M@OOBMECJN@func_static?$AA@ 20055e64     g_spawn.obj
 0002:00005e70       ??_C@_0O@JDFCILJF@func_rotating?$AA@ 20055e70     g_spawn.obj
 0002:00005e80       ??_C@_0N@BAMIHEIF@func_bobbing?$AA@ 20055e80     g_spawn.obj
 0002:00005e90       ??_C@_0O@FPCFJAHB@func_pendulum?$AA@ 20055e90     g_spawn.obj
 0002:00005ea0       ??_C@_0L@PGCOCBM@func_train?$AA@ 20055ea0     g_spawn.obj
 0002:00005eac       ??_C@_0L@KLICIANB@func_group?$AA@ 20055eac     g_spawn.obj
 0002:00005eb8       ??_C@_0P@KDHOHKJL@trigger_always?$AA@ 20055eb8     g_spawn.obj
 0002:00005ec8       ??_C@_0N@CCJDLJOF@trigger_push?$AA@ 20055ec8     g_spawn.obj
 0002:00005ed8       ??_C@_0BB@COMMHECA@trigger_teleport?$AA@ 20055ed8     g_spawn.obj
 0002:00005eec       ??_C@_0N@JFLGFCMM@trigger_hurt?$AA@ 20055eec     g_spawn.obj
 0002:00005efc       ??_C@_0M@KALMALDK@target_give?$AA@ 20055efc     g_spawn.obj
 0002:00005f08       ??_C@_0BH@FJADHEOA@target_remove_powerups?$AA@ 20055f08     g_spawn.obj
 0002:00005f20       ??_C@_0P@MNJIBEAO@target_speaker?$AA@ 20055f20     g_spawn.obj
 0002:00005f30       ??_C@_0N@IADDOFND@target_print?$AA@ 20055f30     g_spawn.obj
 0002:00005f40       ??_C@_0N@LGMMDFPN@target_laser?$AA@ 20055f40     g_spawn.obj
 0002:00005f50       ??_C@_0N@DIKJAPJH@target_score?$AA@ 20055f50     g_spawn.obj
 0002:00005f60       ??_C@_0BC@GJLLMIEM@target_teleporter?$AA@ 20055f60     g_spawn.obj
 0002:00005f74       ??_C@_0M@KFDPHLNE@target_kill?$AA@ 20055f74     g_spawn.obj
 0002:00005f80       ??_C@_0BA@NENIEICJ@target_position?$AA@ 20055f80     g_spawn.obj
 0002:00005f90       ??_C@_0BA@BFKBOHOP@target_location?$AA@ 20055f90     g_spawn.obj
 0002:00005fa0       ??_C@_0M@NLNGBECJ@target_push?$AA@ 20055fa0     g_spawn.obj
 0002:00005fac       ??_C@_0BF@OMPOACGH@misc_teleporter_dest?$AA@ 20055fac     g_spawn.obj
 0002:00005fc4       ??_C@_0L@PMAFMKKM@misc_model?$AA@ 20055fc4     g_spawn.obj
 0002:00005fd0       ??_C@_0BE@FCJPPDGO@misc_portal_surface?$AA@ 20055fd0     g_spawn.obj
 0002:00005fe4       ??_C@_0BD@OJADMBDB@misc_portal_camera?$AA@ 20055fe4     g_spawn.obj
 0002:00005ff8       ??_C@_0P@GNAFHBJH@shooter_rocket?$AA@ 20055ff8     g_spawn.obj
 0002:00006008       ??_C@_0BA@MJCDAGHP@shooter_grenade?$AA@ 20056008     g_spawn.obj
 0002:00006018       ??_C@_0P@KKMFIJKM@shooter_plasma?$AA@ 20056018     g_spawn.obj
 0002:00006028       ??_C@_0BD@KLANHAKB@team_CTF_redplayer?$AA@ 20056028     g_spawn.obj
 0002:0000603c       ??_C@_0BE@COKGGHPD@team_CTF_blueplayer?$AA@ 2005603c     g_spawn.obj
 0002:00006050       ??_C@_0BC@KIKIBEND@team_CTF_redspawn?$AA@ 20056050     g_spawn.obj
 0002:00006064       ??_C@_0BD@GGIPJOIB@team_CTF_bluespawn?$AA@ 20056064     g_spawn.obj
 0002:00006078       ??_C@_0N@PAECNMEH@item_botroam?$AA@ 20056078     g_spawn.obj
 0002:00006088       ??_C@_03PAEKGFEI@ffa?$AA@  20056088     g_spawn.obj
 0002:0000608c       ??_C@_0L@NCEPCFLK@tournament?$AA@ 2005608c     g_spawn.obj
 0002:00006098       ??_C@_06EJFMBPJF@single?$AA@ 20056098     g_spawn.obj
 0002:000060a0       ??_C@_03JHHHHEKD@ctf?$AA@  200560a0     g_spawn.obj
 0002:000060a4       ??_C@_07BEINKNPB@oneflag?$AA@ 200560a4     g_spawn.obj
 0002:000060ac       ??_C@_07BNFEBHAE@obelisk?$AA@ 200560ac     g_spawn.obj
 0002:000060b4       ??_C@_09KFJDBEJE@harvester?$AA@ 200560b4     g_spawn.obj
 0002:000060c0       ??_C@_0P@IPNNKHAH@teamtournament?$AA@ 200560c0     g_spawn.obj
 0002:000060d0       ??_C@_0BN@EMEGOFNC@G_CallSpawn?3?5NULL?5classname?6?$AA@ 200560d0     g_spawn.obj
 0002:000060f0       ??_C@_0CC@JNJOINHG@?$CFs?5doesn?8t?5have?5a?5spawn?5function@ 200560f0     g_spawn.obj
 0002:00006114       ??_C@_09FDFEENEB@notsingle?$AA@ 20056114     g_spawn.obj
 0002:00006120       ??_C@_07CLBNBEAH@notteam?$AA@ 20056120     g_spawn.obj
 0002:00006128       ??_C@_07DDCDJNBH@notfree?$AA@ 20056128     g_spawn.obj
 0002:00006130       ??_C@_05KMOCHNEL@notta?$AA@ 20056130     g_spawn.obj
 0002:00006138       ??_C@_08NJPDEKHO@gametype?$AA@ 20056138     g_spawn.obj
 0002:00006144       ??_C@_0CE@JHGDANIP@G_AddSpawnVarToken?3?5MAX_SPAWN_CH@ 20056144     g_spawn.obj
 0002:00006168       ??_C@_0CM@CKLLJIGA@G_ParseSpawnVars?3?5found?5?$CFs?5when?5@ 20056168     g_spawn.obj
 0002:00006194       ??_C@_0CM@DONEEOIH@G_ParseSpawnVars?3?5EOF?5without?5cl@ 20056194     g_spawn.obj
 0002:000061c0       ??_C@_0CN@NMMGIHBC@G_ParseSpawnVars?3?5closing?5brace?5@ 200561c0     g_spawn.obj
 0002:000061f0       ??_C@_0CB@JFPBODJK@G_ParseSpawnVars?3?5MAX_SPAWN_VARS@ 200561f0     g_spawn.obj
 0002:00006214       ??_C@_0L@BIFLFHPF@worldspawn?$AA@ 20056214     g_spawn.obj
 0002:00006220       ??_C@_0DD@EBBCPGHA@SP_worldspawn?3?5The?5first?5entity?5@ 20056220     g_spawn.obj
 0002:00006254       ??_C@_08CCHPPKDI@baseq3?91?$AA@ 20056254     g_spawn.obj
 0002:00006260       ??_C@_05LLDJOKNO@music?$AA@ 20056260     g_spawn.obj
 0002:00006268       ??_C@_07GFBFDLBM@gravity?$AA@ 20056268     g_spawn.obj
 0002:00006270       ??_C@_0L@FLFKAOCP@enableDust?$AA@ 20056270     g_spawn.obj
 0002:0000627c       ??_C@_0N@PNMKKPBO@enableBreath?$AA@ 2005627c     g_spawn.obj
 0002:0000628c       ??_C@_0BL@HLOLFMOK@SpawnEntities?3?5no?5entities?$AA@ 2005628c     g_spawn.obj
 0002:000062a8       ??_C@_0BI@DIECJMKD@Bad?5filter?5address?3?5?$CFs?6?$AA@ 200562a8     g_svcmds.obj
 0002:000062c0       ??_C@_01NBENCBCI@?$CK?$AA@ 200562c0     g_svcmds.obj
 0002:000062c4       ??_C@_01LFCBOECM@?4?$AA@   200562c4     g_svcmds.obj
 0002:000062c8       ??_C@_0CO@DILFDDOI@g_banIPs?5overflowed?5at?5MAX_CVAR_@ 200562c8     g_svcmds.obj
 0002:000062f8       ??_C@_0BI@LMFPAHLD@IP?5filter?5list?5is?5full?6?$AA@ 200562f8     g_svcmds.obj
 0002:00006310       ??_C@_0BJ@LEBLJMPE@Usage?3?5?5addip?5?$DMip?9mask?$DO?6?$AA@ 20056310     g_svcmds.obj
 0002:0000632c       ??_C@_0BP@OJMGJOKB@Usage?3?5?5sv?5removeip?5?$DMip?9mask?$DO?6?$AA@ 2005632c     g_svcmds.obj
 0002:0000634c       ??_C@_09HBKBHJKE@Removed?4?6?$AA@ 2005634c     g_svcmds.obj
 0002:00006358       ??_C@_0BB@DFCHPNBP@Didn?8t?5find?5?$CFs?4?6?$AA@ 20056358     g_svcmds.obj
 0002:0000636c       ??_C@_04LAMNNBAP@?$CF3i?3?$AA@ 2005636c     g_svcmds.obj
 0002:00006374       ??_C@_0BF@GBIOGILC@ET_GENERAL?5?5?5?5?5?5?5?5?5?5?$AA@ 20056374     g_svcmds.obj
 0002:0000638c       ??_C@_0BF@GHCCJGLD@ET_PLAYER?5?5?5?5?5?5?5?5?5?5?5?$AA@ 2005638c     g_svcmds.obj
 0002:000063a4       ??_C@_0BF@IIDKJKIF@ET_ITEM?5?5?5?5?5?5?5?5?5?5?5?5?5?$AA@ 200563a4     g_svcmds.obj
 0002:000063bc       ??_C@_0BF@JMOJKPHI@ET_MISSILE?5?5?5?5?5?5?5?5?5?5?$AA@ 200563bc     g_svcmds.obj
 0002:000063d4       ??_C@_0BF@CKCOPBOH@ET_MOVER?5?5?5?5?5?5?5?5?5?5?5?5?$AA@ 200563d4     g_svcmds.obj
 0002:000063ec       ??_C@_0BF@DBCLPHFC@ET_BEAM?5?5?5?5?5?5?5?5?5?5?5?5?5?$AA@ 200563ec     g_svcmds.obj
 0002:00006404       ??_C@_0BF@FABEBACG@ET_PORTAL?5?5?5?5?5?5?5?5?5?5?5?$AA@ 20056404     g_svcmds.obj
 0002:0000641c       ??_C@_0BF@JKKJEPNL@ET_SPEAKER?5?5?5?5?5?5?5?5?5?5?$AA@ 2005641c     g_svcmds.obj
 0002:00006434       ??_C@_0BF@JCJGMGAM@ET_PUSH_TRIGGER?5?5?5?5?5?$AA@ 20056434     g_svcmds.obj
 0002:0000644c       ??_C@_0BF@KNGJOHIC@ET_TELEPORT_TRIGGER?5?$AA@ 2005644c     g_svcmds.obj
 0002:00006464       ??_C@_0BF@FONFEMNK@ET_INVISIBLE?5?5?5?5?5?5?5?5?$AA@ 20056464     g_svcmds.obj
 0002:0000647c       ??_C@_0BF@JEKJFFDI@ET_GRAPPLE?5?5?5?5?5?5?5?5?5?5?$AA@ 2005647c     g_svcmds.obj
 0002:00006494       ??_C@_0BF@HIBFLMFA@?$CF3i?5?5?5?5?5?5?5?5?5?5?5?5?5?5?5?5?5?$AA@ 20056494     g_svcmds.obj
 0002:000064ac       ??_C@_01EEMJAFIK@?6?$AA@   200564ac     g_svcmds.obj
 0002:000064b0       ??_C@_0BF@BEBENGBA@Bad?5client?5slot?3?5?$CFi?6?$AA@ 200564b0     g_svcmds.obj
 0002:000064c8       ??_C@_0BM@KMBENOOM@Client?5?$CFi?5is?5not?5connected?6?$AA@ 200564c8     g_svcmds.obj
 0002:000064e4       ??_C@_0BO@DPIFHGAP@User?5?$CFs?5is?5not?5on?5the?5server?6?$AA@ 200564e4     g_svcmds.obj
 0002:00006504       ??_C@_0L@CLDMIJOM@entitylist?$AA@ 20056504     g_svcmds.obj
 0002:00006510       ??_C@_09NGKIAGHE@forceteam?$AA@ 20056510     g_svcmds.obj
 0002:0000651c       ??_C@_0M@OOGGMGEK@game_memory?$AA@ 2005651c     g_svcmds.obj
 0002:00006528       ??_C@_06CJHCPEHG@addbot?$AA@ 20056528     g_svcmds.obj
 0002:00006530       ??_C@_07OCFGLMLF@botlist?$AA@ 20056530     g_svcmds.obj
 0002:00006538       ??_C@_0N@EKGBLHCI@abort_podium?$AA@ 20056538     g_svcmds.obj
 0002:00006548       ??_C@_05DNFKLKCD@addip?$AA@ 20056548     g_svcmds.obj
 0002:00006550       ??_C@_08FODIKFHA@removeip?$AA@ 20056550     g_svcmds.obj
 0002:0000655c       ??_C@_06DDGIHMAP@listip?$AA@ 2005655c     g_svcmds.obj
 0002:00006564       ??_C@_09DNOCIDID@g_banIPs?6?$AA@ 20056564     g_svcmds.obj
 0002:00006570       ??_C@_0BD@OKBENEII@print?5?$CCserver?3?5?$CFs?$CC?$AA@ 20056570     g_svcmds.obj
 0002:00006584       ??_C@_05EKJCMADO@delay?$AA@ 20056584     g_target.obj
 0002:0000658c       ??_C@_07PCJFOBJC@cp?5?$CC?$CFs?$CC?$AA@ 2005658c     g_target.obj
 0002:00006594       ??_C@_07FGPCJFED@NOSOUND?$AA@ 20056594     g_target.obj
 0002:0000659c       ??_C@_0CJ@MCNLAIAG@target_speaker?5without?5a?5noise?5k@ 2005659c     g_target.obj
 0002:000065c8       ??_C@_04IBLEHOMF@?4wav?$AA@ 200565c8     g_target.obj
 0002:000065d0       ??_C@_06MKMJDPPC@?$CFs?4wav?$AA@ 200565d0     g_target.obj
 0002:000065d8       ??_C@_0BO@JBAPADMO@?$CFs?5at?5?$CFs?3?5?$CFs?5is?5a?5bad?5target?6?$AA@ 200565d8     g_target.obj
 0002:000065f8       ??_C@_0CG@NCOEMBAJ@Couldn?8t?5find?5teleporter?5destina@ 200565f8     g_target.obj
 0002:00006620       ??_C@_0BF@CCKDOAMJ@untargeted?5?$CFs?5at?5?$CFs?6?$AA@ 20056620     g_target.obj
 0002:00006638       ??_C@_07CIFAGBMG@unknown?$AA@ 20056638     g_target.obj
 0002:00006640       __real@45000000            20056640     g_target.obj
 0002:00006644       ??_C@_03FNPLCCOA@RED?$AA@  20056644     g_team.obj
 0002:00006648       ??_C@_04CNFFLDFF@BLUE?$AA@ 20056648     g_team.obj
 0002:00006650       ??_C@_09GNDCBOBP@SPECTATOR?$AA@ 20056650     g_team.obj
 0002:0000665c       ??_C@_04HEDFJGEJ@FREE?$AA@ 2005665c     g_team.obj
 0002:00006664       ??_C@_0BB@GAGKBLAF@PrintMsg?5overrun?$AA@ 20056664     g_team.obj
 0002:00006678       ??_C@_0CB@KOPONFBB@?$CFs?$FO7?5fragged?5?$CFs?8s?5flag?5carrier?$CB?6@ 20056678     g_team.obj
 0002:0000669c       ??_C@_0CC@MJFJLHGN@?$CFs?$FO7?5fragged?5?$CFs?8s?5skull?5carrier?$CB@ 2005669c     g_team.obj
 0002:000066c0       ??_C@_0CP@OBNDLAL@Warning?3?5?5NULL?5passed?5to?5Team_Re@ 200566c0     g_team.obj
 0002:000066f0       ??_C@_0CN@EPFNCNCH@Warning?3?5?5NULL?5passed?5to?5Team_Ta@ 200566f0     g_team.obj
 0002:00006720       ??_C@_0DA@ICMFPMGB@Warning?3?5?5NULL?5passed?5to?5Team_Ca@ 20056720     g_team.obj
 0002:00006750       ??_C@_0BI@KNNACEDO@The?5flag?5has?5returned?$CB?6?$AA@ 20056750     g_team.obj
 0002:00006768       ??_C@_0BL@EJNDMGGL@The?5?$CFs?5flag?5has?5returned?$CB?6?$AA@ 20056768     g_team.obj
 0002:00006784       ??_C@_0BM@BDFECDMG@?$CFs?$FO7?5returned?5the?5?$CFs?5flag?$CB?6?$AA@ 20056784     g_team.obj
 0002:000067a0       ??_C@_0BJ@DPMIKPBE@?$CFs?$FO7?5captured?5the?5flag?$CB?6?$AA@ 200567a0     g_team.obj
 0002:000067bc       ??_C@_0BM@NKAOENPK@?$CFs?$FO7?5captured?5the?5?$CFs?5flag?$CB?6?$AA@ 200567bc     g_team.obj
 0002:000067d8       ??_C@_0BE@MNEIMNNJ@?$CFs?$FO7?5got?5the?5flag?$CB?6?$AA@ 200567d8     g_team.obj
 0002:000067ec       ??_C@_0BH@PJAKMCBO@?$CFs?$FO7?5got?5the?5?$CFs?5flag?$CB?6?$AA@ 200567ec     g_team.obj
 0002:00006804       ??_C@_0CG@PMIHGLOD@Don?8t?5know?5what?5team?5the?5flag?5is@ 20056804     g_team.obj
 0002:0000682c       ??_C@_08BKJPOMKC@?$CFc?$CFc?$CFs?$FO7?$AA@ 2005682c     g_team.obj
 0002:00006838       ??_C@_0BD@FAPFLCHD@?5?$CFi?5?$CFi?5?$CFi?5?$CFi?5?$CFi?5?$CFi?$AA@ 20056838     g_team.obj
 0002:0000684c       ??_C@_0M@PHDLOMHJ@tinfo?5?$CFi?5?$CFs?$AA@ 2005684c     g_team.obj
 0002:00006858       ??_C@_0BN@LNDOHKNL@?$CFs?$FO7?5brought?5in?5?$CFi?5skull?$CFs?4?6?$AA@ 20056858     g_team.obj
 0002:00006878       ??_C@_0CD@JMMPHIMF@SpawnObelisk?3?5?$CFs?5startsolid?5at?5?$CF@ 20056878     g_team.obj
 0002:0000689c       __real@45fa0000            2005689c     g_team.obj
 0002:000068a0       __real@4d400000            200568a0     g_team.obj
 0002:000068a4       ??_C@_03LOHCHBBO@0?45?$AA@ 200568a4     g_trigger.obj
 0002:000068a8       ??_C@_0CF@LENMBBGI@trigger_multiple?5has?5random?5?$DO?$DN?5w@ 200568a8     g_trigger.obj
 0002:000068d0       ??_C@_0BI@DGLBHPLI@sound?1world?1jumppad?4wav?$AA@ 200568d0     g_trigger.obj
 0002:000068e8       ??_C@_0BH@FEKNGHLG@sound?1misc?1windfly?4wav?$AA@ 200568e8     g_trigger.obj
 0002:00006900       ??_C@_0BI@KPLPFMKN@sound?1world?1electro?4wav?$AA@ 20056900     g_trigger.obj
 0002:00006918       ??_C@_0CF@GJKCPHON@func_timer?5at?5?$CFs?5has?5random?5?$DO?$DN?5w@ 20056918     g_trigger.obj
 0002:00006940       ??_C@_0N@MLGFLFEI@?$CFs?$DN?$CFs?3?$CF5?42f?$EA?$AA@ 20056940     g_utils.obj
 0002:00006950       ??_C@_0CC@KBENIHEG@G_FindConfigstringIndex?3?5overflo@ 20056950     g_utils.obj
 0002:00006974       ??_C@_0CK@JOENGKNM@G_PickTarget?5called?5with?5NULL?5ta@ 20056974     g_utils.obj
 0002:000069a0       ??_C@_0CD@HHFHMIIH@G_PickTarget?3?5target?5?$CFs?5not?5foun@ 200569a0     g_utils.obj
 0002:000069c4       ??_C@_0BO@JIDGNOMJ@WARNING?3?5Entity?5used?5itself?4?6?$AA@ 200569c4     g_utils.obj
 0002:000069e4       ??_C@_0CI@HMPHOHE@entity?5was?5removed?5while?5using?5t@ 200569e4     g_utils.obj
 0002:00006a0c       ??_C@_0L@OPPGOKFJ@?$CI?$CFi?5?$CFi?5?$CFi?$CJ?$AA@ 20056a0c     g_utils.obj
 0002:00006a18       ??_C@_07CBNPCFPB@noclass?$AA@ 20056a18     g_utils.obj
 0002:00006a20       ??_C@_0BK@OECJBIJE@G_Spawn?3?5no?5free?5entities?$AA@ 20056a20     g_utils.obj
 0002:00006a3c       ??_C@_05FAPHKBON@freed?$AA@ 20056a3c     g_utils.obj
 0002:00006a44       ??_C@_0L@CPIFJPHE@tempEntity?$AA@ 20056a44     g_utils.obj
 0002:00006a50       ??_C@_0CM@MOJHPIKM@G_AddEvent?3?5zero?5event?5added?5for@ 20056a50     g_utils.obj
 0002:00006a80       __real@400921fb60000000    20056a80     g_utils.obj
 0002:00006a88       __real@4066800000000000    20056a88     g_utils.obj
 0002:00006a90       ??_C@_08DCIPIDOE@kamikaze?$AA@ 20056a90     g_weapon.obj
 0002:00006aa0       __real@405e000000000000    20056aa0     g_weapon.obj
 0002:00006aa8       __real@41600000            20056aa8     g_weapon.obj
 0002:00006aac       __real@44400000            20056aac     g_weapon.obj
 0002:00006ab0       __real@46000000            20056ab0     g_weapon.obj
 0002:00006ab4       __real@37800000            20056ab4     q_math.obj
 0002:00006ab8       __real@3c8efa35            20056ab8     q_math.obj
 0002:00006ac0       __real@4066c16c16c16c17    20056ac0     q_math.obj
 0002:00006ac8       __real@43870000            20056ac8     q_math.obj
 0002:00006acc       ??_C@_0BG@EKAPNPCH@Q_strncpyz?3?5NULL?5dest?$AA@ 20056acc     q_shared.obj
 0002:00006ae4       ??_C@_0BF@BJHHBLMD@Q_strncpyz?3?5NULL?5src?$AA@ 20056ae4     q_shared.obj
 0002:00006afc       ??_C@_0BJ@OLBOPICM@Q_strncpyz?3?5destsize?5?$DM?51?$AA@ 20056afc     q_shared.obj
 0002:00006b18       ??_C@_0BN@EFOOAHFL@Q_strcat?3?5already?5overflowed?$AA@ 20056b18     q_shared.obj
 0002:00006b38       ??_C@_0CC@GMEFDOKA@Com_sprintf?3?5overflowed?5bigbuffe@ 20056b38     q_shared.obj
 0002:00006b5c       ??_C@_0CD@GIPJKOOD@Com_sprintf?3?5overflow?5of?5?$CFi?5in?5?$CF@ 20056b5c     q_shared.obj
 0002:00006b80       ??_C@_0CG@FLHABLN@Info_ValueForKey?3?5oversize?5infos@ 20056b80     q_shared.obj
 0002:00006ba8       ??_C@_0CE@HMPLGKDK@Info_RemoveKey?3?5oversize?5infostr@ 20056ba8     q_shared.obj
 0002:00006bcc       ??_C@_0CJ@CEEBDGNA@Info_SetValueForKey?3?5oversize?5in@ 20056bcc     q_shared.obj
 0002:00006bf8       ??_C@_0CD@JIDDAEOO@Can?8t?5use?5keys?5or?5values?5with?5a?5@ 20056bf8     q_shared.obj
 0002:00006c1c       ??_C@_0CL@JCFAGLFD@Can?8t?5use?5keys?5or?5values?5with?5a?5@ 20056c1c     q_shared.obj
 0002:00006c48       ??_C@_0CD@MGFMEBLE@Can?8t?5use?5keys?5or?5values?5with?5a?5@ 20056c48     q_shared.obj
 0002:00006c6c       ??_C@_06NELKLDPM@?2?$CFs?2?$CFs?$AA@ 20056c6c     q_shared.obj
 0002:00006c74       ??_C@_0BN@CAOBGKLE@Info?5string?5length?5exceeded?6?$AA@ 20056c74     q_shared.obj
 0002:00006c94       __FPinit                   20056c94     LIBCMT:fpinit.obj
 0002:00007e48       __pDefaultRawDllMain       20057e48     LIBCMT:dllcrt0.obj
 0002:00007e48       __pRawDllMain              20057e48     LIBCMT:dllcrt0.obj
 0002:00007e4c       ??_C@_05KLBDPFGC@e?$CL000?$AA@ 20057e4c     LIBCMT:cvt.obj
 0002:00007e64       ??_C@_1M@HPNHIDJI@?$AAj?$AAa?$AA?9?$AAJ?$AAP?$AA?$AA@ 20057e64     LIBCMT:mbctype.obj
 0002:00007e70       ??_C@_1M@BIBDDEMK@?$AAz?$AAh?$AA?9?$AAC?$AAN?$AA?$AA@ 20057e70     LIBCMT:mbctype.obj
 0002:00007e7c       ??_C@_1M@JLOOOEGK@?$AAk?$AAo?$AA?9?$AAK?$AAR?$AA?$AA@ 20057e7c     LIBCMT:mbctype.obj
 0002:00007e88       ??_C@_1M@CLNBBOPM@?$AAz?$AAh?$AA?9?$AAT?$AAW?$AA?$AA@ 20057e88     LIBCMT:mbctype.obj
 0002:00007e94       ??_C@_03KOEHGMDN@Sun?$AA@  20057e94     LIBCMT:nlsdata.obj
 0002:00007e98       ??_C@_03PDAGKDH@Mon?$AA@   20057e98     LIBCMT:nlsdata.obj
 0002:00007e9c       ??_C@_03NAGEINEP@Tue?$AA@  20057e9c     LIBCMT:nlsdata.obj
 0002:00007ea0       ??_C@_03MHOMLAJA@Wed?$AA@  20057ea0     LIBCMT:nlsdata.obj
 0002:00007ea4       ??_C@_03IOFIKPDN@Thu?$AA@  20057ea4     LIBCMT:nlsdata.obj
 0002:00007ea8       ??_C@_03IDIOELNC@Fri?$AA@  20057ea8     LIBCMT:nlsdata.obj
 0002:00007eac       ??_C@_03FEFJNEK@Sat?$AA@   20057eac     LIBCMT:nlsdata.obj
 0002:00007eb0       ??_C@_06OOPIFAJ@Sunday?$AA@ 20057eb0     LIBCMT:nlsdata.obj
 0002:00007eb8       ??_C@_06JLEDEDGH@Monday?$AA@ 20057eb8     LIBCMT:nlsdata.obj
 0002:00007ec0       ??_C@_07BAAGCFCM@Tuesday?$AA@ 20057ec0     LIBCMT:nlsdata.obj
 0002:00007ec8       ??_C@_09DLIGFAKA@Wednesday?$AA@ 20057ec8     LIBCMT:nlsdata.obj
 0002:00007ed4       ??_C@_08HACCIKIA@Thursday?$AA@ 20057ed4     LIBCMT:nlsdata.obj
 0002:00007ee0       ??_C@_06JECMNKMI@Friday?$AA@ 20057ee0     LIBCMT:nlsdata.obj
 0002:00007ee8       ??_C@_08INBOOONO@Saturday?$AA@ 20057ee8     LIBCMT:nlsdata.obj
 0002:00007ef4       ??_C@_03JIHJHPIE@Jan?$AA@  20057ef4     LIBCMT:nlsdata.obj
 0002:00007ef8       ??_C@_03HJBDCHOM@Feb?$AA@  20057ef8     LIBCMT:nlsdata.obj
 0002:00007efc       ??_C@_03ODNJBKGA@Mar?$AA@  20057efc     LIBCMT:nlsdata.obj
 0002:00007f00       ??_C@_03LEOLGMJP@Apr?$AA@  20057f00     LIBCMT:nlsdata.obj
 0002:00007f04       ??_C@_03CNMDKL@May?$AA@    20057f04     LIBCMT:nlsdata.obj
 0002:00007f08       ??_C@_03IDFGHECI@Jun?$AA@  20057f08     LIBCMT:nlsdata.obj
 0002:00007f0c       ??_C@_03LBGABGKK@Jul?$AA@  20057f0c     LIBCMT:nlsdata.obj
 0002:00007f10       ??_C@_03IFJFEIGA@Aug?$AA@  20057f10     LIBCMT:nlsdata.obj
 0002:00007f14       ??_C@_03GGCAPAJC@Sep?$AA@  20057f14     LIBCMT:nlsdata.obj
 0002:00007f18       ??_C@_03BMAOKBAD@Oct?$AA@  20057f18     LIBCMT:nlsdata.obj
 0002:00007f1c       ??_C@_03JPJOFNIA@Nov?$AA@  20057f1c     LIBCMT:nlsdata.obj
 0002:00007f20       ??_C@_03MKABNOCG@Dec?$AA@  20057f20     LIBCMT:nlsdata.obj
 0002:00007f24       ??_C@_07CGJPFGJA@January?$AA@ 20057f24     LIBCMT:nlsdata.obj
 0002:00007f2c       ??_C@_08GNJGEPFN@February?$AA@ 20057f2c     LIBCMT:nlsdata.obj
 0002:00007f38       ??_C@_05HPCKOFNC@March?$AA@ 20057f38     LIBCMT:nlsdata.obj
 0002:00007f40       ??_C@_05DMJDNLEJ@April?$AA@ 20057f40     LIBCMT:nlsdata.obj
 0002:00007f48       ??_C@_04CNLMGBGM@June?$AA@ 20057f48     LIBCMT:nlsdata.obj
 0002:00007f50       ??_C@_04MIEPOIFP@July?$AA@ 20057f50     LIBCMT:nlsdata.obj
 0002:00007f58       ??_C@_06LBBHFDDG@August?$AA@ 20057f58     LIBCMT:nlsdata.obj
 0002:00007f60       ??_C@_09BHHEALKD@September?$AA@ 20057f60     LIBCMT:nlsdata.obj
 0002:00007f6c       ??_C@_07JJNFCEND@October?$AA@ 20057f6c     LIBCMT:nlsdata.obj
 0002:00007f74       ??_C@_08HCHEGEOA@November?$AA@ 20057f74     LIBCMT:nlsdata.obj
 0002:00007f80       ??_C@_08EDHMEBNP@December?$AA@ 20057f80     LIBCMT:nlsdata.obj
 0002:00007f8c       ??_C@_02DEDBPAFC@AM?$AA@   20057f8c     LIBCMT:nlsdata.obj
 0002:00007f90       ??_C@_02CJNFDJBF@PM?$AA@   20057f90     LIBCMT:nlsdata.obj
 0002:00007f94       ??_C@_08BPBNCDIB@MM?1dd?1yy?$AA@ 20057f94     LIBCMT:nlsdata.obj
 0002:00007fa0       ??_C@_0BE@CKGJFCPC@dddd?0?5MMMM?5dd?0?5yyyy?$AA@ 20057fa0     LIBCMT:nlsdata.obj
 0002:00007fb4       ??_C@_08JCCMCCIL@HH?3mm?3ss?$AA@ 20057fb4     LIBCMT:nlsdata.obj
 0002:00007fc0       ??_C@_17MBGCMIPB@?$AAS?$AAu?$AAn?$AA?$AA@ 20057fc0     LIBCMT:nlsdata.obj
 0002:00007fc8       ??_C@_17KBOMKBF@?$AAM?$AAo?$AAn?$AA?$AA@ 20057fc8     LIBCMT:nlsdata.obj
 0002:00007fd0       ??_C@_17BMKGEGOJ@?$AAT?$AAu?$AAe?$AA?$AA@ 20057fd0     LIBCMT:nlsdata.obj
 0002:00007fd8       ??_C@_17CJEDCEPE@?$AAW?$AAe?$AAd?$AA?$AA@ 20057fd8     LIBCMT:nlsdata.obj
 0002:00007fe0       ??_C@_17PDPHAADD@?$AAT?$AAh?$AAu?$AA?$AA@ 20057fe0     LIBCMT:nlsdata.obj
 0002:00007fe8       ??_C@_17HFOLPPLP@?$AAF?$AAr?$AAi?$AA?$AA@ 20057fe8     LIBCMT:nlsdata.obj
 0002:00007ff0       ??_C@_17GGIBDPIH@?$AAS?$AAa?$AAt?$AA?$AA@ 20057ff0     LIBCMT:nlsdata.obj
 0002:00007ff8       ??_C@_1O@IHNHDHPB@?$AAS?$AAu?$AAn?$AAd?$AAa?$AAy?$AA?$AA@ 20057ff8     LIBCMT:nlsdata.obj
 0002:00008008       ??_C@_1O@MMNBFLIA@?$AAM?$AAo?$AAn?$AAd?$AAa?$AAy?$AA?$AA@ 20058008     LIBCMT:nlsdata.obj
 0002:00008018       ??_C@_1BA@ENFBFFEK@?$AAT?$AAu?$AAe?$AAs?$AAd?$AAa?$AAy?$AA?$AA@ 20058018     LIBCMT:nlsdata.obj
 0002:00008028       ??_C@_1BE@EBOGMDOH@?$AAW?$AAe?$AAd?$AAn?$AAe?$AAs?$AAd?$AAa?$AAy?$AA?$AA@ 20058028     LIBCMT:nlsdata.obj
 0002:0000803c       ??_C@_1BC@HHMNLIHE@?$AAT?$AAh?$AAu?$AAr?$AAs?$AAd?$AAa?$AAy?$AA?$AA@ 2005803c     LIBCMT:nlsdata.obj
 0002:00008050       ??_C@_1O@PDICJHAG@?$AAF?$AAr?$AAi?$AAd?$AAa?$AAy?$AA?$AA@ 20058050     LIBCMT:nlsdata.obj
 0002:00008060       ??_C@_1BC@ENMNNPAJ@?$AAS?$AAa?$AAt?$AAu?$AAr?$AAd?$AAa?$AAy?$AA?$AA@ 20058060     LIBCMT:nlsdata.obj
 0002:00008074       ??_C@_17DKNBKCHM@?$AAJ?$AAa?$AAn?$AA?$AA@ 20058074     LIBCMT:nlsdata.obj
 0002:0000807c       ??_C@_17LMDJEKJN@?$AAF?$AAe?$AAb?$AA?$AA@ 2005807c     LIBCMT:nlsdata.obj
 0002:00008084       ??_C@_17CKNLEDEC@?$AAM?$AAa?$AAr?$AA?$AA@ 20058084     LIBCMT:nlsdata.obj
 0002:0000808c       ??_C@_17LFPOIHDD@?$AAA?$AAp?$AAr?$AA?$AA@ 2005808c     LIBCMT:nlsdata.obj
 0002:00008094       ??_C@_17PNNKMEED@?$AAM?$AAa?$AAy?$AA?$AA@ 20058094     LIBCMT:nlsdata.obj
 0002:0000809c       ??_C@_17KCJGOCPB@?$AAJ?$AAu?$AAn?$AA?$AA@ 2005809c     LIBCMT:nlsdata.obj
 0002:000080a4       ??_C@_17IJPCKHK@?$AAJ?$AAu?$AAl?$AA?$AA@ 200580a4     LIBCMT:nlsdata.obj
 0002:000080ac       ??_C@_17ICPELBCN@?$AAA?$AAu?$AAg?$AA?$AA@ 200580ac     LIBCMT:nlsdata.obj
 0002:000080b4       ??_C@_17HCHCOKMG@?$AAS?$AAe?$AAp?$AA?$AA@ 200580b4     LIBCMT:nlsdata.obj
 0002:000080bc       ??_C@_17FNLKOI@?$AAO?$AAc?$AAt?$AA?$AA@ 200580bc     LIBCMT:nlsdata.obj
 0002:000080c4       ??_C@_17BBDMLCIG@?$AAN?$AAo?$AAv?$AA?$AA@ 200580c4     LIBCMT:nlsdata.obj
 0002:000080cc       ??_C@_17EGKACKIF@?$AAD?$AAe?$AAc?$AA?$AA@ 200580cc     LIBCMT:nlsdata.obj
 0002:000080d4       ??_C@_1BA@EFMEIEBA@?$AAJ?$AAa?$AAn?$AAu?$AAa?$AAr?$AAy?$AA?$AA@ 200580d4     LIBCMT:nlsdata.obj
 0002:000080e4       ??_C@_1BC@JGDDFFAM@?$AAF?$AAe?$AAb?$AAr?$AAu?$AAa?$AAr?$AAy?$AA?$AA@ 200580e4     LIBCMT:nlsdata.obj
 0002:000080f8       ??_C@_1M@IKEENEDF@?$AAM?$AAa?$AAr?$AAc?$AAh?$AA?$AA@ 200580f8     LIBCMT:nlsdata.obj
 0002:00008104       ??_C@_1M@GJNLMHFD@?$AAA?$AAp?$AAr?$AAi?$AAl?$AA?$AA@ 20058104     LIBCMT:nlsdata.obj
 0002:00008110       ??_C@_19EPFLPGAP@?$AAJ?$AAu?$AAn?$AAe?$AA?$AA@ 20058110     LIBCMT:nlsdata.obj
 0002:0000811c       ??_C@_19BIFMLPCD@?$AAJ?$AAu?$AAl?$AAy?$AA?$AA@ 2005811c     LIBCMT:nlsdata.obj
 0002:00008128       ??_C@_1O@PAHLKOAC@?$AAA?$AAu?$AAg?$AAu?$AAs?$AAt?$AA?$AA@ 20058128     LIBCMT:nlsdata.obj
 0002:00008138       ??_C@_1BE@DKAAMBJL@?$AAS?$AAe?$AAp?$AAt?$AAe?$AAm?$AAb?$AAe?$AAr?$AA?$AA@ 20058138     LIBCMT:nlsdata.obj
 0002:0000814c       ??_C@_1BA@EPANDLNG@?$AAO?$AAc?$AAt?$AAo?$AAb?$AAe?$AAr?$AA?$AA@ 2005814c     LIBCMT:nlsdata.obj
 0002:0000815c       ??_C@_1BC@BGLIFPF@?$AAN?$AAo?$AAv?$AAe?$AAm?$AAb?$AAe?$AAr?$AA?$AA@ 2005815c     LIBCMT:nlsdata.obj
 0002:00008170       ??_C@_1BC@FEMKIFH@?$AAD?$AAe?$AAc?$AAe?$AAm?$AAb?$AAe?$AAr?$AA?$AA@ 20058170     LIBCMT:nlsdata.obj
 0002:00008184       ??_C@_15ODEHAHHF@?$AAA?$AAM?$AA?$AA@ 20058184     LIBCMT:nlsdata.obj
 0002:0000818c       ??_C@_15CLMNNGEL@?$AAP?$AAM?$AA?$AA@ 2005818c     LIBCMT:nlsdata.obj
 0002:00008194       ??_C@_1BC@IEBCMHCM@?$AAM?$AAM?$AA?1?$AAd?$AAd?$AA?1?$AAy?$AAy?$AA?$AA@ 20058194     LIBCMT:nlsdata.obj
 0002:000081a8       ??_C@_1CI@KNAKOEBC@?$AAd?$AAd?$AAd?$AAd?$AA?0?$AA?5?$AAM?$AAM?$AAM?$AAM?$AA?5?$AAd?$AAd?$AA?0?$AA?5?$AAy?$AAy?$AAy?$AAy?$AA?$AA@ 200581a8     LIBCMT:nlsdata.obj
 0002:000081d0       ??_C@_1BC@GDGBMEMK@?$AAH?$AAH?$AA?3?$AAm?$AAm?$AA?3?$AAs?$AAs?$AA?$AA@ 200581d0     LIBCMT:nlsdata.obj
 0002:000081e4       ??_C@_1M@BMHNFIME@?$AAe?$AAn?$AA?9?$AAU?$AAS?$AA?$AA@ 200581e4     LIBCMT:nlsdata.obj
 0002:00008258       ??_C@_05HGHHAHAP@log10?$AA@ 20058258     LIBCMT:libm_error.obj
 0002:00008260       ??_C@_03KHJOGHMM@exp?$AA@  20058260     LIBCMT:libm_error.obj
 0002:00008264       ??_C@_03JGHBODFD@pow?$AA@  20058264     LIBCMT:libm_error.obj
 0002:00008268       ??_C@_04FIHNOPOL@asin?$AA@ 20058268     LIBCMT:libm_error.obj
 0002:00008270       ??_C@_04PDIFKINK@acos?$AA@ 20058270     LIBCMT:libm_error.obj
 0002:00008278       ??_C@_05EOHGHCHD@exp10?$AA@ 20058278     LIBCMT:libm_error.obj
 0002:00008280       ??_C@_04MLLJIGOK@atan?$AA@ 20058280     LIBCMT:libm_error.obj
 0002:00008288       ??_C@_04GFPJNGEK@ceil?$AA@ 20058288     LIBCMT:libm_error.obj
 0002:00008290       ??_C@_05PBJFFIGL@floor?$AA@ 20058290     LIBCMT:libm_error.obj
 0002:00008298       ??_C@_04EHEDPDJG@modf?$AA@ 20058298     LIBCMT:libm_error.obj
 0002:000082a0       ??_C@_03BLEJJJBH@sin?$AA@  200582a0     LIBCMT:libm_error.obj
 0002:000082a4       ??_C@_03LALBNOCG@cos?$AA@  200582a4     LIBCMT:libm_error.obj
 0002:000082a8       ??_C@_03IIINPABG@tan?$AA@  200582a8     LIBCMT:libm_error.obj
 0002:000082ac       ??_C@_04EIAKFFMI@sqrt?$AA@ 200582ac     LIBCMT:libm_error.obj
 0002:00008338       ??_C@_06OJHGLDPL@?$CInull?$CJ?$AA@ 20058338     LIBCMT:output.obj
 0002:00008340       ??_C@_1O@CEDCILHN@?$AA?$CI?$AAn?$AAu?$AAl?$AAl?$AA?$CJ?$AA?$AA@ 20058340     LIBCMT:output.obj
 0002:00008350       ___lookuptable             20058350     LIBCMT:output.obj
 0002:000083ac       ??_C@_1BK@MGMFAEKH@?$AAk?$AAe?$AAr?$AAn?$AAe?$AAl?$AA3?$AA2?$AA?4?$AAd?$AAl?$AAl?$AA?$AA@ 200583ac     LIBCMT:winapisupp.obj
 0002:000083c8       ??_C@_08KNHFBNJ@FlsAlloc?$AA@ 200583c8     LIBCMT:winapisupp.obj
 0002:000083d4       ??_C@_07PEJMOBNF@FlsFree?$AA@ 200583d4     LIBCMT:winapisupp.obj
 0002:000083dc       ??_C@_0M@GDNOONDI@FlsGetValue?$AA@ 200583dc     LIBCMT:winapisupp.obj
 0002:000083e8       ??_C@_0M@JCPCPOEF@FlsSetValue?$AA@ 200583e8     LIBCMT:winapisupp.obj
 0002:000083f4       ??_C@_0BM@HCFOFFN@InitializeCriticalSectionEx?$AA@ 200583f4     LIBCMT:winapisupp.obj
 0002:00008410       ??_C@_0BD@KIEEOEEH@CreateSemaphoreExW?$AA@ 20058410     LIBCMT:winapisupp.obj
 0002:00008424       ??_C@_0BI@BKLFFAPO@SetThreadStackGuarantee?$AA@ 20058424     LIBCMT:winapisupp.obj
 0002:0000843c       ??_C@_0BG@OGFAJCKC@CreateThreadpoolTimer?$AA@ 2005843c     LIBCMT:winapisupp.obj
 0002:00008454       ??_C@_0BD@LPLEMMDI@SetThreadpoolTimer?$AA@ 20058454     LIBCMT:winapisupp.obj
 0002:00008468       ??_C@_0CA@FMNJENH@WaitForThreadpoolTimerCallbacks?$AA@ 20058468     LIBCMT:winapisupp.obj
 0002:00008488       ??_C@_0BF@DCFCCNOC@CloseThreadpoolTimer?$AA@ 20058488     LIBCMT:winapisupp.obj
 0002:000084a0       ??_C@_0BF@FLABGKKM@CreateThreadpoolWait?$AA@ 200584a0     LIBCMT:winapisupp.obj
 0002:000084b8       ??_C@_0BC@MGCOHNA@SetThreadpoolWait?$AA@ 200584b8     LIBCMT:winapisupp.obj
 0002:000084cc       ??_C@_0BE@OCIOMIMP@CloseThreadpoolWait?$AA@ 200584cc     LIBCMT:winapisupp.obj
 0002:000084e0       ??_C@_0BJ@LKGHFHBO@FlushProcessWriteBuffers?$AA@ 200584e0     LIBCMT:winapisupp.obj
 0002:000084fc       ??_C@_0BP@KALKKPMO@FreeLibraryWhenCallbackReturns?$AA@ 200584fc     LIBCMT:winapisupp.obj
 0002:0000851c       ??_C@_0BK@DFNBACLA@GetCurrentProcessorNumber?$AA@ 2005851c     LIBCMT:winapisupp.obj
 0002:00008538       ??_C@_0BP@KHGALBC@GetLogicalProcessorInformation?$AA@ 20058538     LIBCMT:winapisupp.obj
 0002:00008558       ??_C@_0BE@FKKLLFLM@CreateSymbolicLinkW?$AA@ 20058558     LIBCMT:winapisupp.obj
 0002:0000856c       ??_C@_0BJ@OHNKDLIJ@SetDefaultDllDirectories?$AA@ 2005856c     LIBCMT:winapisupp.obj
 0002:00008588       ??_C@_0BE@LJANKFHF@EnumSystemLocalesEx?$AA@ 20058588     LIBCMT:winapisupp.obj
 0002:0000859c       ??_C@_0BA@IHGNDAEB@CompareStringEx?$AA@ 2005859c     LIBCMT:winapisupp.obj
 0002:000085ac       ??_C@_0BA@EPCJIIPD@GetDateFormatEx?$AA@ 200585ac     LIBCMT:winapisupp.obj
 0002:000085bc       ??_C@_0BA@ONOKGCMP@GetLocaleInfoEx?$AA@ 200585bc     LIBCMT:winapisupp.obj
 0002:000085cc       ??_C@_0BA@CIJJKCJJ@GetTimeFormatEx?$AA@ 200585cc     LIBCMT:winapisupp.obj
 0002:000085dc       ??_C@_0BJ@PBCCBIPI@GetUserDefaultLocaleName?$AA@ 200585dc     LIBCMT:winapisupp.obj
 0002:000085f8       ??_C@_0BC@CELBKLLA@IsValidLocaleName?$AA@ 200585f8     LIBCMT:winapisupp.obj
 0002:0000860c       ??_C@_0O@KKBNKAPF@LCMapStringEx?$AA@ 2005860c     LIBCMT:winapisupp.obj
 0002:0000861c       ??_C@_0BE@JOGNEJCI@GetCurrentPackageId?$AA@ 2005861c     LIBCMT:winapisupp.obj
 0002:00008630       __OP_ATAN2jmptab           20058630     LIBCMT:87triga.obj
 0002:000086b0       __XcptActTab               200586b0     LIBCMT:winxfltr.obj
 0002:00008740       __XcptActTabCount          20058740     LIBCMT:winxfltr.obj
 0002:00008744       __XcptActTabSize           20058744     LIBCMT:winxfltr.obj
 0002:00008748       __First_FPE_Indx           20058748     LIBCMT:winxfltr.obj
 0002:0000874c       __Num_FPE                  2005874c     LIBCMT:winxfltr.obj
 0002:00008750       ??_C@_1BI@BGOHAHKC@?$AAm?$AAs?$AAc?$AAo?$AAr?$AAe?$AAe?$AA?4?$AAd?$AAl?$AAl?$AA?$AA@ 20058750     LIBCMT:crt0dat.obj
 0002:00008768       ??_C@_0P@MIGLKIOC@CorExitProcess?$AA@ 20058768     LIBCMT:crt0dat.obj
 0002:00008778       ___newctype                20058778     LIBCMT:ctype.obj
 0002:00008a78       __wctype                   20058a78     LIBCMT:ctype.obj
 0002:00008c80       ___newclmap                20058c80     LIBCMT:ctype.obj
 0002:00008e00       ___newcumap                20058e00     LIBCMT:ctype.obj
 0002:00008f80       __indefinite               20058f80     LIBCMT:87disp.obj
 0002:00008f8a       __piby2                    20058f8a     LIBCMT:87disp.obj
 0002:00008fb8       __DEFAULT_CW_in_mem        20058fb8     LIBCMT:common.obj
 0002:00008fba       __pi_by_2_to_61            20058fba     LIBCMT:common.obj
 0002:00008ff8       _LcidToLocaleNameTable     20058ff8     LIBCMT:winapinls.obj
 0002:00009718       _LocaleNameToIndexTable    20059718     LIBCMT:winapinls.obj
 0002:00009e38       ??_C@_15EMKDOKLE@?$AAa?$AAr?$AA?$AA@ 20059e38     LIBCMT:winapinls.obj
 0002:00009e40       ??_C@_15KNPADPLH@?$AAb?$AAg?$AA?$AA@ 20059e40     LIBCMT:winapinls.obj
 0002:00009e48       ??_C@_15EDMHLDMO@?$AAc?$AAa?$AA?$AA@ 20059e48     LIBCMT:winapinls.obj
 0002:00009e50       ??_C@_1O@BPEAJADD@?$AAz?$AAh?$AA?9?$AAC?$AAH?$AAS?$AA?$AA@ 20059e50     LIBCMT:winapinls.obj
 0002:00009e60       ??_C@_15LJNHCMNK@?$AAc?$AAs?$AA?$AA@ 20059e60     LIBCMT:winapinls.obj
 0002:00009e68       ??_C@_15FOMCIDHG@?$AAd?$AAa?$AA?$AA@ 20059e68     LIBCMT:winapinls.obj
 0002:00009e70       ??_C@_15NBKABECB@?$AAd?$AAe?$AA?$AA@ 20059e70     LIBCMT:winapinls.obj
 0002:00009e78       ??_C@_15GHPEIIAO@?$AAe?$AAl?$AA?$AA@ 20059e78     LIBCMT:winapinls.obj
 0002:00009e80       ??_C@_15MNPNEAIF@?$AAe?$AAn?$AA?$AA@ 20059e80     LIBCMT:winapinls.obj
 0002:00009e88       ??_C@_15GPIOMPMH@?$AAe?$AAs?$AA?$AA@ 20059e88     LIBCMT:winapinls.obj
 0002:00009e90       ??_C@_15NGLOAKJC@?$AAf?$AAi?$AA?$AA@ 20059e90     LIBCMT:winapinls.obj
 0002:00009e98       ??_C@_15FBKGNKAM@?$AAf?$AAr?$AA?$AA@ 20059e98     LIBCMT:winapinls.obj
 0002:00009ea0       ??_C@_15KGGCNEFK@?$AAh?$AAe?$AA?$AA@ 20059ea0     LIBCMT:winapinls.obj
 0002:00009ea8       ??_C@_15PGHLIDMF@?$AAh?$AAu?$AA?$AA@ 20059ea8     LIBCMT:winapinls.obj
 0002:00009eb0       ??_C@_15BIEMAPLM@?$AAi?$AAs?$AA?$AA@ 20059eb0     LIBCMT:winapinls.obj
 0002:00009eb8       ??_C@_15IFJLDHAF@?$AAi?$AAt?$AA?$AA@ 20059eb8     LIBCMT:winapinls.obj
 0002:00009ec0       ??_C@_15GEMIOCAG@?$AAj?$AAa?$AA?$AA@ 20059ec0     LIBCMT:winapinls.obj
 0002:00009ec8       ??_C@_15EPELEGJA@?$AAk?$AAo?$AA?$AA@ 20059ec8     LIBCMT:winapinls.obj
 0002:00009ed0       ??_C@_15NDDHIMN@?$AAn?$AAl?$AA?$AA@ 20059ed0     LIBCMT:winapinls.obj
 0002:00009ed8       ??_C@_15BPIGNHCD@?$AAn?$AAo?$AA?$AA@ 20059ed8     LIBCMT:winapinls.obj
 0002:00009ee0       ??_C@_15DEOPBLCG@?$AAp?$AAl?$AA?$AA@ 20059ee0     LIBCMT:winapinls.obj
 0002:00009ee8       ??_C@_15KBECGEFG@?$AAp?$AAt?$AA?$AA@ 20059ee8     LIBCMT:winapinls.obj
 0002:00009ef0       ??_C@_15GLJCBFMD@?$AAr?$AAo?$AA?$AA@ 20059ef0     LIBCMT:winapinls.obj
 0002:00009ef8       ??_C@_15FEDGKCDI@?$AAr?$AAu?$AA?$AA@ 20059ef8     LIBCMT:winapinls.obj
 0002:00009f00       ??_C@_15GLKMLLHM@?$AAh?$AAr?$AA?$AA@ 20059f00     LIBCMT:winapinls.obj
 0002:00009f08       ??_C@_15CPKMFBDB@?$AAs?$AAk?$AA?$AA@ 20059f08     LIBCMT:winapinls.obj
 0002:00009f10       ??_C@_15BAAIOGMK@?$AAs?$AAq?$AA?$AA@ 20059f10     LIBCMT:winapinls.obj
 0002:00009f18       ??_C@_15INNPNOHD@?$AAs?$AAv?$AA?$AA@ 20059f18     LIBCMT:winapinls.obj
 0002:00009f20       ??_C@_15CABMMOGH@?$AAt?$AAh?$AA?$AA@ 20059f20     LIBCMT:winapinls.obj
 0002:00009f28       ??_C@_15BPLIHJJM@?$AAt?$AAr?$AA?$AA@ 20059f28     LIBCMT:winapinls.obj
 0002:00009f30       ??_C@_15NEOEKKDJ@?$AAu?$AAr?$AA?$AA@ 20059f30     LIBCMT:winapinls.obj
 0002:00009f38       ??_C@_15NFICGAJK@?$AAi?$AAd?$AA?$AA@ 20059f38     LIBCMT:winapinls.obj
 0002:00009f40       ??_C@_15PJPFLCCM@?$AAu?$AAk?$AA?$AA@ 20059f40     LIBCMT:winapinls.obj
 0002:00009f48       ??_C@_15HPJPHDM@?$AAb?$AAe?$AA?$AA@ 20059f48     LIBCMT:winapinls.obj
 0002:00009f50       ??_C@_15LCHLGJII@?$AAs?$AAl?$AA?$AA@ 20059f50     LIBCMT:winapinls.obj
 0002:00009f58       ??_C@_15PCFJPHHO@?$AAe?$AAt?$AA?$AA@ 20059f58     LIBCMT:winapinls.obj
 0002:00009f60       ??_C@_15HPFPGODN@?$AAl?$AAv?$AA?$AA@ 20059f60     LIBCMT:winapinls.obj
 0002:00009f68       ??_C@_15NFFGKGLG@?$AAl?$AAt?$AA?$AA@ 20059f68     LIBCMT:winapinls.obj
 0002:00009f70       ??_C@_15BDAKCCHN@?$AAf?$AAa?$AA?$AA@ 20059f70     LIBCMT:winapinls.obj
 0002:00009f78       ??_C@_15NFGIAIAJ@?$AAv?$AAi?$AA?$AA@ 20059f78     LIBCMT:winapinls.obj
 0002:00009f80       ??_C@_15LMKNDMHN@?$AAh?$AAy?$AA?$AA@ 20059f80     LIBCMT:winapinls.obj
 0002:00009f88       ??_C@_15IJBHMCFL@?$AAa?$AAz?$AA?$AA@ 20059f88     LIBCMT:winapinls.obj
 0002:00009f90       ??_C@_15EKOFJABL@?$AAe?$AAu?$AA?$AA@ 20059f90     LIBCMT:winapinls.obj
 0002:00009f98       ??_C@_15BGHADCNK@?$AAm?$AAk?$AA?$AA@ 20059f98     LIBCMT:winapinls.obj
 0002:00009fa0       ??_C@_15JDNICKHM@?$AAa?$AAf?$AA?$AA@ 20059fa0     LIBCMT:winapinls.obj
 0002:00009fa8       ??_C@_15KPJEDBKD@?$AAk?$AAa?$AA?$AA@ 20059fa8     LIBCMT:winapinls.obj
 0002:00009fb0       ??_C@_15PDNFFFEO@?$AAf?$AAo?$AA?$AA@ 20059fb0     LIBCMT:winapinls.obj
 0002:00009fb8       ??_C@_15OMLEGLOC@?$AAh?$AAi?$AA?$AA@ 20059fb8     LIBCMT:winapinls.obj
 0002:00009fc0       ??_C@_15IDNNENKK@?$AAm?$AAs?$AA?$AA@ 20059fc0     LIBCMT:winapinls.obj
 0002:00009fc8       ??_C@_15MACJNBMH@?$AAk?$AAk?$AA?$AA@ 20059fc8     LIBCMT:winapinls.obj
 0002:00009fd0       ??_C@_15DKDJEOND@?$AAk?$AAy?$AA?$AA@ 20059fd0     LIBCMT:winapinls.obj
 0002:00009fd8       ??_C@_15DFGDLJBG@?$AAs?$AAw?$AA?$AA@ 20059fd8     LIBCMT:winapinls.obj
 0002:00009fe0       ??_C@_15BBFAICNG@?$AAu?$AAz?$AA?$AA@ 20059fe0     LIBCMT:winapinls.obj
 0002:00009fe8       ??_C@_15DKNDCGEA@?$AAt?$AAt?$AA?$AA@ 20059fe8     LIBCMT:winapinls.obj
 0002:00009ff0       ??_C@_15MGIFMDPL@?$AAp?$AAa?$AA?$AA@ 20059ff0     LIBCMT:winapinls.obj
 0002:00009ff8       ??_C@_15HCNDBBA@?$AAg?$AAu?$AA?$AA@ 20059ff8     LIBCMT:winapinls.obj
 0002:0000a000       ??_C@_15FNBEIBON@?$AAt?$AAa?$AA?$AA@ 2005a000     LIBCMT:winapinls.obj
 0002:0000a008       ??_C@_15NCHGBGLK@?$AAt?$AAe?$AA?$AA@ 2005a008     LIBCMT:winapinls.obj
 0002:0000a010       ??_C@_15PHPHCBPF@?$AAk?$AAn?$AA?$AA@ 2005a010     LIBCMT:winapinls.obj
 0002:0000a018       ??_C@_15DLGBCKMP@?$AAm?$AAr?$AA?$AA@ 2005a018     LIBCMT:winapinls.obj
 0002:0000a020       ??_C@_15EABBLBFF@?$AAs?$AAa?$AA?$AA@ 2005a020     LIBCMT:winapinls.obj
 0002:0000a028       ??_C@_15CBKOMCOI@?$AAm?$AAn?$AA?$AA@ 2005a028     LIBCMT:winapinls.obj
 0002:0000a030       ??_C@_15CKDMCJAF@?$AAg?$AAl?$AA?$AA@ 2005a030     LIBCMT:winapinls.obj
 0002:0000a038       ??_C@_17CNJFBPG@?$AAk?$AAo?$AAk?$AA?$AA@ 2005a038     LIBCMT:winapinls.obj
 0002:0000a040       ??_C@_17FFBJICPL@?$AAs?$AAy?$AAr?$AA?$AA@ 2005a040     LIBCMT:winapinls.obj
 0002:0000a048       ??_C@_17KPNDCPAF@?$AAd?$AAi?$AAv?$AA?$AA@ 2005a048     LIBCMT:winapinls.obj
 0002:0000a050       ??_C@_11LOCGONAA@?$AA?$AA@ 2005a050     LIBCMT:winapinls.obj
 0002:0000a054       ??_C@_1M@OKAHONE@?$AAa?$AAr?$AA?9?$AAS?$AAA?$AA?$AA@ 2005a054     LIBCMT:winapinls.obj
 0002:0000a060       ??_C@_1M@FFFIGIGK@?$AAb?$AAg?$AA?9?$AAB?$AAG?$AA?$AA@ 2005a060     LIBCMT:winapinls.obj
 0002:0000a06c       ??_C@_1M@BJNKEDC@?$AAc?$AAa?$AA?9?$AAE?$AAS?$AA?$AA@ 2005a06c     LIBCMT:winapinls.obj
 0002:0000a078       ??_C@_1M@IJJHFJHA@?$AAc?$AAs?$AA?9?$AAC?$AAZ?$AA?$AA@ 2005a078     LIBCMT:winapinls.obj
 0002:0000a084       ??_C@_1M@CLPEOBGI@?$AAd?$AAa?$AA?9?$AAD?$AAK?$AA?$AA@ 2005a084     LIBCMT:winapinls.obj
 0002:0000a090       ??_C@_1M@MCMADGCB@?$AAd?$AAe?$AA?9?$AAD?$AAE?$AA?$AA@ 2005a090     LIBCMT:winapinls.obj
 0002:0000a09c       ??_C@_1M@OOCKEMAM@?$AAe?$AAl?$AA?9?$AAG?$AAR?$AA?$AA@ 2005a09c     LIBCMT:winapinls.obj
 0002:0000a0a8       ??_C@_1M@DDNJFGID@?$AAf?$AAi?$AA?9?$AAF?$AAI?$AA?$AA@ 2005a0a8     LIBCMT:winapinls.obj
 0002:0000a0b4       ??_C@_1M@GLIPPMAC@?$AAf?$AAr?$AA?9?$AAF?$AAR?$AA?$AA@ 2005a0b4     LIBCMT:winapinls.obj
 0002:0000a0c0       ??_C@_1M@GFMCHPE@?$AAh?$AAe?$AA?9?$AAI?$AAL?$AA?$AA@ 2005a0c0     LIBCMT:winapinls.obj
 0002:0000a0cc       ??_C@_1M@MHLPGNKM@?$AAh?$AAu?$AA?9?$AAH?$AAU?$AA?$AA@ 2005a0cc     LIBCMT:winapinls.obj
 0002:0000a0d8       ??_C@_1M@LPDDNNPN@?$AAi?$AAs?$AA?9?$AAI?$AAS?$AA?$AA@ 2005a0d8     LIBCMT:winapinls.obj
 0002:0000a0e4       ??_C@_1M@MADIPODN@?$AAi?$AAt?$AA?9?$AAI?$AAT?$AA?$AA@ 2005a0e4     LIBCMT:winapinls.obj
 0002:0000a0f0       ??_C@_1M@IHBJJGG@?$AAn?$AAl?$AA?9?$AAN?$AAL?$AA?$AA@ 2005a0f0     LIBCMT:winapinls.obj
 0002:0000a0fc       ??_C@_1M@EANAGDL@?$AAn?$AAb?$AA?9?$AAN?$AAO?$AA?$AA@ 2005a0fc     LIBCMT:winapinls.obj
 0002:0000a108       ??_C@_1M@NEIEMEGP@?$AAp?$AAl?$AA?9?$AAP?$AAL?$AA?$AA@ 2005a108     LIBCMT:winapinls.obj
 0002:0000a114       ??_C@_1M@BOCFIGEP@?$AAp?$AAt?$AA?9?$AAB?$AAR?$AA?$AA@ 2005a114     LIBCMT:winapinls.obj
 0002:0000a120       ??_C@_1M@IMPFOPBG@?$AAr?$AAo?$AA?9?$AAR?$AAO?$AA?$AA@ 2005a120     LIBCMT:winapinls.obj
 0002:0000a12c       ??_C@_1M@IDNNEJMM@?$AAr?$AAu?$AA?9?$AAR?$AAU?$AA?$AA@ 2005a12c     LIBCMT:winapinls.obj
 0002:0000a138       ??_C@_1M@LILEEOGM@?$AAh?$AAr?$AA?9?$AAH?$AAR?$AA?$AA@ 2005a138     LIBCMT:winapinls.obj
 0002:0000a144       ??_C@_1M@FKIFEHPB@?$AAs?$AAk?$AA?9?$AAS?$AAK?$AA?$AA@ 2005a144     LIBCMT:winapinls.obj
 0002:0000a150       ??_C@_1M@LJMAMNPJ@?$AAs?$AAq?$AA?9?$AAA?$AAL?$AA?$AA@ 2005a150     LIBCMT:winapinls.obj
 0002:0000a15c       ??_C@_1M@GIAKDKJK@?$AAs?$AAv?$AA?9?$AAS?$AAE?$AA?$AA@ 2005a15c     LIBCMT:winapinls.obj
 0002:0000a168       ??_C@_1M@MKJKIKCL@?$AAt?$AAh?$AA?9?$AAT?$AAH?$AA?$AA@ 2005a168     LIBCMT:winapinls.obj
 0002:0000a174       ??_C@_1M@MFLCCMPB@?$AAt?$AAr?$AA?9?$AAT?$AAR?$AA?$AA@ 2005a174     LIBCMT:winapinls.obj
 0002:0000a180       ??_C@_1M@OIJHDKJN@?$AAu?$AAr?$AA?9?$AAP?$AAK?$AA?$AA@ 2005a180     LIBCMT:winapinls.obj
 0002:0000a18c       ??_C@_1M@LHIPCIEK@?$AAi?$AAd?$AA?9?$AAI?$AAD?$AA?$AA@ 2005a18c     LIBCMT:winapinls.obj
 0002:0000a198       ??_C@_1M@MFMOBGI@?$AAu?$AAk?$AA?9?$AAU?$AAA?$AA?$AA@ 2005a198     LIBCMT:winapinls.obj
 0002:0000a1a4       ??_C@_1M@OBGLJIPL@?$AAb?$AAe?$AA?9?$AAB?$AAY?$AA?$AA@ 2005a1a4     LIBCMT:winapinls.obj
 0002:0000a1b0       ??_C@_1M@BCFAJEAD@?$AAs?$AAl?$AA?9?$AAS?$AAI?$AA?$AA@ 2005a1b0     LIBCMT:winapinls.obj
 0002:0000a1bc       ??_C@_1M@FKFFEDDN@?$AAe?$AAt?$AA?9?$AAE?$AAE?$AA?$AA@ 2005a1bc     LIBCMT:winapinls.obj
 0002:0000a1c8       ??_C@_1M@KGKKAACI@?$AAl?$AAv?$AA?9?$AAL?$AAV?$AA?$AA@ 2005a1c8     LIBCMT:winapinls.obj
 0002:0000a1d4       ??_C@_1M@IFGBIJO@?$AAl?$AAt?$AA?9?$AAL?$AAT?$AA?$AA@ 2005a1d4     LIBCMT:winapinls.obj
 0002:0000a1e0       ??_C@_1M@FGEAHEDM@?$AAf?$AAa?$AA?9?$AAI?$AAR?$AA?$AA@ 2005a1e0     LIBCMT:winapinls.obj
 0002:0000a1ec       ??_C@_1M@KBMAIBFN@?$AAv?$AAi?$AA?9?$AAV?$AAN?$AA?$AA@ 2005a1ec     LIBCMT:winapinls.obj
 0002:0000a1f8       ??_C@_1M@GPCBKDJK@?$AAh?$AAy?$AA?9?$AAA?$AAM?$AA?$AA@ 2005a1f8     LIBCMT:winapinls.obj
 0002:0000a204       ??_C@_1BG@BECMDDJB@?$AAa?$AAz?$AA?9?$AAA?$AAZ?$AA?9?$AAL?$AAa?$AAt?$AAn?$AA?$AA@ 2005a204     LIBCMT:winapinls.obj
 0002:0000a21c       ??_C@_1M@MAOFCAEA@?$AAe?$AAu?$AA?9?$AAE?$AAS?$AA?$AA@ 2005a21c     LIBCMT:winapinls.obj
 0002:0000a228       ??_C@_1M@IGHABKPI@?$AAm?$AAk?$AA?9?$AAM?$AAK?$AA?$AA@ 2005a228     LIBCMT:winapinls.obj
 0002:0000a234       ??_C@_1M@IAIGNEJG@?$AAt?$AAn?$AA?9?$AAZ?$AAA?$AA?$AA@ 2005a234     LIBCMT:winapinls.obj
 0002:0000a240       ??_C@_1M@IIJCOJFA@?$AAx?$AAh?$AA?9?$AAZ?$AAA?$AA?$AA@ 2005a240     LIBCMT:winapinls.obj
 0002:0000a24c       ??_C@_1M@LGPJHNJH@?$AAz?$AAu?$AA?9?$AAZ?$AAA?$AA?$AA@ 2005a24c     LIBCMT:winapinls.obj
 0002:0000a258       ??_C@_1M@HOKAOIO@?$AAa?$AAf?$AA?9?$AAZ?$AAA?$AA?$AA@ 2005a258     LIBCMT:winapinls.obj
 0002:0000a264       ??_C@_1M@DPCLHLIE@?$AAk?$AAa?$AA?9?$AAG?$AAE?$AA?$AA@ 2005a264     LIBCMT:winapinls.obj
 0002:0000a270       ??_C@_1M@BLKMHJBI@?$AAf?$AAo?$AA?9?$AAF?$AAO?$AA?$AA@ 2005a270     LIBCMT:winapinls.obj
 0002:0000a27c       ??_C@_1M@LGGJAPPB@?$AAh?$AAi?$AA?9?$AAI?$AAN?$AA?$AA@ 2005a27c     LIBCMT:winapinls.obj
 0002:0000a288       ??_C@_1M@FIKPIHFE@?$AAm?$AAt?$AA?9?$AAM?$AAT?$AA?$AA@ 2005a288     LIBCMT:winapinls.obj
 0002:0000a294       ??_C@_1M@HEGGPBFA@?$AAs?$AAe?$AA?9?$AAN?$AAO?$AA?$AA@ 2005a294     LIBCMT:winapinls.obj
 0002:0000a2a0       ??_C@_1M@EIBJEEPA@?$AAm?$AAs?$AA?9?$AAM?$AAY?$AA?$AA@ 2005a2a0     LIBCMT:winapinls.obj
 0002:0000a2ac       ??_C@_1M@FHLBGMPP@?$AAk?$AAk?$AA?9?$AAK?$AAZ?$AA?$AA@ 2005a2ac     LIBCMT:winapinls.obj
 0002:0000a2b8       ??_C@_1M@NGJJLCGI@?$AAk?$AAy?$AA?9?$AAK?$AAG?$AA?$AA@ 2005a2b8     LIBCMT:winapinls.obj
 0002:0000a2c4       ??_C@_1M@GIENNBFC@?$AAs?$AAw?$AA?9?$AAK?$AAE?$AA?$AA@ 2005a2c4     LIBCMT:winapinls.obj
 0002:0000a2d0       ??_C@_1BG@NDGMJIMJ@?$AAu?$AAz?$AA?9?$AAU?$AAZ?$AA?9?$AAL?$AAa?$AAt?$AAn?$AA?$AA@ 2005a2d0     LIBCMT:winapinls.obj
 0002:0000a2e8       ??_C@_1M@IDCCIHBC@?$AAt?$AAt?$AA?9?$AAR?$AAU?$AA?$AA@ 2005a2e8     LIBCMT:winapinls.obj
 0002:0000a2f4       ??_C@_1M@LOICPMOJ@?$AAb?$AAn?$AA?9?$AAI?$AAN?$AA?$AA@ 2005a2f4     LIBCMT:winapinls.obj
 0002:0000a300       ??_C@_1M@KPKKNEAH@?$AAp?$AAa?$AA?9?$AAI?$AAN?$AA?$AA@ 2005a300     LIBCMT:winapinls.obj
 0002:0000a30c       ??_C@_1M@PJGPPBOG@?$AAg?$AAu?$AA?9?$AAI?$AAN?$AA?$AA@ 2005a30c     LIBCMT:winapinls.obj
 0002:0000a318       ??_C@_1M@KMKMOPHI@?$AAt?$AAa?$AA?9?$AAI?$AAN?$AA?$AA@ 2005a318     LIBCMT:winapinls.obj
 0002:0000a324       ??_C@_1M@KFEHEPAC@?$AAt?$AAe?$AA?9?$AAI?$AAN?$AA?$AA@ 2005a324     LIBCMT:winapinls.obj
 0002:0000a330       ??_C@_1M@CDCLMGHI@?$AAk?$AAn?$AA?9?$AAI?$AAN?$AA?$AA@ 2005a330     LIBCMT:winapinls.obj
 0002:0000a33c       ??_C@_1M@MIODLDKF@?$AAm?$AAl?$AA?9?$AAI?$AAN?$AA?$AA@ 2005a33c     LIBCMT:winapinls.obj
 0002:0000a348       ??_C@_1M@PBIEACPO@?$AAm?$AAr?$AA?9?$AAI?$AAN?$AA?$AA@ 2005a348     LIBCMT:winapinls.obj
 0002:0000a354       ??_C@_1M@NIDEAGPH@?$AAs?$AAa?$AA?9?$AAI?$AAN?$AA?$AA@ 2005a354     LIBCMT:winapinls.obj
 0002:0000a360       ??_C@_1M@FHIHCBIO@?$AAm?$AAn?$AA?9?$AAM?$AAN?$AA?$AA@ 2005a360     LIBCMT:winapinls.obj
 0002:0000a36c       ??_C@_1M@JAIJPENP@?$AAc?$AAy?$AA?9?$AAG?$AAB?$AA?$AA@ 2005a36c     LIBCMT:winapinls.obj
 0002:0000a378       ??_C@_1M@PHGFBEPN@?$AAg?$AAl?$AA?9?$AAE?$AAS?$AA?$AA@ 2005a378     LIBCMT:winapinls.obj
 0002:0000a384       ??_C@_1O@KPIPDNCP@?$AAk?$AAo?$AAk?$AA?9?$AAI?$AAN?$AA?$AA@ 2005a384     LIBCMT:winapinls.obj
 0002:0000a394       ??_C@_1O@KNHJLDJA@?$AAs?$AAy?$AAr?$AA?9?$AAS?$AAY?$AA?$AA@ 2005a394     LIBCMT:winapinls.obj
 0002:0000a3a4       ??_C@_1O@MKEKBLAH@?$AAd?$AAi?$AAv?$AA?9?$AAM?$AAV?$AA?$AA@ 2005a3a4     LIBCMT:winapinls.obj
 0002:0000a3b4       ??_C@_1O@OHDCKDDF@?$AAq?$AAu?$AAz?$AA?9?$AAB?$AAO?$AA?$AA@ 2005a3b4     LIBCMT:winapinls.obj
 0002:0000a3c4       ??_C@_1M@LEPJNLFD@?$AAn?$AAs?$AA?9?$AAZ?$AAA?$AA?$AA@ 2005a3c4     LIBCMT:winapinls.obj
 0002:0000a3d0       ??_C@_1M@OMLEIIJB@?$AAm?$AAi?$AA?9?$AAN?$AAZ?$AA?$AA@ 2005a3d0     LIBCMT:winapinls.obj
 0002:0000a3dc       ??_C@_1M@PMPEAILG@?$AAa?$AAr?$AA?9?$AAI?$AAQ?$AA?$AA@ 2005a3dc     LIBCMT:winapinls.obj
 0002:0000a3e8       ??_C@_1M@CNKPNOEE@?$AAd?$AAe?$AA?9?$AAC?$AAH?$AA?$AA@ 2005a3e8     LIBCMT:winapinls.obj
 0002:0000a3f4       ??_C@_1M@LKMGMLKO@?$AAe?$AAn?$AA?9?$AAG?$AAB?$AA?$AA@ 2005a3f4     LIBCMT:winapinls.obj
 0002:0000a400       ??_C@_1M@PGKJFFGL@?$AAe?$AAs?$AA?9?$AAM?$AAX?$AA?$AA@ 2005a400     LIBCMT:winapinls.obj
 0002:0000a40c       ??_C@_1M@DNNANBDC@?$AAf?$AAr?$AA?9?$AAB?$AAE?$AA?$AA@ 2005a40c     LIBCMT:winapinls.obj
 0002:0000a418       ??_C@_1M@HLGMDFHM@?$AAi?$AAt?$AA?9?$AAC?$AAH?$AA?$AA@ 2005a418     LIBCMT:winapinls.obj
 0002:0000a424       ??_C@_1M@CLLBGJH@?$AAn?$AAl?$AA?9?$AAB?$AAE?$AA?$AA@ 2005a424     LIBCMT:winapinls.obj
 0002:0000a430       ??_C@_1M@BODBOGLF@?$AAn?$AAn?$AA?9?$AAN?$AAO?$AA?$AA@ 2005a430     LIBCMT:winapinls.obj
 0002:0000a43c       ??_C@_1M@HFFAHKAD@?$AAp?$AAt?$AA?9?$AAP?$AAT?$AA?$AA@ 2005a43c     LIBCMT:winapinls.obj
 0002:0000a448       ??_C@_1BG@LNOAKHIE@?$AAs?$AAr?$AA?9?$AAS?$AAP?$AA?9?$AAL?$AAa?$AAt?$AAn?$AA?$AA@ 2005a448     LIBCMT:winapinls.obj
 0002:0000a460       ??_C@_1M@HBMHBGAK@?$AAs?$AAv?$AA?9?$AAF?$AAI?$AA?$AA@ 2005a460     LIBCMT:winapinls.obj
 0002:0000a46c       ??_C@_1BG@DGCJGJBE@?$AAa?$AAz?$AA?9?$AAA?$AAZ?$AA?9?$AAC?$AAy?$AAr?$AAl?$AA?$AA@ 2005a46c     LIBCMT:winapinls.obj
 0002:0000a484       ??_C@_1M@KEJDAAHB@?$AAs?$AAe?$AA?9?$AAS?$AAE?$AA?$AA@ 2005a484     LIBCMT:winapinls.obj
 0002:0000a490       ??_C@_1M@HEIBJJAD@?$AAm?$AAs?$AA?9?$AAB?$AAN?$AA?$AA@ 2005a490     LIBCMT:winapinls.obj
 0002:0000a49c       ??_C@_1BG@PBGJMCEM@?$AAu?$AAz?$AA?9?$AAU?$AAZ?$AA?9?$AAC?$AAy?$AAr?$AAl?$AA?$AA@ 2005a49c     LIBCMT:winapinls.obj
 0002:0000a4b4       ??_C@_1O@LAOBCMDF@?$AAq?$AAu?$AAz?$AA?9?$AAE?$AAC?$AA?$AA@ 2005a4b4     LIBCMT:winapinls.obj
 0002:0000a4c4       ??_C@_1M@POEEMAIO@?$AAa?$AAr?$AA?9?$AAE?$AAG?$AA?$AA@ 2005a4c4     LIBCMT:winapinls.obj
 0002:0000a4d0       ??_C@_1M@EFAKDEDL@?$AAz?$AAh?$AA?9?$AAH?$AAK?$AA?$AA@ 2005a4d0     LIBCMT:winapinls.obj
 0002:0000a4dc       ??_C@_1M@HKKIJHGI@?$AAd?$AAe?$AA?9?$AAA?$AAT?$AA?$AA@ 2005a4dc     LIBCMT:winapinls.obj
 0002:0000a4e8       ??_C@_1M@KBFBEHJF@?$AAe?$AAn?$AA?9?$AAA?$AAU?$AA?$AA@ 2005a4e8     LIBCMT:winapinls.obj
 0002:0000a4f4       ??_C@_1M@MNPLFAAH@?$AAe?$AAs?$AA?9?$AAE?$AAS?$AA?$AA@ 2005a4f4     LIBCMT:winapinls.obj
 0002:0000a500       ??_C@_1M@HJOOJFMA@?$AAf?$AAr?$AA?9?$AAC?$AAA?$AA?$AA@ 2005a500     LIBCMT:winapinls.obj
 0002:0000a50c       ??_C@_1BG@JPOFPNAB@?$AAs?$AAr?$AA?9?$AAS?$AAP?$AA?9?$AAC?$AAy?$AAr?$AAl?$AA?$AA@ 2005a50c     LIBCMT:winapinls.obj
 0002:0000a524       ??_C@_1M@LNFOCMOB@?$AAs?$AAe?$AA?9?$AAF?$AAI?$AA?$AA@ 2005a524     LIBCMT:winapinls.obj
 0002:0000a530       ??_C@_1O@MGJBOAMB@?$AAq?$AAu?$AAz?$AA?9?$AAP?$AAE?$AA?$AA@ 2005a530     LIBCMT:winapinls.obj
 0002:0000a540       ??_C@_1M@GJINLBOK@?$AAa?$AAr?$AA?9?$AAL?$AAY?$AA?$AA@ 2005a540     LIBCMT:winapinls.obj
 0002:0000a54c       ??_C@_1M@GGMNHJNL@?$AAz?$AAh?$AA?9?$AAS?$AAG?$AA?$AA@ 2005a54c     LIBCMT:winapinls.obj
 0002:0000a558       ??_C@_1M@HOIKODND@?$AAd?$AAe?$AA?9?$AAL?$AAU?$AA?$AA@ 2005a558     LIBCMT:winapinls.obj
 0002:0000a564       ??_C@_1M@DDOCCGFG@?$AAe?$AAn?$AA?9?$AAC?$AAA?$AA?$AA@ 2005a564     LIBCMT:winapinls.obj
 0002:0000a570       ??_C@_1M@BNOEMJLF@?$AAe?$AAs?$AA?9?$AAG?$AAT?$AA?$AA@ 2005a570     LIBCMT:winapinls.obj
 0002:0000a57c       ??_C@_1M@EOGNKEK@?$AAf?$AAr?$AA?9?$AAC?$AAH?$AA?$AA@ 2005a57c     LIBCMT:winapinls.obj
 0002:0000a588       ??_C@_1M@FLIDJFHL@?$AAh?$AAr?$AA?9?$AAB?$AAA?$AA?$AA@ 2005a588     LIBCMT:winapinls.obj
 0002:0000a594       ??_C@_1O@FMCELNAJ@?$AAs?$AAm?$AAj?$AA?9?$AAN?$AAO?$AA?$AA@ 2005a594     LIBCMT:winapinls.obj
 0002:0000a5a4       ??_C@_1M@JHGLJMGJ@?$AAa?$AAr?$AA?9?$AAD?$AAZ?$AA?$AA@ 2005a5a4     LIBCMT:winapinls.obj
 0002:0000a5b0       ??_C@_1M@JKKFDCNP@?$AAz?$AAh?$AA?9?$AAM?$AAO?$AA?$AA@ 2005a5b0     LIBCMT:winapinls.obj
 0002:0000a5bc       ??_C@_1M@GEEFALPE@?$AAd?$AAe?$AA?9?$AAL?$AAI?$AA?$AA@ 2005a5bc     LIBCMT:winapinls.obj
 0002:0000a5c8       ??_C@_1M@IGEOFBG@?$AAe?$AAn?$AA?9?$AAN?$AAZ?$AA?$AA@ 2005a5c8     LIBCMT:winapinls.obj
 0002:0000a5d4       ??_C@_1M@KDBONEHP@?$AAe?$AAs?$AA?9?$AAC?$AAR?$AA?$AA@ 2005a5d4     LIBCMT:winapinls.obj
 0002:0000a5e0       ??_C@_1M@FHMDOHNN@?$AAf?$AAr?$AA?9?$AAL?$AAU?$AA?$AA@ 2005a5e0     LIBCMT:winapinls.obj
 0002:0000a5ec       ??_C@_1BG@NFKKMAFG@?$AAb?$AAs?$AA?9?$AAB?$AAA?$AA?9?$AAL?$AAa?$AAt?$AAn?$AA?$AA@ 2005a5ec     LIBCMT:winapinls.obj
 0002:0000a604       ??_C@_1O@IMNBEMCI@?$AAs?$AAm?$AAj?$AA?9?$AAS?$AAE?$AA?$AA@ 2005a604     LIBCMT:winapinls.obj
 0002:0000a614       ??_C@_1M@DHHMBNDP@?$AAa?$AAr?$AA?9?$AAM?$AAA?$AA?$AA@ 2005a614     LIBCMT:winapinls.obj
 0002:0000a620       ??_C@_1M@BNBLJCGH@?$AAe?$AAn?$AA?9?$AAI?$AAE?$AA?$AA@ 2005a620     LIBCMT:winapinls.obj
 0002:0000a62c       ??_C@_1M@GEPAFMDL@?$AAe?$AAs?$AA?9?$AAP?$AAA?$AA?$AA@ 2005a62c     LIBCMT:winapinls.obj
 0002:0000a638       ??_C@_1M@OJONDMDL@?$AAf?$AAr?$AA?9?$AAM?$AAC?$AA?$AA@ 2005a638     LIBCMT:winapinls.obj
 0002:0000a644       ??_C@_1BG@OBCNFJB@?$AAs?$AAr?$AA?9?$AAB?$AAA?$AA?9?$AAL?$AAa?$AAt?$AAn?$AA?$AA@ 2005a644     LIBCMT:winapinls.obj
 0002:0000a65c       ??_C@_1O@KEMEEGPO@?$AAs?$AAm?$AAa?$AA?9?$AAN?$AAO?$AA?$AA@ 2005a65c     LIBCMT:winapinls.obj
 0002:0000a66c       ??_C@_1M@ELMGFODK@?$AAa?$AAr?$AA?9?$AAT?$AAN?$AA?$AA@ 2005a66c     LIBCMT:winapinls.obj
 0002:0000a678       ??_C@_1M@BHDLHFAF@?$AAe?$AAn?$AA?9?$AAZ?$AAA?$AA?$AA@ 2005a678     LIBCMT:winapinls.obj
 0002:0000a684       ??_C@_1M@BMGIGLIF@?$AAe?$AAs?$AA?9?$AAD?$AAO?$AA?$AA@ 2005a684     LIBCMT:winapinls.obj
 0002:0000a690       ??_C@_1BG@CMBHIPBE@?$AAs?$AAr?$AA?9?$AAB?$AAA?$AA?9?$AAC?$AAy?$AAr?$AAl?$AA?$AA@ 2005a690     LIBCMT:winapinls.obj
 0002:0000a6a8       ??_C@_1O@HEDBLHNP@?$AAs?$AAm?$AAa?$AA?9?$AAS?$AAE?$AA?$AA@ 2005a6a8     LIBCMT:winapinls.obj
 0002:0000a6b8       ??_C@_1M@DAGCADIM@?$AAa?$AAr?$AA?9?$AAO?$AAM?$AA?$AA@ 2005a6b8     LIBCMT:winapinls.obj
 0002:0000a6c4       ??_C@_1M@FODLMICG@?$AAe?$AAn?$AA?9?$AAJ?$AAM?$AA?$AA@ 2005a6c4     LIBCMT:winapinls.obj
 0002:0000a6d0       ??_C@_1M@DNMLCIHB@?$AAe?$AAs?$AA?9?$AAV?$AAE?$AA?$AA@ 2005a6d0     LIBCMT:winapinls.obj
 0002:0000a6dc       ??_C@_1O@EOKHMKJK@?$AAs?$AAm?$AAs?$AA?9?$AAF?$AAI?$AA?$AA@ 2005a6dc     LIBCMT:winapinls.obj
 0002:0000a6ec       ??_C@_1M@CAFJMKOF@?$AAa?$AAr?$AA?9?$AAY?$AAE?$AA?$AA@ 2005a6ec     LIBCMT:winapinls.obj
 0002:0000a6f8       ??_C@_1M@CBFHIJLI@?$AAe?$AAn?$AA?9?$AAC?$AAB?$AA?$AA@ 2005a6f8     LIBCMT:winapinls.obj
 0002:0000a704       ??_C@_1M@BGNFLDN@?$AAe?$AAs?$AA?9?$AAC?$AAO?$AA?$AA@ 2005a704     LIBCMT:winapinls.obj
 0002:0000a710       ??_C@_1O@JMPHMAMC@?$AAs?$AAm?$AAn?$AA?9?$AAF?$AAI?$AA?$AA@ 2005a710     LIBCMT:winapinls.obj
 0002:0000a720       ??_C@_1M@JLANABKE@?$AAa?$AAr?$AA?9?$AAS?$AAY?$AA?$AA@ 2005a720     LIBCMT:winapinls.obj
 0002:0000a72c       ??_C@_1M@HPKGCFGN@?$AAe?$AAn?$AA?9?$AAB?$AAZ?$AA?$AA@ 2005a72c     LIBCMT:winapinls.obj
 0002:0000a738       ??_C@_1M@OLJCMLGM@?$AAe?$AAs?$AA?9?$AAP?$AAE?$AA?$AA@ 2005a738     LIBCMT:winapinls.obj
 0002:0000a744       ??_C@_1M@MKKGFKLE@?$AAa?$AAr?$AA?9?$AAJ?$AAO?$AA?$AA@ 2005a744     LIBCMT:winapinls.obj
 0002:0000a750       ??_C@_1M@EKPGLDNI@?$AAe?$AAn?$AA?9?$AAT?$AAT?$AA?$AA@ 2005a750     LIBCMT:winapinls.obj
 0002:0000a75c       ??_C@_1M@OONGHFHE@?$AAe?$AAs?$AA?9?$AAA?$AAR?$AA?$AA@ 2005a75c     LIBCMT:winapinls.obj
 0002:0000a768       ??_C@_1M@OOJFGBHE@?$AAa?$AAr?$AA?9?$AAL?$AAB?$AA?$AA@ 2005a768     LIBCMT:winapinls.obj
 0002:0000a774       ??_C@_1M@GCEJHNEG@?$AAe?$AAn?$AA?9?$AAZ?$AAW?$AA?$AA@ 2005a774     LIBCMT:winapinls.obj
 0002:0000a780       ??_C@_1M@JNOCAHJI@?$AAe?$AAs?$AA?9?$AAE?$AAC?$AA?$AA@ 2005a780     LIBCMT:winapinls.obj
 0002:0000a78c       ??_C@_1M@JEFHPGGB@?$AAa?$AAr?$AA?9?$AAK?$AAW?$AA?$AA@ 2005a78c     LIBCMT:winapinls.obj
 0002:0000a798       ??_C@_1M@MLKIBJOJ@?$AAe?$AAn?$AA?9?$AAP?$AAH?$AA?$AA@ 2005a798     LIBCMT:winapinls.obj
 0002:0000a7a4       ??_C@_1M@BDNIPEND@?$AAe?$AAs?$AA?9?$AAC?$AAL?$AA?$AA@ 2005a7a4     LIBCMT:winapinls.obj
 0002:0000a7b0       ??_C@_1M@MPNMEKBD@?$AAa?$AAr?$AA?9?$AAA?$AAE?$AA?$AA@ 2005a7b0     LIBCMT:winapinls.obj
 0002:0000a7bc       ??_C@_1M@KBJALCPI@?$AAe?$AAs?$AA?9?$AAU?$AAY?$AA?$AA@ 2005a7bc     LIBCMT:winapinls.obj
 0002:0000a7c8       ??_C@_1M@LLCCOAGA@?$AAa?$AAr?$AA?9?$AAB?$AAH?$AA?$AA@ 2005a7c8     LIBCMT:winapinls.obj
 0002:0000a7d4       ??_C@_1M@PBFNCDEL@?$AAe?$AAs?$AA?9?$AAP?$AAY?$AA?$AA@ 2005a7d4     LIBCMT:winapinls.obj
 0002:0000a7e0       ??_C@_1M@EDGINPNP@?$AAa?$AAr?$AA?9?$AAQ?$AAA?$AA?$AA@ 2005a7e0     LIBCMT:winapinls.obj
 0002:0000a7ec       ??_C@_1M@MKDBIIJI@?$AAe?$AAs?$AA?9?$AAB?$AAO?$AA?$AA@ 2005a7ec     LIBCMT:winapinls.obj
 0002:0000a7f8       ??_C@_1M@CPKKEBLD@?$AAe?$AAs?$AA?9?$AAS?$AAV?$AA?$AA@ 2005a7f8     LIBCMT:winapinls.obj
 0002:0000a804       ??_C@_1M@NDBGMMJL@?$AAe?$AAs?$AA?9?$AAH?$AAN?$AA?$AA@ 2005a804     LIBCMT:winapinls.obj
 0002:0000a810       ??_C@_1M@JIJIBHDP@?$AAe?$AAs?$AA?9?$AAN?$AAI?$AA?$AA@ 2005a810     LIBCMT:winapinls.obj
 0002:0000a81c       ??_C@_1M@CGFMKEEK@?$AAe?$AAs?$AA?9?$AAP?$AAR?$AA?$AA@ 2005a81c     LIBCMT:winapinls.obj
 0002:0000a828       ??_C@_1O@ICJHKIIK@?$AAz?$AAh?$AA?9?$AAC?$AAH?$AAT?$AA?$AA@ 2005a828     LIBCMT:winapinls.obj
 0002:0000a838       ??_C@_15CLNEJCE@?$AAs?$AAr?$AA?$AA@ 2005a838     LIBCMT:winapinls.obj
 0002:0000a840       ??_C@_1M@KAHEKEIG@?$AAa?$AAf?$AA?9?$AAz?$AAa?$AA?$AA@ 2005a840     LIBCMT:winapinls.obj
 0002:0000a84c       ??_C@_1M@GIECOABL@?$AAa?$AAr?$AA?9?$AAa?$AAe?$AA?$AA@ 2005a84c     LIBCMT:winapinls.obj
 0002:0000a858       ??_C@_1M@BMLMEKGI@?$AAa?$AAr?$AA?9?$AAb?$AAh?$AA?$AA@ 2005a858     LIBCMT:winapinls.obj
 0002:0000a864       ??_C@_1M@DAPFDGGB@?$AAa?$AAr?$AA?9?$AAd?$AAz?$AA?$AA@ 2005a864     LIBCMT:winapinls.obj
 0002:0000a870       ??_C@_1M@FJNKGKIG@?$AAa?$AAr?$AA?9?$AAe?$AAg?$AA?$AA@ 2005a870     LIBCMT:winapinls.obj
 0002:0000a87c       ??_C@_1M@FLGKKCLO@?$AAa?$AAr?$AA?9?$AAi?$AAq?$AA?$AA@ 2005a87c     LIBCMT:winapinls.obj
 0002:0000a888       ??_C@_1M@GNDIPALM@?$AAa?$AAr?$AA?9?$AAj?$AAo?$AA?$AA@ 2005a888     LIBCMT:winapinls.obj
 0002:0000a894       ??_C@_1M@DDMJFMGJ@?$AAa?$AAr?$AA?9?$AAk?$AAw?$AA?$AA@ 2005a894     LIBCMT:winapinls.obj
 0002:0000a8a0       ??_C@_1M@EJALMLHM@?$AAa?$AAr?$AA?9?$AAl?$AAb?$AA?$AA@ 2005a8a0     LIBCMT:winapinls.obj
 0002:0000a8ac       ??_C@_1M@MOBDBLOC@?$AAa?$AAr?$AA?9?$AAl?$AAy?$AA?$AA@ 2005a8ac     LIBCMT:winapinls.obj
 0002:0000a8b8       ??_C@_1M@JAOCLHDH@?$AAa?$AAr?$AA?9?$AAm?$AAa?$AA?$AA@ 2005a8b8     LIBCMT:winapinls.obj
 0002:0000a8c4       ??_C@_1M@JHPMKJIE@?$AAa?$AAr?$AA?9?$AAo?$AAm?$AA?$AA@ 2005a8c4     LIBCMT:winapinls.obj
 0002:0000a8d0       ??_C@_1M@OEPGHFNH@?$AAa?$AAr?$AA?9?$AAq?$AAa?$AA?$AA@ 2005a8d0     LIBCMT:winapinls.obj
 0002:0000a8dc       ??_C@_1M@KJDONENM@?$AAa?$AAr?$AA?9?$AAs?$AAa?$AA?$AA@ 2005a8dc     LIBCMT:winapinls.obj
 0002:0000a8e8       ??_C@_1M@DMJDKLKM@?$AAa?$AAr?$AA?9?$AAs?$AAy?$AA?$AA@ 2005a8e8     LIBCMT:winapinls.obj
 0002:0000a8f4       ??_C@_1M@OMFIPEDC@?$AAa?$AAr?$AA?9?$AAt?$AAn?$AA?$AA@ 2005a8f4     LIBCMT:winapinls.obj
 0002:0000a900       ??_C@_1M@IHMHGAON@?$AAa?$AAr?$AA?9?$AAy?$AAe?$AA?$AA@ 2005a900     LIBCMT:winapinls.obj
 0002:0000a90c       ??_C@_1BG@KDCPGJGB@?$AAa?$AAz?$AA?9?$AAa?$AAz?$AA?9?$AAc?$AAy?$AAr?$AAl?$AA?$AA@ 2005a90c     LIBCMT:winapinls.obj
 0002:0000a924       ??_C@_1BG@IBCKDDOE@?$AAa?$AAz?$AA?9?$AAa?$AAz?$AA?9?$AAl?$AAa?$AAt?$AAn?$AA?$AA@ 2005a924     LIBCMT:winapinls.obj
 0002:0000a93c       ??_C@_1M@EGPFDCPD@?$AAb?$AAe?$AA?9?$AAb?$AAy?$AA?$AA@ 2005a93c     LIBCMT:winapinls.obj
 0002:0000a948       ??_C@_1M@PCMGMCGC@?$AAb?$AAg?$AA?9?$AAb?$AAg?$AA?$AA@ 2005a948     LIBCMT:winapinls.obj
 0002:0000a954       ??_C@_1M@BJBMFGOB@?$AAb?$AAn?$AA?9?$AAi?$AAn?$AA?$AA@ 2005a954     LIBCMT:winapinls.obj
 0002:0000a960       ??_C@_1BG@EAKMMACD@?$AAb?$AAs?$AA?9?$AAb?$AAa?$AA?9?$AAl?$AAa?$AAt?$AAn?$AA?$AA@ 2005a960     LIBCMT:winapinls.obj
 0002:0000a978       ??_C@_1M@KGADAODK@?$AAc?$AAa?$AA?9?$AAe?$AAs?$AA?$AA@ 2005a978     LIBCMT:winapinls.obj
 0002:0000a984       ??_C@_1M@COAJPDHI@?$AAc?$AAs?$AA?9?$AAc?$AAz?$AA?$AA@ 2005a984     LIBCMT:winapinls.obj
 0002:0000a990       ??_C@_1M@DHBHFONH@?$AAc?$AAy?$AA?9?$AAg?$AAb?$AA?$AA@ 2005a990     LIBCMT:winapinls.obj
 0002:0000a99c       ??_C@_1M@IMGKELGA@?$AAd?$AAa?$AA?9?$AAd?$AAk?$AA?$AA@ 2005a99c     LIBCMT:winapinls.obj
 0002:0000a9a8       ??_C@_1M@NNDGDNGA@?$AAd?$AAe?$AA?9?$AAa?$AAt?$AA?$AA@ 2005a9a8     LIBCMT:winapinls.obj
 0002:0000a9b4       ??_C@_1M@IKDBHEEM@?$AAd?$AAe?$AA?9?$AAc?$AAh?$AA?$AA@ 2005a9b4     LIBCMT:winapinls.obj
 0002:0000a9c0       ??_C@_1M@GFFOJMCJ@?$AAd?$AAe?$AA?9?$AAd?$AAe?$AA?$AA@ 2005a9c0     LIBCMT:winapinls.obj
 0002:0000a9cc       ??_C@_1M@MDNLKBPM@?$AAd?$AAe?$AA?9?$AAl?$AAi?$AA?$AA@ 2005a9cc     LIBCMT:winapinls.obj
 0002:0000a9d8       ??_C@_1M@NJBEEJNL@?$AAd?$AAe?$AA?9?$AAl?$AAu?$AA?$AA@ 2005a9d8     LIBCMT:winapinls.obj
 0002:0000a9e4       ??_C@_1O@GNNELBAP@?$AAd?$AAi?$AAv?$AA?9?$AAm?$AAv?$AA?$AA@ 2005a9e4     LIBCMT:winapinls.obj
 0002:0000a9f4       ??_C@_1M@EJLEOGAE@?$AAe?$AAl?$AA?9?$AAg?$AAr?$AA?$AA@ 2005a9f4     LIBCMT:winapinls.obj
 0002:0000aa00       ??_C@_1M@GMPONJN@?$AAe?$AAn?$AA?9?$AAa?$AAu?$AA?$AA@ 2005aa00     LIBCMT:winapinls.obj
 0002:0000aa0c       ??_C@_1M@NIDIIPGF@?$AAe?$AAn?$AA?9?$AAb?$AAz?$AA?$AA@ 2005aa0c     LIBCMT:winapinls.obj
 0002:0000aa18       ??_C@_1M@JEHMIMFO@?$AAe?$AAn?$AA?9?$AAc?$AAa?$AA?$AA@ 2005aa18     LIBCMT:winapinls.obj
 0002:0000aa24       ??_C@_1M@IGMJCDLA@?$AAe?$AAn?$AA?9?$AAc?$AAb?$AA?$AA@ 2005aa24     LIBCMT:winapinls.obj
 0002:0000aa30       ??_C@_1M@BNFIGBKG@?$AAe?$AAn?$AA?9?$AAg?$AAb?$AA?$AA@ 2005aa30     LIBCMT:winapinls.obj
 0002:0000aa3c       ??_C@_1M@LKIFDIGP@?$AAe?$AAn?$AA?9?$AAi?$AAe?$AA?$AA@ 2005aa3c     LIBCMT:winapinls.obj
 0002:0000aa48       ??_C@_1M@PJKFGCCO@?$AAe?$AAn?$AA?9?$AAj?$AAm?$AA?$AA@ 2005aa48     LIBCMT:winapinls.obj
 0002:0000aa54       ??_C@_1M@KPPKEPBO@?$AAe?$AAn?$AA?9?$AAn?$AAz?$AA?$AA@ 2005aa54     LIBCMT:winapinls.obj
 0002:0000aa60       ??_C@_1M@GMDGLDOB@?$AAe?$AAn?$AA?9?$AAp?$AAh?$AA?$AA@ 2005aa60     LIBCMT:winapinls.obj
 0002:0000aa6c       ??_C@_1M@ONGIBJNA@?$AAe?$AAn?$AA?9?$AAt?$AAt?$AA?$AA@ 2005aa6c     LIBCMT:winapinls.obj
 0002:0000aa78       ??_C@_1M@LLODPCMM@?$AAe?$AAn?$AA?9?$AAu?$AAs?$AA?$AA@ 2005aa78     LIBCMT:winapinls.obj
 0002:0000aa84       ??_C@_1M@LAKFNPAN@?$AAe?$AAn?$AA?9?$AAz?$AAa?$AA?$AA@ 2005aa84     LIBCMT:winapinls.obj
 0002:0000aa90       ??_C@_1M@MFNHNHEO@?$AAe?$AAn?$AA?9?$AAz?$AAw?$AA?$AA@ 2005aa90     LIBCMT:winapinls.obj
 0002:0000aa9c       ??_C@_1M@EJEINPHM@?$AAe?$AAs?$AA?9?$AAa?$AAr?$AA?$AA@ 2005aa9c     LIBCMT:winapinls.obj
 0002:0000aaa8       ??_C@_1M@GNKPCCJA@?$AAe?$AAs?$AA?9?$AAb?$AAo?$AA?$AA@ 2005aaa8     LIBCMT:winapinls.obj
 0002:0000aab4       ??_C@_1M@LEEGFONL@?$AAe?$AAs?$AA?9?$AAc?$AAl?$AA?$AA@ 2005aab4     LIBCMT:winapinls.obj
 0002:0000aac0       ??_C@_1M@KGPDPBDF@?$AAe?$AAs?$AA?9?$AAc?$AAo?$AA?$AA@ 2005aac0     LIBCMT:winapinls.obj
 0002:0000aacc       ??_C@_1M@EIAHOHH@?$AAe?$AAs?$AA?9?$AAc?$AAr?$AA?$AA@ 2005aacc     LIBCMT:winapinls.obj
 0002:0000aad8       ??_C@_1M@LLPGMBIN@?$AAe?$AAs?$AA?9?$AAd?$AAo?$AA?$AA@ 2005aad8     LIBCMT:winapinls.obj
 0002:0000aae4       ??_C@_1M@DKHMKNJA@?$AAe?$AAs?$AA?9?$AAe?$AAc?$AA?$AA@ 2005aae4     LIBCMT:winapinls.obj
 0002:0000aaf0       ??_C@_1M@GKGFPKAP@?$AAe?$AAs?$AA?9?$AAe?$AAs?$AA?$AA@ 2005aaf0     LIBCMT:winapinls.obj
 0002:0000aafc       ??_C@_1M@LKHKGDLN@?$AAe?$AAs?$AA?9?$AAg?$AAt?$AA?$AA@ 2005aafc     LIBCMT:winapinls.obj
 0002:0000ab08       ??_C@_1M@HEIIGGJD@?$AAe?$AAs?$AA?9?$AAh?$AAn?$AA?$AA@ 2005ab08     LIBCMT:winapinls.obj
 0002:0000ab14       ??_C@_1M@FBDHPPGD@?$AAe?$AAs?$AA?9?$AAm?$AAx?$AA?$AA@ 2005ab14     LIBCMT:winapinls.obj
 0002:0000ab20       ??_C@_1M@DPAGLNDH@?$AAe?$AAs?$AA?9?$AAn?$AAi?$AA?$AA@ 2005ab20     LIBCMT:winapinls.obj
 0002:0000ab2c       ??_C@_1M@MDGOPGDD@?$AAe?$AAs?$AA?9?$AAp?$AAa?$AA?$AA@ 2005ab2c     LIBCMT:winapinls.obj
 0002:0000ab38       ??_C@_1M@EMAMGBGE@?$AAe?$AAs?$AA?9?$AAp?$AAe?$AA?$AA@ 2005ab38     LIBCMT:winapinls.obj
 0002:0000ab44       ??_C@_1M@IBMCAOEC@?$AAe?$AAs?$AA?9?$AAp?$AAr?$AA?$AA@ 2005ab44     LIBCMT:winapinls.obj
 0002:0000ab50       ??_C@_1M@FGMDIJED@?$AAe?$AAs?$AA?9?$AAp?$AAy?$AA?$AA@ 2005ab50     LIBCMT:winapinls.obj
 0002:0000ab5c       ??_C@_1M@IIDEOLLL@?$AAe?$AAs?$AA?9?$AAs?$AAv?$AA?$AA@ 2005ab5c     LIBCMT:winapinls.obj
 0002:0000ab68       ??_C@_1M@GAOBIPA@?$AAe?$AAs?$AA?9?$AAu?$AAy?$AA?$AA@ 2005ab68     LIBCMT:winapinls.obj
 0002:0000ab74       ??_C@_1M@JKFFICHJ@?$AAe?$AAs?$AA?9?$AAv?$AAe?$AA?$AA@ 2005ab74     LIBCMT:winapinls.obj
 0002:0000ab80       ??_C@_1M@PNMLOJDF@?$AAe?$AAt?$AA?9?$AAe?$AAe?$AA?$AA@ 2005ab80     LIBCMT:winapinls.obj
 0002:0000ab8c       ??_C@_1M@GHHLIKEI@?$AAe?$AAu?$AA?9?$AAe?$AAs?$AA?$AA@ 2005ab8c     LIBCMT:winapinls.obj
 0002:0000ab98       ??_C@_1M@PBNONODE@?$AAf?$AAa?$AA?9?$AAi?$AAr?$AA?$AA@ 2005ab98     LIBCMT:winapinls.obj
 0002:0000aba4       ??_C@_1M@JEEHPMIL@?$AAf?$AAi?$AA?9?$AAf?$AAi?$AA?$AA@ 2005aba4     LIBCMT:winapinls.obj
 0002:0000abb0       ??_C@_1M@LMDCNDBA@?$AAf?$AAo?$AA?9?$AAf?$AAo?$AA?$AA@ 2005abb0     LIBCMT:winapinls.obj
 0002:0000abbc       ??_C@_1M@JKEOHLDK@?$AAf?$AAr?$AA?9?$AAb?$AAe?$AA?$AA@ 2005abbc     LIBCMT:winapinls.obj
 0002:0000abc8       ??_C@_1M@NOHADPMI@?$AAf?$AAr?$AA?9?$AAc?$AAa?$AA?$AA@ 2005abc8     LIBCMT:winapinls.obj
 0002:0000abd4       ??_C@_1M@KDHIHAEC@?$AAf?$AAr?$AA?9?$AAc?$AAh?$AA?$AA@ 2005abd4     LIBCMT:winapinls.obj
 0002:0000abe0       ??_C@_1M@MMBBFGAK@?$AAf?$AAr?$AA?9?$AAf?$AAr?$AA?$AA@ 2005abe0     LIBCMT:winapinls.obj
 0002:0000abec       ??_C@_1M@PAFNENNF@?$AAf?$AAr?$AA?9?$AAl?$AAu?$AA?$AA@ 2005abec     LIBCMT:winapinls.obj
 0002:0000abf8       ??_C@_1M@EOHDJGDD@?$AAf?$AAr?$AA?9?$AAm?$AAc?$AA?$AA@ 2005abf8     LIBCMT:winapinls.obj
 0002:0000ac04       ??_C@_1M@FAPLLOPF@?$AAg?$AAl?$AA?9?$AAe?$AAs?$AA?$AA@ 2005ac04     LIBCMT:winapinls.obj
 0002:0000ac10       ??_C@_1M@FOPBFLOO@?$AAg?$AAu?$AA?9?$AAi?$AAn?$AA?$AA@ 2005ac10     LIBCMT:winapinls.obj
 0002:0000ac1c       ??_C@_1M@KBMCINPM@?$AAh?$AAe?$AA?9?$AAi?$AAl?$AA?$AA@ 2005ac1c     LIBCMT:winapinls.obj
 0002:0000ac28       ??_C@_1M@BBPHKFPJ@?$AAh?$AAi?$AA?9?$AAi?$AAn?$AA?$AA@ 2005ac28     LIBCMT:winapinls.obj
 0002:0000ac34       ??_C@_1M@PMBNDPHD@?$AAh?$AAr?$AA?9?$AAb?$AAa?$AA?$AA@ 2005ac34     LIBCMT:winapinls.obj
 0002:0000ac40       ??_C@_1M@BPCKOEGE@?$AAh?$AAr?$AA?9?$AAh?$AAr?$AA?$AA@ 2005ac40     LIBCMT:winapinls.obj
 0002:0000ac4c       ??_C@_1M@GACBMHKE@?$AAh?$AAu?$AA?9?$AAh?$AAu?$AA?$AA@ 2005ac4c     LIBCMT:winapinls.obj
 0002:0000ac58       ??_C@_1M@MILPAJJC@?$AAh?$AAy?$AA?9?$AAa?$AAm?$AA?$AA@ 2005ac58     LIBCMT:winapinls.obj
 0002:0000ac64       ??_C@_1M@BABBICEC@?$AAi?$AAd?$AA?9?$AAi?$AAd?$AA?$AA@ 2005ac64     LIBCMT:winapinls.obj
 0002:0000ac70       ??_C@_1M@BIKNHHPF@?$AAi?$AAs?$AA?9?$AAi?$AAs?$AA?$AA@ 2005ac70     LIBCMT:winapinls.obj
 0002:0000ac7c       ??_C@_1M@NMPCJPHE@?$AAi?$AAt?$AA?9?$AAc?$AAh?$AA?$AA@ 2005ac7c     LIBCMT:winapinls.obj
 0002:0000ac88       ??_C@_1M@GHKGFEDF@?$AAi?$AAt?$AA?9?$AAi?$AAt?$AA?$AA@ 2005ac88     LIBCMT:winapinls.obj
 0002:0000ac94       ??_C@_1M@NIEJCJJA@?$AAj?$AAa?$AA?9?$AAj?$AAp?$AA?$AA@ 2005ac94     LIBCMT:winapinls.obj
 0002:0000aca0       ??_C@_1M@JILFNBIM@?$AAk?$AAa?$AA?9?$AAg?$AAe?$AA?$AA@ 2005aca0     LIBCMT:winapinls.obj
 0002:0000acac       ??_C@_1M@PACPMGPH@?$AAk?$AAk?$AA?9?$AAk?$AAz?$AA?$AA@ 2005acac     LIBCMT:winapinls.obj
 0002:0000acb8       ??_C@_1M@IELFGMHA@?$AAk?$AAn?$AA?9?$AAi?$AAn?$AA?$AA@ 2005acb8     LIBCMT:winapinls.obj
 0002:0000acc4       ??_C@_1O@IBBJHCH@?$AAk?$AAo?$AAk?$AA?9?$AAi?$AAn?$AA?$AA@ 2005acc4     LIBCMT:winapinls.obj
 0002:0000acd4       ??_C@_1M@DMHAEOGC@?$AAk?$AAo?$AA?9?$AAk?$AAr?$AA?$AA@ 2005acd4     LIBCMT:winapinls.obj
 0002:0000ace0       ??_C@_1M@HBAHBIGA@?$AAk?$AAy?$AA?9?$AAk?$AAg?$AA?$AA@ 2005ace0     LIBCMT:winapinls.obj
 0002:0000acec       ??_C@_1M@KPMILCJG@?$AAl?$AAt?$AA?9?$AAl?$AAt?$AA?$AA@ 2005acec     LIBCMT:winapinls.obj
 0002:0000acf8       ??_C@_1M@BDEKKCA@?$AAl?$AAv?$AA?9?$AAl?$AAv?$AA?$AA@ 2005acf8     LIBCMT:winapinls.obj
 0002:0000ad04       ??_C@_1M@ELCKCCJJ@?$AAm?$AAi?$AA?9?$AAn?$AAz?$AA?$AA@ 2005ad04     LIBCMT:winapinls.obj
 0002:0000ad10       ??_C@_1M@CBOOLAPA@?$AAm?$AAk?$AA?9?$AAm?$AAk?$AA?$AA@ 2005ad10     LIBCMT:winapinls.obj
 0002:0000ad1c       ??_C@_1M@GPHNBJKN@?$AAm?$AAl?$AA?9?$AAi?$AAn?$AA?$AA@ 2005ad1c     LIBCMT:winapinls.obj
 0002:0000ad28       ??_C@_1M@PABJILIG@?$AAm?$AAn?$AA?9?$AAm?$AAn?$AA?$AA@ 2005ad28     LIBCMT:winapinls.obj
 0002:0000ad34       ??_C@_1M@FGBKKIPG@?$AAm?$AAr?$AA?9?$AAi?$AAn?$AA?$AA@ 2005ad34     LIBCMT:winapinls.obj
 0002:0000ad40       ??_C@_1M@NDBPDDAL@?$AAm?$AAs?$AA?9?$AAb?$AAn?$AA?$AA@ 2005ad40     LIBCMT:winapinls.obj
 0002:0000ad4c       ??_C@_1M@OPIHOOPI@?$AAm?$AAs?$AA?9?$AAm?$AAy?$AA?$AA@ 2005ad4c     LIBCMT:winapinls.obj
 0002:0000ad58       ??_C@_1M@PPDBCNFM@?$AAm?$AAt?$AA?9?$AAm?$AAt?$AA?$AA@ 2005ad58     LIBCMT:winapinls.obj
 0002:0000ad64       ??_C@_1M@KDJDKMDD@?$AAn?$AAb?$AA?9?$AAn?$AAo?$AA?$AA@ 2005ad64     LIBCMT:winapinls.obj
 0002:0000ad70       ??_C@_1M@KFCFLMJP@?$AAn?$AAl?$AA?9?$AAb?$AAe?$AA?$AA@ 2005ad70     LIBCMT:winapinls.obj
 0002:0000ad7c       ??_C@_1M@KPOPDDGO@?$AAn?$AAl?$AA?9?$AAn?$AAl?$AA?$AA@ 2005ad7c     LIBCMT:winapinls.obj
 0002:0000ad88       ??_C@_1M@LJKPEMLN@?$AAn?$AAn?$AA?9?$AAn?$AAo?$AA?$AA@ 2005ad88     LIBCMT:winapinls.obj
 0002:0000ad94       ??_C@_1M@BDGHHBFL@?$AAn?$AAs?$AA?9?$AAz?$AAa?$AA?$AA@ 2005ad94     LIBCMT:winapinls.obj
 0002:0000ada0       ??_C@_1M@IDEHOAP@?$AAp?$AAa?$AA?9?$AAi?$AAn?$AA?$AA@ 2005ada0     LIBCMT:winapinls.obj
 0002:0000adac       ??_C@_1M@HDBKGOGH@?$AAp?$AAl?$AA?9?$AAp?$AAl?$AA?$AA@ 2005adac     LIBCMT:winapinls.obj
 0002:0000adb8       ??_C@_1M@LJLLCMEH@?$AAp?$AAt?$AA?9?$AAb?$AAr?$AA?$AA@ 2005adb8     LIBCMT:winapinls.obj
 0002:0000adc4       ??_C@_1M@NCMONAAL@?$AAp?$AAt?$AA?9?$AAp?$AAt?$AA?$AA@ 2005adc4     LIBCMT:winapinls.obj
 0002:0000add0       ??_C@_1O@EAKMAJDN@?$AAq?$AAu?$AAz?$AA?9?$AAb?$AAo?$AA?$AA@ 2005add0     LIBCMT:winapinls.obj
 0002:0000ade0       ??_C@_1O@BHHPIGDN@?$AAq?$AAu?$AAz?$AA?9?$AAe?$AAc?$AA?$AA@ 2005ade0     LIBCMT:winapinls.obj
 0002:0000adf0       ??_C@_1O@GBAPEKMJ@?$AAq?$AAu?$AAz?$AA?9?$AAp?$AAe?$AA?$AA@ 2005adf0     LIBCMT:winapinls.obj
 0002:0000ae00       ??_C@_1M@CLGLEFBO@?$AAr?$AAo?$AA?9?$AAr?$AAo?$AA?$AA@ 2005ae00     LIBCMT:winapinls.obj
 0002:0000ae0c       ??_C@_1M@CEEDODME@?$AAr?$AAu?$AA?9?$AAr?$AAu?$AA?$AA@ 2005ae0c     LIBCMT:winapinls.obj
 0002:0000ae18       ??_C@_1M@HPKKKMPP@?$AAs?$AAa?$AA?9?$AAi?$AAn?$AA?$AA@ 2005ae18     LIBCMT:winapinls.obj
 0002:0000ae24       ??_C@_1M@BKMAIGOJ@?$AAs?$AAe?$AA?9?$AAf?$AAi?$AA?$AA@ 2005ae24     LIBCMT:winapinls.obj
 0002:0000ae30       ??_C@_1M@NDPIFLFI@?$AAs?$AAe?$AA?9?$AAn?$AAo?$AA?$AA@ 2005ae30     LIBCMT:winapinls.obj
 0002:0000ae3c       ??_C@_1M@DANKKHJ@?$AAs?$AAe?$AA?9?$AAs?$AAe?$AA?$AA@ 2005ae3c     LIBCMT:winapinls.obj
 0002:0000ae48       ??_C@_1M@PNBLONPJ@?$AAs?$AAk?$AA?9?$AAs?$AAk?$AA?$AA@ 2005ae48     LIBCMT:winapinls.obj
 0002:0000ae54       ??_C@_1M@LFMODOAL@?$AAs?$AAl?$AA?9?$AAs?$AAi?$AA?$AA@ 2005ae54     LIBCMT:winapinls.obj
 0002:0000ae60       ??_C@_1O@DFKOMPG@?$AAs?$AAm?$AAa?$AA?9?$AAn?$AAo?$AA?$AA@ 2005ae60     LIBCMT:winapinls.obj
 0002:0000ae70       ??_C@_1O@NDKPBNNH@?$AAs?$AAm?$AAa?$AA?9?$AAs?$AAe?$AA?$AA@ 2005ae70     LIBCMT:winapinls.obj
 0002:0000ae80       ??_C@_1O@PLLKBHAB@?$AAs?$AAm?$AAj?$AA?9?$AAn?$AAo?$AA?$AA@ 2005ae80     LIBCMT:winapinls.obj
 0002:0000ae90       ??_C@_1O@CLEPOGCA@?$AAs?$AAm?$AAj?$AA?9?$AAs?$AAe?$AA?$AA@ 2005ae90     LIBCMT:winapinls.obj
 0002:0000aea0       ??_C@_1O@DLGJGKMK@?$AAs?$AAm?$AAn?$AA?9?$AAf?$AAi?$AA?$AA@ 2005aea0     LIBCMT:winapinls.obj
 0002:0000aeb0       ??_C@_1O@OJDJGAJC@?$AAs?$AAm?$AAs?$AA?9?$AAf?$AAi?$AA?$AA@ 2005aeb0     LIBCMT:winapinls.obj
 0002:0000aec0       ??_C@_1M@BOFOGHPB@?$AAs?$AAq?$AA?9?$AAa?$AAl?$AA?$AA@ 2005aec0     LIBCMT:winapinls.obj
 0002:0000aecc       ??_C@_1BG@LJBBIPGB@?$AAs?$AAr?$AA?9?$AAb?$AAa?$AA?9?$AAc?$AAy?$AAr?$AAl?$AA?$AA@ 2005aecc     LIBCMT:winapinls.obj
 0002:0000aee4       ??_C@_1BG@JLBENFOE@?$AAs?$AAr?$AA?9?$AAb?$AAa?$AA?9?$AAl?$AAa?$AAt?$AAn?$AA?$AA@ 2005aee4     LIBCMT:winapinls.obj
 0002:0000aefc       ??_C@_1BG@KODPNHE@?$AAs?$AAr?$AA?9?$AAs?$AAp?$AA?9?$AAc?$AAy?$AAr?$AAl?$AA?$AA@ 2005aefc     LIBCMT:winapinls.obj
 0002:0000af14       ??_C@_1BG@CIOGKHPB@?$AAs?$AAr?$AA?9?$AAs?$AAp?$AA?9?$AAl?$AAa?$AAt?$AAn?$AA?$AA@ 2005af14     LIBCMT:winapinls.obj
 0002:0000af2c       ??_C@_1M@NGFJLMAC@?$AAs?$AAv?$AA?9?$AAf?$AAi?$AA?$AA@ 2005af2c     LIBCMT:winapinls.obj
 0002:0000af38       ??_C@_1M@MPJEJAJC@?$AAs?$AAv?$AA?9?$AAs?$AAe?$AA?$AA@ 2005af38     LIBCMT:winapinls.obj
 0002:0000af44       ??_C@_1M@MPNDHLFK@?$AAs?$AAw?$AA?9?$AAk?$AAe?$AA?$AA@ 2005af44     LIBCMT:winapinls.obj
 0002:0000af50       ??_C@_1O@KOHBJJI@?$AAs?$AAy?$AAr?$AA?9?$AAs?$AAy?$AA?$AA@ 2005af50     LIBCMT:winapinls.obj
 0002:0000af60       ??_C@_1M@LDCEFHA@?$AAt?$AAa?$AA?9?$AAi?$AAn?$AA?$AA@ 2005af60     LIBCMT:winapinls.obj
 0002:0000af6c       ??_C@_1M@CNJOFAK@?$AAt?$AAe?$AA?9?$AAi?$AAn?$AA?$AA@ 2005af6c     LIBCMT:winapinls.obj
 0002:0000af78       ??_C@_1M@GNAECACD@?$AAt?$AAh?$AA?9?$AAt?$AAh?$AA?$AA@ 2005af78     LIBCMT:winapinls.obj
 0002:0000af84       ??_C@_1M@CHBIHOJO@?$AAt?$AAn?$AA?9?$AAz?$AAa?$AA?$AA@ 2005af84     LIBCMT:winapinls.obj
 0002:0000af90       ??_C@_1M@GCCMIGPJ@?$AAt?$AAr?$AA?9?$AAt?$AAr?$AA?$AA@ 2005af90     LIBCMT:winapinls.obj
 0002:0000af9c       ??_C@_1M@CELMCNBK@?$AAt?$AAt?$AA?9?$AAr?$AAu?$AA?$AA@ 2005af9c     LIBCMT:winapinls.obj
 0002:0000afa8       ??_C@_1M@KLMCELGA@?$AAu?$AAk?$AA?9?$AAu?$AAa?$AA?$AA@ 2005afa8     LIBCMT:winapinls.obj
 0002:0000afb4       ??_C@_1M@EPAJJAJF@?$AAu?$AAr?$AA?9?$AAp?$AAk?$AA?$AA@ 2005afb4     LIBCMT:winapinls.obj
 0002:0000afc0       ??_C@_1BG@GEGPMCDJ@?$AAu?$AAz?$AA?9?$AAu?$AAz?$AA?9?$AAc?$AAy?$AAr?$AAl?$AA?$AA@ 2005afc0     LIBCMT:winapinls.obj
 0002:0000afd8       ??_C@_1BG@EGGKJILM@?$AAu?$AAz?$AA?9?$AAu?$AAz?$AA?9?$AAl?$AAa?$AAt?$AAn?$AA?$AA@ 2005afd8     LIBCMT:winapinls.obj
 0002:0000aff0       ??_C@_1M@GFOCLFF@?$AAv?$AAi?$AA?9?$AAv?$AAn?$AA?$AA@ 2005aff0     LIBCMT:winapinls.obj
 0002:0000affc       ??_C@_1M@CPAMEDFI@?$AAx?$AAh?$AA?9?$AAz?$AAa?$AA?$AA@ 2005affc     LIBCMT:winapinls.obj
 0002:0000b008       ??_C@_1O@EBKIFIGN@?$AAz?$AAh?$AA?9?$AAc?$AAh?$AAs?$AA?$AA@ 2005b008     LIBCMT:winapinls.obj
 0002:0000b018       ??_C@_1O@NMHPGANE@?$AAz?$AAh?$AA?9?$AAc?$AAh?$AAt?$AA?$AA@ 2005b018     LIBCMT:winapinls.obj
 0002:0000b028       ??_C@_1M@LPINJOMC@?$AAz?$AAh?$AA?9?$AAc?$AAn?$AA?$AA@ 2005b028     LIBCMT:winapinls.obj
 0002:0000b034       ??_C@_1M@OCJEJODD@?$AAz?$AAh?$AA?9?$AAh?$AAk?$AA?$AA@ 2005b034     LIBCMT:winapinls.obj
 0002:0000b040       ??_C@_1M@DNDLJINH@?$AAz?$AAh?$AA?9?$AAm?$AAo?$AA?$AA@ 2005b040     LIBCMT:winapinls.obj
 0002:0000b04c       ??_C@_1M@MBFDNDND@?$AAz?$AAh?$AA?9?$AAs?$AAg?$AA?$AA@ 2005b04c     LIBCMT:winapinls.obj
 0002:0000b058       ??_C@_1M@IMEPLEPE@?$AAz?$AAh?$AA?9?$AAt?$AAw?$AA?$AA@ 2005b058     LIBCMT:winapinls.obj
 0002:0000b064       ??_C@_1M@BBGHNHJP@?$AAz?$AAu?$AA?9?$AAz?$AAa?$AA?$AA@ 2005b064     LIBCMT:winapinls.obj
 0002:0000b070       ___rg_language_count       2005b070     LIBCMT:getqloc.obj
 0002:0000b074       ___rg_country_count        2005b074     LIBCMT:getqloc.obj
 0002:0000b078       ___lookuptable_s           2005b078     LIBCMT:outputs.obj
 0002:0000c230       ??_C@_04COOMCNPB@sinh?$AA@ 2005c230     LIBCMT:fpexcept.obj
 0002:0000c238       ??_C@_04HPJJNFIM@cosh?$AA@ 2005c238     LIBCMT:fpexcept.obj
 0002:0000c240       ??_C@_04FJHINJAO@tanh?$AA@ 2005c240     LIBCMT:fpexcept.obj
 0002:0000c248       ??_C@_05KNGEOGJB@atan2?$AA@ 2005c248     LIBCMT:fpexcept.obj
 0002:0000c250       ??_C@_04ODHECPBC@fabs?$AA@ 2005c250     LIBCMT:fpexcept.obj
 0002:0000c258       ??_C@_05CEJMAHNP@ldexp?$AA@ 2005c258     LIBCMT:fpexcept.obj
 0002:0000c260       ??_C@_05KBKMEMPO@_cabs?$AA@ 2005c260     LIBCMT:fpexcept.obj
 0002:0000c268       ??_C@_06MEIMCGCF@_hypot?$AA@ 2005c268     LIBCMT:fpexcept.obj
 0002:0000c270       ??_C@_04KEPJIHGP@fmod?$AA@ 2005c270     LIBCMT:fpexcept.obj
 0002:0000c278       ??_C@_05GKKHEGJL@frexp?$AA@ 2005c278     LIBCMT:fpexcept.obj
 0002:0000c280       ??_C@_03MJLDFKDL@_y0?$AA@  2005c280     LIBCMT:fpexcept.obj
 0002:0000c284       ??_C@_03NAKIGLHK@_y1?$AA@  2005c284     LIBCMT:fpexcept.obj
 0002:0000c288       ??_C@_03ONILCKOB@_yn?$AA@  2005c288     LIBCMT:fpexcept.obj
 0002:0000c28c       ??_C@_05JGDBENOH@_logb?$AA@ 2005c28c     LIBCMT:fpexcept.obj
 0002:0000c294       ??_C@_0L@KDOEJCKC@_nextafter?$AA@ 2005c294     LIBCMT:fpexcept.obj
 0002:0000c2a0       ??_C@_1FE@LLNEDJMD@?$AAR?$AA6?$AA0?$AA0?$AA8?$AA?$AN?$AA?6?$AA?9?$AA?5?$AAn?$AAo?$AAt?$AA?5?$AAe?$AAn?$AAo?$AAu?$AAg?$AAh?$AA?5?$AAs?$AAp?$AAa?$AAc?$AAe?$AA?5?$AAf?$AAo?$AAr?$AA?5?$AAa?$AAr@ 2005c2a0     LIBCMT:crt0msg.obj
 0002:0000c2f8       ??_C@_1FI@HONFMGBI@?$AAR?$AA6?$AA0?$AA0?$AA9?$AA?$AN?$AA?6?$AA?9?$AA?5?$AAn?$AAo?$AAt?$AA?5?$AAe?$AAn?$AAo?$AAu?$AAg?$AAh?$AA?5?$AAs?$AAp?$AAa?$AAc?$AAe?$AA?5?$AAf?$AAo?$AAr?$AA?5?$AAe?$AAn@ 2005c2f8     LIBCMT:crt0msg.obj
 0002:0000c350       ??_C@_1EG@BEHAGFJD@?$AAR?$AA6?$AA0?$AA1?$AA0?$AA?$AN?$AA?6?$AA?9?$AA?5?$AAa?$AAb?$AAo?$AAr?$AAt?$AA?$CI?$AA?$CJ?$AA?5?$AAh?$AAa?$AAs?$AA?5?$AAb?$AAe?$AAe?$AAn?$AA?5?$AAc?$AAa?$AAl?$AAl?$AAe?$AAd@ 2005c350     LIBCMT:crt0msg.obj
 0002:0000c398       ??_C@_1FI@LOGNIKDM@?$AAR?$AA6?$AA0?$AA1?$AA6?$AA?$AN?$AA?6?$AA?9?$AA?5?$AAn?$AAo?$AAt?$AA?5?$AAe?$AAn?$AAo?$AAu?$AAg?$AAh?$AA?5?$AAs?$AAp?$AAa?$AAc?$AAe?$AA?5?$AAf?$AAo?$AAr?$AA?5?$AAt?$AAh@ 2005c398     LIBCMT:crt0msg.obj
 0002:0000c3f0       ??_C@_1FK@BEOGODMC@?$AAR?$AA6?$AA0?$AA1?$AA7?$AA?$AN?$AA?6?$AA?9?$AA?5?$AAu?$AAn?$AAe?$AAx?$AAp?$AAe?$AAc?$AAt?$AAe?$AAd?$AA?5?$AAm?$AAu?$AAl?$AAt?$AAi?$AAt?$AAh?$AAr?$AAe?$AAa?$AAd?$AA?5@ 2005c3f0     LIBCMT:crt0msg.obj
 0002:0000c450       ??_C@_1EC@JIBHAOPH@?$AAR?$AA6?$AA0?$AA1?$AA8?$AA?$AN?$AA?6?$AA?9?$AA?5?$AAu?$AAn?$AAe?$AAx?$AAp?$AAe?$AAc?$AAt?$AAe?$AAd?$AA?5?$AAh?$AAe?$AAa?$AAp?$AA?5?$AAe?$AAr?$AAr?$AAo?$AAr?$AA?$AN?$AA?6@ 2005c450     LIBCMT:crt0msg.obj
 0002:0000c498       ??_C@_1FC@ECHBIFBC@?$AAR?$AA6?$AA0?$AA1?$AA9?$AA?$AN?$AA?6?$AA?9?$AA?5?$AAu?$AAn?$AAa?$AAb?$AAl?$AAe?$AA?5?$AAt?$AAo?$AA?5?$AAo?$AAp?$AAe?$AAn?$AA?5?$AAc?$AAo?$AAn?$AAs?$AAo?$AAl?$AAe?$AA?5@ 2005c498     LIBCMT:crt0msg.obj
 0002:0000c4f0       ??_C@_1GK@FHCKBEFA@?$AAR?$AA6?$AA0?$AA2?$AA4?$AA?$AN?$AA?6?$AA?9?$AA?5?$AAn?$AAo?$AAt?$AA?5?$AAe?$AAn?$AAo?$AAu?$AAg?$AAh?$AA?5?$AAs?$AAp?$AAa?$AAc?$AAe?$AA?5?$AAf?$AAo?$AAr?$AA?5?$AA_?$AAo@ 2005c4f0     LIBCMT:crt0msg.obj
 0002:0000c560       ??_C@_1EM@MAADIHMB@?$AAR?$AA6?$AA0?$AA2?$AA5?$AA?$AN?$AA?6?$AA?9?$AA?5?$AAp?$AAu?$AAr?$AAe?$AA?5?$AAv?$AAi?$AAr?$AAt?$AAu?$AAa?$AAl?$AA?5?$AAf?$AAu?$AAn?$AAc?$AAt?$AAi?$AAo?$AAn?$AA?5?$AAc@ 2005c560     LIBCMT:crt0msg.obj
 0002:0000c5b0       ??_C@_1GK@MCAAGJMO@?$AAR?$AA6?$AA0?$AA2?$AA6?$AA?$AN?$AA?6?$AA?9?$AA?5?$AAn?$AAo?$AAt?$AA?5?$AAe?$AAn?$AAo?$AAu?$AAg?$AAh?$AA?5?$AAs?$AAp?$AAa?$AAc?$AAe?$AA?5?$AAf?$AAo?$AAr?$AA?5?$AAs?$AAt@ 2005c5b0     LIBCMT:crt0msg.obj
 0002:0000c620       ??_C@_1GK@MFGOKLAG@?$AAR?$AA6?$AA0?$AA2?$AA7?$AA?$AN?$AA?6?$AA?9?$AA?5?$AAn?$AAo?$AAt?$AA?5?$AAe?$AAn?$AAo?$AAu?$AAg?$AAh?$AA?5?$AAs?$AAp?$AAa?$AAc?$AAe?$AA?5?$AAf?$AAo?$AAr?$AA?5?$AAl?$AAo@ 2005c620     LIBCMT:crt0msg.obj
 0002:0000c690       ??_C@_1EK@HHFLMAOL@?$AAR?$AA6?$AA0?$AA2?$AA8?$AA?$AN?$AA?6?$AA?9?$AA?5?$AAu?$AAn?$AAa?$AAb?$AAl?$AAe?$AA?5?$AAt?$AAo?$AA?5?$AAi?$AAn?$AAi?$AAt?$AAi?$AAa?$AAl?$AAi?$AAz?$AAe?$AA?5?$AAh?$AAe@ 2005c690     LIBCMT:crt0msg.obj
 0002:0000c6dc       ??_C@_1DO@BMFCDCD@?$AAR?$AA6?$AA0?$AA3?$AA0?$AA?$AN?$AA?6?$AA?9?$AA?5?$AAC?$AAR?$AAT?$AA?5?$AAn?$AAo?$AAt?$AA?5?$AAi?$AAn?$AAi?$AAt?$AAi?$AAa?$AAl?$AAi?$AAz?$AAe?$AAd?$AA?$AN?$AA?6?$AA?$AA@ 2005c6dc     LIBCMT:crt0msg.obj
 0002:0000c720       ??_C@_1MG@ENCOOIDF@?$AAR?$AA6?$AA0?$AA3?$AA1?$AA?$AN?$AA?6?$AA?9?$AA?5?$AAA?$AAt?$AAt?$AAe?$AAm?$AAp?$AAt?$AA?5?$AAt?$AAo?$AA?5?$AAi?$AAn?$AAi?$AAt?$AAi?$AAa?$AAl?$AAi?$AAz?$AAe?$AA?5?$AAt@ 2005c720     LIBCMT:crt0msg.obj
 0002:0000c7e8       ??_C@_1GG@GOPILAJP@?$AAR?$AA6?$AA0?$AA3?$AA2?$AA?$AN?$AA?6?$AA?9?$AA?5?$AAn?$AAo?$AAt?$AA?5?$AAe?$AAn?$AAo?$AAu?$AAg?$AAh?$AA?5?$AAs?$AAp?$AAa?$AAc?$AAe?$AA?5?$AAf?$AAo?$AAr?$AA?5?$AAl?$AAo@ 2005c7e8     LIBCMT:crt0msg.obj
 0002:0000c850       ??_C@_1BOO@KGEDBGAJ@?$AAR?$AA6?$AA0?$AA3?$AA3?$AA?$AN?$AA?6?$AA?9?$AA?5?$AAA?$AAt?$AAt?$AAe?$AAm?$AAp?$AAt?$AA?5?$AAt?$AAo?$AA?5?$AAu?$AAs?$AAe?$AA?5?$AAM?$AAS?$AAI?$AAL?$AA?5?$AAc?$AAo?$AAd@ 2005c850     LIBCMT:crt0msg.obj
 0002:0000ca40       ??_C@_1GG@MKFPEKFO@?$AAR?$AA6?$AA0?$AA3?$AA4?$AA?$AN?$AA?6?$AA?9?$AA?5?$AAi?$AAn?$AAc?$AAo?$AAn?$AAs?$AAi?$AAs?$AAt?$AAe?$AAn?$AAt?$AA?5?$AAo?$AAn?$AAe?$AAx?$AAi?$AAt?$AA?5?$AAb?$AAe?$AAg@ 2005ca40     LIBCMT:crt0msg.obj
 0002:0000caa8       ??_C@_1BO@BFCDCGC@?$AAD?$AAO?$AAM?$AAA?$AAI?$AAN?$AA?5?$AAe?$AAr?$AAr?$AAo?$AAr?$AA?$AN?$AA?6?$AA?$AA@ 2005caa8     LIBCMT:crt0msg.obj
 0002:0000cac8       ??_C@_1BK@KMOMNAAI@?$AAS?$AAI?$AAN?$AAG?$AA?5?$AAe?$AAr?$AAr?$AAo?$AAr?$AA?$AN?$AA?6?$AA?$AA@ 2005cac8     LIBCMT:crt0msg.obj
 0002:0000cae4       ??_C@_1BM@JBBEPPHI@?$AAT?$AAL?$AAO?$AAS?$AAS?$AA?5?$AAe?$AAr?$AAr?$AAo?$AAr?$AA?$AN?$AA?6?$AA?$AA@ 2005cae4     LIBCMT:crt0msg.obj
 0002:0000cb00       ??_C@_15JNBOKNOG@?$AA?$AN?$AA?6?$AA?$AA@ 2005cb00     LIBCMT:crt0msg.obj
 0002:0000cb08       ??_C@_1BO@BKOMIGKJ@?$AAr?$AAu?$AAn?$AAt?$AAi?$AAm?$AAe?$AA?5?$AAe?$AAr?$AAr?$AAo?$AAr?$AA?5?$AA?$AA@ 2005cb08     LIBCMT:crt0msg.obj
 0002:0000cbe0       ??_C@_1FK@PGACCAFB@?$AAR?$AA6?$AA0?$AA0?$AA2?$AA?$AN?$AA?6?$AA?9?$AA?5?$AAf?$AAl?$AAo?$AAa?$AAt?$AAi?$AAn?$AAg?$AA?5?$AAp?$AAo?$AAi?$AAn?$AAt?$AA?5?$AAs?$AAu?$AAp?$AAp?$AAo?$AAr?$AAt?$AA?5@ 2005cbe0     LIBCMT:crt0msg.obj
 0002:0000cc3c       ??_C@_1DE@JNGNBFGO@?$AAR?$AAu?$AAn?$AAt?$AAi?$AAm?$AAe?$AA?5?$AAE?$AAr?$AAr?$AAo?$AAr?$AA?$CB?$AA?6?$AA?6?$AAP?$AAr?$AAo?$AAg?$AAr?$AAa?$AAm?$AA?3?$AA?5?$AA?$AA@ 2005cc3c     LIBCMT:crt0msg.obj
 0002:0000cc70       ??_C@_1CO@EAEJAADC@?$AA?$DM?$AAp?$AAr?$AAo?$AAg?$AAr?$AAa?$AAm?$AA?5?$AAn?$AAa?$AAm?$AAe?$AA?5?$AAu?$AAn?$AAk?$AAn?$AAo?$AAw?$AAn?$AA?$DO?$AA?$AA@ 2005cc70     LIBCMT:crt0msg.obj
 0002:0000cca0       ??_C@_17LGKOMLJ@?$AA?4?$AA?4?$AA?4?$AA?$AA@ 2005cca0     LIBCMT:crt0msg.obj
 0002:0000cca8       ??_C@_15IABLJNFO@?$AA?6?$AA?6?$AA?$AA@ 2005cca8     LIBCMT:crt0msg.obj
 0002:0000ccb0       ??_C@_1EK@MBDPDCGA@?$AAM?$AAi?$AAc?$AAr?$AAo?$AAs?$AAo?$AAf?$AAt?$AA?5?$AAV?$AAi?$AAs?$AAu?$AAa?$AAl?$AA?5?$AAC?$AA?$CL?$AA?$CL?$AA?5?$AAR?$AAu?$AAn?$AAt?$AAi?$AAm?$AAe?$AA?5?$AAL?$AAi?$AAb@ 2005ccb0     LIBCMT:crt0msg.obj
 0002:0000ccfc       ??_C@_06PGGFOGJG@1?$CDSNAN?$AA@ 2005ccfc     LIBCMT:x10fout.obj
 0002:0000cd04       ??_C@_05PHHOCPM@1?$CDIND?$AA@ 2005cd04     LIBCMT:x10fout.obj
 0002:0000cd0c       ??_C@_05DNEBIAHO@1?$CDINF?$AA@ 2005cd0c     LIBCMT:x10fout.obj
 0002:0000cd14       ??_C@_06IMKFLFPG@1?$CDQNAN?$AA@ 2005cd14     LIBCMT:x10fout.obj
 0002:0000cd1c       ??_C@_1BG@GOEBHBDC@?$AAU?$AAS?$AAE?$AAR?$AA3?$AA2?$AA?4?$AAD?$AAL?$AAL?$AA?$AA@ 2005cd1c     LIBCMT:crtmboxw.obj
 0002:0000cd34       ??_C@_0M@DLDCCGNP@MessageBoxW?$AA@ 2005cd34     LIBCMT:crtmboxw.obj
 0002:0000cd40       ??_C@_0BA@HNOPNCHB@GetActiveWindow?$AA@ 2005cd40     LIBCMT:crtmboxw.obj
 0002:0000cd50       ??_C@_0BD@HHGDFDBJ@GetLastActivePopup?$AA@ 2005cd50     LIBCMT:crtmboxw.obj
 0002:0000cd64       ??_C@_0BK@DEKFELLI@GetUserObjectInformationW?$AA@ 2005cd64     LIBCMT:crtmboxw.obj
 0002:0000cd80       ??_C@_0BI@DFKBFLJE@GetProcessWindowStation?$AA@ 2005cd80     LIBCMT:crtmboxw.obj
 0002:0000cd98       ??_C@_1BA@BALFACEM@?$AAC?$AAO?$AAN?$AAO?$AAU?$AAT?$AA$?$AA?$AA@ 2005cd98     LIBCMT:initcon.obj
 0002:0000cda8       __load_config_used         2005cda8     LIBCMT:loadcfg.obj
 0002:0000cdf0       ___safe_se_handler_table   2005cdf0     <linker-defined>
 0002:0000cdfc       ___rtc_iaa                 2005cdfc     LIBCMT:initsect.obj
 0002:0000ce00       ___rtc_izz                 2005ce00     LIBCMT:initsect.obj
 0002:0000ce04       ___rtc_taa                 2005ce04     LIBCMT:initsect.obj
 0002:0000ce08       ___rtc_tzz                 2005ce08     LIBCMT:initsect.obj
 0002:0000d144       __IMPORT_DESCRIPTOR_KERNEL32 2005d144     kernel32:KERNEL32.dll
 0002:0000d158       __NULL_IMPORT_DESCRIPTOR   2005d158     kernel32:KERNEL32.dll
 0003:00000030       _voiceCommands             2005e030     ai_vcmd.obj
 0003:000000a8       _eventnames                2005e0a8     bg_misc.obj
 0003:000001d8       _bg_itemlist               2005e1d8     bg_misc.obj
 0003:00000c9c       _bg_numItems               2005ec9c     bg_misc.obj
 0003:00000ca0       _pm_stopspeed              2005eca0     bg_pmove.obj
 0003:00000ca4       _pm_duckScale              2005eca4     bg_pmove.obj
 0003:00000ca8       _pm_swimScale              2005eca8     bg_pmove.obj
 0003:00000cac       _pm_wadeScale              2005ecac     bg_pmove.obj
 0003:00000cb0       _pm_accelerate             2005ecb0     bg_pmove.obj
 0003:00000cb4       _pm_airaccelerate          2005ecb4     bg_pmove.obj
 0003:00000cb8       _pm_wateraccelerate        2005ecb8     bg_pmove.obj
 0003:00000cbc       _pm_flyaccelerate          2005ecbc     bg_pmove.obj
 0003:00000cc0       _pm_friction               2005ecc0     bg_pmove.obj
 0003:00000cc4       _pm_waterfriction          2005ecc4     bg_pmove.obj
 0003:00000cc8       _pm_flightfriction         2005ecc8     bg_pmove.obj
 0003:00000ccc       _pm_spectatorfriction      2005eccc     bg_pmove.obj
 0003:00000d58       _modNames                  2005ed58     g_combat.obj
 0003:00001418       _fields                    2005f418     g_spawn.obj
 0003:00001568       _spawns                    2005f568     g_spawn.obj
 0003:00001770       _bytedirs                  2005f770     q_math.obj
 0003:00001f08       _colorBlack                2005ff08     q_math.obj
 0003:00001f18       _colorRed                  2005ff18     q_math.obj
 0003:00001f28       _colorGreen                2005ff28     q_math.obj
 0003:00001f38       _colorBlue                 2005ff38     q_math.obj
 0003:00001f48       _colorYellow               2005ff48     q_math.obj
 0003:00001f58       _colorMagenta              2005ff58     q_math.obj
 0003:00001f68       _colorCyan                 2005ff68     q_math.obj
 0003:00001f78       _colorWhite                2005ff78     q_math.obj
 0003:00001f88       _colorLtGrey               2005ff88     q_math.obj
 0003:00001f98       _colorMdGrey               2005ff98     q_math.obj
 0003:00001fa8       _colorDkGrey               2005ffa8     q_math.obj
 0003:00001fb8       _g_color_table             2005ffb8     q_math.obj
 0003:00002038       _axisDefault               20060038     q_math.obj
 0003:00002060       ___security_cookie         20060060     LIBCMT:gs_cookie.obj
 0003:00002064       ___security_cookie_complement 20060064     LIBCMT:gs_cookie.obj
 0003:00002068       __fltused                  20060068     LIBCMT:fpinit.obj
 0003:0000206c       __ldused                   2006006c     LIBCMT:fpinit.obj
 0003:00002070       ___isa_enabled             20060070     LIBCMT:cpu_disp.obj
 0003:00002080       ___flsindex                20060080     LIBCMT:tidtable.obj
 0003:00002084       __cfltcvt_tab              20060084     LIBCMT:cmiscdat.obj
 0003:00002220       ___ptmbcinfo               20060220     LIBCMT:mbctype.obj
 0003:00002318       __mbctype                  20060318     LIBCMT:mbctype.obj
 0003:00002420       __mbcasemap                20060420     LIBCMT:mbctype.obj
 0003:00002520       ___initialmbcinfo          20060520     LIBCMT:mbctype.obj
 0003:00002740       ___wclocalestr             20060740     LIBCMT:nlsdata.obj
 0003:00002748       ___lc_time_c               20060748     LIBCMT:nlsdata.obj
 0003:000028ac       ___ptlocinfo               200608ac     LIBCMT:nlsdata.obj
 0003:000028b0       ___initiallocinfo          200608b0     LIBCMT:nlsdata.obj
 0003:00002968       ___initiallocalestructinfo 20060968     LIBCMT:nlsdata.obj
 0003:00002970       ___mb_cur_max              20060970     LIBCMT:nlsdata.obj
 0003:00002974       ___globallocalestatus      20060974     LIBCMT:glstatus.obj
 0003:0000298c       ___nullstring              2006098c     LIBCMT:output.obj
 0003:00002990       ___wnullstring             20060990     LIBCMT:output.obj
 0003:000029c0       ___badioinfo               200609c0     LIBCMT:ioinit.obj
 0003:00002b50       __pow10pos                 20060b50     LIBCMT:constpow.obj
 0003:00002cb0       __pow10neg                 20060cb0     LIBCMT:constpow.obj
 0003:00002e10       ___lconv                   20060e10     LIBCMT:lconv.obj
 0003:00002e14       ___lconv_static_decimal    20060e14     LIBCMT:lconv.obj
 0003:00002e18       ___lconv_c                 20060e18     LIBCMT:lconv.obj
 0003:00002e68       ___lconv_static_W_decimal  20060e68     LIBCMT:lconv.obj
 0003:00002e6c       __pctype                   20060e6c     LIBCMT:ctype.obj
 0003:00002e70       __pwctype                  20060e70     LIBCMT:ctype.obj
 0003:00002e74       __matherr_flag             20060e74     LIBCMT:matherr.obj
 0003:00002e80       __iob                      20060e80     LIBCMT:_file.obj
 0003:000031e8       __d_inf                    200611e8     LIBCMT:util.obj
 0003:000031f0       __d_ind                    200611f0     LIBCMT:util.obj
 0003:000031f8       __d_max                    200611f8     LIBCMT:util.obj
 0003:00003200       __d_min                    20061200     LIBCMT:util.obj
 0003:00003208       __d_mzero                  20061208     LIBCMT:util.obj
 0003:00003230       __lookuptrailbytes         20061230     LIBCMT:read.obj
 0003:00003330       ___abort_behavior          20061330     LIBCMT:abort.obj
 0003:00003340       __NLG_Destination          20061340     LIBCMT:exsup.obj
 0003:00003350       __confh                    20061350     LIBCMT:initcon.obj
 0003:00003484       _c_pmove                   20061484     bg_pmove.obj
 0003:00047928       _remapCount                200a5928     g_utils.obj
 0003:00048acc       _vec3_origin               200a6acc     q_math.obj
 0003:0005ed28       ___fastflag                200bcd28     LIBCMT:fpinit.obj
 0003:0005f050       ___isa_available           200bd050     LIBCMT:cpu_disp.obj
 0003:0005f054       ___favor                   200bd054     LIBCMT:cpu_disp.obj
 0003:0005f05c       __aenvptr                  200bd05c     LIBCMT:dllcrt0.obj
 0003:0005f060       __wenvptr                  200bd060     LIBCMT:dllcrt0.obj
 0003:0005f064       ___pInvalidArgHandler      200bd064     LIBCMT:invarg.obj
 0003:0005f068       ___mblocalename            200bd068     LIBCMT:mbctype.obj
 0003:0005f06c       ___mbcodepage              200bd06c     LIBCMT:mbctype.obj
 0003:0005f070       ___ismbcodepage            200bd070     LIBCMT:mbctype.obj
 0003:0005f074       ___mbulinfo                200bd074     LIBCMT:mbctype.obj
 0003:0005f088       ___locale_changed          200bd088     LIBCMT:wsetloca.obj
 0003:0005f08c       __umaskval                 200bd08c     LIBCMT:crt0dat.obj
 0003:0005f090       __exitflag                 200bd090     LIBCMT:crt0dat.obj
 0003:0005f094       __C_Termination_Done       200bd094     LIBCMT:crt0dat.obj
 0003:0005f098       ___winitenv                200bd098     LIBCMT:crt0dat.obj
 0003:0005f09c       ___initenv                 200bd09c     LIBCMT:crt0dat.obj
 0003:0005f0a0       __C_Exit_Done              200bd0a0     LIBCMT:crt0dat.obj
 0003:0005f0a4       ___argc                    200bd0a4     LIBCMT:crt0dat.obj
 0003:0005f0a8       ___argv                    200bd0a8     LIBCMT:crt0dat.obj
 0003:0005f0ac       ___wargv                   200bd0ac     LIBCMT:crt0dat.obj
 0003:0005f0b0       __environ                  200bd0b0     LIBCMT:crt0dat.obj
 0003:0005f0b4       __wenviron                 200bd0b4     LIBCMT:crt0dat.obj
 0003:0005f0b8       __pgmptr                   200bd0b8     LIBCMT:crt0dat.obj
 0003:0005f0bc       __wpgmptr                  200bd0bc     LIBCMT:crt0dat.obj
 0003:0005f0c0       __crtheap                  200bd0c0     LIBCMT:heapinit.obj
 0003:0005f0c8       ___pioinfo                 200bd0c8     LIBCMT:ioinit.obj
 0003:0005f2d0       __maxwait                  200bd2d0     LIBCMT:crtheap.obj
 0003:0005f428       __outputformat             200bd428     LIBCMT:outputformat.obj
 0003:0005f42c       ___lconv_static_null       200bd42c     LIBCMT:lconv.obj
 0003:0005f430       ___lconv_static_W_null     200bd430     LIBCMT:lconv.obj
 0003:0005f438       __cflush                   200bd438     LIBCMT:_file.obj
 0003:0005f440       ___app_type                200bd440     LIBCMT:crt0msg.obj
 0003:0005fa70       ?__pInconsistency@@3P6AXXZA 200bda70     LIBCMT:hooks.obj
 0003:0005fa74       ?_pnhHeap@@3P6AHI@ZA       200bda74     LIBCMT:handler.obj
 0003:0005fa78       ___pPurecall               200bda78     LIBCMT:inithelp.obj
 0003:0005fa94       __stdbuf                   200bda94     LIBCMT:_sftbuf.obj
 0003:0005fa9c       __newmode                  200bda9c     LIBCMT:_newmode.obj
 0003:0005faa0       ___error_mode              200bdaa0     LIBCMT:errmode.obj
 0003:0005fac0       _remappedShaders           200bdac0     <common>
 0003:00063cc0       _neutralObelisk            200c1cc0     <common>
 0003:00063ce0       _teamgame                  200c1ce0     <common>
 0003:00063d04       _pushed_p                  200c1d04     <common>
 0003:00063d20       _pushed                    200c1d20     <common>
 0003:0006bd20       _g_proxMineTimeout         200c9d20     <common>
 0003:0006be40       _g_singlePlayer            200c9e40     <common>
 0003:0006bf60       _g_enableBreath            200c9f60     <common>
 0003:0006c080       _g_listEntity              200ca080     <common>
 0003:0006c1a0       _g_enableDust              200ca1a0     <common>
 0003:0006c2c0       _g_rankings                200ca2c0     <common>
 0003:0006c3e0       _g_podiumDrop              200ca3e0     <common>
 0003:0006c500       _g_podiumDist              200ca500     <common>
 0003:0006c620       _pmove_msec                200ca620     <common>
 0003:0006c740       _pmove_fixed               200ca740     <common>
 0003:0006c860       _g_logSync                 200ca860     <common>
 0003:0006c980       _g_smoothClients           200ca980     <common>
 0003:0006caa0       _g_log                     200caaa0     <common>
 0003:0006cbc0       _g_blueteam                200cabc0     <common>
 0003:0006cce0       _g_clients                 200cace0     <common>
 0003:00079fe0       _g_redteam                 200d7fe0     <common>
 0003:0007a100       _g_cubeTimeout             200d8100     <common>
 0003:0007a220       _g_obeliskRespawnDelay     200d8220     <common>
 0003:0007a340       _g_obeliskRegenAmount      200d8340     <common>
 0003:0007a460       _g_obeliskRegenPeriod      200d8460     <common>
 0003:0007a580       _g_obeliskHealth           200d8580     <common>
 0003:0007a6a0       _g_filterBan               200d86a0     <common>
 0003:0007a7c0       _g_banIPs                  200d87c0     <common>
 0003:0007a8e0       _g_teamForceBalance        200d88e0     <common>
 0003:0007aa00       _g_teamAutoJoin            200d8a00     <common>
 0003:0007ab20       _g_allowVote               200d8b20     <common>
 0003:0007ac40       _g_blood                   200d8c40     <common>
 0003:0007ad60       _g_doWarmup                200d8d60     <common>
 0003:0007ae80       _g_warmup                  200d8e80     <common>
 0003:0007afa0       _g_motd                    200d8fa0     <common>
 0003:0007b0c0       _g_synchronousClients      200d90c0     <common>
 0003:0007b1e0       _g_weaponTeamRespawn       200d91e0     <common>
 0003:0007b300       _g_weaponRespawn           200d9300     <common>
 0003:0007b420       _g_debugDamage             200d9420     <common>
 0003:0007b540       _g_debugAlloc              200d9540     <common>
 0003:0007b660       _g_debugMove               200d9660     <common>
 0003:0007b780       _g_inactivity              200d9780     <common>
 0003:0007b8a0       _g_forcerespawn            200d98a0     <common>
 0003:0007b9c0       _g_quadfactor              200d99c0     <common>
 0003:0007bae0       _g_knockback               200d9ae0     <common>
 0003:0007bc00       _g_speed                   200d9c00     <common>
 0003:0007bd20       _g_gravity                 200d9d20     <common>
 0003:0007be40       _g_needpass                200d9e40     <common>
 0003:0007bf60       _g_password                200d9f60     <common>
 0003:0007c080       _g_friendlyFire            200da080     <common>
 0003:0007c1a0       _g_capturelimit            200da1a0     <common>
 0003:0007c2c0       _g_timelimit               200da2c0     <common>
 0003:0007c3e0       _g_fraglimit               200da3e0     <common>
 0003:0007c500       _g_dmflags                 200da500     <common>
 0003:0007c620       _g_restarted               200da620     <common>
 0003:0007c740       _g_maxGameClients          200da740     <common>
 0003:0007c860       _g_maxclients              200da860     <common>
 0003:0007c980       _g_cheats                  200da980     <common>
 0003:0007caa0       _g_dedicated               200daaa0     <common>
 0003:0007cbc0       _g_gametype                200dabc0     <common>
 0003:0007cce0       _g_entities                200dace0     <common>
 0003:00148d00       _level                     201a6d00     <common>
 0003:0014b100       _itemRegistered            201a9100     <common>
 0003:0014b500       _bot_minplayers            201a9500     <common>
 0003:0014b610       _g_numArenas               201a9610     <common>
 0003:0014b614       _podium3                   201a9614     <common>
 0003:0014b618       _podium2                   201a9618     <common>
 0003:0014b61c       _podium1                   201a961c     <common>
 0003:0014b620       _pml                       201a9620     <common>
 0003:0014b6ac       _pm                        201a96ac     <common>
 0003:0014b6c0       _ctftaskpreferences        201a96c0     <common>
 0003:0014c0c0       _floattime                 201aa0c0     <common>
 0003:0014c0e0       _bot_interbreedwrite       201aa0e0     <common>
 0003:0014c200       _bot_interbreedcycle       201aa200     <common>
 0003:0014c320       _bot_interbreedbots        201aa320     <common>
 0003:0014c440       _bot_interbreedchar        201aa440     <common>
 0003:0014c560       _bot_developer             201aa560     <common>
 0003:0014c680       _bot_testclusters          201aa680     <common>
 0003:0014c7a0       _bot_testsolid             201aa7a0     <common>
 0003:0014c8c0       _bot_report                201aa8c0     <common>
 0003:0014c9e0       _bot_pause                 201aa9e0     <common>
 0003:0014cb00       _bot_saveroutingcache      201aab00     <common>
 0003:0014cc20       _bot_memorydump            201aac20     <common>
 0003:0014cd40       _bot_thinktime             201aad40     <common>
 0003:0014ce50       _bot_interbreedmatchcount  201aae50     <common>
 0003:0014ce54       _bot_interbreed            201aae54     <common>
 0003:0014ce58       _regularupdate_time        201aae58     <common>
 0003:0014ce5c       _numbots                   201aae5c     <common>
 0003:0014ce60       _botstates                 201aae60     <common>
 0003:0014cf60       _blue_numaltroutegoals     201aaf60     <common>
 0003:0014cf80       _blue_altroutegoals        201aaf80     <common>
 0003:0014d280       _red_numaltroutegoals      201ab280     <common>
 0003:0014d2a0       _red_altroutegoals         201ab2a0     <common>
 0003:0014d5a0       _altroutegoals_setup       201ab5a0     <common>
 0003:0014d5a4       _max_bspmodelindex         201ab5a4     <common>
 0003:0014d5a8       _lastteleport_time         201ab5a8     <common>
 0003:0014d5b0       _lastteleport_origin       201ab5b0     <common>
 0003:0014d5c0       _g_spSkill                 201ab5c0     <common>
 0003:0014d6e0       _bot_predictobstacles      201ab6e0     <common>
 0003:0014d7f0       _botai_freewaypoints       201ab7f0     <common>
 0003:0014d800       _botai_waypoints           201ab800     <common>
 0003:00150a00       _neutralobelisk            201aea00     <common>
 0003:00150a40       _blueobelisk               201aea40     <common>
 0003:00150a80       _redobelisk                201aea80     <common>
 0003:00150ac0       _ctf_neutralflag           201aeac0     <common>
 0003:00150b00       _ctf_blueflag              201aeb00     <common>
 0003:00150b40       _ctf_redflag               201aeb40     <common>
 0003:00150b80       _bot_challenge             201aeb80     <common>
 0003:00150ca0       _bot_testrchat             201aeca0     <common>
 0003:00150dc0       _bot_nochat                201aedc0     <common>
 0003:00150ee0       _bot_fastchat              201aeee0     <common>
 0003:00151000       _bot_rocketjump            201af000     <common>
 0003:00151120       _bot_grapple               201af120     <common>
 0003:00151230       _maxclients                201af230     <common>
 0003:00151234       _gametype                  201af234     <common>
 0003:00151240       _nodeswitch                201af240     <common>
 0003:00152ef0       _numnodeswitches           201b0ef0     <common>
 0003:00152f00       _notleader                 201b0f00     <common>
 0003:00153000       ___piob                    201b1000     <common>
 0003:00153004       __nstream                  201b1004     <common>
 0003:00153020       __bufin                    201b1020     <common>
 0003:00154020       __pDestructExceptionObject 201b2020     <common>
 0003:00154024       __nhandle                  201b2024     <common>
 0003:00154028       ___dyn_tls_init_callback   201b2028     <common>
 0003:0015402c       ___onexitend               201b202c     <common>
 0003:00154030       ___onexitbegin             201b2030     <common>
 0003:00154034       ___mbctype_initialized     201b2034     <common>
 0003:00154038       ___env_initialized         201b2038     <common>
 0003:0015403c       ___use_sse2_mathfcns       201b203c     <common>
 0003:00154040       _encodedKERNEL32Functions  201b2040     <common>
 0003:001540b4       __debugger_hook_dummy      201b20b4     <common>
 0003:001540b8       __pmatherr                 201b20b8     <common>
 0003:001540bc       __acmdln                   201b20bc     <common>

 entry point at        0001:00041656

 Static symbols

 0001:000025dc       $LN18                      200035dc     ai_chat.obj
 0001:0000294c       $LN23                      2000394c     ai_chat.obj
 0001:0000298c       $LN21                      2000398c     ai_chat.obj
 0001:000032c8       $LN43                      200042c8     ai_cmd.obj
 0001:00005470       $LN21                      20006470     ai_cmd.obj
 0001:0000f848       $LN73                      20010848     ai_dmq3.obj
 0001:0000f860       $LN55                      20010860     ai_dmq3.obj
 0001:0000f874       $LN74                      20010874     ai_dmq3.obj
 0001:0000f88c       $LN75                      2001088c     ai_dmq3.obj
 0001:000140b4       $LN25                      200150b4     ai_dmq3.obj
 0001:00017834       $LN12                      20018834     ai_main.obj
 0001:00018bb0       $LN35                      20019bb0     ai_main.obj
 0001:00019140       $LN12                      2001a140     ai_team.obj
 0001:0001a5e0       $LN14                      2001b5e0     ai_team.obj
 0001:0001cb5c       $LN46                      2001db5c     ai_team.obj
 0001:0001cd24       $LN33                      2001dd24     ai_team.obj
 0001:0001dcd8       $LN56                      2001ecd8     bg_misc.obj
 0001:0001de88       $LN16                      2001ee88     bg_misc.obj
 0001:0001dfcc       $LN13                      2001efcc     bg_misc.obj
 0001:0001e6b0       _PM_Accelerate             2001f6b0 f   bg_pmove.obj
 0001:0001e7c0       _PM_AirMove                2001f7c0 f   bg_pmove.obj
 0001:0001e920       _PM_Animate                2001f920 f   bg_pmove.obj
 0001:0001e9e0       _PM_BeginWeaponChange      2001f9e0 f   bg_pmove.obj
 0001:0001ea50       _PM_CheckDuck              2001fa50 f   bg_pmove.obj
 0001:0001ec90       _PM_CheckJump              2001fc90 f   bg_pmove.obj
 0001:0001ed40       _PM_CheckWaterJump         2001fd40 f   bg_pmove.obj
 0001:0001ef40       _PM_CmdScale               2001ff40 f   bg_pmove.obj
 0001:0001f000       _PM_ContinueLegsAnim       20020000 f   bg_pmove.obj
 0001:0001f030       _PM_ContinueTorsoAnim      20020030 f   bg_pmove.obj
 0001:0001f060       _PM_CorrectAllSolid        20020060 f   bg_pmove.obj
 0001:0001f240       _PM_CrashLand              20020240 f   bg_pmove.obj
 0001:0001f3f0       _PM_DeadMove               200203f0 f   bg_pmove.obj
 0001:0001f4c0       _PM_DropTimers             200204c0 f   bg_pmove.obj
 0001:0001f550       _PM_FinishWeaponChange     20020550 f   bg_pmove.obj
 0001:0001f5b0       _PM_FlyMove                200205b0 f   bg_pmove.obj
 0001:0001f6f0       _PM_FootstepForSurface     200206f0 f   bg_pmove.obj
 0001:0001f710       _PM_Footsteps              20020710 f   bg_pmove.obj
 0001:0001f8f0       _PM_ForceLegsAnim          200208f0 f   bg_pmove.obj
 0001:0001f910       _PM_Friction               20020910 f   bg_pmove.obj
 0001:0001faa0       _PM_GrappleMove            20020aa0 f   bg_pmove.obj
 0001:0001fc20       _PM_GroundTrace            20020c20 f   bg_pmove.obj
 0001:0001fee0       _PM_GroundTraceMissed      20020ee0 f   bg_pmove.obj
 0001:00020000       _PM_InvulnerabilityMove    20021000 f   bg_pmove.obj
 0001:00020040       _PM_NoclipMove             20021040 f   bg_pmove.obj
 0001:00020280       _PM_SetMovementDir         20021280 f   bg_pmove.obj
 0001:00020340       _PM_SetWaterLevel          20021340 f   bg_pmove.obj
 0001:000204b0       _PM_StartLegsAnim          200214b0 f   bg_pmove.obj
 0001:000204e0       _PM_StartTorsoAnim         200214e0 f   bg_pmove.obj
 0001:00020510       _PM_TorsoAnimation         20021510 f   bg_pmove.obj
 0001:00020610       _PM_WalkMove               20021610 f   bg_pmove.obj
 0001:000209c0       _PM_WaterEvents            200219c0 f   bg_pmove.obj
 0001:00020a50       _PM_WaterJumpMove          20021a50 f   bg_pmove.obj
 0001:00020aa0       _PM_WaterMove              20021aa0 f   bg_pmove.obj
 0001:00020d20       _PM_Weapon                 20021d20 f   bg_pmove.obj
 0001:00020fa4       $LN53                      20021fa4     bg_pmove.obj
 0001:00022438       $LN51                      20023438     g_active.obj
 0001:00022458       $LN46                      20023458     g_active.obj
 0001:00023068       $LN51                      20024068     g_active.obj
 0001:00023940       _StuckInOtherClient        20024940 f   g_active.obj
 0001:000239e0       _CelebrateStop             200249e0 f   g_arenas.obj
 0001:00023ce0       _AddBotToSpawnQueue        20024ce0 f   g_bot.obj
 0001:00023d30       _G_AddBot                  20024d30 f   g_bot.obj
 0001:000249b0       _G_LoadArenas              200259b0 f   g_bot.obj
 0001:00024b20       _G_LoadArenasFromFile      20025b20 f   g_bot.obj
 0001:00024c30       _G_LoadBots                20025c30 f   g_bot.obj
 0001:00024d80       _G_LoadBotsFromFile        20025d80 f   g_bot.obj
 0001:000251b0       _G_SpawnBots               200261b0 f   g_bot.obj
 0001:00025300       _PlayerIntroSound          20026300 f   g_bot.obj
 0001:00025870       _ClientCleanName           20026870 f   g_client.obj
 0001:00026c9c       $LN30                      20027c9c     g_client.obj
 0001:00029030       _Cmd_Say_f                 2002a030 f   g_cmds.obj
 0001:000295a8       $LN13                      2002a5a8     g_cmds.obj
 0001:000295c0       _Cmd_Tell_f                2002a5c0 f   g_cmds.obj
 0001:000296a0       _Cmd_VoiceTaunt_f          2002a6a0 f   g_cmds.obj
 0001:00029880       _Cmd_VoiceTell_f           2002a880 f   g_cmds.obj
 0001:00029970       _Cmd_Voice_f               2002a970 f   g_cmds.obj
 0001:0002a0c0       _G_SayTo                   2002b0c0 f   g_cmds.obj
 0001:0002a230       _G_VoiceTo                 2002b230 f   g_cmds.obj
 0001:0002d29c       $LN25                      2002e29c     g_items.obj
 0001:0002da24       $LN36                      2002ea24     g_items.obj
 0001:0002fb60       $LN19                      20030b60     g_main.obj
 0001:00030040       _InitShooter_Finish        20031040 f   g_misc.obj
 0001:00030080       _PortalDie                 20031080 f   g_misc.obj
 0001:00030090       _PortalEnable              20031090 f   g_misc.obj
 0001:000300c0       _PortalTouch               200310c0 f   g_misc.obj
 0001:00031480       _ProximityMine_Activate    20032480 f   g_missile.obj
 0001:00031560       _ProximityMine_Die         20032560 f   g_missile.obj
 0001:00031580       _ProximityMine_Explode     20032580 f   g_missile.obj
 0001:000315b0       _ProximityMine_ExplodeOnPlayer 200325b0 f   g_missile.obj
 0001:00031650       _ProximityMine_Player      20032650 f   g_missile.obj
 0001:000345dc       $LN11                      200355dc     g_mover.obj
 0001:00034b60       _Touch_DoorTriggerSpectator 20035b60 f   g_mover.obj
 0001:00035470       $LN21                      20036470     g_spawn.obj
 0001:00035a40       _AddIP                     20036a40 f   g_svcmds.obj
 0001:00035f20       _StringToFilter            20036f20 f   g_svcmds.obj
 0001:000361e8       $LN27                      200371e8     g_svcmds.obj
 0001:000363a0       _UpdateIPBans              200373a0 f   g_svcmds.obj
 0001:00038270       _target_location_linkup    20039270 f   g_target.obj
 0001:00038670       _ObeliskDie                20039670 f   g_team.obj
 0001:00038770       _ObeliskPain               20039770 f   g_team.obj
 0001:00038800       _ObeliskRegen              20039800 f   g_team.obj
 0001:00038890       _ObeliskRespawn            20039890 f   g_team.obj
 0001:000388e0       _ObeliskTouch              200398e0 f   g_team.obj
 0001:00038f40       _SortClients               20039f40 f   g_team.obj
 0001:0003c2d4       $LN30                      2003d2d4     g_weapon.obj
 0001:0003c5c0       _KamikazeDamage            2003d5c0 f   g_weapon.obj
 0001:0003c8f0       _KamikazeRadiusDamage      2003d8f0 f   g_weapon.obj
 0001:0003cb10       _KamikazeShockWave         2003db10 f   g_weapon.obj
 0001:0003ef30       _SkipWhitespace            2003ff30 f   q_shared.obj
 0001:0003efc0       $$000000                   2003ffc0     LIBCMT:strncpy.obj
 0001:0003f30d       _vscan_fn                  2004030d f   LIBCMT:sscanf.obj
 0001:0003f380       $$000000                   20040380     LIBCMT:sqrt_sse2_precise.obj
 0001:0003f480       $$000000                   20040480     LIBCMT:memset.obj
 0001:0003f510       $$000000                   20040510     LIBCMT:memmove.obj
 0001:0003f760       LeadUpVec                  20040760     LIBCMT:memmove.obj
 0001:0003f7dc       UnwindUpVec                200407dc     LIBCMT:memmove.obj
 0001:0003f848       TrailUpVec                 20040848     LIBCMT:memmove.obj
 0001:0003f8ec       LeadDownVec                200408ec     LIBCMT:memmove.obj
 0001:0003f978       UnwindDownVec              20040978     LIBCMT:memmove.obj
 0001:0003f9e4       TrailDownVec               200409e4     LIBCMT:memmove.obj
 0001:0003fb60       $$000000                   20040b60     LIBCMT:strstr.obj
 0001:0003ffd0       $$000000                   20040fd0     LIBCMT:strchr.obj
 0001:00040100       $$000000                   20041100     LIBCMT:memcpy.obj
 0001:00040350       LeadUpVec                  20041350     LIBCMT:memcpy.obj
 0001:000403cc       UnwindUpVec                200413cc     LIBCMT:memcpy.obj
 0001:00040438       TrailUpVec                 20041438     LIBCMT:memcpy.obj
 0001:000404dc       LeadDownVec                200414dc     LIBCMT:memcpy.obj
 0001:00040568       UnwindDownVec              20041568     LIBCMT:memcpy.obj
 0001:000405d4       TrailDownVec               200415d4     LIBCMT:memcpy.obj
 0001:00040750       $$000000                   20041750     LIBCMT:cos_sse2_precise.obj
 0001:00040910       $$000000                   20041910     LIBCMT:sin_sse2_precise.obj
 0001:00040ae0       $$000000                   20041ae0     LIBCMT:chkstk.obj
 0001:00040e90       $$000000                   20041e90     LIBCMT:ceil_pentium4.obj
 0001:00040fb0       $$000000                   20041fb0     LIBCMT:ftol2.obj
 0001:000412f0       _shortsort                 200422f0 f   LIBCMT:qsort.obj
 0001:00041360       _swap                      20042360 f   LIBCMT:qsort.obj
 0001:000414d0       $$000000                   200424d0     LIBCMT:87ctriga.obj
 0001:00041679       ___DllMainCRTStartup       20042679 f   LIBCMT:dllcrt0.obj
 0001:000417ac       ?strtoxl@@YAKPAUlocaleinfo_struct@@PBDPAPBDHH@Z 200427ac f   LIBCMT:strtol.obj
 0001:00042153       __cftoe2_l                 20043153 f   LIBCMT:cvt.obj
 0001:0004236e       __cftof2_l                 2004336e f   LIBCMT:cvt.obj
 0001:00042798       __shift                    20043798 f   LIBCMT:cvt.obj
 0001:00043215       $LN304                     20044215     LIBCMT:strgtold.obj
 0001:000435af       ?CPtoLocaleName@@YAPB_WH@Z 200445af f   LIBCMT:mbctype.obj
 0001:000435e9       ?getSystemCP@@YAHH@Z       200445e9 f   LIBCMT:mbctype.obj
 0001:00043655       ?setSBCS@@YAXPAUthreadmbcinfostruct@@@Z 20044655 f   LIBCMT:mbctype.obj
 0001:000436be       ?setSBUpLow@@YAXPAUthreadmbcinfostruct@@@Z 200446be f   LIBCMT:mbctype.obj
 0001:00043d50       $$000000                   20044d50     LIBCMT:strlen.obj
 0001:00043ddb       ___check_float_string      20044ddb f   LIBCMT:input.obj
 0001:00043e3a       __hextodec                 20044e3a f   LIBCMT:input.obj
 0001:00043e5b       __inc                      20044e5b f   LIBCMT:input.obj
 0001:00044f6b       __whiteout                 20045f6b f   LIBCMT:input.obj
 0001:00045249       $LN79                      20046249     LIBCMT:libm_error.obj
 0001:00045290       $$000000                   20046290     LIBCMT:sqrt.obj
 0001:00045459       ?__crtLCMapStringA_stat@@YAHPAUlocaleinfo_struct@@PB_WKPBDHPADHHH@Z 20046459 f   LIBCMT:a_map.obj
 0001:000463ab       $LN272                     200473ab     LIBCMT:output.obj
 0001:000463cb       _write_char                200473cb f   LIBCMT:output.obj
 0001:00046411       _write_multi_char          20047411 f   LIBCMT:output.obj
 0001:0004643d       _write_string              2004743d f   LIBCMT:output.obj
 0001:000464c0       $$000000                   200474c0     LIBCMT:cos.obj
 0001:000465f0       $$000000                   200475f0     LIBCMT:sin.obj
 0001:00046b30       $$000000                   20047b30     LIBCMT:87triga.obj
 0001:00046be0       $$000000                   20047be0     LIBCMT:87cdisp.obj
 0001:00047232       __initterm                 20048232 f   LIBCMT:crt0dat.obj
 0001:00047282       _doexit                    20048282 f   LIBCMT:crt0dat.obj
 0001:0004777f       _parse_cmdline             2004877f f   LIBCMT:stdargv.obj
 0001:00047cb0       $$000000                   20048cb0     LIBCMT:sehprolg4.obj
 0001:00047eb0       $$000000                   20048eb0     LIBCMT:llmul.obj
 0001:00047ef0       $$000000                   20048ef0     LIBCMT:ulldvrm.obj
 0001:000482d0       $$000000                   200492d0     LIBCMT:strrchr.obj
 0001:00048730       $$000000                   20049730     LIBCMT:lldvrm.obj
 0001:00048810       $$000000                   20049810     LIBCMT:ullshr.obj
 0001:00049a3a       ?__crtGetStringTypeA_stat@@YAHPAUlocaleinfo_struct@@KPBDHPAGHH@Z 2004aa3a f   LIBCMT:a_str.obj
 0001:00049ea0       $$000000                   2004aea0     LIBCMT:87disp.obj
 0001:0004a070       $$000000                   2004b070     LIBCMT:genexcep.obj
 0001:0004a0d0       $$000000                   2004b0d0     LIBCMT:common.obj
 0001:0004a420       $$000000                   2004b420     LIBCMT:alloca16.obj
 0001:0004b3d0       $$000000                   2004c3d0     LIBCMT:cos_pentium4.obj
 0001:0004b580       $$000000                   2004c580     LIBCMT:sin_pentium4.obj
 0001:0004c590       __onexit_nolock            2004d590 f   LIBCMT:onexit.obj
 0001:0004c8cb       _siglookup                 2004d8cb f   LIBCMT:winsig.obj
 0001:0004c910       $$000000                   2004d910     LIBCMT:exsup4.obj
 0001:0004c9a0       __unwind_handler4          2004d9a0 f   LIBCMT:exsup4.obj
 0001:0004ca62       ?x_ismbbtype_l@@YAHPAUlocaleinfo_struct@@IHH@Z 2004da62 f   LIBCMT:ismbbyte.obj
 0001:0004d620       ___hw_cw_sse2              2004e620 f   LIBCMT:ieee87.obj
 0001:0004d9c9       __hw_cw                    2004e9c9 f   LIBCMT:ieee87.obj
 0001:0004e447       _flsall                    2004f447 f   LIBCMT:fflush.obj
 0001:0004e9b0       $$000000                   2004f9b0     LIBCMT:exsup.obj
 0001:0004e9d0       __unwind_handler           2004f9d0 f   LIBCMT:exsup.obj
 0002:00000118       _pinit                     20050118     LIBCMT:cpu_disp.obj
 0002:0000011c       _pinit                     2005011c     LIBCMT:mbctype.obj
 0002:00000120       _pinit                     20050120     LIBCMT:mathfcns.obj
 0002:00000124       _pinit                     20050124     LIBCMT:_file.obj
 0002:00000128       _pinit                     20050128     LIBCMT:onexit.obj
 0002:00000134       _pterm                     20050134     LIBCMT:wsetloca.obj
 0002:00000138       _pterm                     20050138     LIBCMT:initcon.obj
 0002:0000013c       _pterm                     2005013c     LIBCMT:_file.obj
 0002:00006ca0       Ctable                     20056ca0     LIBCMT:cos_sse2_precise.obj
 0002:000074a0       SC_1                       200574a0     LIBCMT:cos_sse2_precise.obj
 0002:000074b0       SC_2                       200574b0     LIBCMT:cos_sse2_precise.obj
 0002:000074c0       SC_3                       200574c0     LIBCMT:cos_sse2_precise.obj
 0002:000074d0       SC_4                       200574d0     LIBCMT:cos_sse2_precise.obj
 0002:000074e0       PI32INV                    200574e0     LIBCMT:cos_sse2_precise.obj
 0002:000074e8       SHIFTER                    200574e8     LIBCMT:cos_sse2_precise.obj
 0002:000074f0       P_2                        200574f0     LIBCMT:cos_sse2_precise.obj
 0002:00007500       P_1                        20057500     LIBCMT:cos_sse2_precise.obj
 0002:00007508       P_3                        20057508     LIBCMT:cos_sse2_precise.obj
 0002:00007510       TWO_POW_55                 20057510     LIBCMT:cos_sse2_precise.obj
 0002:00007518       TWO_POW_M55                20057518     LIBCMT:cos_sse2_precise.obj
 0002:00007520       ALL_ONES                   20057520     LIBCMT:cos_sse2_precise.obj
 0002:00007528       NEG_ZERO                   20057528     LIBCMT:cos_sse2_precise.obj
 0002:00007530       ONE                        20057530     LIBCMT:cos_sse2_precise.obj
 0002:00007540       SIGN_MASK                  20057540     LIBCMT:cos_sse2_precise.obj
 0002:00007550       Ctable                     20057550     LIBCMT:sin_sse2_precise.obj
 0002:00007d50       SC_1                       20057d50     LIBCMT:sin_sse2_precise.obj
 0002:00007d60       SC_2                       20057d60     LIBCMT:sin_sse2_precise.obj
 0002:00007d70       SC_3                       20057d70     LIBCMT:sin_sse2_precise.obj
 0002:00007d80       SC_4                       20057d80     LIBCMT:sin_sse2_precise.obj
 0002:00007d90       PI32INV                    20057d90     LIBCMT:sin_sse2_precise.obj
 0002:00007d98       SHIFTER                    20057d98     LIBCMT:sin_sse2_precise.obj
 0002:00007da0       P_2                        20057da0     LIBCMT:sin_sse2_precise.obj
 0002:00007db0       P_1                        20057db0     LIBCMT:sin_sse2_precise.obj
 0002:00007db8       P_3                        20057db8     LIBCMT:sin_sse2_precise.obj
 0002:00007dc0       TWO_POW_55                 20057dc0     LIBCMT:sin_sse2_precise.obj
 0002:00007dc8       TWO_POW_M55                20057dc8     LIBCMT:sin_sse2_precise.obj
 0002:00007dd0       ALL_ONES                   20057dd0     LIBCMT:sin_sse2_precise.obj
 0002:00007dd8       NEG_ZERO                   20057dd8     LIBCMT:sin_sse2_precise.obj
 0002:00007de0       ONE                        20057de0     LIBCMT:sin_sse2_precise.obj
 0002:00007df0       _GS_ExceptionPointers      20057df0     LIBCMT:gs_report.obj
 0002:00007e00       _One                       20057e00     LIBCMT:ceil_pentium4.obj
 0002:00007e10       _Bns                       20057e10     LIBCMT:ceil_pentium4.obj
 0002:00007e20       _Zero                      20057e20     LIBCMT:ceil_pentium4.obj
 0002:00007e30       _S                         20057e30     LIBCMT:ceil_pentium4.obj
 0002:00007e40       _NegZero                   20057e40     LIBCMT:ceil_pentium4.obj
 0002:00007e54       __mb_locale_names          20057e54     LIBCMT:mbctype.obj
 0002:000081f0       _INF                       200581f0     LIBCMT:libm_error.obj
 0002:00008200       _BIG                       20058200     LIBCMT:libm_error.obj
 0002:00008210       _ZERO                      20058210     LIBCMT:libm_error.obj
 0002:00008220       _INF_32                    20058220     LIBCMT:libm_error.obj
 0002:00008228       _NAN_32                    20058228     LIBCMT:libm_error.obj
 0002:00008230       _ZERO_32                   20058230     LIBCMT:libm_error.obj
 0002:00008238       _libm_largef               20058238     LIBCMT:libm_error.obj
 0002:00008240       _libm_smallf               20058240     LIBCMT:libm_error.obj
 0002:00008248       _libm_small                20058248     LIBCMT:libm_error.obj
 0002:000082b8       __first_127char            200582b8     LIBCMT:wsetloca.obj
 0002:00008680       DblMax                     20058680     LIBCMT:87cdisp.obj
 0002:00008688       DblMin                     20058688     LIBCMT:87cdisp.obj
 0002:00008690       IeeeAdjO                   20058690     LIBCMT:87cdisp.obj
 0002:00008698       IeeeAdjU                   20058698     LIBCMT:87cdisp.obj
 0002:000086a0       _infinity                  200586a0     LIBCMT:87cdisp.obj
 0002:000086a8       _zero                      200586a8     LIBCMT:87cdisp.obj
 0002:00008f94       One                        20058f94     LIBCMT:87disp.obj
 0002:00008f9c       XAMtoTagTab                20058f9c     LIBCMT:87disp.obj
 0002:00008fb0       One                        20058fb0     LIBCMT:common.obj
 0002:00008fc4       DblMax                     20058fc4     LIBCMT:common.obj
 0002:00008fcc       DblMin                     20058fcc     LIBCMT:common.obj
 0002:00008fd4       IeeeAdjO                   20058fd4     LIBCMT:common.obj
 0002:00008fdc       IeeeAdjU                   20058fdc     LIBCMT:common.obj
 0002:00008fe4       _infinity                  20058fe4     LIBCMT:common.obj
 0002:00008fec       _zero                      20058fec     LIBCMT:common.obj
 0002:0000b0e0       Ctable                     2005b0e0     LIBCMT:cos_pentium4.obj
 0002:0000b8e0       SC_1                       2005b8e0     LIBCMT:cos_pentium4.obj
 0002:0000b8f0       SC_2                       2005b8f0     LIBCMT:cos_pentium4.obj
 0002:0000b900       SC_3                       2005b900     LIBCMT:cos_pentium4.obj
 0002:0000b910       SC_4                       2005b910     LIBCMT:cos_pentium4.obj
 0002:0000b920       PI32INV                    2005b920     LIBCMT:cos_pentium4.obj
 0002:0000b928       SHIFTER                    2005b928     LIBCMT:cos_pentium4.obj
 0002:0000b930       P_2                        2005b930     LIBCMT:cos_pentium4.obj
 0002:0000b940       P_1                        2005b940     LIBCMT:cos_pentium4.obj
 0002:0000b948       P_3                        2005b948     LIBCMT:cos_pentium4.obj
 0002:0000b950       TWO_POW_55                 2005b950     LIBCMT:cos_pentium4.obj
 0002:0000b958       TWO_POW_M55                2005b958     LIBCMT:cos_pentium4.obj
 0002:0000b960       ALL_ONES                   2005b960     LIBCMT:cos_pentium4.obj
 0002:0000b968       NEG_ZERO                   2005b968     LIBCMT:cos_pentium4.obj
 0002:0000b970       ONE                        2005b970     LIBCMT:cos_pentium4.obj
 0002:0000b980       SIGN_MASK                  2005b980     LIBCMT:cos_pentium4.obj
 0002:0000b990       Ctable                     2005b990     LIBCMT:sin_pentium4.obj
 0002:0000c190       SC_1                       2005c190     LIBCMT:sin_pentium4.obj
 0002:0000c1a0       SC_2                       2005c1a0     LIBCMT:sin_pentium4.obj
 0002:0000c1b0       SC_3                       2005c1b0     LIBCMT:sin_pentium4.obj
 0002:0000c1c0       SC_4                       2005c1c0     LIBCMT:sin_pentium4.obj
 0002:0000c1d0       PI32INV                    2005c1d0     LIBCMT:sin_pentium4.obj
 0002:0000c1d8       SHIFTER                    2005c1d8     LIBCMT:sin_pentium4.obj
 0002:0000c1e0       P_2                        2005c1e0     LIBCMT:sin_pentium4.obj
 0002:0000c1f0       P_1                        2005c1f0     LIBCMT:sin_pentium4.obj
 0002:0000c1f8       P_3                        2005c1f8     LIBCMT:sin_pentium4.obj
 0002:0000c200       TWO_POW_55                 2005c200     LIBCMT:sin_pentium4.obj
 0002:0000c208       TWO_POW_M55                2005c208     LIBCMT:sin_pentium4.obj
 0002:0000c210       ALL_ONES                   2005c210     LIBCMT:sin_pentium4.obj
 0002:0000c218       NEG_ZERO                   2005c218     LIBCMT:sin_pentium4.obj
 0002:0000c220       ONE                        2005c220     LIBCMT:sin_pentium4.obj
 0002:0000cb28       _rterrs                    2005cb28     LIBCMT:crt0msg.obj
 0002:0000ce10       __sehtable$__CRT_INIT@12   2005ce10     LIBCMT:dllcrt0.obj
 0002:0000ce30       __sehtable$___DllMainCRTStartup 2005ce30     LIBCMT:dllcrt0.obj
 0002:0000ce50       __sehtable$__freefls@4     2005ce50     LIBCMT:tidtable.obj
 0002:0000ce78       __sehtable$__initptd       2005ce78     LIBCMT:tidtable.obj
 0002:0000cea0       __sehtable$___updatetlocinfo 2005cea0     LIBCMT:localref.obj
 0002:0000cec0       __sehtable$___updatetmbcinfo 2005cec0     LIBCMT:mbctype.obj
 0002:0000cee0       __sehtable$__setmbcp       2005cee0     LIBCMT:mbctype.obj
 0002:0000cf00       __sehtable$__locterm       2005cf00     LIBCMT:wsetloca.obj
 0002:0000cf20       __sehtable$_doexit         2005cf20     LIBCMT:crt0dat.obj
 0002:0000cf40       __sehtable$__ioinit        2005cf40     LIBCMT:ioinit.obj
 0002:0000cf60       __sehtable$__mtinitlocknum 2005cf60     LIBCMT:mlock.obj
 0002:0000cf80       __sehtable$__write         2005cf80     LIBCMT:write.obj
 0002:0000cfa0       __sehtable$__lseeki64      2005cfa0     LIBCMT:lseeki64.obj
 0002:0000cfc0       __sehtable$___set_fpsr_sse2 2005cfc0     LIBCMT:fpctrl.obj
 0002:0000cfe0       __sehtable$__IsNonwritableInCurrentImage 2005cfe0     LIBCMT:pesect.obj
 0002:0000d000       __sehtable$__onexit        2005d000     LIBCMT:onexit.obj
 0002:0000d020       __sehtable$?terminate@@YAXXZ 2005d020     LIBCMT:hooks.obj
 0002:0000d040       __sehtable$_raise          2005d040     LIBCMT:winsig.obj
 0002:0000d060       __sehtable$__read          2005d060     LIBCMT:read.obj
 0002:0000d080       __sehtable$__fcloseall     2005d080     LIBCMT:closeall.obj
 0002:0000d0a0       __sehtable$_flsall         2005d0a0     LIBCMT:fflush.obj
 0002:0000d0c8       __sehtable$___lock_fhandle 2005d0c8     LIBCMT:osfinfo.obj
 0002:0000d0e8       __sehtable$_fclose         2005d0e8     LIBCMT:fclose.obj
 0002:0000d108       __sehtable$__commit        2005d108     LIBCMT:commit.obj
 0002:0000d128       __sehtable$__close         2005d128     LIBCMT:close.obj
 0002:0000d73a       .idata$6                   2005d73a     kernel32:KERNEL32.dll
 0002:0000d750       .edata                     2005d750     qagamex86.exp
 0002:0000d778       rgpv                       2005d778     qagamex86.exp
 0002:0000d780       rgszName                   2005d780     qagamex86.exp
 0002:0000d788       rgwOrd                     2005d788     qagamex86.exp
 0002:0000d78c       szName                     2005d78c     qagamex86.exp
 0002:0000d79a       $N00001                    2005d79a     qagamex86.exp
 0002:0000d7a3       $N00002                    2005d7a3     qagamex86.exp
 0003:00000000       _VEC_UP                    2005e000     ai_dmq3.obj
 0003:0000000c       _MOVEDIR_UP                2005e00c     ai_dmq3.obj
 0003:00000018       _VEC_DOWN                  2005e018     ai_dmq3.obj
 0003:00000024       _MOVEDIR_DOWN              2005e024     ai_dmq3.obj
 0003:00000cd0       ?range@?1??G_TouchTriggers@@9@9 2005ecd0     g_active.obj
 0003:00000cdc       _offsetFirst               2005ecdc     g_arenas.obj
 0003:00000ce8       _offsetSecond              2005ece8     g_arenas.obj
 0003:00000cf4       _offsetThird               2005ecf4     g_arenas.obj
 0003:00000d00       _playerMins                2005ed00     g_client.obj
 0003:00000d0c       _playerMaxs                2005ed0c     g_client.obj
 0003:00000d18       _gc_orders                 2005ed18     g_cmds.obj
 0003:00000d34       _gameNames                 2005ed34     g_cmds.obj
 0003:00000dd0       _gameCvarTable             2005edd0     g_main.obj
 0003:0000140c       _gameCvarTableSize         2005f40c     g_main.obj
 0003:00001410       ?lastMod@?1??CheckCvars@@9@9 2005f410     g_main.obj
 0003:00001708       ?gametypeNames@?1??G_SpawnGEntityFromSpawnVars@@9@9 2005f708     g_spawn.obj
 0003:0000172c       _syscall                   2005f72c     g_syscalls.obj
 0003:00001730       _ctfFlagStatusRemap        2005f730     g_team.obj
 0003:00001738       _oneFlagStatusRemap        2005f738     g_team.obj
 0003:00001740       ?VEC_UP@?1??G_SetMovedir@@9@9 2005f740     g_utils.obj
 0003:0000174c       ?MOVEDIR_UP@?1??G_SetMovedir@@9@9 2005f74c     g_utils.obj
 0003:00001758       ?VEC_DOWN@?1??G_SetMovedir@@9@9 2005f758     g_utils.obj
 0003:00001764       ?MOVEDIR_DOWN@?1??G_SetMovedir@@9@9 2005f764     g_utils.obj
 0003:000020b0       _errtable                  200600b0     LIBCMT:dosmap.obj
 0003:00002218       _ErrnoNoMem                20060218     LIBCMT:dosmap.obj
 0003:0000221c       _DoserrorNoMem             2006021c     LIBCMT:dosmap.obj
 0003:00002224       ___rgctypeflag             20060224     LIBCMT:mbctype.obj
 0003:00002228       ___rgcode_page_info        20060228     LIBCMT:mbctype.obj
 0003:00002980       _NAME_                     20060980     LIBCMT:sqrt.obj
 0003:00002988       __ctype_loc_style          20060988     LIBCMT:wsetloca.obj
 0003:000029a0       _NAME_                     200609a0     LIBCMT:cos.obj
 0003:000029b0       _NAME_                     200609b0     LIBCMT:sin.obj
 0003:000029b8       ?isPackaged@?1??__crtIsPackagedApp@@9@9 200609b8     LIBCMT:winapisupp.obj
 0003:000029bc       _newcw                     200609bc     LIBCMT:ceil.obj
 0003:00002a00       __locktable                20060a00     LIBCMT:mlock.obj
 0003:00002b20       _DoubleFormat              20060b20     LIBCMT:intrncvt.obj
 0003:00002b38       _FloatFormat               20060b38     LIBCMT:intrncvt.obj
 0003:00003100       ?_names@?1??_get_fname@@9@9 20061100     LIBCMT:fpexcept.obj
 0003:00003210       _over                      20061210     LIBCMT:fpctrl.obj
 0003:0000321c       _under                     2006121c     LIBCMT:fpctrl.obj
 0003:00003228       ?__DAZ_ENABLED@?1??__set_fpsr_sse2@@9@9 20061228     LIBCMT:fpctrl.obj
 0003:00003360       ?maxclients@?1??BotNumActivePlayers@@9@9 20061360     ai_chat.obj
 0003:00003364       ?maxclients@?1??BotIsFirstInRankings@@9@9 20061364     ai_chat.obj
 0003:00003368       ?maxclients@?1??BotIsLastInRankings@@9@9 20061368     ai_chat.obj
 0003:0000336c       ?name@?1??BotFirstClientInRankings@@9@9 2006136c     ai_chat.obj
 0003:0000338c       ?maxclients@?1??BotFirstClientInRankings@@9@9 2006138c     ai_chat.obj
 0003:00003390       ?name@?1??BotLastClientInRankings@@9@9 20061390     ai_chat.obj
 0003:000033b0       ?maxclients@?1??BotLastClientInRankings@@9@9 200613b0     ai_chat.obj
 0003:000033b4       ?maxclients@?1??BotRandomOpponentName@@9@9 200613b4     ai_chat.obj
 0003:000033b8       ?name@?1??BotRandomOpponentName@@9@9 200613b8     ai_chat.obj
 0003:000033d8       ?mapname@?1??BotMapTitle@@9@9 200613d8     ai_chat.obj
 0003:00003458       ?maxclients@?1??FindClientByName@@9@9 20061458     ai_cmd.obj
 0003:0000345c       ?maxclients@?1??FindEnemyByName@@9@9 2006145c     ai_cmd.obj
 0003:00003460       ?maxclients@?1??NumPlayersOnSameTeam@@9@9 20061460     ai_cmd.obj
 0003:00003464       ?maxclients@?1??ClientFromName@@9@9 20061464     ai_dmq3.obj
 0003:00003468       ?maxclients@?1??ClientOnSameTeamFromName@@9@9 20061468     ai_dmq3.obj
 0003:0000346c       ?local_time@?1??BotAIStartFrame@@9@9 2006146c     ai_main.obj
 0003:00003470       ?botlib_residual@?1??BotAIStartFrame@@9@9 20061470     ai_main.obj
 0003:00003474       ?lastbotthink_time@?1??BotAIStartFrame@@9@9 20061474     ai_main.obj
 0003:00003478       ?maxclients@?1??BotNumTeamMates@@9@9 20061478     ai_team.obj
 0003:0000347c       ?maxclients@?1??BotSortTeamMatesByBaseTravelTime@@9@9 2006147c     ai_team.obj
 0003:00003480       ?maxclients@?1??BotTeamOrders@@9@9 20061480     ai_team.obj
 0003:00003488       _g_numBots                 20061488     g_bot.obj
 0003:0000348c       ?checkminimumplayers_time@?1??G_CheckMinimumPlayers@@9@9 2006148c     g_bot.obj
 0003:00003490       _g_botInfos                20061490     g_bot.obj
 0003:00004490       _g_arenaInfos              20062490     g_bot.obj
 0003:00005490       _botSpawnQueue             20063490     g_bot.obj
 0003:00005510       ?line@?1??ConcatArgs@@9@9  20063510     g_cmds.obj
 0003:00005910       ?i@?CD@??player_die@@9@9   20063910     g_combat.obj
 0003:00005918       _memoryPool                20063918     g_mem.obj
 0003:00045918       _allocPoint                200a3918     g_mem.obj
 0003:00045920       _ipFilters                 200a3920     g_svcmds.obj
 0003:00047920       _numIPFilters              200a5920     g_svcmds.obj
 0003:0004792c       ?index@?1??tv@@9@9         200a592c     g_utils.obj
 0003:00047930       ?buff@?1??BuildShaderStateConfig@@9@9 200a5930     g_utils.obj
 0003:00048930       ?vecs@?1??tv@@9@9          200a6930     g_utils.obj
 0003:00048990       ?index@?1??vtos@@9@9       200a6990     g_utils.obj
 0003:00048998       ?str@?1??vtos@@9@9         200a6998     g_utils.obj
 0003:00048a98       _s_quadFactor              200a6a98     g_weapon.obj
 0003:00048a9c       _forward                   200a6a9c     g_weapon.obj
 0003:00048aa8       _right                     200a6aa8     g_weapon.obj
 0003:00048ab4       _up                        200a6ab4     g_weapon.obj
 0003:00048ac0       _muzzle                    200a6ac0     g_weapon.obj
 0003:00048ad8       ?bops_initialized@?1??BoxOnPlaneSide@@9@9 200a6ad8     q_math.obj
 0003:00048adc       ?Ljmptab@?1??BoxOnPlaneSide@@9@9 200a6adc     q_math.obj
 0003:00048afc       ?sr@?1??AngleVectors@@9@9  200a6afc     q_math.obj
 0003:00048b00       ?sp@?1??AngleVectors@@9@9  200a6b00     q_math.obj
 0003:00048b04       ?sy@?1??AngleVectors@@9@9  200a6b04     q_math.obj
 0003:00048b08       ?cr@?1??AngleVectors@@9@9  200a6b08     q_math.obj
 0003:00048b0c       ?cp@?1??AngleVectors@@9@9  200a6b0c     q_math.obj
 0003:00048b10       ?cy@?1??AngleVectors@@9@9  200a6b10     q_math.obj
 0003:00048b18       ?index@?1??va@@9@9         200a6b18     q_shared.obj
 0003:00048b1c       ?valueindex@?1??Info_ValueForKey@@9@9 200a6b1c     q_shared.obj
 0003:00048b20       _com_token                 200a6b20     q_shared.obj
 0003:00048f20       _com_parsename             200a6f20     q_shared.obj
 0003:00049320       _com_lines                 200a7320     q_shared.obj
 0003:00049328       ?string@?1??COM_ParseError@@9@9 200a7328     q_shared.obj
 0003:0004a328       ?string@?1??COM_ParseWarning@@9@9 200a8328     q_shared.obj
 0003:0004b328       ?string@?1??va@@9@9        200a9328     q_shared.obj
 0003:0005ad28       ?value@?1??Info_ValueForKey@@9@9 200b8d28     q_shared.obj
 0003:0005ed30       _GS_ExceptionRecord        200bcd30     LIBCMT:gs_report.obj
 0003:0005ed80       _GS_ContextRecord          200bcd80     LIBCMT:gs_report.obj
 0003:0005f04c       _DebuggerWasPresent        200bd04c     LIBCMT:gs_report.obj
 0003:0005f058       ___proc_attached           200bd058     LIBCMT:dllcrt0.obj
 0003:0005f080       _fSystemSet                200bd080     LIBCMT:mbctype.obj
 0003:0005f084       __pmatherr_set             200bd084     LIBCMT:libm_error.obj
 0003:0005f1c8       ?_pgmname@?1??_setargv@@9@9 200bd1c8     LIBCMT:stdargv.obj
 0003:0005f2d8       _lclcritsects              200bd2d8     LIBCMT:mlock.obj
 0003:0005f434       ___crtCallProc             200bd434     LIBCMT:winapinls.obj
 0003:0005f43c       ___enable_percent_n        200bd43c     LIBCMT:printf.obj
 0003:0005f448       ?outmsg@?8??_NMSG_WRITE@@9@9 200bd448     LIBCMT:crt0msg.obj
 0003:0005fa7c       _g_pfnRtlGenRandom         200bda7c     LIBCMT:rand_s.obj
 0003:0005fa80       _ctrlc_action              200bda80     LIBCMT:winsig.obj
 0003:0005fa84       _ctrlbreak_action          200bda84     LIBCMT:winsig.obj
 0003:0005fa88       _abort_action              200bda88     LIBCMT:winsig.obj
 0003:0005fa8c       _term_action               200bda8c     LIBCMT:winsig.obj
 0003:0005fa90       _ConsoleCtrlHandler_Installed 200bda90     LIBCMT:winsig.obj
 0003:0005faa4       ?pfnMessageBox@?1??__crtMessageBoxW@@9@9 200bdaa4     LIBCMT:crtmboxw.obj
 0003:0005faa8       ?pfnGetActiveWindow@?1??__crtMessageBoxW@@9@9 200bdaa8     LIBCMT:crtmboxw.obj
 0003:0005faac       ?pfnGetLastActivePopup@?1??__crtMessageBoxW@@9@9 200bdaac     LIBCMT:crtmboxw.obj
 0003:0005fab0       ?pfnGetProcessWindowStation@?1??__crtMessageBoxW@@9@9 200bdab0     LIBCMT:crtmboxw.obj
 0003:0005fab4       ?pfnGetUserObjectInformation@?1??__crtMessageBoxW@@9@9 200bdab4     LIBCMT:crtmboxw.obj
 0004:00000060       $R000000                   201b3060     * linker generated manifest res *
