 cgamex86

 Timestamp is 51f1958b (Thu Jul 25 16:15:55 2013)

 Preferred load address is 30000000

 Start         Length     Name                   Class
 0001:00000000 00042866H .text                   CODE
 0002:00000000 00000104H .idata$5                DATA
 0002:00000104 00000004H .CRT$XCA                DATA
 0002:00000108 00000004H .CRT$XCZ                DATA
 0002:0000010c 00000004H .CRT$XIA                DATA
 0002:00000110 00000014H .CRT$XIC                DATA
 0002:00000124 00000004H .CRT$XIZ                DATA
 0002:00000128 00000004H .CRT$XPA                DATA
 0002:0000012c 00000008H .CRT$XPX                DATA
 0002:00000134 00000004H .CRT$XPXA               DATA
 0002:00000138 00000004H .CRT$XPZ                DATA
 0002:0000013c 00000004H .CRT$XTA                DATA
 0002:00000140 00000004H .CRT$XTZ                DATA
 0002:00000150 00013c80H .rdata                  DATA
 0002:00013dd0 0000000cH .rdata$sxdata           DATA
 0002:00013ddc 00000004H .rtc$IAA                DATA
 0002:00013de0 00000004H .rtc$IZZ                DATA
 0002:00013de4 00000004H .rtc$TAA                DATA
 0002:00013de8 00000004H .rtc$TZZ                DATA
 0002:00013df0 00000314H .xdata$x                DATA
 0002:00014104 00000014H .idata$2                DATA
 0002:00014118 00000014H .idata$3                DATA
 0002:0001412c 00000104H .idata$4                DATA
 0002:00014230 000004b4H .idata$6                DATA
 0002:000146f0 00000059H .edata                  DATA
 0003:00000000 00004394H .data                   DATA
 0003:000043a0 0052ab00H .bss                    DATA
 0004:00000000 00000058H .rsrc$01                DATA
 0004:00000060 00000180H .rsrc$02                DATA

  Address         Publics by Value              Rva+Base       Lib:Object

 0000:00000000       __except_list              00000000     <absolute>
 0000:00000003       ___safe_se_handler_count   00000003     <absolute>
 0000:00000000       ___ImageBase               30000000     <linker-defined>
 0001:00000000       _BG_AddPredictableEventToPlayerstate 30001000 f   bg_misc.obj
 0001:00000030       _BG_CanItemBeGrabbed       30001030 f   bg_misc.obj
 0001:00000280       _BG_EvaluateTrajectory     30001280 f   bg_misc.obj
 0001:00000420       _BG_EvaluateTrajectoryDelta 30001420 f   bg_misc.obj
 0001:00000570       _BG_FindItemForHoldable    30001570 f   bg_misc.obj
 0001:000005c0       _BG_FindItemForPowerup     300015c0 f   bg_misc.obj
 0001:00000610       _BG_PlayerStateToEntityState 30001610 f   bg_misc.obj
 0001:00000850       _BG_PlayerTouchesItem      30001850 f   bg_misc.obj
 0001:000008e0       _BG_TouchJumpPad           300018e0 f   bg_misc.obj
 0001:00000a50       _PM_AddEvent               30001a50 f   bg_pmove.obj
 0001:00000a70       _PM_AddTouchEnt            30001a70 f   bg_pmove.obj
 0001:000011b0       _PM_ClipVelocity           300021b0 f   bg_pmove.obj
 0001:00002840       _PM_UpdateViewAngles       30003840 f   bg_pmove.obj
 0001:000032e0       _Pmove                     300042e0 f   bg_pmove.obj
 0001:00003370       _PmoveSingle               30004370 f   bg_pmove.obj
 0001:00003700       _PM_SlideMove              30004700 f   bg_slidemove.obj
 0001:00003f10       _PM_StepSlideMove          30004f10 f   bg_slidemove.obj
 0001:00004260       _CG_TargetCommand_f        30005260 f   cg_consolecmds.obj
 0001:00004bd0       _CG_ConsoleCommand         30005bd0 f   cg_consolecmds.obj
 0001:00004c10       _CG_InitConsoleCommands    30005c10 f   cg_consolecmds.obj
 0001:00004d50       _CG_AddLagometerFrameInfo  30005d50 f   cg_draw.obj
 0001:00004d80       _CG_AddLagometerSnapshotInfo 30005d80 f   cg_draw.obj
 0001:00004de0       _CG_CenterPrint            30005de0 f   cg_draw.obj
 0001:00004f30       _CG_Draw3DModel            30005f30 f   cg_draw.obj
 0001:00005070       _CG_DrawActive             30006070 f   cg_draw.obj
 0001:00005940       _CG_DrawFlagModel          30006940 f   cg_draw.obj
 0001:00005c20       _CG_DrawHead               30006c20 f   cg_draw.obj
 0001:00006730       _CG_DrawTeamBackground     30007730 f   cg_draw.obj
 0001:00006d10       _CG_DrawTimedMenus         30007d10 f   cg_draw.obj
 0001:00007300       _CG_Text_Height            30008300 f   cg_draw.obj
 0001:000073c0       _CG_Text_Paint             300083c0 f   cg_draw.obj
 0001:00007690       _CG_Text_PaintChar         30008690 f   cg_draw.obj
 0001:00007740       _CG_Text_Width             30008740 f   cg_draw.obj
 0001:000077f0       _CG_AdjustFrom640          300087f0 f   cg_drawtools.obj
 0001:00007850       _CG_ColorForHealth         30008850 f   cg_drawtools.obj
 0001:00007880       _CG_DrawBigString          30008880 f   cg_drawtools.obj
 0001:000078e0       _CG_DrawBigStringColor     300088e0 f   cg_drawtools.obj
 0001:00007910       _CG_DrawChar               30008910 f   cg_drawtools.obj
 0001:00007a20       _CG_DrawPic                30008a20 f   cg_drawtools.obj
 0001:00007aa0       _CG_DrawRect               30008aa0 f   cg_drawtools.obj
 0001:00007b30       _CG_DrawSides              30008b30 f   cg_drawtools.obj
 0001:00007c20       _CG_DrawSmallString        30008c20 f   cg_drawtools.obj
 0001:00007c80       _CG_DrawStringExt          30008c80 f   cg_drawtools.obj
 0001:00007df0       _CG_DrawStrlen             30008df0 f   cg_drawtools.obj
 0001:00007e30       _CG_DrawTopBottom          30008e30 f   cg_drawtools.obj
 0001:00007f20       _CG_FadeColor              30008f20 f   cg_drawtools.obj
 0001:00007fa0       _CG_FillRect               30008fa0 f   cg_drawtools.obj
 0001:00008030       _CG_GetColorForHealth      30009030 f   cg_drawtools.obj
 0001:00008110       _CG_TileClear              30009110 f   cg_drawtools.obj
 0001:00008280       _UI_DrawProportionalString 30009280 f   cg_drawtools.obj
 0001:00008670       _UI_ProportionalSizeScale  30009670 f   cg_drawtools.obj
 0001:00008690       _UI_ProportionalStringWidth 30009690 f   cg_drawtools.obj
 0001:000086d0       _CG_Bleed                  300096d0 f   cg_effects.obj
 0001:00008780       _CG_BubbleTrail            30009780 f   cg_effects.obj
 0001:00008ab0       _CG_GibPlayer              30009ab0 f   cg_effects.obj
 0001:00009450       _CG_InvulnerabilityImpact  3000a450 f   cg_effects.obj
 0001:00009570       _CG_InvulnerabilityJuiced  3000a570 f   cg_effects.obj
 0001:00009690       _CG_KamikazeEffect         3000a690 f   cg_effects.obj
 0001:00009760       _CG_LaunchGib              3000a760 f   cg_effects.obj
 0001:00009850       _CG_LightningBoltBeam      3000a850 f   cg_effects.obj
 0001:000098d0       _CG_MakeExplosion          3000a8d0 f   cg_effects.obj
 0001:00009aa0       _CG_ObeliskExplode         3000aaa0 f   cg_effects.obj
 0001:00009b20       _CG_ObeliskPain            3000ab20 f   cg_effects.obj
 0001:00009b70       _CG_ScorePlum              3000ab70 f   cg_effects.obj
 0001:00009cd0       _CG_SmokePuff              3000acd0 f   cg_effects.obj
 0001:00009e80       _CG_SpawnEffect            3000ae80 f   cg_effects.obj
 0001:0000a050       _CG_AddPacketEntities      3000b050 f   cg_ents.obj
 0001:0000a1c0       _CG_AdjustPositionForMover 3000b1c0 f   cg_ents.obj
 0001:0000a2c0       _CG_Beam                   3000b2c0 f   cg_ents.obj
 0001:0000b4f0       _CG_PositionEntityOnTag    3000c4f0 f   cg_ents.obj
 0001:0000b640       _CG_PositionRotatedEntityOnTag 3000c640 f   cg_ents.obj
 0001:0000b790       _CG_SetEntitySoundPosition 3000c790 f   cg_ents.obj
 0001:0000be00       _CG_CheckEvents            3000ce00 f   cg_event.obj
 0001:0000be90       _CG_EntityEvent            3000ce90 f   cg_event.obj
 0001:0000ddc0       _CG_PainEvent              3000edc0 f   cg_event.obj
 0001:0000de30       _CG_PlaceString            3000ee30 f   cg_event.obj
 0001:0000e000       _CG_DrawInformation        3000f000 f   cg_info.obj
 0001:0000e4d0       _CG_LoadingClient          3000f4d0 f   cg_info.obj
 0001:0000e670       _CG_LoadingItem            3000f670 f   cg_info.obj
 0001:0000e6c0       _CG_LoadingString          3000f6c0 f   cg_info.obj
 0001:0000e7b0       _CG_AddFadeRGB             3000f7b0 f   cg_localents.obj
 0001:0000e930       _CG_AddFragment            3000f930 f   cg_localents.obj
 0001:0000eb60       _CG_AddInvulnerabilityImpact 3000fb60 f   cg_localents.obj
 0001:0000eb70       _CG_AddInvulnerabilityJuiced 3000fb70 f   cg_localents.obj
 0001:0000ec40       _CG_AddKamikaze            3000fc40 f   cg_localents.obj
 0001:0000f210       _CG_AddLocalEntities       30010210 f   cg_localents.obj
 0001:0000f470       _CG_AddRefEntity           30010470 f   cg_localents.obj
 0001:0000f580       _CG_AddScorePlum           30010580 f   cg_localents.obj
 0001:0000fa60       _CG_AllocLocalEntity       30010a60 f   cg_localents.obj
 0001:0000fac0       _CG_BloodTrail             30010ac0 f   cg_localents.obj
 0001:0000fbb0       _CG_FragmentBounceMark     30010bb0 f   cg_localents.obj
 0001:0000fcd0       _CG_FragmentBounceSound    30010cd0 f   cg_localents.obj
 0001:0000fd30       _CG_FreeLocalEntity        30010d30 f   cg_localents.obj
 0001:0000fd70       _CG_InitLocalEntities      30010d70 f   cg_localents.obj
 0001:0000fdd0       _CG_ReflectVelocity        30010dd0 f   cg_localents.obj
 0001:0000ff20       _CG_Argv                   30010f20 f   cg_main.obj
 0001:0000ff50       _CG_AssetCache             30010f50 f   cg_main.obj
 0001:00010060       _CG_Asset_Parse            30011060 f   cg_main.obj
 0001:00010500       _CG_BuildSpectatorString   30011500 f   cg_main.obj
 0001:00010580       _CG_ConfigString           30011580 f   cg_main.obj
 0001:000105b0       _CG_CrosshairPlayer        300115b0 f   cg_main.obj
 0001:00010670       _CG_Error                  30011670 f   cg_main.obj
 0001:00010a90       _CG_Init                   30011a90 f   cg_main.obj
 0001:00010cf0       _CG_LastAttacker           30011cf0 f   cg_main.obj
 0001:00010d10       _CG_LoadHudMenu            30011d10 f   cg_main.obj
 0001:00010f20       _CG_LoadMenus              30011f20 f   cg_main.obj
 0001:00011090       _CG_Load_Menu              30012090 f   cg_main.obj
 0001:00011210       _CG_ParseMenu              30012210 f   cg_main.obj
 0001:00011310       _CG_Printf                 30012310 f   cg_main.obj
 0001:000113c0       _CG_RegisterCvars          300123c0 f   cg_main.obj
 0001:00012c00       _CG_SetScoreSelection      30013c00 f   cg_main.obj
 0001:00012cb0       _CG_StartMusic             30013cb0 f   cg_main.obj
 0001:00012d40       _CG_Text_PaintWithCursor   30013d40 f   cg_main.obj
 0001:00012d90       _CG_UpdateCvars            30013d90 f   cg_main.obj
 0001:00012e20       _Com_Error                 30013e20 f   cg_main.obj
 0001:00012e70       _Com_Printf                30013e70 f   cg_main.obj
 0001:00012ec0       _vmMain                    30013ec0 f   cg_main.obj
 0001:00012f90       _CG_AddMarks               30013f90 f   cg_marks.obj
 0001:00013150       _CG_AddParticleToScene     30014150 f   cg_marks.obj
 0001:00014f10       _CG_AddParticles           30015f10 f   cg_marks.obj
 0001:000152b0       _CG_AllocMark              300162b0 f   cg_marks.obj
 0001:00015320       _CG_ClearParticles         30016320 f   cg_marks.obj
 0001:00015430       _CG_FreeMarkPoly           30016430 f   cg_marks.obj
 0001:00015470       _CG_ImpactMark             30016470 f   cg_marks.obj
 0001:000158a0       _CG_InitMarkPolys          300168a0 f   cg_marks.obj
 0001:00015900       _CG_ParticleExplosion      30016900 f   cg_marks.obj
 0001:00015aa0       _CG_CheckOrderPending      30016aa0 f   cg_newDraw.obj
 0001:00016740       _CG_DrawMedal              30017740 f   cg_newDraw.obj
 0001:00016940       _CG_DrawNewTeamInfo        30017940 f   cg_newDraw.obj
 0001:00018640       _CG_DrawTeamSpectators     30019640 f   cg_newDraw.obj
 0001:000188c0       _CG_EventHandling          300198c0 f   cg_newDraw.obj
 0001:000188e0       _CG_GameTypeString         300198e0 f   cg_newDraw.obj
 0001:00018930       _CG_GetGameStatusText      30019930 f   cg_newDraw.obj
 0001:000189c0       _CG_GetKillerText          300199c0 f   cg_newDraw.obj
 0001:000189f0       _CG_GetSelectedPlayer      300199f0 f   cg_newDraw.obj
 0001:00018a10       _CG_GetTeamColor           30019a10 f   cg_newDraw.obj
 0001:00018a80       _CG_GetValue               30019a80 f   cg_newDraw.obj
 0001:00018db0       _CG_HideTeamMenu           30019db0 f   cg_newDraw.obj
 0001:00018dd0       _CG_InitTeamChat           30019dd0 f   cg_newDraw.obj
 0001:00018e10       _CG_KeyEvent               30019e10 f   cg_newDraw.obj
 0001:00018ea0       _CG_MouseEvent             30019ea0 f   cg_newDraw.obj
 0001:00019060       _CG_OtherTeamHasFlag       3001a060 f   cg_newDraw.obj
 0001:000190d0       _CG_OwnerDraw              3001a0d0 f   cg_newDraw.obj
 0001:00019800       _CG_OwnerDrawVisible       3001a800 f   cg_newDraw.obj
 0001:00019970       _CG_RunMenuScript          3001a970 f   cg_newDraw.obj
 0001:00019980       _CG_SelectNextPlayer       3001a980 f   cg_newDraw.obj
 0001:000199b0       _CG_SelectPrevPlayer       3001a9b0 f   cg_newDraw.obj
 0001:00019a60       _CG_ShowResponseHead       3001aa60 f   cg_newDraw.obj
 0001:00019a90       _CG_StatusHandle           3001aa90 f   cg_newDraw.obj
 0001:00019d20       _CG_YourTeamHasFlag        3001ad20 f   cg_newDraw.obj
 0001:00019e00       _CG_AddRefEntityWithPowerups 3001ae00 f   cg_players.obj
 0001:0001a1d0       _CG_CustomSound            3001b1d0 f   cg_players.obj
 0001:0001aaa0       _CG_LoadDeferredPlayers    3001baa0 f   cg_players.obj
 0001:0001ab00       _CG_NewClientInfo          3001bb00 f   cg_players.obj
 0001:0001b5d0       _CG_Player                 3001c5d0 f   cg_players.obj
 0001:0001dbf0       _CG_ResetPlayerEntity      3001ebf0 f   cg_players.obj
 0001:0001e4f0       _CG_CheckAmmo              3001f4f0 f   cg_playerstate.obj
 0001:0001e5a0       _CG_CheckLocalSounds       3001f5a0 f   cg_playerstate.obj
 0001:0001e990       _CG_CheckPlayerstateEvents 3001f990 f   cg_playerstate.obj
 0001:0001ea60       _CG_DamageFeedback         3001fa60 f   cg_playerstate.obj
 0001:0001edd0       _CG_Respawn                3001fdd0 f   cg_playerstate.obj
 0001:0001ee00       _CG_TransitionPlayerState  3001fe00 f   cg_playerstate.obj
 0001:0001ef30       _CG_BuildSolidList         3001ff30 f   cg_predict.obj
 0001:0001f370       _CG_PointContents          30020370 f   cg_predict.obj
 0001:0001f3f0       _CG_PredictPlayerState     300203f0 f   cg_predict.obj
 0001:0001fc20       _CG_Trace                  30020c20 f   cg_predict.obj
 0001:0001fcc0       _CG_AddBufferedVoiceChat   30020cc0 f   cg_servercmds.obj
 0001:000200e0       _CG_ExecuteNewServerCommands 300210e0 f   cg_servercmds.obj
 0001:00020120       _CG_GetVoiceChat           30021120 f   cg_servercmds.obj
 0001:000201c0       _CG_HeadModelVoiceChats    300211c0 f   cg_servercmds.obj
 0001:000202f0       _CG_LoadVoiceChats         300212f0 f   cg_servercmds.obj
 0001:00020670       _CG_ParseServerinfo        30021670 f   cg_servercmds.obj
 0001:00020880       _CG_ParseVoiceChats        30021880 f   cg_servercmds.obj
 0001:00020c60       _CG_PlayBufferedVoiceChats 30021c60 f   cg_servercmds.obj
 0001:00020cc0       _CG_PlayVoiceChat          30021cc0 f   cg_servercmds.obj
 0001:00021350       _CG_SetConfigValues        30022350 f   cg_servercmds.obj
 0001:000213f0       _CG_ShaderStateChanged     300223f0 f   cg_servercmds.obj
 0001:00021550       _CG_VoiceChat              30022550 f   cg_servercmds.obj
 0001:000216c0       _CG_VoiceChatListForClient 300226c0 f   cg_servercmds.obj
 0001:000219d0       _CG_VoiceChatLocal         300229d0 f   cg_servercmds.obj
 0001:00021af0       _CG_ProcessSnapshots       30022af0 f   cg_snapshot.obj
 0001:00021d20       _CG_SetInitialSnapshot     30022d20 f   cg_snapshot.obj
 0001:000220f0       _PASSFLOAT                 300230f0 f   cg_syscalls.obj
 0001:00022110       _dllEntry                  30023110 f   cg_syscalls.obj
 0001:00022120       _trap_AddCommand           30023120 f   cg_syscalls.obj
 0001:00022140       _trap_Argc                 30023140 f   cg_syscalls.obj
 0001:00022150       _trap_Args                 30023150 f   cg_syscalls.obj
 0001:00022170       _trap_Argv                 30023170 f   cg_syscalls.obj
 0001:00022190       _trap_CIN_DrawCinematic    30023190 f   cg_syscalls.obj
 0001:000221b0       _trap_CIN_PlayCinematic    300231b0 f   cg_syscalls.obj
 0001:000221e0       _trap_CIN_RunCinematic     300231e0 f   cg_syscalls.obj
 0001:00022200       _trap_CIN_SetExtents       30023200 f   cg_syscalls.obj
 0001:00022220       _trap_CIN_StopCinematic    30023220 f   cg_syscalls.obj
 0001:00022240       _trap_CM_BoxTrace          30023240 f   cg_syscalls.obj
 0001:00022270       _trap_CM_InlineModel       30023270 f   cg_syscalls.obj
 0001:00022290       _trap_CM_LoadMap           30023290 f   cg_syscalls.obj
 0001:000222b0       _trap_CM_MarkFragments     300232b0 f   cg_syscalls.obj
 0001:000222e0       _trap_CM_NumInlineModels   300232e0 f   cg_syscalls.obj
 0001:000222f0       _trap_CM_PointContents     300232f0 f   cg_syscalls.obj
 0001:00022310       _trap_CM_TempBoxModel      30023310 f   cg_syscalls.obj
 0001:00022330       _trap_CM_TransformedBoxTrace 30023330 f   cg_syscalls.obj
 0001:00022360       _trap_CM_TransformedPointContents 30023360 f   cg_syscalls.obj
 0001:00022380       _trap_Cvar_Register        30023380 f   cg_syscalls.obj
 0001:000223a0       _trap_Cvar_Set             300233a0 f   cg_syscalls.obj
 0001:000223c0       _trap_Cvar_Update          300233c0 f   cg_syscalls.obj
 0001:000223e0       _trap_Cvar_VariableStringBuffer 300233e0 f   cg_syscalls.obj
 0001:00022400       _trap_Error                30023400 f   cg_syscalls.obj
 0001:00022420       _trap_FS_FCloseFile        30023420 f   cg_syscalls.obj
 0001:00022440       _trap_FS_FOpenFile         30023440 f   cg_syscalls.obj
 0001:00022460       _trap_FS_Read              30023460 f   cg_syscalls.obj
 0001:00022480       _trap_GetCurrentCmdNumber  30023480 f   cg_syscalls.obj
 0001:00022490       _trap_GetCurrentSnapshotNumber 30023490 f   cg_syscalls.obj
 0001:000224b0       _trap_GetGameState         300234b0 f   cg_syscalls.obj
 0001:000224d0       _trap_GetGlconfig          300234d0 f   cg_syscalls.obj
 0001:000224f0       _trap_GetServerCommand     300234f0 f   cg_syscalls.obj
 0001:00022510       _trap_GetSnapshot          30023510 f   cg_syscalls.obj
 0001:00022530       _trap_GetUserCmd           30023530 f   cg_syscalls.obj
 0001:00022550       _trap_Key_SetCatcher       30023550 f   cg_syscalls.obj
 0001:00022570       _trap_MemoryRemaining      30023570 f   cg_syscalls.obj
 0001:00022580       _trap_Milliseconds         30023580 f   cg_syscalls.obj
 0001:00022590       _trap_PC_FreeSource        30023590 f   cg_syscalls.obj
 0001:000225b0       _trap_PC_LoadSource        300235b0 f   cg_syscalls.obj
 0001:000225d0       _trap_PC_ReadToken         300235d0 f   cg_syscalls.obj
 0001:000225f0       _trap_PC_SourceFileAndLine 300235f0 f   cg_syscalls.obj
 0001:00022610       _trap_Print                30023610 f   cg_syscalls.obj
 0001:00022630       _trap_R_AddLightToScene    30023630 f   cg_syscalls.obj
 0001:000226a0       _trap_R_AddPolyToScene     300236a0 f   cg_syscalls.obj
 0001:000226c0       _trap_R_AddRefEntityToScene 300236c0 f   cg_syscalls.obj
 0001:000226e0       _trap_R_ClearScene         300236e0 f   cg_syscalls.obj
 0001:000226f0       _trap_R_DrawStretchPic     300236f0 f   cg_syscalls.obj
 0001:000227b0       _trap_R_LerpTag            300237b0 f   cg_syscalls.obj
 0001:000227f0       _trap_R_LoadWorldMap       300237f0 f   cg_syscalls.obj
 0001:00022810       _trap_R_ModelBounds        30023810 f   cg_syscalls.obj
 0001:00022830       _trap_R_RegisterFont       30023830 f   cg_syscalls.obj
 0001:00022850       _trap_R_RegisterModel      30023850 f   cg_syscalls.obj
 0001:00022870       _trap_R_RegisterShader     30023870 f   cg_syscalls.obj
 0001:00022890       _trap_R_RegisterShaderNoMip 30023890 f   cg_syscalls.obj
 0001:000228b0       _trap_R_RegisterSkin       300238b0 f   cg_syscalls.obj
 0001:000228d0       _trap_R_RemapShader        300238d0 f   cg_syscalls.obj
 0001:000228f0       _trap_R_RenderScene        300238f0 f   cg_syscalls.obj
 0001:00022910       _trap_R_SetColor           30023910 f   cg_syscalls.obj
 0001:00022930       _trap_S_AddLoopingSound    30023930 f   cg_syscalls.obj
 0001:00022950       _trap_S_AddRealLoopingSound 30023950 f   cg_syscalls.obj
 0001:00022970       _trap_S_ClearLoopingSounds 30023970 f   cg_syscalls.obj
 0001:00022990       _trap_S_RegisterSound      30023990 f   cg_syscalls.obj
 0001:000229b0       _trap_S_Respatialize       300239b0 f   cg_syscalls.obj
 0001:000229d0       _trap_S_StartBackgroundTrack 300239d0 f   cg_syscalls.obj
 0001:000229f0       _trap_S_StartLocalSound    300239f0 f   cg_syscalls.obj
 0001:00022a10       _trap_S_StartSound         30023a10 f   cg_syscalls.obj
 0001:00022a30       _trap_S_StopBackgroundTrack 30023a30 f   cg_syscalls.obj
 0001:00022a40       _trap_S_StopLoopingSound   30023a40 f   cg_syscalls.obj
 0001:00022a60       _trap_S_UpdateEntityPosition 30023a60 f   cg_syscalls.obj
 0001:00022a80       _trap_SendClientCommand    30023a80 f   cg_syscalls.obj
 0001:00022aa0       _trap_SendConsoleCommand   30023aa0 f   cg_syscalls.obj
 0001:00022ac0       _trap_SetUserCmdValue      30023ac0 f   cg_syscalls.obj
 0001:00022af0       _trap_SnapVector           30023af0 f   cg_syscalls.obj
 0001:00022b10       _trap_UpdateScreen         30023b10 f   cg_syscalls.obj
 0001:00022b20       _CG_AddBufferedSound       30023b20 f   cg_view.obj
 0001:00023410       _CG_DrawActiveFrame        30024410 f   cg_view.obj
 0001:00023f10       _CG_TestGun_f              30024f10 f   cg_view.obj
 0001:00023f30       _CG_TestModelNextFrame_f   30024f30 f   cg_view.obj
 0001:00023f50       _CG_TestModelNextSkin_f    30024f50 f   cg_view.obj
 0001:00023f70       _CG_TestModelPrevFrame_f   30024f70 f   cg_view.obj
 0001:00023fa0       _CG_TestModelPrevSkin_f    30024fa0 f   cg_view.obj
 0001:00023fd0       _CG_TestModel_f            30024fd0 f   cg_view.obj
 0001:00024130       _CG_ZoomDown_f             30025130 f   cg_view.obj
 0001:00024150       _CG_ZoomUp_f               30025150 f   cg_view.obj
 0001:00024170       _CG_AddPlayerWeapon        30025170 f   cg_weapons.obj
 0001:00024640       _CG_AddViewWeapon          30025640 f   cg_weapons.obj
 0001:00024970       _CG_Bullet                 30025970 f   cg_weapons.obj
 0001:00024e30       _CG_DrawWeaponSelect       30025e30 f   cg_weapons.obj
 0001:00025020       _CG_FireWeapon             30026020 f   cg_weapons.obj
 0001:000250f0       _CG_GrappleTrail           300260f0 f   cg_weapons.obj
 0001:00025b60       _CG_MissileHitPlayer       30026b60 f   cg_weapons.obj
 0001:00025bc0       _CG_MissileHitWall         30026bc0 f   cg_weapons.obj
 0001:00026350       _CG_NextWeapon_f           30027350 f   cg_weapons.obj
 0001:000263c0       _CG_OutOfAmmoChange        300273c0 f   cg_weapons.obj
 0001:00026840       _CG_PrevWeapon_f           30027840 f   cg_weapons.obj
 0001:000268c0       _CG_RailTrail              300278c0 f   cg_weapons.obj
 0001:00026e40       _CG_RegisterItemVisuals    30027e40 f   cg_weapons.obj
 0001:00026f00       _CG_RegisterWeapon         30027f00 f   cg_weapons.obj
 0001:00027d30       _CG_ShotgunFire            30028d30 f   cg_weapons.obj
 0001:00028190       _CG_Tracer                 30029190 f   cg_weapons.obj
 0001:000285e0       _CG_Weapon_f               300295e0 f   cg_weapons.obj
 0001:00028640       _AngleMod                  30029640 f   q_math.obj
 0001:00028680       _AngleNormalize180         30029680 f   q_math.obj
 0001:000286c0       _AngleNormalize360         300296c0 f   q_math.obj
 0001:00028710       _AngleSubtract             30029710 f   q_math.obj
 0001:00028770       _AngleVectors              30029770 f   q_math.obj
 0001:00028930       _AnglesSubtract            30029930 f   q_math.obj
 0001:000289a0       _AnglesToAxis              300299a0 f   q_math.obj
 0001:00028a00       _AxisClear                 30029a00 f   q_math.obj
 0001:00028a50       _AxisCopy                  30029a50 f   q_math.obj
 0001:00028a90       _ByteToDir                 30029a90 f   q_math.obj
 0001:00028af0       _LerpAngle                 30029af0 f   q_math.obj
 0001:00028b50       _MatrixMultiply            30029b50 f   q_math.obj
 0001:00028ce0       _PerpendicularVector       30029ce0 f   q_math.obj
 0001:00028db0       _ProjectPointOnPlane       30029db0 f   q_math.obj
 0001:00028e60       _Q_crandom                 30029e60 f   q_math.obj
 0001:00028ea0       _Q_rand                    30029ea0 f   q_math.obj
 0001:00028ec0       _Q_random                  30029ec0 f   q_math.obj
 0001:00028ef0       _RotateAroundDirection     30029ef0 f   q_math.obj
 0001:00028fb0       _RotatePointAroundVector   30029fb0 f   q_math.obj
 0001:00029210       _VectorNormalize           3002a210 f   q_math.obj
 0001:000292d0       _VectorNormalize2          3002a2d0 f   q_math.obj
 0001:00029380       _vectoangles               3002a380 f   q_math.obj
 0001:00029500       _COM_Compress              3002a500 f   q_shared.obj
 0001:00029610       _COM_Parse                 3002a610 f   q_shared.obj
 0001:00029630       _COM_ParseExt              3002a630 f   q_shared.obj
 0001:00029790       _COM_StripExtension        3002a790 f   q_shared.obj
 0001:000297c0       _Com_sprintf               3002a7c0 f   q_shared.obj
 0001:00029850       _Info_ValueForKey          3002a850 f   q_shared.obj
 0001:00029970       _Q_CleanStr                3002a970 f   q_shared.obj
 0001:000299c0       _Q_PrintStrlen             3002a9c0 f   q_shared.obj
 0001:00029a00       _Q_strcat                  3002aa00 f   q_shared.obj
 0001:00029a50       _Q_stricmp                 3002aa50 f   q_shared.obj
 0001:00029a80       _Q_stricmpn                3002aa80 f   q_shared.obj
 0001:00029b00       _Q_strncpyz                3002ab00 f   q_shared.obj
 0001:00029b60       _Q_strrchr                 3002ab60 f   q_shared.obj
 0001:00029b90       _Q_strupr                  3002ab90 f   q_shared.obj
 0001:00029c10       _va                        3002ac10 f   q_shared.obj
 0001:00029c50       _MenuParse_visible         3002ac50 f   ui_shared.obj
 0001:00029c50       _ItemParse_visible         3002ac50 f   ui_shared.obj
 0001:00029c90       _ItemParse_ownerdraw       3002ac90 f   ui_shared.obj
 0001:00029cc0       _ItemParse_align           3002acc0 f   ui_shared.obj
 0001:00029cc0       _MenuParse_fadeCycle       3002acc0 f   ui_shared.obj
 0001:00029ce0       _ItemParse_textalign       3002ace0 f   ui_shared.obj
 0001:00029d00       _ItemParse_textalignx      3002ad00 f   ui_shared.obj
 0001:00029d00       _MenuParse_fadeAmount      3002ad00 f   ui_shared.obj
 0001:00029d20       _ItemParse_textaligny      3002ad20 f   ui_shared.obj
 0001:00029d40       _Script_Show               3002ad40 f   ui_shared.obj
 0001:00029d80       _ItemParse_textscale       3002ad80 f   ui_shared.obj
 0001:00029da0       _ItemParse_textstyle       3002ada0 f   ui_shared.obj
 0001:00029dc0       _Script_Hide               3002adc0 f   ui_shared.obj
 0001:00029e00       _ItemParse_backcolor       3002ae00 f   ui_shared.obj
 0001:00029e50       _Script_FadeIn             3002ae50 f   ui_shared.obj
 0001:00029e90       _Script_FadeOut            3002ae90 f   ui_shared.obj
 0001:00029ed0       _ItemParse_forecolor       3002aed0 f   ui_shared.obj
 0001:00029f30       _Script_Open               3002af30 f   ui_shared.obj
 0001:00029f60       _ItemParse_bordercolor     3002af60 f   ui_shared.obj
 0001:00029fb0       _Script_ConditionalOpen    3002afb0 f   ui_shared.obj
 0001:0002a040       _MenuParse_outlinecolor    3002b040 f   ui_shared.obj
 0001:0002a040       _ItemParse_outlinecolor    3002b040 f   ui_shared.obj
 0001:0002a060       _Script_Close              3002b060 f   ui_shared.obj
 0001:0002a090       _MenuParse_cinematic       3002b090 f   ui_shared.obj
 0001:0002a090       _ItemParse_cinematic       3002b090 f   ui_shared.obj
 0001:0002a0b0       _ItemParse_doubleClick     3002b0b0 f   ui_shared.obj
 0001:0002a0f0       _ItemParse_onFocus         3002b0f0 f   ui_shared.obj
 0001:0002a110       _Script_Transition         3002b110 f   ui_shared.obj
 0001:0002a1d0       _ItemParse_leaveFocus      3002b1d0 f   ui_shared.obj
 0001:0002a1f0       _ItemParse_mouseEnter      3002b1f0 f   ui_shared.obj
 0001:0002a210       _ItemParse_mouseExit       3002b210 f   ui_shared.obj
 0001:0002a230       _ItemParse_mouseEnterText  3002b230 f   ui_shared.obj
 0001:0002a250       _ItemParse_mouseExitText   3002b250 f   ui_shared.obj
 0001:0002a270       _Script_Orbit              3002b270 f   ui_shared.obj
 0001:0002a340       _ItemParse_action          3002b340 f   ui_shared.obj
 0001:0002a360       _ItemParse_special         3002b360 f   ui_shared.obj
 0001:0002a360       _ItemParse_feeder          3002b360 f   ui_shared.obj
 0001:0002a380       _Script_SetFocus           3002b380 f   ui_shared.obj
 0001:0002a400       _ItemParse_cvarTest        3002b400 f   ui_shared.obj
 0001:0002a420       _ItemParse_cvar            3002b420 f   ui_shared.obj
 0001:0002a470       _Script_SetPlayerModel     3002b470 f   ui_shared.obj
 0001:0002a4a0       _ItemParse_maxChars        3002b4a0 f   ui_shared.obj
 0001:0002a4f0       _Script_SetPlayerHead      3002b4f0 f   ui_shared.obj
 0001:0002a520       _Script_SetCvar            3002b520 f   ui_shared.obj
 0001:0002a570       _ItemParse_maxPaintChars   3002b570 f   ui_shared.obj
 0001:0002a5c0       _Script_Exec               3002b5c0 f   ui_shared.obj
 0001:0002a600       _ItemParse_cvarFloat       3002b600 f   ui_shared.obj
 0001:0002a680       _Script_Play               3002b680 f   ui_shared.obj
 0001:0002a6c0       _ItemParse_cvarStrList     3002b6c0 f   ui_shared.obj
 0001:0002a800       _Script_playLooped         3002b800 f   ui_shared.obj
 0001:0002a840       _ItemParse_cvarFloatList   3002b840 f   ui_shared.obj
 0001:0002a970       _ItemParse_addColorRange   3002b970 f   ui_shared.obj
 0001:0002aa20       _ItemParse_enableCvar      3002ba20 f   ui_shared.obj
 0001:0002aa60       _ItemParse_disableCvar     3002ba60 f   ui_shared.obj
 0001:0002aaa0       _ItemParse_showCvar        3002baa0 f   ui_shared.obj
 0001:0002aae0       _ItemParse_hideCvar        3002bae0 f   ui_shared.obj
 0001:0002ab20       _MenuParse_font            3002bb20 f   ui_shared.obj
 0001:0002ab80       _MenuParse_name            3002bb80 f   ui_shared.obj
 0001:0002abc0       _MenuParse_fullscreen      3002bbc0 f   ui_shared.obj
 0001:0002abe0       _MenuParse_rect            3002bbe0 f   ui_shared.obj
 0001:0002ac00       _ItemParse_style           3002bc00 f   ui_shared.obj
 0001:0002ac00       _MenuParse_style           3002bc00 f   ui_shared.obj
 0001:0002ac20       _MenuParse_onOpen          3002bc20 f   ui_shared.obj
 0001:0002ac40       _MenuParse_onClose         3002bc40 f   ui_shared.obj
 0001:0002ac60       _MenuParse_onESC           3002bc60 f   ui_shared.obj
 0001:0002ac80       _ItemParse_bordersize      3002bc80 f   ui_shared.obj
 0001:0002ac80       _MenuParse_borderSize      3002bc80 f   ui_shared.obj
 0001:0002aca0       _MenuParse_backcolor       3002bca0 f   ui_shared.obj
 0001:0002acf0       _MenuParse_forecolor       3002bcf0 f   ui_shared.obj
 0001:0002ad40       _MenuParse_bordercolor     3002bd40 f   ui_shared.obj
 0001:0002ad90       _MenuParse_focuscolor      3002bd90 f   ui_shared.obj
 0001:0002ade0       _MenuParse_disablecolor    3002bde0 f   ui_shared.obj
 0001:0002ae30       _MenuParse_background      3002be30 f   ui_shared.obj
 0001:0002ae30       _ItemParse_background      3002be30 f   ui_shared.obj
 0001:0002ae70       _MenuParse_ownerdrawFlag   3002be70 f   ui_shared.obj
 0001:0002ae70       _ItemParse_ownerdrawFlag   3002be70 f   ui_shared.obj
 0001:0002aea0       _MenuParse_ownerdraw       3002bea0 f   ui_shared.obj
 0001:0002aec0       _MenuParse_popup           3002bec0 f   ui_shared.obj
 0001:0002aee0       _MenuParse_outOfBounds     3002bee0 f   ui_shared.obj
 0001:0002af00       _MenuParse_soundLoop       3002bf00 f   ui_shared.obj
 0001:0002af00       _ItemParse_text            3002bf00 f   ui_shared.obj
 0001:0002af20       _MenuParse_fadeClamp       3002bf20 f   ui_shared.obj
 0001:0002af40       _MenuParse_itemDef         3002bf40 f   ui_shared.obj
 0001:0002afd0       _ItemParse_name            3002bfd0 f   ui_shared.obj
 0001:0002aff0       _ItemParse_focusSound      3002bff0 f   ui_shared.obj
 0001:0002b040       _ItemParse_group           3002c040 f   ui_shared.obj
 0001:0002b060       _ItemParse_asset_model     3002c060 f   ui_shared.obj
 0001:0002b0c0       _ItemParse_asset_shader    3002c0c0 f   ui_shared.obj
 0001:0002b100       _ItemParse_model_origin    3002c100 f   ui_shared.obj
 0001:0002b160       _ItemParse_model_rotation  3002c160 f   ui_shared.obj
 0001:0002b190       _ItemParse_model_angle     3002c190 f   ui_shared.obj
 0001:0002b1c0       _Script_SetColor           3002c1c0 f   ui_shared.obj
 0001:0002b270       _ItemParse_rect            3002c270 f   ui_shared.obj
 0001:0002b290       _ItemParse_decoration      3002c290 f   ui_shared.obj
 0001:0002b2b0       _ItemParse_notselectable   3002c2b0 f   ui_shared.obj
 0001:0002b2f0       _Script_SetAsset           3002c2f0 f   ui_shared.obj
 0001:0002b310       _ItemParse_wrapped         3002c310 f   ui_shared.obj
 0001:0002b330       _Script_SetBackground      3002c330 f   ui_shared.obj
 0001:0002b370       _ItemParse_autowrapped     3002c370 f   ui_shared.obj
 0001:0002b390       _ItemParse_horizontalscroll 3002c390 f   ui_shared.obj
 0001:0002b3b0       _ItemParse_type            3002c3b0 f   ui_shared.obj
 0001:0002b3f0       _ItemParse_elementwidth    3002c3f0 f   ui_shared.obj
 0001:0002b3f0       _ItemParse_model_fovx      3002c3f0 f   ui_shared.obj
 0001:0002b420       _Script_SetTeamColor       3002c420 f   ui_shared.obj
 0001:0002b490       _ItemParse_model_fovy      3002c490 f   ui_shared.obj
 0001:0002b490       _ItemParse_elementheight   3002c490 f   ui_shared.obj
 0001:0002b4c0       _Script_SetItemColor       3002c4c0 f   ui_shared.obj
 0001:0002b5e0       _ItemParse_elementtype     3002c5e0 f   ui_shared.obj
 0001:0002b620       _ItemParse_columns         3002c620 f   ui_shared.obj
 0001:0002b6e0       _ItemParse_border          3002c6e0 f   ui_shared.obj
 0001:0002b6e0       _MenuParse_border          3002c6e0 f   ui_shared.obj
 0001:0002b700       _AdjustFrom640             3002c700 f   ui_shared.obj
 0001:0002b760       _BindingFromName           3002c760 f   ui_shared.obj
 0001:0002b850       _BindingIDFromName         3002c850 f   ui_shared.obj
 0001:0002b890       _Color_Parse               3002c890 f   ui_shared.obj
 0001:0002b8e0       _Controls_GetConfig        3002c8e0 f   ui_shared.obj
 0001:0002b9c0       _Controls_SetConfig        3002c9c0 f   ui_shared.obj
 0001:0002ba20       _Display_CaptureItem       3002ca20 f   ui_shared.obj
 0001:0002bad0       _Display_CursorType        3002cad0 f   ui_shared.obj
 0001:0002bb90       _Display_HandleKey         3002cb90 f   ui_shared.obj
 0001:0002bbc0       _Display_MouseMove         3002cbc0 f   ui_shared.obj
 0001:0002bcc0       _Display_VisibleMenuCount  3002ccc0 f   ui_shared.obj
 0001:0002bcf0       _Fade                      3002ccf0 f   ui_shared.obj
 0001:0002bd70       _Float_Parse               3002cd70 f   ui_shared.obj
 0001:0002bdb0       _GradientBar_Paint         3002cdb0 f   ui_shared.obj
 0001:0002be20       _Init_Display              3002ce20 f   ui_shared.obj
 0001:0002be30       _Int_Parse                 3002ce30 f   ui_shared.obj
 0001:0002be70       _IsVisible                 3002ce70 f   ui_shared.obj
 0001:0002be90       _Item_Action               3002ce90 f   ui_shared.obj
 0001:0002beb0       _Item_Bind_HandleKey       3002ceb0 f   ui_shared.obj
 0001:0002c100       _Item_Bind_Paint           3002d100 f   ui_shared.obj
 0001:0002c380       _Item_EnableShowViaCvar    3002d380 f   ui_shared.obj
 0001:0002c4f0       _Item_HandleKey            3002d4f0 f   ui_shared.obj
 0001:0002c610       _Item_Init                 3002d610 f   ui_shared.obj
 0001:0002c640       _Item_InitControls         3002d640 f   ui_shared.obj
 0001:0002c680       _Item_ListBox_HandleKey    3002d680 f   ui_shared.obj
 0001:0002ca30       _Item_ListBox_MaxScroll    3002da30 f   ui_shared.obj
 0001:0002caa0       _Item_ListBox_MouseEnter   3002daa0 f   ui_shared.obj
 0001:0002cc50       _Item_ListBox_OverLB       3002dc50 f   ui_shared.obj
 0001:0002cfc0       _Item_ListBox_Paint        3002dfc0 f   ui_shared.obj
 0001:0002d980       _Item_ListBox_ThumbDrawPosition 3002e980 f   ui_shared.obj
 0001:0002da70       _Item_ListBox_ThumbPosition 3002ea70 f   ui_shared.obj
 0001:0002db50       _Item_Model_Paint          3002eb50 f   ui_shared.obj
 0001:0002de40       _Item_MouseEnter           3002ee40 f   ui_shared.obj
 0001:0002df80       _Item_MouseLeave           3002ef80 f   ui_shared.obj
 0001:0002dfc0       _Item_Multi_CountSettings  3002efc0 f   ui_shared.obj
 0001:0002dfe0       _Item_Multi_FindCvarByValue 3002efe0 f   ui_shared.obj
 0001:0002e0f0       _Item_Multi_HandleKey      3002f0f0 f   ui_shared.obj
 0001:0002e240       _Item_Multi_Paint          3002f240 f   ui_shared.obj
 0001:0002e410       _Item_Multi_Setting        3002f410 f   ui_shared.obj
 0001:0002e520       _Item_OwnerDraw_HandleKey  3002f520 f   ui_shared.obj
 0001:0002e560       _Item_OwnerDraw_Paint      3002f560 f   ui_shared.obj
 0001:0002e9b0       _Item_Paint                3002f9b0 f   ui_shared.obj
 0001:0002ee30       _Item_Parse                3002fe30 f   ui_shared.obj
 0001:0002ef50       _Item_RunScript            3002ff50 f   ui_shared.obj
 0001:0002f070       _Item_SetFocus             30030070 f   ui_shared.obj
 0001:0002f210       _Item_SetMouseOver         30030210 f   ui_shared.obj
 0001:0002f230       _Item_SetScreenCoords      30030230 f   ui_shared.obj
 0001:0002f2a0       _Item_SetTextExtents       300302a0 f   ui_shared.obj
 0001:0002f4b0       _Item_SetupKeywordHash     300304b0 f   ui_shared.obj
 0001:0002f500       _Item_Slider_HandleKey     30030500 f   ui_shared.obj
 0001:0002f690       _Item_Slider_OverSlider    30030690 f   ui_shared.obj
 0001:0002f710       _Item_Slider_Paint         30030710 f   ui_shared.obj
 0001:0002f930       _Item_Slider_ThumbPosition 30030930 f   ui_shared.obj
 0001:0002f9f0       _Item_StartCapture         300309f0 f   ui_shared.obj
 0001:0002fbd0       _Item_TextColor            30030bd0 f   ui_shared.obj
 0001:0002fdf0       _Item_TextField_HandleKey  30030df0 f   ui_shared.obj
 0001:00030230       _Item_TextField_Paint      30031230 f   ui_shared.obj
 0001:000304f0       _Item_Text_AutoWrapped_Paint 300314f0 f   ui_shared.obj
 0001:00030790       _Item_Text_Paint           30031790 f   ui_shared.obj
 0001:000308b0       _Item_Text_Wrapped_Paint   300318b0 f   ui_shared.obj
 0001:00030aa0       _Item_UpdatePosition       30031aa0 f   ui_shared.obj
 0001:00030af0       _Item_ValidateTypeData     30031af0 f   ui_shared.obj
 0001:00030bd0       _Item_YesNo_HandleKey      30031bd0 f   ui_shared.obj
 0001:00030ca0       _Item_YesNo_Paint          30031ca0 f   ui_shared.obj
 0001:00030ed0       _KeywordHash_Add           30031ed0 f   ui_shared.obj
 0001:00030f00       _KeywordHash_Find          30031f00 f   ui_shared.obj
 0001:00030f50       _KeywordHash_Key           30031f50 f   ui_shared.obj
 0001:00030fa0       _LerpColor                 30031fa0 f   ui_shared.obj
 0001:00031080       _Menu_ClearFocus           30032080 f   ui_shared.obj
 0001:00031160       _Menu_Count                30032160 f   ui_shared.obj
 0001:00031170       _Menu_FadeItemByName       30032170 f   ui_shared.obj
 0001:000311d0       _Menu_FindItemByName       300321d0 f   ui_shared.obj
 0001:00031230       _Menu_GetFocused           30032230 f   ui_shared.obj
 0001:00031270       _Menu_GetMatchingItemByNumber 30032270 f   ui_shared.obj
 0001:000312f0       _Menu_HandleKey            300322f0 f   ui_shared.obj
 0001:00031810       _Menu_HandleMouseMove      30032810 f   ui_shared.obj
 0001:000319e0       _Menu_Init                 300329e0 f   ui_shared.obj
 0001:00031a40       _Menu_ItemsMatchingGroup   30032a40 f   ui_shared.obj
 0001:00031ab0       _Menu_New                  30032ab0 f   ui_shared.obj
 0001:00031b00       _Menu_OrbitItemByName      30032b00 f   ui_shared.obj
 0001:00031c80       _Menu_Paint                30032c80 f   ui_shared.obj
 0001:00031e00       _Menu_PaintAll             30032e00 f   ui_shared.obj
 0001:00031ee0       _Menu_Parse                30032ee0 f   ui_shared.obj
 0001:00032020       _Menu_PostParse            30033020 f   ui_shared.obj
 0001:00032060       _Menu_Reset                30033060 f   ui_shared.obj
 0001:000320c0       _Menu_ScrollFeeder         300330c0 f   ui_shared.obj
 0001:00032140       _Menu_SetFeederSelection   30033140 f   ui_shared.obj
 0001:00032210       _Menu_SetNextCursorItem    30033210 f   ui_shared.obj
 0001:00032310       _Menu_SetPrevCursorItem    30033310 f   ui_shared.obj
 0001:00032410       _Menu_SetupKeywordHash     30033410 f   ui_shared.obj
 0001:00032460       _Menu_ShowItemByName       30033460 f   ui_shared.obj
 0001:000324d0       _Menu_TransitionItemByName 300334d0 f   ui_shared.obj
 0001:000325f0       _Menu_UpdatePosition       300335f0 f   ui_shared.obj
 0001:00032690       _Menus_Activate            30033690 f   ui_shared.obj
 0001:00032700       _Menus_ActivateByName      30033700 f   ui_shared.obj
 0001:00032790       _Menus_CloseByName         30033790 f   ui_shared.obj
 0001:000327c0       _Menus_FindByName          300337c0 f   ui_shared.obj
 0001:00032810       _Menus_HandleOOBClick      30033810 f   ui_shared.obj
 0001:00032910       _Menus_OpenByName          30033910 f   ui_shared.obj
 0001:00032920       _PC_Color_Parse            30033920 f   ui_shared.obj
 0001:00032970       _PC_Float_Parse            30033970 f   ui_shared.obj
 0001:00032a30       _PC_Int_Parse              30033a30 f   ui_shared.obj
 0001:00032ae0       _PC_Rect_Parse             30033ae0 f   ui_shared.obj
 0001:00032b40       _PC_Script_Parse           30033b40 f   ui_shared.obj
 0001:00032c90       _PC_SourceError            30033c90 f   ui_shared.obj
 0001:00032d10       _PC_String_Parse           30033d10 f   ui_shared.obj
 0001:00032d80       _Rect_ContainsPoint        30033d80 f   ui_shared.obj
 0001:00032dd0       _Rect_Parse                30033dd0 f   ui_shared.obj
 0001:00033190       _String_Alloc              30034190 f   ui_shared.obj
 0001:000332a0       _String_Init               300342a0 f   ui_shared.obj
 0001:000332f0       _String_Parse              300342f0 f   ui_shared.obj
 0001:00033330       _ToWindowCoords            30034330 f   ui_shared.obj
 0001:00033380       _UI_Alloc                  30034380 f   ui_shared.obj
 0001:000333e0       _UI_InitMemory             300343e0 f   ui_shared.obj
 0001:00033430       _Window_Init               30034430 f   ui_shared.obj
 0001:00033480       _Window_Paint              30034480 f   ui_shared.obj
 0001:00033a3e       @__security_check_cookie@4 30034a3e f   LIBCMT:secchk.obj
 0001:00033a50       __libm_sse2_cos_precise    30034a50 f   LIBCMT:cos_sse2_precise.obj
 0001:00033c10       __libm_sse2_sin_precise    30034c10 f   LIBCMT:sin_sse2_precise.obj
 0001:00033dd8       __fpmath                   30034dd8 f   LIBCMT:fpinit.obj
 0001:00033def       __cfltcvt_init             30034def f   LIBCMT:fpinit.obj
 0001:00033e50       __libm_sse2_sqrt_precise   30034e50 f   LIBCMT:sqrt_sse2_precise.obj
 0001:00033f50       _memset                    30034f50 f   LIBCMT:memset.obj
 0001:00033fe0       _atoi                      30034fe0 f   LIBCMT:atox.obj
 0001:00033fe9       _atol                      30034fe9 f   LIBCMT:atox.obj
 0001:00033ffd       ___raise_securityfailure   30034ffd f   LIBCMT:gs_report.obj
 0001:0003403a       ___report_gsfailure        3003503a f   LIBCMT:gs_report.obj
 0001:00034133       ___report_rangecheckfailure 30035133 f   LIBCMT:gs_report.obj
 0001:0003413f       ___report_securityfailure  3003513f f   LIBCMT:gs_report.obj
 0001:0003420d       _rand                      3003520d f   LIBCMT:rand.obj
 0001:00034230       __libm_sse2_acos_precise   30035230 f   LIBCMT:acos_sse2_precise.obj
 0001:00034750       ??0_LocaleUpdate@@QAE@PAUlocaleinfo_struct@@@Z 30035750 f i LIBCMT:atof.obj
 0001:000347d8       __atof_l                   300357d8 f   LIBCMT:atof.obj
 0001:00034874       _atof                      30035874 f   LIBCMT:atof.obj
 0001:00034885       __vsprintf_l               30035885 f   LIBCMT:vsprintf.obj
 0001:00034907       _vsprintf                  30035907 f   LIBCMT:vsprintf.obj
 0001:00034920       _memcpy                    30035920 f   LIBCMT:memcpy.obj
 0001:00034f70       __alloca_probe             30035f70     LIBCMT:chkstk.obj
 0001:00034f70       __chkstk                   30035f70 f   LIBCMT:chkstk.obj
 0001:00034fa0       _floor                     30035fa0 f   LIBCMT:floor_pentium4.obj
 0001:00034fe0       __floor_pentium4           30035fe0 f   LIBCMT:floor_pentium4.obj
 0001:000350d0       _strchr                    300360d0 f   LIBCMT:strchr.obj
 0001:0003513e       ___from_strstr_to_strchr   3003613e     LIBCMT:strchr.obj
 0001:00035200       _strncpy                   30036200 f   LIBCMT:strncpy.obj
 0001:00035330       _strstr                    30036330 f   LIBCMT:strstr.obj
 0001:000355a0       _atan2                     300365a0 f   LIBCMT:87ctriga.obj
 0001:000355aa       __CIatan2                  300365aa f   LIBCMT:87ctriga.obj
 0001:000355c0       __libm_sse2_tan_precise    300365c0 f   LIBCMT:tan_sse2_precise.obj
 0001:00035830       __toupper_l                30036830 f   LIBCMT:toupper.obj
 0001:00035972       _toupper                   30036972 f   LIBCMT:toupper.obj
 0001:0003599e       __tolower_l                3003699e f   LIBCMT:tolower.obj
 0001:00035adf       _tolower                   30036adf f   LIBCMT:tolower.obj
 0001:00035b10       _memmove                   30036b10 f   LIBCMT:memmove.obj
 0001:00036154       __CRT_INIT@12              30037154 f   LIBCMT:dllcrt0.obj
 0001:000362c6       __DllMainCRTStartup@12     300372c6 f   LIBCMT:dllcrt0.obj
 0001:000363f7       ___DllXcptFilter           300373f7 f   LIBCMT:dllcrt0.obj
 0001:00036420       _cos                       30037420 f   LIBCMT:cos.obj
 0001:00036460       __CIcos                    30037460 f   LIBCMT:cos.obj
 0001:0003649b       __CIcos_default            3003749b f   LIBCMT:cos.obj
 0001:000364af       __cos_default              300374af     LIBCMT:cos.obj
 0001:00036550       _sin                       30037550 f   LIBCMT:sin.obj
 0001:00036590       __CIsin                    30037590 f   LIBCMT:sin.obj
 0001:000365cb       __CIsin_default            300375cb f   LIBCMT:sin.obj
 0001:000365df       __sin_default              300375df     LIBCMT:sin.obj
 0001:00036679       __cfltcvt                  30037679 f   LIBCMT:cvt.obj
 0001:0003669a       __cfltcvt_l                3003769a f   LIBCMT:cvt.obj
 0001:00036720       __cftoa_l                  30037720 f   LIBCMT:cvt.obj
 0001:00036a7a       __cftoe                    30037a7a f   LIBCMT:cvt.obj
 0001:00036be7       __cftoe_l                  30037be7 f   LIBCMT:cvt.obj
 0001:00036d9d       __cftof_l                  30037d9d f   LIBCMT:cvt.obj
 0001:00036e5c       __cftog_l                  30037e5c f   LIBCMT:cvt.obj
 0001:00036f59       __cropzeros                30037f59 f   LIBCMT:cvt.obj
 0001:00036f6a       __cropzeros_l              30037f6a f   LIBCMT:cvt.obj
 0001:00036fe8       __fassign                  30037fe8 f   LIBCMT:cvt.obj
 0001:00037000       __fassign_l                30038000 f   LIBCMT:cvt.obj
 0001:00037040       __forcdecpt                30038040 f   LIBCMT:cvt.obj
 0001:00037051       __forcdecpt_l              30038051 f   LIBCMT:cvt.obj
 0001:000370c3       __positive                 300380c3 f   LIBCMT:cvt.obj
 0001:00037105       __setdefaultprecision      30038105 f   LIBCMT:fp8.obj
 0001:0003712c       __initp_misc_cfltcvt_tab   3003812c f   LIBCMT:cmiscdat.obj
 0001:0003714b       ___libm_error_support      3003814b f   LIBCMT:libm_error.obj
 0001:00037440       __CIsqrt                   30038440 f   LIBCMT:sqrt.obj
 0001:00037454       _sqrt                      30038454     LIBCMT:sqrt.obj
 0001:000374fa       __VEC_memset               300384fa f   LIBCMT:p4_memset.obj
 0001:000375c2       ___isa_available_init      300385c2 f   LIBCMT:cpu_disp.obj
 0001:0003791f       _strtol                    3003891f f   LIBCMT:strtol.obj
 0001:00037949       __crt_debugger_hook        30038949 f   LIBCMT:dbghook.obj
 0001:00037951       ___crtFlsAlloc             30038951 f   LIBCMT:winapisupp.obj
 0001:0003796f       ___crtFlsFree              3003896f f   LIBCMT:winapisupp.obj
 0001:0003798e       ___crtFlsGetValue          3003898e f   LIBCMT:winapisupp.obj
 0001:000379ad       ___crtFlsSetValue          300389ad f   LIBCMT:winapisupp.obj
 0001:000379cf       ___crtIsPackagedApp        300389cf f   LIBCMT:winapisupp.obj
 0001:00037a0d       ___crtLoadWinApiPointers   30038a0d f   LIBCMT:winapisupp.obj
 0001:00037c4c       ___crtTerminateProcess     30038c4c f   LIBCMT:winapisupp.obj
 0001:00037c61       ___crtUnhandledException   30038c61 f   LIBCMT:winapisupp.obj
 0001:00037c77       __freefls@4                30038c77 f   LIBCMT:tidtable.obj
 0001:00037dae       __freeptd                  30038dae f   LIBCMT:tidtable.obj
 0001:00037de4       __getptd                   30038de4 f   LIBCMT:tidtable.obj
 0001:00037dfc       __getptd_noexit            30038dfc f   LIBCMT:tidtable.obj
 0001:00037e6b       __initptd                  30038e6b f   LIBCMT:tidtable.obj
 0001:00037f1e       __mtinit                   30038f1e f   LIBCMT:tidtable.obj
 0001:00037f94       __mtterm                   30038f94 f   LIBCMT:tidtable.obj
 0001:00037fc0       _acos                      30038fc0 f   LIBCMT:acos.obj
 0001:00038000       __CIacos                   30039000 f   LIBCMT:acos.obj
 0001:0003803b       __CIacos_default           3003903b f   LIBCMT:acos.obj
 0001:0003804f       __acos_default             3003904f     LIBCMT:acos.obj
 0001:00038106       __call_reportfault         30039106 f   LIBCMT:invarg.obj
 0001:00038229       __initp_misc_invarg        30039229 f   LIBCMT:invarg.obj
 0001:00038236       __invalid_parameter        30039236 f   LIBCMT:invarg.obj
 0001:00038261       __invalid_parameter_noinfo 30039261 f   LIBCMT:invarg.obj
 0001:00038271       __invoke_watson            30039271 f   LIBCMT:invarg.obj
 0001:0003829c       ___doserrno                3003929c f   LIBCMT:dosmap.obj
 0001:000382af       __dosmaperr                300392af f   LIBCMT:dosmap.obj
 0001:000382d0       __errno                    300392d0 f   LIBCMT:dosmap.obj
 0001:000382e3       __get_errno_from_oserr     300392e3 f   LIBCMT:dosmap.obj
 0001:00038324       __fltin2                   30039324 f   LIBCMT:cfin.obj
 0001:000383c9       ___strgtold12_l            300393c9 f   LIBCMT:strgtold.obj
 0001:00038b45       ___addlocaleref            30039b45 f   LIBCMT:localref.obj
 0001:00038bd5       ___freetlocinfo            30039bd5 f   LIBCMT:localref.obj
 0001:00038d2f       ___removelocaleref         30039d2f f   LIBCMT:localref.obj
 0001:00038dca       ___updatetlocinfo          30039dca f   LIBCMT:localref.obj
 0001:00038e46       __updatetlocinfoEx_nolock  30039e46 f   LIBCMT:localref.obj
 0001:00038e91       ___initmbctable            30039e91 f   LIBCMT:mbctype.obj
 0001:0003914c       ___updatetmbcinfo          3003a14c f   LIBCMT:mbctype.obj
 0001:000391f1       __setmbcp                  3003a1f1 f   LIBCMT:mbctype.obj
 0001:0003939f       __setmbcp_nolock           3003a39f f   LIBCMT:mbctype.obj
 0001:00039594       __isctype_l                3003a594 f   LIBCMT:isctype.obj
 0001:00039643       __flsbuf                   3003a643 f   LIBCMT:_flsbuf.obj
 0001:00039790       __output_l                 3003a790 f   LIBCMT:output.obj
 0001:0003a402       __sse2_mathfcns_init       3003b402 f   LIBCMT:mathfcns.obj
 0001:0003a411       __floor_default            3003b411 f   LIBCMT:floor.obj
 0001:0003a50c       __fFATN2                   3003b50c     LIBCMT:87triga.obj
 0001:0003a55c       __rtpiby2                  3003b55c     LIBCMT:87triga.obj
 0001:0003a5a0       __cintrindisp2             3003b5a0 f   LIBCMT:87cdisp.obj
 0001:0003a5de       __cintrindisp1             3003b5de f   LIBCMT:87cdisp.obj
 0001:0003a61b       __ctrandisp2               3003b61b f   LIBCMT:87cdisp.obj
 0001:0003a7aa       __ctrandisp1               3003b7aa f   LIBCMT:87cdisp.obj
 0001:0003a7dd       __fload                    3003b7dd f   LIBCMT:87cdisp.obj
 0001:0003a820       _tan                       3003b820 f   LIBCMT:tan.obj
 0001:0003a860       __CItan                    3003b860 f   LIBCMT:tan.obj
 0001:0003a89b       __CItan_default            3003b89b f   LIBCMT:tan.obj
 0001:0003a8af       __tan_default              3003b8af     LIBCMT:tan.obj
 0001:0003a94d       __isleadbyte_l             3003b94d f i LIBCMT:_wctype.obj
 0001:0003a983       _isleadbyte                3003b983 f i LIBCMT:_wctype.obj
 0001:0003ab7d       ___crtLCMapStringA         3003bb7d f   LIBCMT:a_map.obj
 0001:0003abc1       __freea                    3003bbc1 f i LIBCMT:a_map.obj
 0001:0003abdf       __locterm                  3003bbdf f   LIBCMT:wsetloca.obj
 0001:0003ac31       __XcptFilter               3003bc31 f   LIBCMT:winxfltr.obj
 0001:0003ad8c       ___CppXcptFilter           3003bd8c f   LIBCMT:winxfltr.obj
 0001:0003adaa       ___crtCorExitProcess       3003bdaa f   LIBCMT:crt0dat.obj
 0001:0003addc       ___crtExitProcess          3003bddc f   LIBCMT:crt0dat.obj
 0001:0003adf2       ___freeCrtMemory           3003bdf2 f   LIBCMT:crt0dat.obj
 0001:0003af02       __amsg_exit                3003bf02 f   LIBCMT:crt0dat.obj
 0001:0003af1e       __cexit                    3003bf1e f   LIBCMT:crt0dat.obj
 0001:0003af2d       __cinit                    3003bf2d f   LIBCMT:crt0dat.obj
 0001:0003afbe       __exit                     3003bfbe f   LIBCMT:crt0dat.obj
 0001:0003afd2       __init_pointers            3003bfd2 f   LIBCMT:crt0dat.obj
 0001:0003b026       __initterm_e               3003c026 f   LIBCMT:crt0dat.obj
 0001:0003b048       __lockexit                 3003c048 f   LIBCMT:crt0dat.obj
 0001:0003b051       __unlockexit               3003c051 f   LIBCMT:crt0dat.obj
 0001:0003b189       __heap_init                3003c189 f   LIBCMT:heapinit.obj
 0001:0003b19e       __heap_term                3003c19e f   LIBCMT:heapinit.obj
 0001:0003b1a6       __ioinit                   3003c1a6 f   LIBCMT:ioinit.obj
 0001:0003b454       __ioterm                   3003c454 f   LIBCMT:ioinit.obj
 0001:0003b4a6       __setargv                  3003c4a6 f   LIBCMT:stdargv.obj
 0001:0003b6d3       __setenvp                  3003c6d3 f   LIBCMT:stdenvp.obj
 0001:0003b7b4       _free                      3003c7b4 f   LIBCMT:free.obj
 0001:0003b7ec       ___security_init_cookie    3003c7ec f   LIBCMT:gs_support.obj
 0001:0003b886       _DllMain@12                3003c886 f   LIBCMT:dllmain.obj
 0001:0003b88c       ___crtGetEnvironmentStringsA 3003c88c f   LIBCMT:a_env.obj
 0001:0003b917       __calloc_crt               3003c917 f   LIBCMT:crtheap.obj
 0001:0003b961       __malloc_crt               3003c961 f   LIBCMT:crtheap.obj
 0001:0003b9aa       __realloc_crt              3003c9aa f   LIBCMT:crtheap.obj
 0001:0003b9f6       __RTC_Initialize           3003c9f6 f   LIBCMT:initsect.obj
 0001:0003ba16       __RTC_Terminate            3003ca16 f   LIBCMT:initsect.obj
 0001:0003ba40       __SEH_prolog4              3003ca40 f   LIBCMT:sehprolg4.obj
 0001:0003ba85       __SEH_epilog4              3003ca85 f   LIBCMT:sehprolg4.obj
 0001:0003baa0       __except_handler4          3003caa0 f   LIBCMT:chandler4.obj
 0001:0003bc40       __CIcos_pentium4           3003cc40 f   LIBCMT:cos_pentium4.obj
 0001:0003bc58       __cos_pentium4             3003cc58     LIBCMT:cos_pentium4.obj
 0001:0003bdf0       __trandisp1                3003cdf0 f   LIBCMT:87disp.obj
 0001:0003be57       __trandisp2                3003ce57 f   LIBCMT:87disp.obj
 0001:0003bee3       __rttospopde               3003cee3     LIBCMT:87disp.obj
 0001:0003bee8       __rttospop                 3003cee8     LIBCMT:87disp.obj
 0001:0003beea       __rtnospop                 3003ceea     LIBCMT:87disp.obj
 0001:0003beec       __rttosnpop                3003ceec     LIBCMT:87disp.obj
 0001:0003beed       __rtnospopde               3003ceed     LIBCMT:87disp.obj
 0001:0003bef4       __rtzeropop                3003cef4     LIBCMT:87disp.obj
 0001:0003bef6       __rtzeronpop               3003cef6     LIBCMT:87disp.obj
 0001:0003befb       __rtonepop                 3003cefb     LIBCMT:87disp.obj
 0001:0003befd       __rtonenpop                3003cefd     LIBCMT:87disp.obj
 0001:0003bf02       __tosnan1                  3003cf02     LIBCMT:87disp.obj
 0001:0003bf2d       __nosnan2                  3003cf2d     LIBCMT:87disp.obj
 0001:0003bf2f       __tosnan2                  3003cf2f     LIBCMT:87disp.obj
 0001:0003bf57       __nan2                     3003cf57     LIBCMT:87disp.obj
 0001:0003bf96       __rtindfpop                3003cf96     LIBCMT:87disp.obj
 0001:0003bf98       __rtindfnpop               3003cf98     LIBCMT:87disp.obj
 0001:0003bfa9       __rttosnpopde              3003cfa9     LIBCMT:87disp.obj
 0001:0003bfb3       __rtchsifneg               3003cfb3     LIBCMT:87disp.obj
 0001:0003bfc0       __twoToTOS                 3003cfc0 f   LIBCMT:common.obj
 0001:0003bfd5       __load_CW                  3003cfd5 f   LIBCMT:common.obj
 0001:0003bfec       __convertTOStoQNaN         3003cfec f   LIBCMT:common.obj
 0001:0003c005       __fload_withFB             3003d005 f   LIBCMT:common.obj
 0001:0003c048       __checkTOS_withFB          3003d048 f   LIBCMT:common.obj
 0001:0003c05e       __fast_exit                3003d05e f   LIBCMT:common.obj
 0001:0003c06b       __math_exit                3003d06b f   LIBCMT:common.obj
 0001:0003c095       __check_overflow_exit      3003d095 f   LIBCMT:common.obj
 0001:0003c0a9       __check_range_exit         3003d0a9 f   LIBCMT:common.obj
 0001:0003c150       __startTwoArgErrorHandling 3003d150 f   LIBCMT:genexcep.obj
 0001:0003c167       __startOneArgErrorHandling 3003d167 f   LIBCMT:genexcep.obj
 0001:0003c1b0       __CIsin_pentium4           3003d1b0 f   LIBCMT:sin_pentium4.obj
 0001:0003c1c8       __sin_pentium4             3003d1c8     LIBCMT:sin_pentium4.obj
 0001:0003c378       __isdigit_l                3003d378 f i LIBCMT:_ctype.obj
 0001:0003c3c8       _isdigit                   3003d3c8 f i LIBCMT:_ctype.obj
 0001:0003c3f3       _strcpy_s                  3003d3f3 f   LIBCMT:strcpy_s.obj
 0001:0003c450       _strlen                    3003d450 f   LIBCMT:strlen.obj
 0001:0003c4e0       _strrchr                   3003d4e0 f   LIBCMT:strrchr.obj
 0001:0003c617       __fptostr                  3003d617 f   LIBCMT:_fptostr.obj
 0001:0003c6c7       __atodbl_l                 3003d6c7 f   LIBCMT:atodbl.obj
 0001:0003c753       __atoflt_l                 3003d753 f   LIBCMT:atodbl.obj
 0001:0003c7df       ___dtold                   3003d7df f   LIBCMT:cfout.obj
 0001:0003c8a5       __fltout2                  3003d8a5 f   LIBCMT:cfout.obj
 0001:0003c940       __alldvrm                  3003d940 f   LIBCMT:lldvrm.obj
 0001:0003ca20       __aullshr                  3003da20 f   LIBCMT:ullshr.obj
 0001:0003ca3f       __controlfp_s              3003da3f f   LIBCMT:contrlfp.obj
 0001:0003ca9c       __fptrap                   3003da9c f   LIBCMT:crt0fp.obj
 0001:0003caa5       __matherr                  3003daa5 f   LIBCMT:matherr.obj
 0001:0003cab0       __allmul                   3003dab0 f   LIBCMT:llmul.obj
 0001:0003caf0       __aulldvrm                 3003daf0 f   LIBCMT:ulldvrm.obj
 0001:0003cb85       __lock                     3003db85 f   LIBCMT:mlock.obj
 0001:0003cbb9       __mtdeletelocks            3003dbb9 f   LIBCMT:mlock.obj
 0001:0003cc0d       __mtinitlocknum            3003dc0d f   LIBCMT:mlock.obj
 0001:0003ccb4       __mtinitlocks              3003dcb4 f   LIBCMT:mlock.obj
 0001:0003cce9       __unlock                   3003dce9 f   LIBCMT:mlock.obj
 0001:0003cd00       __CIacos_pentium4          3003dd00 f   LIBCMT:acos_pentium4.obj
 0001:0003cd18       __acos_pentium4            3003dd18     LIBCMT:acos_pentium4.obj
 0001:0003d254       __ld12tod                  3003e254 f   LIBCMT:intrncvt.obj
 0001:0003d7c4       __ld12tof                  3003e7c4 f   LIBCMT:intrncvt.obj
 0001:0003dd34       ___mtold12                 3003ed34 f   LIBCMT:mantold.obj
 0001:0003df16       ___free_lconv_mon          3003ef16 f   LIBCMT:initmon.obj
 0001:0003e012       ___free_lconv_num          3003f012 f   LIBCMT:initnum.obj
 0001:0003e079       ___free_lc_time            3003f079 f   LIBCMT:inittime.obj
 0001:0003e4e5       ___crtGetStringTypeA       3003f4e5 f   LIBCMT:a_str.obj
 0001:0003e523       ___initstdio               3003f523 f   LIBCMT:_file.obj
 0001:0003e596       ___endstdio                3003f596 f   LIBCMT:_file.obj
 0001:0003e5bd       ___iob_func                3003f5bd f   LIBCMT:_file.obj
 0001:0003e5c3       __lock_file                3003f5c3 f   LIBCMT:_file.obj
 0001:0003e602       __lock_file2               3003f602 f   LIBCMT:_file.obj
 0001:0003e632       __unlock_file              3003f632 f   LIBCMT:_file.obj
 0001:0003e66c       __unlock_file2             3003f66c f   LIBCMT:_file.obj
 0001:0003e699       __fileno                   3003f699 f   LIBCMT:fileno.obj
 0001:0003e6bd       __isatty                   3003f6bd f   LIBCMT:isatty.obj
 0001:0003e711       __write                    3003f711 f   LIBCMT:write.obj
 0001:0003e7f3       __write_nolock             3003f7f3 f   LIBCMT:write.obj
 0001:0003f01d       __lseeki64                 3004001d f   LIBCMT:lseeki64.obj
 0001:0003f119       __lseeki64_nolock          30040119 f   LIBCMT:lseeki64.obj
 0001:0003f18a       __getbuf                   3004018a f   LIBCMT:_getbuf.obj
 0001:0003f1d0       __get_printf_count_output  300401d0 f   LIBCMT:printf.obj
 0001:0003f1e5       __wctomb_s_l               300401e5 f   LIBCMT:wctomb.obj
 0001:0003f307       _wctomb_s                  30040307 f   LIBCMT:wctomb.obj
 0001:0003f322       __frnd                     30040322 f   LIBCMT:frnd.obj
 0001:0003f334       __errcode                  30040334 f   LIBCMT:fpexcept.obj
 0001:0003f366       __except1                  30040366 f   LIBCMT:fpexcept.obj
 0001:0003f42e       __handle_exc               3004042e f   LIBCMT:fpexcept.obj
 0001:0003f60a       __handle_qnan1             3004060a f   LIBCMT:fpexcept.obj
 0001:0003f65a       __raise_exc                3004065a f   LIBCMT:fpexcept.obj
 0001:0003f67b       __raise_exc_ex             3004067b f   LIBCMT:fpexcept.obj
 0001:0003f960       __set_errno_from_matherr   30040960 f   LIBCMT:fpexcept.obj
 0001:0003f98d       __umatherr                 3004098d f   LIBCMT:fpexcept.obj
 0001:0003fa2b       __decomp                   30040a2b f   LIBCMT:util.obj
 0001:0003fafd       __set_exp                  30040afd f   LIBCMT:util.obj
 0001:0003fb28       __sptype                   30040b28 f   LIBCMT:util.obj
 0001:0003fb84       ___set_fpsr_sse2           30040b84 f   LIBCMT:fpctrl.obj
 0001:0003fbfa       __clrfp                    30040bfa f   LIBCMT:fpctrl.obj
 0001:0003fc09       __ctrlfp                   30040c09 f   LIBCMT:fpctrl.obj
 0001:0003fc32       __set_statfp               30040c32 f   LIBCMT:fpctrl.obj
 0001:0003fc88       __statfp                   30040c88 f   LIBCMT:fpctrl.obj
 0001:0003fc96       __87except                 30040c96 f   LIBCMT:87except.obj
 0001:0003fda0       __CItan_pentium4           30040da0 f   LIBCMT:tan_pentium4.obj
 0001:0003fdb8       __tan_pentium4             30040db8     LIBCMT:tan_pentium4.obj
 0001:00040000       _malloc                    30041000 f   LIBCMT:malloc.obj
 0001:00040092       _GetTableIndexFromLocaleName 30041092 f   LIBCMT:winapinls.obj
 0001:000400e0       ___crtDownlevelLocaleNameToLCID 300410e0 f   LIBCMT:winapinls.obj
 0001:0004010a       ___crtLCMapStringEx        3004110a f   LIBCMT:winapinls.obj
 0001:00040156       ___wcsnicmp_ascii          30041156 f   LIBCMT:winapinls.obj
 0001:000401d0       __alloca_probe_16          300411d0 f   LIBCMT:alloca16.obj
 0001:000401e6       __alloca_probe_8           300411e6     LIBCMT:alloca16.obj
 0001:000401fc       _wcscat_s                  300411fc f   LIBCMT:wcscat_s.obj
 0001:00040268       _wcscpy_s                  30041268 f   LIBCMT:wcscpy_s.obj
 0001:000402c4       _wcslen                    300412c4 f   LIBCMT:wcslen.obj
 0001:000402dd       _wcsncpy_s                 300412dd f   LIBCMT:wcsncpy_s.obj
 0001:0004039b       __FF_MSGBANNER             3004139b f   LIBCMT:crt0msg.obj
 0001:000403d4       __GET_RTERRMSG             300413d4 f   LIBCMT:crt0msg.obj
 0001:000403f8       __NMSG_WRITE               300413f8 f   LIBCMT:crt0msg.obj
 0001:000405c0       __FindPESection            300415c0 f   LIBCMT:pesect.obj
 0001:00040610       __IsNonwritableInCurrentImage 30041610 f   LIBCMT:pesect.obj
 0001:000406d0       __ValidateImageBase        300416d0 f   LIBCMT:pesect.obj
 0001:00040701       ___onexitinit              30041701 f   LIBCMT:onexit.obj
 0001:00040730       __onexit                   30041730 f   LIBCMT:onexit.obj
 0001:00040826       _atexit                    30041826 f   LIBCMT:onexit.obj
 0001:0004083b       ?terminate@@YAXXZ          3004183b f   LIBCMT:hooks.obj
 0001:0004086f       __initp_eh_hooks           3004186f f   LIBCMT:hooks.obj
 0001:00040880       __callnewh                 30041880 f   LIBCMT:handler.obj
 0001:000408a6       __initp_heap_handler       300418a6 f   LIBCMT:handler.obj
 0001:000408b3       __initp_misc_purevirt      300418b3 f   LIBCMT:inithelp.obj
 0001:000408c0       __initp_misc_rand_s        300418c0 f   LIBCMT:rand_s.obj
 0001:000408cd       ___get_sigabrt             300418cd f   LIBCMT:winsig.obj
 0001:000408da       __initp_misc_winsig        300418da f   LIBCMT:winsig.obj
 0001:000408f6       _raise                     300418f6 f   LIBCMT:winsig.obj
 0001:00040af0       __local_unwind4            30041af0 f   LIBCMT:exsup4.obj
 0001:00040bc6       __seh_longjmp_unwind4@4    30041bc6 f   LIBCMT:exsup4.obj
 0001:00040be2       @_EH4_CallFilterFunc@8     30041be2 f   LIBCMT:exsup4.obj
 0001:00040bf9       @_EH4_TransferToHandler@8  30041bf9 f   LIBCMT:exsup4.obj
 0001:00040c12       @_EH4_GlobalUnwind2@8      30041c12 f   LIBCMT:exsup4.obj
 0001:00040c2b       @_EH4_LocalUnwind@16       30041c2b f   LIBCMT:exsup4.obj
 0001:00040c98       __ismbblead                30041c98 f   LIBCMT:ismbbyte.obj
 0001:00040cae       _realloc                   30041cae f   LIBCMT:realloc.obj
 0001:00040d59       __calloc_impl              30041d59 f   LIBCMT:calloc_impl.obj
 0001:00040dd3       _$I10_OUTPUT               30041dd3 f   LIBCMT:x10fout.obj
 0001:00041840       __control87                30042840 f i LIBCMT:ieee87.obj
 0001:00041bd7       __fcloseall                30042bd7 f   LIBCMT:closeall.obj
 0001:00041c74       __fflush_nolock            30042c74 f   LIBCMT:fflush.obj
 0001:00041cba       __flush                    30042cba f   LIBCMT:fflush.obj
 0001:00041d1e       __flushall                 30042d1e f   LIBCMT:fflush.obj
 0001:00041e0b       ___lock_fhandle            30042e0b f   LIBCMT:osfinfo.obj
 0001:00041e97       __free_osfhnd              30042e97 f   LIBCMT:osfinfo.obj
 0001:00041f1d       __get_osfhandle            30042f1d f   LIBCMT:osfinfo.obj
 0001:00041f84       __unlock_fhandle           30042f84 f   LIBCMT:osfinfo.obj
 0001:00041faa       __mbtowc_l                 30042faa f   LIBCMT:mbtowc.obj
 0001:0004209d       _mbtowc                    3004309d f   LIBCMT:mbtowc.obj
 0001:000420b5       __putwch_nolock            300430b5 f   LIBCMT:putwch.obj
 0001:000420f6       __set_error_mode           300430f6 f   LIBCMT:errmode.obj
 0001:00042136       ___crtMessageBoxW          30043136 f   LIBCMT:crtmboxw.obj
 0001:00042318       __msize                    30043318 f   LIBCMT:msize.obj
 0001:00042349       _abort                     30043349 f   LIBCMT:abort.obj
 0001:00042390       __global_unwind2           30043390 f   LIBCMT:exsup.obj
 0001:000423f5       __local_unwind2            300433f5 f   LIBCMT:exsup.obj
 0001:00042479       __abnormal_termination     30043479 f   LIBCMT:exsup.obj
 0001:0004249c       __NLG_Notify1              3004349c f   LIBCMT:exsup.obj
 0001:000424a5       __NLG_Notify               300434a5 f   LIBCMT:exsup.obj
 0001:000424bc       __NLG_Dispatch2            300434bc     LIBCMT:exsup.obj
 0001:000424bc       __NLG_Dispatch             300434bc     LIBCMT:exsup.obj
 0001:000424c4       __NLG_Call                 300434c4 f   LIBCMT:exsup.obj
 0001:000424c6       __NLG_Return2              300434c6     LIBCMT:exsup.obj
 0001:000424c7       __fclose_nolock            300434c7 f   LIBCMT:fclose.obj
 0001:00042533       _fclose                    30043533 f   LIBCMT:fclose.obj
 0001:000425aa       __commit                   300435aa f   LIBCMT:commit.obj
 0001:00042690       ___termconout              30043690 f   LIBCMT:initcon.obj
 0001:000426a7       ___initconout              300436a7 f   LIBCMT:initcon.obj
 0001:000426c6       __close                    300436c6 f   LIBCMT:close.obj
 0001:00042790       __close_nolock             30043790 f   LIBCMT:close.obj
 0001:0004282a       __freebuf                  3004382a f   LIBCMT:_freebuf.obj
 0001:0004285a       _IsProcessorFeaturePresent@4 3004385a f   kernel32:KERNEL32.dll
 0001:00042860       _RtlUnwind@16              30043860 f   kernel32:KERNEL32.dll
 0002:00000000       __imp__IsDebuggerPresent@0 30044000     kernel32:KERNEL32.dll
 0002:00000004       __imp__IsProcessorFeaturePresent@4 30044004     kernel32:KERNEL32.dll
 0002:00000008       __imp__GetCommandLineA@0   30044008     kernel32:KERNEL32.dll
 0002:0000000c       __imp__GetCurrentThreadId@0 3004400c     kernel32:KERNEL32.dll
 0002:00000010       __imp__EncodePointer@4     30044010     kernel32:KERNEL32.dll
 0002:00000014       __imp__DecodePointer@4     30044014     kernel32:KERNEL32.dll
 0002:00000018       __imp__UnhandledExceptionFilter@4 30044018     kernel32:KERNEL32.dll
 0002:0000001c       __imp__SetUnhandledExceptionFilter@4 3004401c     kernel32:KERNEL32.dll
 0002:00000020       __imp__SetLastError@4      30044020     kernel32:KERNEL32.dll
 0002:00000024       __imp__InitializeCriticalSectionAndSpinCount@8 30044024     kernel32:KERNEL32.dll
 0002:00000028       __imp__GetCurrentProcess@0 30044028     kernel32:KERNEL32.dll
 0002:0000002c       __imp__TerminateProcess@8  3004402c     kernel32:KERNEL32.dll
 0002:00000030       __imp__TlsAlloc@0          30044030     kernel32:KERNEL32.dll
 0002:00000034       __imp__TlsGetValue@4       30044034     kernel32:KERNEL32.dll
 0002:00000038       __imp__TlsSetValue@8       30044038     kernel32:KERNEL32.dll
 0002:0000003c       __imp__TlsFree@4           3004403c     kernel32:KERNEL32.dll
 0002:00000040       __imp__GetStartupInfoW@4   30044040     kernel32:KERNEL32.dll
 0002:00000044       __imp__GetModuleHandleW@4  30044044     kernel32:KERNEL32.dll
 0002:00000048       __imp__GetProcAddress@8    30044048     kernel32:KERNEL32.dll
 0002:0000004c       __imp__GetLastError@0      3004404c     kernel32:KERNEL32.dll
 0002:00000050       __imp__InterlockedIncrement@4 30044050     kernel32:KERNEL32.dll
 0002:00000054       __imp__InterlockedDecrement@4 30044054     kernel32:KERNEL32.dll
 0002:00000058       __imp__IsValidCodePage@4   30044058     kernel32:KERNEL32.dll
 0002:0000005c       __imp__GetACP@0            3004405c     kernel32:KERNEL32.dll
 0002:00000060       __imp__GetOEMCP@0          30044060     kernel32:KERNEL32.dll
 0002:00000064       __imp__GetCPInfo@8         30044064     kernel32:KERNEL32.dll
 0002:00000068       __imp__MultiByteToWideChar@24 30044068     kernel32:KERNEL32.dll
 0002:0000006c       __imp__WideCharToMultiByte@32 3004406c     kernel32:KERNEL32.dll
 0002:00000070       __imp__ExitProcess@4       30044070     kernel32:KERNEL32.dll
 0002:00000074       __imp__GetModuleHandleExW@12 30044074     kernel32:KERNEL32.dll
 0002:00000078       __imp__GetProcessHeap@0    30044078     kernel32:KERNEL32.dll
 0002:0000007c       __imp__GetStdHandle@4      3004407c     kernel32:KERNEL32.dll
 0002:00000080       __imp__GetFileType@4       30044080     kernel32:KERNEL32.dll
 0002:00000084       __imp__DeleteCriticalSection@4 30044084     kernel32:KERNEL32.dll
 0002:00000088       __imp__GetModuleFileNameA@12 30044088     kernel32:KERNEL32.dll
 0002:0000008c       __imp__HeapFree@12         3004408c     kernel32:KERNEL32.dll
 0002:00000090       __imp__QueryPerformanceCounter@4 30044090     kernel32:KERNEL32.dll
 0002:00000094       __imp__GetCurrentProcessId@0 30044094     kernel32:KERNEL32.dll
 0002:00000098       __imp__GetSystemTimeAsFileTime@4 30044098     kernel32:KERNEL32.dll
 0002:0000009c       __imp__GetEnvironmentStringsW@0 3004409c     kernel32:KERNEL32.dll
 0002:000000a0       __imp__FreeEnvironmentStringsW@4 300440a0     kernel32:KERNEL32.dll
 0002:000000a4       __imp__Sleep@4             300440a4     kernel32:KERNEL32.dll
 0002:000000a8       __imp__EnterCriticalSection@4 300440a8     kernel32:KERNEL32.dll
 0002:000000ac       __imp__LeaveCriticalSection@4 300440ac     kernel32:KERNEL32.dll
 0002:000000b0       __imp__GetStringTypeW@16   300440b0     kernel32:KERNEL32.dll
 0002:000000b4       __imp__WriteFile@20        300440b4     kernel32:KERNEL32.dll
 0002:000000b8       __imp__GetConsoleCP@0      300440b8     kernel32:KERNEL32.dll
 0002:000000bc       __imp__GetConsoleMode@8    300440bc     kernel32:KERNEL32.dll
 0002:000000c0       __imp__SetFilePointerEx@20 300440c0     kernel32:KERNEL32.dll
 0002:000000c4       __imp__RaiseException@16   300440c4     kernel32:KERNEL32.dll
 0002:000000c8       __imp__HeapAlloc@12        300440c8     kernel32:KERNEL32.dll
 0002:000000cc       __imp__LCMapStringW@24     300440cc     kernel32:KERNEL32.dll
 0002:000000d0       __imp__GetModuleFileNameW@12 300440d0     kernel32:KERNEL32.dll
 0002:000000d4       __imp__LoadLibraryExW@12   300440d4     kernel32:KERNEL32.dll
 0002:000000d8       __imp__RtlUnwind@16        300440d8     kernel32:KERNEL32.dll
 0002:000000dc       __imp__HeapReAlloc@16      300440dc     kernel32:KERNEL32.dll
 0002:000000e0       __imp__SetStdHandle@8      300440e0     kernel32:KERNEL32.dll
 0002:000000e4       __imp__WriteConsoleW@20    300440e4     kernel32:KERNEL32.dll
 0002:000000e8       __imp__OutputDebugStringW@4 300440e8     kernel32:KERNEL32.dll
 0002:000000ec       __imp__LoadLibraryW@4      300440ec     kernel32:KERNEL32.dll
 0002:000000f0       __imp__HeapSize@12         300440f0     kernel32:KERNEL32.dll
 0002:000000f4       __imp__FlushFileBuffers@4  300440f4     kernel32:KERNEL32.dll
 0002:000000f8       __imp__CreateFileW@28      300440f8     kernel32:KERNEL32.dll
 0002:000000fc       __imp__CloseHandle@4       300440fc     kernel32:KERNEL32.dll
 0002:00000100       \177KERNEL32_NULL_THUNK_DATA 30044100     kernel32:KERNEL32.dll
 0002:00000104       ___xc_a                    30044104     LIBCMT:crt0init.obj
 0002:00000108       ___xc_z                    30044108     LIBCMT:crt0init.obj
 0002:0000010c       ___xi_a                    3004410c     LIBCMT:crt0init.obj
 0002:00000124       ___xi_z                    30044124     LIBCMT:crt0init.obj
 0002:00000128       ___xp_a                    30044128     LIBCMT:crt0init.obj
 0002:00000138       ___xp_z                    30044138     LIBCMT:crt0init.obj
 0002:0000013c       ___xt_a                    3004413c     LIBCMT:crt0init.obj
 0002:00000140       ___xt_z                    30044140     LIBCMT:crt0init.obj
 0002:00000150       ??_C@_0M@NLICANGB@ammo_shells?$AA@ 30044150     bg_misc.obj
 0002:0000015c       ??_C@_0BH@DPAADLFH@sound?1misc?1am_pkup?4wav?$AA@ 3004415c     bg_misc.obj
 0002:00000174       ??_C@_0CD@MBAGJHDE@models?1powerups?1ammo?1shotgunam?4m@ 30044174     bg_misc.obj
 0002:00000198       ??_C@_0BE@NMAFHJEI@icons?1icona_shotgun?$AA@ 30044198     bg_misc.obj
 0002:000001ac       ??_C@_06PBPEPGGL@Shells?$AA@ 300441ac     bg_misc.obj
 0002:000001b4       ??_C@_0N@NHCMDNIK@ammo_bullets?$AA@ 300441b4     bg_misc.obj
 0002:000001c4       ??_C@_0CG@OLENEOKN@models?1powerups?1ammo?1machineguna@ 300441c4     bg_misc.obj
 0002:000001ec       ??_C@_0BH@HMOAGCNP@icons?1icona_machinegun?$AA@ 300441ec     bg_misc.obj
 0002:00000204       ??_C@_07DHNDKCGP@Bullets?$AA@ 30044204     bg_misc.obj
 0002:0000020c       ??_C@_0O@CMJIOKCF@ammo_grenades?$AA@ 3004420c     bg_misc.obj
 0002:0000021c       ??_C@_0CD@HNOBKKLC@models?1powerups?1ammo?1grenadeam?4m@ 3004421c     bg_misc.obj
 0002:00000240       ??_C@_0BE@LHOKGGAM@icons?1icona_grenade?$AA@ 30044240     bg_misc.obj
 0002:00000254       ??_C@_08PMBIADEN@Grenades?$AA@ 30044254     bg_misc.obj
 0002:00000260       ??_C@_0L@LLNMBAJC@ammo_cells?$AA@ 30044260     bg_misc.obj
 0002:0000026c       ??_C@_0CC@FGLALJGN@models?1powerups?1ammo?1plasmaam?4md@ 3004426c     bg_misc.obj
 0002:00000290       ??_C@_0BD@NCNJEHKB@icons?1icona_plasma?$AA@ 30044290     bg_misc.obj
 0002:000002a4       ??_C@_05KCAMIOGJ@Cells?$AA@ 300442a4     bg_misc.obj
 0002:000002ac       ??_C@_0P@NBJHKAMD@ammo_lightning?$AA@ 300442ac     bg_misc.obj
 0002:000002bc       ??_C@_0CF@HDAADIIL@models?1powerups?1ammo?1lightningam@ 300442bc     bg_misc.obj
 0002:000002e4       ??_C@_0BG@MEGMAGOM@icons?1icona_lightning?$AA@ 300442e4     bg_misc.obj
 0002:000002fc       ??_C@_09JCCOMJEA@Lightning?$AA@ 300442fc     bg_misc.obj
 0002:00000308       ??_C@_0N@CLEPKBOE@ammo_rockets?$AA@ 30044308     bg_misc.obj
 0002:00000318       ??_C@_0CC@KCOEDLFM@models?1powerups?1ammo?1rocketam?4md@ 30044318     bg_misc.obj
 0002:0000033c       ??_C@_0BD@BFBJLPJK@icons?1icona_rocket?$AA@ 3004433c     bg_misc.obj
 0002:00000350       ??_C@_07MLLADOAB@Rockets?$AA@ 30044350     bg_misc.obj
 0002:00000358       ??_C@_0L@JEFOIHIM@ammo_slugs?$AA@ 30044358     bg_misc.obj
 0002:00000364       ??_C@_0CD@CAJEPMME@models?1powerups?1ammo?1railgunam?4m@ 30044364     bg_misc.obj
 0002:00000388       ??_C@_0BE@DPOADFL@icons?1icona_railgun?$AA@ 30044388     bg_misc.obj
 0002:0000039c       ??_C@_05INIOBJHH@Slugs?$AA@ 3004439c     bg_misc.obj
 0002:000003a4       ??_C@_08EHEJHGBG@ammo_bfg?$AA@ 300443a4     bg_misc.obj
 0002:000003b0       ??_C@_0BP@BOBKFIKJ@models?1powerups?1ammo?1bfgam?4md3?$AA@ 300443b0     bg_misc.obj
 0002:000003d0       ??_C@_0BA@NIKNDLKG@icons?1icona_bfg?$AA@ 300443d0     bg_misc.obj
 0002:000003e0       ??_C@_08LIBOGPIN@Bfg?5Ammo?$AA@ 300443e0     bg_misc.obj
 0002:000003ec       ??_C@_0BE@GNEKBMLB@holdable_teleporter?$AA@ 300443ec     bg_misc.obj
 0002:00000400       ??_C@_0BJ@PNIOAJDI@sound?1items?1holdable?4wav?$AA@ 30044400     bg_misc.obj
 0002:0000041c       ??_C@_0CI@FHEOFFOB@models?1powerups?1holdable?1telepor@ 3004441c     bg_misc.obj
 0002:00000444       ??_C@_0BB@HCFICFKF@icons?1teleporter?$AA@ 30044444     bg_misc.obj
 0002:00000458       ??_C@_0BE@PCKJDFFA@Personal?5Teleporter?$AA@ 30044458     bg_misc.obj
 0002:0000046c       ??_C@_0BA@PDDMBOCP@holdable_medkit?$AA@ 3004446c     bg_misc.obj
 0002:0000047c       ??_C@_0CE@NKMJILL@models?1powerups?1holdable?1medkit?4@ 3004447c     bg_misc.obj
 0002:000004a0       ??_C@_0CL@LOBKLABC@models?1powerups?1holdable?1medkit_@ 300444a0     bg_misc.obj
 0002:000004cc       ??_C@_0N@PNMDFAPK@icons?1medkit?$AA@ 300444cc     bg_misc.obj
 0002:000004dc       ??_C@_06JDLGEHAD@Medkit?$AA@ 300444dc     bg_misc.obj
 0002:000004e4       ??_C@_0BL@GLIFPGGG@sound?1items?1use_medkit?4wav?$AA@ 300444e4     bg_misc.obj
 0002:00000500       ??_C@_09MDKNIFFH@item_quad?$AA@ 30044500     bg_misc.obj
 0002:0000050c       ??_C@_0BL@GLEJLOCA@sound?1items?1quaddamage?4wav?$AA@ 3004450c     bg_misc.obj
 0002:00000528       ??_C@_0CB@HIFGFDGN@models?1powerups?1instant?1quad?4md3@ 30044528     bg_misc.obj
 0002:0000054c       ??_C@_0CG@JNMBMLHJ@models?1powerups?1instant?1quad_rin@ 3004454c     bg_misc.obj
 0002:00000574       ??_C@_0L@DICHEOBB@icons?1quad?$AA@ 30044574     bg_misc.obj
 0002:00000580       ??_C@_0M@KOJLOALK@Quad?5Damage?$AA@ 30044580     bg_misc.obj
 0002:0000058c       ??_C@_0DA@PPPPKFJI@sound?1items?1damage2?4wav?5sound?1it@ 3004458c     bg_misc.obj
 0002:000005bc       ??_C@_0M@HBCGNAN@item_enviro?$AA@ 300445bc     bg_misc.obj
 0002:000005c8       ??_C@_0BI@DEKBIKDD@sound?1items?1protect?4wav?$AA@ 300445c8     bg_misc.obj
 0002:000005e0       ??_C@_0CD@JLGNIGLA@models?1powerups?1instant?1enviro?4m@ 300445e0     bg_misc.obj
 0002:00000604       ??_C@_0CI@KAEDJDGE@models?1powerups?1instant?1enviro_r@ 30044604     bg_misc.obj
 0002:0000062c       ??_C@_0BB@MGICBJOH@icons?1envirosuit?$AA@ 3004462c     bg_misc.obj
 0002:00000640       ??_C@_0M@ONKEJEFE@Battle?5Suit?$AA@ 30044640     bg_misc.obj
 0002:0000064c       ??_C@_0DA@OCPACKGN@sound?1items?1airout?4wav?5sound?1ite@ 3004464c     bg_misc.obj
 0002:0000067c       ??_C@_0L@LKMJKIEF@item_haste?$AA@ 3004467c     bg_misc.obj
 0002:00000688       ??_C@_0BG@IJMEPCOI@sound?1items?1haste?4wav?$AA@ 30044688     bg_misc.obj
 0002:000006a0       ??_C@_0CC@NKPAJCMI@models?1powerups?1instant?1haste?4md@ 300446a0     bg_misc.obj
 0002:000006c4       ??_C@_0CH@KKDDKNEF@models?1powerups?1instant?1haste_ri@ 300446c4     bg_misc.obj
 0002:000006ec       ??_C@_0M@CFINMGCL@icons?1haste?$AA@ 300446ec     bg_misc.obj
 0002:000006f8       ??_C@_05HOIAGEJD@Speed?$AA@ 300446f8     bg_misc.obj
 0002:00000700       ??_C@_0L@MMHNJJPH@item_invis?$AA@ 30044700     bg_misc.obj
 0002:0000070c       ??_C@_0BN@OJBEBLGB@sound?1items?1invisibility?4wav?$AA@ 3004470c     bg_misc.obj
 0002:0000072c       ??_C@_0CC@HBONCEML@models?1powerups?1instant?1invis?4md@ 3004472c     bg_misc.obj
 0002:00000750       ??_C@_0CH@IMIHJDNC@models?1powerups?1instant?1invis_ri@ 30044750     bg_misc.obj
 0002:00000778       ??_C@_0M@FDDJPHJJ@icons?1invis?$AA@ 30044778     bg_misc.obj
 0002:00000784       ??_C@_0N@LCCEENAK@Invisibility?$AA@ 30044784     bg_misc.obj
 0002:00000794       ??_C@_0L@MMGPPPDM@item_regen?$AA@ 30044794     bg_misc.obj
 0002:000007a0       ??_C@_0BN@OBGKHNFF@sound?1items?1regeneration?4wav?$AA@ 300447a0     bg_misc.obj
 0002:000007c0       ??_C@_0CC@OEAPIKIN@models?1powerups?1instant?1regen?4md@ 300447c0     bg_misc.obj
 0002:000007e4       ??_C@_0CH@FANACKJM@models?1powerups?1instant?1regen_ri@ 300447e4     bg_misc.obj
 0002:0000080c       ??_C@_0M@FDCLJBFC@icons?1regen?$AA@ 3004480c     bg_misc.obj
 0002:00000818       ??_C@_0N@CBPBLBHG@Regeneration?$AA@ 30044818     bg_misc.obj
 0002:00000828       ??_C@_0BG@LHDLOKKN@sound?1items?1regen?4wav?$AA@ 30044828     bg_misc.obj
 0002:00000840       ??_C@_0M@MBNKEMMH@item_flight?$AA@ 30044840     bg_misc.obj
 0002:0000084c       ??_C@_0BH@COLFHEAE@sound?1items?1flight?4wav?$AA@ 3004484c     bg_misc.obj
 0002:00000864       ??_C@_0CD@MKDGJOMG@models?1powerups?1instant?1flight?4m@ 30044864     bg_misc.obj
 0002:00000888       ??_C@_0CI@IADFFEDP@models?1powerups?1instant?1flight_r@ 30044888     bg_misc.obj
 0002:000008b0       ??_C@_0N@GLEPEEPG@icons?1flight?$AA@ 300448b0     bg_misc.obj
 0002:000008c0       ??_C@_06FDKFDAP@Flight?$AA@ 300448c0     bg_misc.obj
 0002:000008c8       ??_C@_0BB@JNMMCIHG@team_CTF_redflag?$AA@ 300448c8     bg_misc.obj
 0002:000008dc       ??_C@_0BI@PEHEOJEO@models?1flags?1r_flag?4md3?$AA@ 300448dc     bg_misc.obj
 0002:000008f4       ??_C@_0BB@EMIEBEOP@icons?1iconf_red1?$AA@ 300448f4     bg_misc.obj
 0002:00000908       ??_C@_08GAOGPIJL@Red?5Flag?$AA@ 30044908     bg_misc.obj
 0002:00000914       ??_C@_0BC@NLKCOFAB@team_CTF_blueflag?$AA@ 30044914     bg_misc.obj
 0002:00000928       ??_C@_0BI@FKICCNIF@models?1flags?1b_flag?4md3?$AA@ 30044928     bg_misc.obj
 0002:00000940       ??_C@_0BB@EMIIAFKA@icons?1iconf_blu1?$AA@ 30044940     bg_misc.obj
 0002:00000954       ??_C@_09MDBFHCAB@Blue?5Flag?$AA@ 30044954     bg_misc.obj
 0002:00000960       ??_C@_0BC@JLPIODDD@holdable_kamikaze?$AA@ 30044960     bg_misc.obj
 0002:00000974       ??_C@_0BN@MHODGCLB@models?1powerups?1kamikazi?4md3?$AA@ 30044974     bg_misc.obj
 0002:00000994       ??_C@_0P@PGNDLAAB@icons?1kamikaze?$AA@ 30044994     bg_misc.obj
 0002:000009a4       ??_C@_08LAHOABEH@Kamikaze?$AA@ 300449a4     bg_misc.obj
 0002:000009b0       ??_C@_0CA@FLGMIHAB@sound?1items?1kamikazerespawn?4wav?$AA@ 300449b0     bg_misc.obj
 0002:000009d0       ??_C@_0BA@DPHMCMEN@holdable_portal?$AA@ 300449d0     bg_misc.obj
 0002:000009e0       ??_C@_0CE@BEFEBAKL@models?1powerups?1holdable?1porter?4@ 300449e0     bg_misc.obj
 0002:00000a04       ??_C@_0N@DBIDGCJI@icons?1portal?$AA@ 30044a04     bg_misc.obj
 0002:00000a14       ??_C@_06FPPGHFGB@Portal?$AA@ 30044a14     bg_misc.obj
 0002:00000a1c       ??_C@_0BJ@KOFPDOJN@holdable_invulnerability?$AA@ 30044a1c     bg_misc.obj
 0002:00000a38       ??_C@_0CN@BGILHOFB@models?1powerups?1holdable?1invulne@ 30044a38     bg_misc.obj
 0002:00000a68       ??_C@_0BG@GEOEMBHE@icons?1invulnerability?$AA@ 30044a68     bg_misc.obj
 0002:00000a80       ??_C@_0BA@KEGBBNCB@Invulnerability?$AA@ 30044a80     bg_misc.obj
 0002:00000a90       ??_C@_0L@MFBMFFLO@ammo_nails?$AA@ 30044a90     bg_misc.obj
 0002:00000a9c       ??_C@_0CD@GMNDFBIF@models?1powerups?1ammo?1nailgunam?4m@ 30044a9c     bg_misc.obj
 0002:00000ac0       ??_C@_0BE@CIOKCHDP@icons?1icona_nailgun?$AA@ 30044ac0     bg_misc.obj
 0002:00000ad4       ??_C@_05NMMMMLEF@Nails?$AA@ 30044ad4     bg_misc.obj
 0002:00000adc       ??_C@_0L@OBPOGPOH@ammo_mines?$AA@ 30044adc     bg_misc.obj
 0002:00000ae8       ??_C@_0CE@GLFPCGJF@models?1powerups?1ammo?1proxmineam?4@ 30044ae8     bg_misc.obj
 0002:00000b0c       ??_C@_0BJ@EKLNPKGH@icons?1icona_proxlauncher?$AA@ 30044b0c     bg_misc.obj
 0002:00000b28       ??_C@_0BA@CLMOKPGH@Proximity?5Mines?$AA@ 30044b28     bg_misc.obj
 0002:00000b38       ??_C@_09KBCAAANK@ammo_belt?$AA@ 30044b38     bg_misc.obj
 0002:00000b44       ??_C@_0CE@BDEKAODP@models?1powerups?1ammo?1chaingunam?4@ 30044b44     bg_misc.obj
 0002:00000b68       ??_C@_0BF@CHGBBDGP@icons?1icona_chaingun?$AA@ 30044b68     bg_misc.obj
 0002:00000b80       ??_C@_0O@DEOOCCIB@Chaingun?5Belt?$AA@ 30044b80     bg_misc.obj
 0002:00000b90       ??_C@_0L@OBMMKIHN@item_scout?$AA@ 30044b90     bg_misc.obj
 0002:00000b9c       ??_C@_0BG@DNJFFOJP@sound?1items?1scout?4wav?$AA@ 30044b9c     bg_misc.obj
 0002:00000bb4       ??_C@_0BK@NEMNNNAF@models?1powerups?1scout?4md3?$AA@ 30044bb4     bg_misc.obj
 0002:00000bd0       ??_C@_0M@HOIIMGBD@icons?1scout?$AA@ 30044bd0     bg_misc.obj
 0002:00000bdc       ??_C@_05GAJJNIIE@Scout?$AA@ 30044bdc     bg_misc.obj
 0002:00000be4       ??_C@_0L@DJHJPJDF@item_guard?$AA@ 30044be4     bg_misc.obj
 0002:00000bf0       ??_C@_0BG@BPPBGKNB@sound?1items?1guard?4wav?$AA@ 30044bf0     bg_misc.obj
 0002:00000c08       ??_C@_0BK@PGKJOJEL@models?1powerups?1guard?4md3?$AA@ 30044c08     bg_misc.obj
 0002:00000c24       ??_C@_0M@KGDNJHFL@icons?1guard?$AA@ 30044c24     bg_misc.obj
 0002:00000c30       ??_C@_05LICMIJMM@Guard?$AA@ 30044c30     bg_misc.obj
 0002:00000c38       ??_C@_0N@EFHHJIEL@item_doubler?$AA@ 30044c38     bg_misc.obj
 0002:00000c48       ??_C@_0BI@BLENDCKK@sound?1items?1doubler?4wav?$AA@ 30044c48     bg_misc.obj
 0002:00000c60       ??_C@_0BM@JGFEKDCK@models?1powerups?1doubler?4md3?$AA@ 30044c60     bg_misc.obj
 0002:00000c7c       ??_C@_0O@BEADANHJ@icons?1doubler?$AA@ 30044c7c     bg_misc.obj
 0002:00000c8c       ??_C@_07NAAMDCNG@Doubler?$AA@ 30044c8c     bg_misc.obj
 0002:00000c94       ??_C@_0P@HGOLPH@item_ammoregen?$AA@ 30044c94     bg_misc.obj
 0002:00000ca4       ??_C@_0BK@IEMGDIND@sound?1items?1ammoregen?4wav?$AA@ 30044ca4     bg_misc.obj
 0002:00000cc0       ??_C@_0BJ@GKHKBOMB@models?1powerups?1ammo?4md3?$AA@ 30044cc0     bg_misc.obj
 0002:00000cdc       ??_C@_0BB@MIDDLDNN@icons?1ammo_regen?$AA@ 30044cdc     bg_misc.obj
 0002:00000cf0       ??_C@_0L@MPPKDLBN@Ammo?5Regen?$AA@ 30044cf0     bg_misc.obj
 0002:00000cfc       ??_C@_0BF@NFGOPKAE@team_CTF_neutralflag?$AA@ 30044cfc     bg_misc.obj
 0002:00000d14       ??_C@_0BI@FAJILPEC@models?1flags?1n_flag?4md3?$AA@ 30044d14     bg_misc.obj
 0002:00000d2c       ??_C@_0BF@OGGGKBMJ@icons?1iconf_neutral1?$AA@ 30044d2c     bg_misc.obj
 0002:00000d44       ??_C@_0N@DLICDFNJ@Neutral?5Flag?$AA@ 30044d44     bg_misc.obj
 0002:00000d54       ??_C@_0N@IDOEINCB@item_redcube?$AA@ 30044d54     bg_misc.obj
 0002:00000d64       ??_C@_0BO@LDKNFLC@models?1powerups?1orb?1r_orb?4md3?$AA@ 30044d64     bg_misc.obj
 0002:00000d84       ??_C@_0BB@PKDLFOID@icons?1iconh_rorb?$AA@ 30044d84     bg_misc.obj
 0002:00000d98       ??_C@_08LFGHLDCF@Red?5Cube?$AA@ 30044d98     bg_misc.obj
 0002:00000da4       ??_C@_0O@NHDOFNIN@item_bluecube?$AA@ 30044da4     bg_misc.obj
 0002:00000db4       ??_C@_0BO@CMJEFEFK@models?1powerups?1orb?1b_orb?4md3?$AA@ 30044db4     bg_misc.obj
 0002:00000dd4       ??_C@_0BB@JKNLMJAB@icons?1iconh_borb?$AA@ 30044dd4     bg_misc.obj
 0002:00000de8       ??_C@_09BGJEDJLP@Blue?5Cube?$AA@ 30044de8     bg_misc.obj
 0002:00000df4       ??_C@_0P@HPOFIAHB@weapon_nailgun?$AA@ 30044df4     bg_misc.obj
 0002:00000e04       ??_C@_0CD@MNGDCPJM@models?1weapons?1nailgun?1nailgun?4m@ 30044e04     bg_misc.obj
 0002:00000e28       ??_C@_0BE@CFKNGJA@icons?1iconw_nailgun?$AA@ 30044e28     bg_misc.obj
 0002:00000e3c       ??_C@_07PHIHFAOO@Nailgun?$AA@ 30044e3c     bg_misc.obj
 0002:00000e44       ??_C@_0BF@MHLODEOC@weapon_prox_launcher?$AA@ 30044e44     bg_misc.obj
 0002:00000e5c       ??_C@_0CF@NHOALGII@models?1weapons?1proxmine?1proxmine@ 30044e5c     bg_misc.obj
 0002:00000e84       ??_C@_0BJ@CMCFLBNK@icons?1iconw_proxlauncher?$AA@ 30044e84     bg_misc.obj
 0002:00000ea0       ??_C@_0O@FJMBMGCL@Prox?5Launcher?$AA@ 30044ea0     bg_misc.obj
 0002:00000eb0       ??_C@_0NI@JLHICHPM@sound?1weapons?1proxmine?1wstbtick?4@ 30044eb0     bg_misc.obj
 0002:00000f88       ??_C@_0BA@LGFCHAFP@weapon_chaingun?$AA@ 30044f88     bg_misc.obj
 0002:00000f98       ??_C@_0CB@OFHHOHCC@models?1weapons?1vulcan?1vulcan?4md3@ 30044f98     bg_misc.obj
 0002:00000fbc       ??_C@_0BF@GBCCBNOH@icons?1iconw_chaingun?$AA@ 30044fbc     bg_misc.obj
 0002:00000fd4       ??_C@_08NGGKJMFK@Chaingun?$AA@ 30044fd4     bg_misc.obj
 0002:00000fe0       ??_C@_0CC@JDOIBBDC@sound?1weapons?1vulcan?1wvulwind?4wa@ 30044fe0     bg_misc.obj
 0002:00001004       ??_C@_07JFMDDPHJ@EV_NONE?$AA@ 30045004     bg_misc.obj
 0002:0000100c       ??_C@_0M@HLKBOJPO@EV_FOOTSTEP?$AA@ 3004500c     bg_misc.obj
 0002:00001018       ??_C@_0BC@DIJMAMMI@EV_FOOTSTEP_METAL?$AA@ 30045018     bg_misc.obj
 0002:0000102c       ??_C@_0O@HLJHKIDH@EV_FOOTSPLASH?$AA@ 3004502c     bg_misc.obj
 0002:0000103c       ??_C@_0M@NPJBGELA@EV_FOOTWADE?$AA@ 3004503c     bg_misc.obj
 0002:00001048       ??_C@_07FFIIIPLH@EV_SWIM?$AA@ 30045048     bg_misc.obj
 0002:00001050       ??_C@_09OLFOHJNB@EV_STEP_4?$AA@ 30045050     bg_misc.obj
 0002:0000105c       ??_C@_09EHOLDGNN@EV_STEP_8?$AA@ 3004505c     bg_misc.obj
 0002:00001068       ??_C@_0L@BKIECKKB@EV_STEP_12?$AA@ 30045068     bg_misc.obj
 0002:00001074       ??_C@_0L@HOOIOPKF@EV_STEP_16?$AA@ 30045074     bg_misc.obj
 0002:00001080       ??_C@_0O@EAFDHAJM@EV_FALL_SHORT?$AA@ 30045080     bg_misc.obj
 0002:00001090       ??_C@_0P@MGFLMCKC@EV_FALL_MEDIUM?$AA@ 30045090     bg_misc.obj
 0002:000010a0       ??_C@_0M@LKJJNJOM@EV_FALL_FAR?$AA@ 300450a0     bg_misc.obj
 0002:000010ac       ??_C@_0M@BPNFGBOJ@EV_JUMP_PAD?$AA@ 300450ac     bg_misc.obj
 0002:000010b8       ??_C@_07GKBEHGAP@EV_JUMP?$AA@ 300450b8     bg_misc.obj
 0002:000010c0       ??_C@_0P@GCDBKPMP@EV_WATER_TOUCH?$AA@ 300450c0     bg_misc.obj
 0002:000010d0       ??_C@_0P@LHDMOIIG@EV_WATER_LEAVE?$AA@ 300450d0     bg_misc.obj
 0002:000010e0       ??_C@_0P@MIAIODEJ@EV_WATER_UNDER?$AA@ 300450e0     bg_misc.obj
 0002:000010f0       ??_C@_0P@NIPCJOBG@EV_WATER_CLEAR?$AA@ 300450f0     bg_misc.obj
 0002:00001100       ??_C@_0P@BGIOEPCB@EV_ITEM_PICKUP?$AA@ 30045100     bg_misc.obj
 0002:00001110       ??_C@_0BG@KFILGAMN@EV_GLOBAL_ITEM_PICKUP?$AA@ 30045110     bg_misc.obj
 0002:00001128       ??_C@_09NMIICG@EV_NOAMMO?$AA@ 30045128     bg_misc.obj
 0002:00001134       ??_C@_0BB@ENKPHJLP@EV_CHANGE_WEAPON?$AA@ 30045134     bg_misc.obj
 0002:00001148       ??_C@_0P@PFJPAFGH@EV_FIRE_WEAPON?$AA@ 30045148     bg_misc.obj
 0002:00001158       ??_C@_0N@CGCBJKGD@EV_USE_ITEM0?$AA@ 30045158     bg_misc.obj
 0002:00001168       ??_C@_0N@DPDKKLCC@EV_USE_ITEM1?$AA@ 30045168     bg_misc.obj
 0002:00001178       ??_C@_0N@BEBHPIOB@EV_USE_ITEM2?$AA@ 30045178     bg_misc.obj
 0002:00001188       ??_C@_0N@NAMMJKA@EV_USE_ITEM3?$AA@ 30045188     bg_misc.obj
 0002:00001198       ??_C@_0N@ECENFPGH@EV_USE_ITEM4?$AA@ 30045198     bg_misc.obj
 0002:000011a8       ??_C@_0N@FLFGGOCG@EV_USE_ITEM5?$AA@ 300451a8     bg_misc.obj
 0002:000011b8       ??_C@_0N@HAHLDNOF@EV_USE_ITEM6?$AA@ 300451b8     bg_misc.obj
 0002:000011c8       ??_C@_0N@GJGAAMKE@EV_USE_ITEM7?$AA@ 300451c8     bg_misc.obj
 0002:000011d8       ??_C@_0N@OOPIBAGL@EV_USE_ITEM8?$AA@ 300451d8     bg_misc.obj
 0002:000011e8       ??_C@_0N@PHODCBCK@EV_USE_ITEM9?$AA@ 300451e8     bg_misc.obj
 0002:000011f8       ??_C@_0O@KBJENLM@EV_USE_ITEM10?$AA@ 300451f8     bg_misc.obj
 0002:00001208       ??_C@_0O@BDACHMPN@EV_USE_ITEM11?$AA@ 30045208     bg_misc.obj
 0002:00001218       ??_C@_0O@DICPCPDO@EV_USE_ITEM12?$AA@ 30045218     bg_misc.obj
 0002:00001228       ??_C@_0O@CBDEBOHP@EV_USE_ITEM13?$AA@ 30045228     bg_misc.obj
 0002:00001238       ??_C@_0O@GOHFIILI@EV_USE_ITEM14?$AA@ 30045238     bg_misc.obj
 0002:00001248       ??_C@_0O@HHGOLJPJ@EV_USE_ITEM15?$AA@ 30045248     bg_misc.obj
 0002:00001258       ??_C@_0BA@GJNCODNG@EV_ITEM_RESPAWN?$AA@ 30045258     bg_misc.obj
 0002:00001268       ??_C@_0M@ECGFPIMP@EV_ITEM_POP?$AA@ 30045268     bg_misc.obj
 0002:00001274       ??_C@_0BG@HBBJKNDP@EV_PLAYER_TELEPORT_IN?$AA@ 30045274     bg_misc.obj
 0002:0000128c       ??_C@_0BH@FNNILPIN@EV_PLAYER_TELEPORT_OUT?$AA@ 3004528c     bg_misc.obj
 0002:000012a4       ??_C@_0BC@ECIIAFLJ@EV_GRENADE_BOUNCE?$AA@ 300452a4     bg_misc.obj
 0002:000012b8       ??_C@_0BB@LJGGMAII@EV_GENERAL_SOUND?$AA@ 300452b8     bg_misc.obj
 0002:000012cc       ??_C@_0BA@JAMKLOPJ@EV_GLOBAL_SOUND?$AA@ 300452cc     bg_misc.obj
 0002:000012dc       ??_C@_0BF@DDOIKLHD@EV_GLOBAL_TEAM_SOUND?$AA@ 300452dc     bg_misc.obj
 0002:000012f4       ??_C@_0BE@KBABEJMP@EV_BULLET_HIT_FLESH?$AA@ 300452f4     bg_misc.obj
 0002:00001308       ??_C@_0BD@MFLMCLPN@EV_BULLET_HIT_WALL?$AA@ 30045308     bg_misc.obj
 0002:0000131c       ??_C@_0P@JFMFNBMO@EV_MISSILE_HIT?$AA@ 3004531c     bg_misc.obj
 0002:0000132c       ??_C@_0BA@CAHALNAE@EV_MISSILE_MISS?$AA@ 3004532c     bg_misc.obj
 0002:0000133c       ??_C@_0BG@LPAHEABB@EV_MISSILE_MISS_METAL?$AA@ 3004533c     bg_misc.obj
 0002:00001354       ??_C@_0N@HMLLJFGF@EV_RAILTRAIL?$AA@ 30045354     bg_misc.obj
 0002:00001364       ??_C@_0L@LHBIHDML@EV_SHOTGUN?$AA@ 30045364     bg_misc.obj
 0002:00001370       ??_C@_09ICDIPKFJ@EV_BULLET?$AA@ 30045370     bg_misc.obj
 0002:0000137c       ??_C@_07EMHHKOOH@EV_PAIN?$AA@ 3004537c     bg_misc.obj
 0002:00001384       ??_C@_09JPFBHKII@EV_DEATH1?$AA@ 30045384     bg_misc.obj
 0002:00001390       ??_C@_09LEHMCJEL@EV_DEATH2?$AA@ 30045390     bg_misc.obj
 0002:0000139c       ??_C@_09KNGHBIAK@EV_DEATH3?$AA@ 3004539c     bg_misc.obj
 0002:000013a8       ??_C@_0M@PPLCDPP@EV_OBITUARY?$AA@ 300453a8     bg_misc.obj
 0002:000013b4       ??_C@_0BA@HLHGHIIE@EV_POWERUP_QUAD?$AA@ 300453b4     bg_misc.obj
 0002:000013c4       ??_C@_0BG@CHAMNADK@EV_POWERUP_BATTLESUIT?$AA@ 300453c4     bg_misc.obj
 0002:000013dc       ??_C@_0BB@EGIJIDAN@EV_POWERUP_REGEN?$AA@ 300453dc     bg_misc.obj
 0002:000013f0       ??_C@_0O@JLGFLKBE@EV_GIB_PLAYER?$AA@ 300453f0     bg_misc.obj
 0002:00001400       ??_C@_0N@GAJBP@EV_SCOREPLUM?$AA@ 30045400     bg_misc.obj
 0002:00001410       ??_C@_0BI@KNJAKDGK@EV_PROXIMITY_MINE_STICK?$AA@ 30045410     bg_misc.obj
 0002:00001428       ??_C@_0BK@PIFCIJEJ@EV_PROXIMITY_MINE_TRIGGER?$AA@ 30045428     bg_misc.obj
 0002:00001444       ??_C@_0M@KACLGFEA@EV_KAMIKAZE?$AA@ 30045444     bg_misc.obj
 0002:00001450       ??_C@_0BC@LMKNBBLF@EV_OBELISKEXPLODE?$AA@ 30045450     bg_misc.obj
 0002:00001464       ??_C@_0BA@NHKGBGBA@EV_INVUL_IMPACT?$AA@ 30045464     bg_misc.obj
 0002:00001474       ??_C@_09GLJGDJEJ@EV_JUICED?$AA@ 30045474     bg_misc.obj
 0002:00001480       ??_C@_0BB@HHACOGHI@EV_LIGHTNINGBOLT?$AA@ 30045480     bg_misc.obj
 0002:00001494       ??_C@_0O@PBPAKHP@EV_DEBUG_LINE?$AA@ 30045494     bg_misc.obj
 0002:000014a4       ??_C@_0BE@OHJHDFJH@EV_STOPLOOPINGSOUND?$AA@ 300454a4     bg_misc.obj
 0002:000014b8       ??_C@_08GBKLDCBE@EV_TAUNT?$AA@ 300454b8     bg_misc.obj
 0002:000014c1       ??_C@_00CNPNBAHC@?$AA@     300454c1     bg_misc.obj
 0002:000014c4       ??_C@_0BB@DDGIAABK@item_armor_shard?$AA@ 300454c4     bg_misc.obj
 0002:000014d8       ??_C@_0BI@DECNCEGL@sound?1misc?1ar1_pkup?4wav?$AA@ 300454d8     bg_misc.obj
 0002:000014f0       ??_C@_0CA@NOFOCCIK@models?1powerups?1armor?1shard?4md3?$AA@ 300454f0     bg_misc.obj
 0002:00001510       ??_C@_0CH@NEKDLKN@models?1powerups?1armor?1shard_sphe@ 30045510     bg_misc.obj
 0002:00001538       ??_C@_0BC@LPFHDODA@icons?1iconr_shard?$AA@ 30045538     bg_misc.obj
 0002:0000154c       ??_C@_0M@PJIPIDNH@Armor?5Shard?$AA@ 3004554c     bg_misc.obj
 0002:00001558       ??_C@_0BC@FPPLPJIL@item_armor_combat?$AA@ 30045558     bg_misc.obj
 0002:0000156c       ??_C@_0BI@KNMPECGK@sound?1misc?1ar2_pkup?4wav?$AA@ 3004556c     bg_misc.obj
 0002:00001584       ??_C@_0CE@PHKMKHKB@models?1powerups?1armor?1armor_yel?4@ 30045584     bg_misc.obj
 0002:000015a8       ??_C@_0BD@BKPFMPMP@icons?1iconr_yellow?$AA@ 300455a8     bg_misc.obj
 0002:000015bc       ??_C@_05JOOFIMIN@Armor?$AA@ 300455bc     bg_misc.obj
 0002:000015c4       ??_C@_0BA@EKKMHIH@item_armor_body?$AA@ 300455c4     bg_misc.obj
 0002:000015d4       ??_C@_0CE@EGJFDJJK@models?1powerups?1armor?1armor_red?4@ 300455d4     bg_misc.obj
 0002:000015f8       ??_C@_0BA@CEJNPBJG@icons?1iconr_red?$AA@ 300455f8     bg_misc.obj
 0002:00001608       ??_C@_0M@ICCAHGAD@Heavy?5Armor?$AA@ 30045608     bg_misc.obj
 0002:00001614       ??_C@_0BC@DOHAFEBI@item_health_small?$AA@ 30045614     bg_misc.obj
 0002:00001628       ??_C@_0BJ@BIFHONLM@sound?1items?1s_health?4wav?$AA@ 30045628     bg_misc.obj
 0002:00001644       ??_C@_0CH@JKNLMIJB@models?1powerups?1health?1small_cro@ 30045644     bg_misc.obj
 0002:0000166c       ??_C@_0CI@MPAPPIIE@models?1powerups?1health?1small_sph@ 3004566c     bg_misc.obj
 0002:00001694       ??_C@_0BC@IMNPBGFF@icons?1iconh_green?$AA@ 30045694     bg_misc.obj
 0002:000016a8       ??_C@_08IAIFJOAI@5?5Health?$AA@ 300456a8     bg_misc.obj
 0002:000016b4       ??_C@_0M@KCNAKNNL@item_health?$AA@ 300456b4     bg_misc.obj
 0002:000016c0       ??_C@_0BJ@OLHMCLBI@sound?1items?1n_health?4wav?$AA@ 300456c0     bg_misc.obj
 0002:000016dc       ??_C@_0CI@NAEMLIB@models?1powerups?1health?1medium_cr@ 300456dc     bg_misc.obj
 0002:00001704       ??_C@_0CJ@NCCPDHOD@models?1powerups?1health?1medium_sp@ 30045704     bg_misc.obj
 0002:00001730       ??_C@_0BD@CDBLAHCA@icons?1iconh_yellow?$AA@ 30045730     bg_misc.obj
 0002:00001744       ??_C@_09OJAALANF@25?5Health?$AA@ 30045744     bg_misc.obj
 0002:00001750       ??_C@_0BC@JGDLKFIO@item_health_large?$AA@ 30045750     bg_misc.obj
 0002:00001764       ??_C@_0BJ@ILCAJOFD@sound?1items?1l_health?4wav?$AA@ 30045764     bg_misc.obj
 0002:00001780       ??_C@_0CH@NHFAKEFE@models?1powerups?1health?1large_cro@ 30045780     bg_misc.obj
 0002:000017a8       ??_C@_0CI@CEEMEFNH@models?1powerups?1health?1large_sph@ 300457a8     bg_misc.obj
 0002:000017d0       ??_C@_0BA@IGNANAGL@icons?1iconh_red?$AA@ 300457d0     bg_misc.obj
 0002:000017e0       ??_C@_09EBELOOOD@50?5Health?$AA@ 300457e0     bg_misc.obj
 0002:000017ec       ??_C@_0BB@PBGAONGH@item_health_mega?$AA@ 300457ec     bg_misc.obj
 0002:00001800       ??_C@_0BJ@FGLGEHNG@sound?1items?1m_health?4wav?$AA@ 30045800     bg_misc.obj
 0002:0000181c       ??_C@_0CG@PDJMMGME@models?1powerups?1health?1mega_cros@ 3004581c     bg_misc.obj
 0002:00001844       ??_C@_0CH@NEGHBKPB@models?1powerups?1health?1mega_sphe@ 30045844     bg_misc.obj
 0002:0000186c       ??_C@_0BB@EGPGIMOM@icons?1iconh_mega?$AA@ 3004586c     bg_misc.obj
 0002:00001880       ??_C@_0M@IOJDMPNO@Mega?5Health?$AA@ 30045880     bg_misc.obj
 0002:0000188c       ??_C@_0BA@CLDPODJE@weapon_gauntlet?$AA@ 3004588c     bg_misc.obj
 0002:0000189c       ??_C@_0BG@BBKFHONL@sound?1misc?1w_pkup?4wav?$AA@ 3004589c     bg_misc.obj
 0002:000018b4       ??_C@_0CG@PFPPJBAC@models?1weapons2?1gauntlet?1gauntle@ 300458b4     bg_misc.obj
 0002:000018dc       ??_C@_0BF@PMEPIOCM@icons?1iconw_gauntlet?$AA@ 300458dc     bg_misc.obj
 0002:000018f4       ??_C@_08ELAHAPJB@Gauntlet?$AA@ 300458f4     bg_misc.obj
 0002:00001900       ??_C@_0P@ILAKNOAG@weapon_shotgun?$AA@ 30045900     bg_misc.obj
 0002:00001910       ??_C@_0CE@CJGCHKCN@models?1weapons2?1shotgun?1shotgun?4@ 30045910     bg_misc.obj
 0002:00001934       ??_C@_0BE@PGLFIIOH@icons?1iconw_shotgun?$AA@ 30045934     bg_misc.obj
 0002:00001948       ??_C@_07DGIAOJJ@Shotgun?$AA@ 30045948     bg_misc.obj
 0002:00001950       ??_C@_0BC@HHBNPFPN@weapon_machinegun?$AA@ 30045950     bg_misc.obj
 0002:00001964       ??_C@_0CK@BBPFNIFO@models?1weapons2?1machinegun?1machi@ 30045964     bg_misc.obj
 0002:00001990       ??_C@_0BH@GIACBLNI@icons?1iconw_machinegun?$AA@ 30045990     bg_misc.obj
 0002:000019a8       ??_C@_0L@KDNGMPND@Machinegun?$AA@ 300459a8     bg_misc.obj
 0002:000019b4       ??_C@_0BH@DGCCJPLM@weapon_grenadelauncher?$AA@ 300459b4     bg_misc.obj
 0002:000019cc       ??_C@_0CG@INCGOMDL@models?1weapons2?1grenadel?1grenade@ 300459cc     bg_misc.obj
 0002:000019f4       ??_C@_0BE@JNFKJHKD@icons?1iconw_grenade?$AA@ 300459f4     bg_misc.obj
 0002:00001a08       ??_C@_0BB@GIEOMMBO@Grenade?5Launcher?$AA@ 30045a08     bg_misc.obj
 0002:00001a20       ??_C@_0EG@LFEMOCGK@sound?1weapons?1grenade?1hgrenb1a?4w@ 30045a20     bg_misc.obj
 0002:00001a68       ??_C@_0BG@HJKONAJE@weapon_rocketlauncher?$AA@ 30045a68     bg_misc.obj
 0002:00001a80       ??_C@_0CE@GGGFLKKE@models?1weapons2?1rocketl?1rocketl?4@ 30045a80     bg_misc.obj
 0002:00001aa4       ??_C@_0BD@MKMDIEGB@icons?1iconw_rocket?$AA@ 30045aa4     bg_misc.obj
 0002:00001ab8       ??_C@_0BA@DJIGCIDL@Rocket?5Launcher?$AA@ 30045ab8     bg_misc.obj
 0002:00001ac8       ??_C@_0BB@OCCEAFCD@weapon_lightning?$AA@ 30045ac8     bg_misc.obj
 0002:00001adc       ??_C@_0CI@MNAFJDPO@models?1weapons2?1lightning?1lightn@ 30045adc     bg_misc.obj
 0002:00001b04       ??_C@_0BG@CHEJEOPA@icons?1iconw_lightning?$AA@ 30045b04     bg_misc.obj
 0002:00001b1c       ??_C@_0O@HOCKKNKE@Lightning?5Gun?$AA@ 30045b1c     bg_misc.obj
 0002:00001b2c       ??_C@_0P@FEPBKEBF@weapon_railgun?$AA@ 30045b2c     bg_misc.obj
 0002:00001b3c       ??_C@_0CE@JHJFFEBE@models?1weapons2?1railgun?1railgun?4@ 30045b3c     bg_misc.obj
 0002:00001b60       ??_C@_0BE@CJEOPCPE@icons?1iconw_railgun?$AA@ 30045b60     bg_misc.obj
 0002:00001b74       ??_C@_07NMJDHEIK@Railgun?$AA@ 30045b74     bg_misc.obj
 0002:00001b7c       ??_C@_0BB@LBHAKENA@weapon_plasmagun?$AA@ 30045b7c     bg_misc.obj
 0002:00001b90       ??_C@_0CC@EHGHEDND@models?1weapons2?1plasma?1plasma?4md@ 30045b90     bg_misc.obj
 0002:00001bb4       ??_C@_0BD@NADHMFK@icons?1iconw_plasma?$AA@ 30045bb4     bg_misc.obj
 0002:00001bc8       ??_C@_0L@JFFCGJF@Plasma?5Gun?$AA@ 30045bc8     bg_misc.obj
 0002:00001bd4       ??_C@_0L@JBGNLNGG@weapon_bfg?$AA@ 30045bd4     bg_misc.obj
 0002:00001be0       ??_C@_0BM@HHDGGOHP@models?1weapons2?1bfg?1bfg?4md3?$AA@ 30045be0     bg_misc.obj
 0002:00001bfc       ??_C@_0BA@NCCNKCA@icons?1iconw_bfg?$AA@ 30045bfc     bg_misc.obj
 0002:00001c0c       ??_C@_06PNKEMFGD@BFG10K?$AA@ 30045c0c     bg_misc.obj
 0002:00001c14       ??_C@_0BF@MEMGGPGH@weapon_grapplinghook?$AA@ 30045c14     bg_misc.obj
 0002:00001c2c       ??_C@_0CE@LFAGANA@models?1weapons2?1grapple?1grapple?4@ 30045c2c     bg_misc.obj
 0002:00001c50       ??_C@_0BE@DPKNJNBE@icons?1iconw_grapple?$AA@ 30045c50     bg_misc.obj
 0002:00001c64       ??_C@_0P@CFJPDDC@Grappling?5Hook?$AA@ 30045c64     bg_misc.obj
 0002:00001c74       ??_C@_0BH@MFGKJDLM@HoldableItem?5not?5found?$AA@ 30045c74     bg_misc.obj
 0002:00001c8c       ??_C@_0CI@MFONMA@BG_CanItemBeGrabbed?3?5index?5out?5o@ 30045c8c     bg_misc.obj
 0002:00001cb4       ??_C@_0BM@NECGLAIF@BG_CanItemBeGrabbed?3?5IT_BAD?$AA@ 30045cb4     bg_misc.obj
 0002:00001cd0       ??_C@_0CK@DNBGNAED@BG_EvaluateTrajectory?3?5unknown?5t@ 30045cd0     bg_misc.obj
 0002:00001cfc       ??_C@_0CP@MCFPOIMF@BG_EvaluateTrajectoryDelta?3?5unkn@ 30045cfc     bg_misc.obj
 0002:00001d30       __real@3f50624dd2f1a9fc    30045d30     bg_misc.obj
 0002:00001d38       __real@3fe0000000000000    30045d38     bg_misc.obj
 0002:00001d40       __real@40000000            30045d40     bg_misc.obj
 0002:00001d44       __real@40490fdb            30045d44     bg_misc.obj
 0002:00001d48       __real@4079000000000000    30045d48     bg_misc.obj
 0002:00001d50       __real@42100000            30045d50     bg_misc.obj
 0002:00001d54       __real@42300000            30045d54     bg_misc.obj
 0002:00001d58       __real@42340000            30045d58     bg_misc.obj
 0002:00001d5c       __real@44480000            30045d5c     bg_misc.obj
 0002:00001d60       __real@c2100000            30045d60     bg_misc.obj
 0002:00001d64       __real@c2480000            30045d64     bg_misc.obj
 0002:00001d70       __xmm@7fffffffffffffff7fffffffffffffff 30045d70     bg_misc.obj
 0002:00001d80       ??_C@_0N@KJCNHCBK@?$CFi?3allsolid?6?$AA@ 30045d80     bg_pmove.obj
 0002:00001d90       ??_C@_08EOGJDHPF@?$CFi?3lift?6?$AA@ 30045d90     bg_pmove.obj
 0002:00001d9c       ??_C@_0M@CKJFDFGH@?$CFi?3kickoff?6?$AA@ 30045d9c     bg_pmove.obj
 0002:00001da8       ??_C@_09OPMLNNOA@?$CFi?3steep?6?$AA@ 30045da8     bg_pmove.obj
 0002:00001db4       ??_C@_08KACHPCJN@?$CFi?3Land?6?$AA@ 30045db4     bg_pmove.obj
 0002:00001dc0       __real@00000000            30045dc0     bg_pmove.obj
 0002:00001dc4       __real@3e99999a            30045dc4     bg_pmove.obj
 0002:00001dc8       __real@3ecccccd            30045dc8     bg_pmove.obj
 0002:00001dcc       __real@3f000000            30045dcc     bg_pmove.obj
 0002:00001dd0       __real@3f1a36e2eb1c432d    30045dd0     bg_pmove.obj
 0002:00001dd8       __real@3f333333            30045dd8     bg_pmove.obj
 0002:00001de0       __real@3f76800000000000    30045de0     bg_pmove.obj
 0002:00001de8       __real@3f800000            30045de8     bg_pmove.obj
 0002:00001df0       __real@3fd0000000000000    30045df0     bg_pmove.obj
 0002:00001df8       __real@3ff0000000000000    30045df8     bg_pmove.obj
 0002:00001e00       __real@3ff4cccccccccccd    30045e00     bg_pmove.obj
 0002:00001e08       __real@3ff8000000000000    30045e08     bg_pmove.obj
 0002:00001e10       __real@4008000000000000    30045e10     bg_pmove.obj
 0002:00001e18       __real@405fc00000000000    30045e18     bg_pmove.obj
 0002:00001e20       __real@40800000            30045e20     bg_pmove.obj
 0002:00001e24       __real@40a00000            30045e24     bg_pmove.obj
 0002:00001e28       __real@40e00000            30045e28     bg_pmove.obj
 0002:00001e2c       __real@41200000            30045e2c     bg_pmove.obj
 0002:00001e30       __real@41800000            30045e30     bg_pmove.obj
 0002:00001e34       __real@41a00000            30045e34     bg_pmove.obj
 0002:00001e38       __real@41c00000            30045e38     bg_pmove.obj
 0002:00001e3c       __real@41f00000            30045e3c     bg_pmove.obj
 0002:00001e40       __real@42200000            30045e40     bg_pmove.obj
 0002:00001e44       __real@42700000            30045e44     bg_pmove.obj
 0002:00001e48       __real@42800000            30045e48     bg_pmove.obj
 0002:00001e4c       __real@42c80000            30045e4c     bg_pmove.obj
 0002:00001e50       __real@43480000            30045e50     bg_pmove.obj
 0002:00001e54       __real@c1800000            30045e54     bg_pmove.obj
 0002:00001e58       __real@c2700000            30045e58     bg_pmove.obj
 0002:00001e5c       __real@c3480000            30045e5c     bg_pmove.obj
 0002:00001e60       __xmm@80000000800000008000000080000000 30045e60     bg_pmove.obj
 0002:00001e70       ??_C@_0BE@FLPNHHPN@?$CFi?3bend?5can?8t?5step?6?$AA@ 30045e70     bg_slidemove.obj
 0002:00001e84       ??_C@_0M@CDHDENEF@?$CFi?3stepped?6?$AA@ 30045e84     bg_slidemove.obj
 0002:00001e90       __real@3fb999999999999a    30045e90     bg_slidemove.obj
 0002:00001e98       __real@3fe6666666666666    30045e98     bg_slidemove.obj
 0002:00001ea0       __real@3fefae147ae147ae    30045ea0     bg_slidemove.obj
 0002:00001ea8       __real@41300000            30045ea8     bg_slidemove.obj
 0002:00001eac       __real@41700000            30045eac     bg_slidemove.obj
 0002:00001eb0       __real@41900000            30045eb0     bg_slidemove.obj
 0002:00001eb4       ??_C@_07OFBIMGPG@testgun?$AA@ 30045eb4     cg_consolecmds.obj
 0002:00001ebc       ??_C@_09FDMDKFOH@testmodel?$AA@ 30045ebc     cg_consolecmds.obj
 0002:00001ec8       ??_C@_09CEJNBBKD@nextframe?$AA@ 30045ec8     cg_consolecmds.obj
 0002:00001ed4       ??_C@_09KFHKLKJD@prevframe?$AA@ 30045ed4     cg_consolecmds.obj
 0002:00001ee0       ??_C@_08LEEFJCLI@nextskin?$AA@ 30045ee0     cg_consolecmds.obj
 0002:00001eec       ??_C@_08ONPIGPGM@prevskin?$AA@ 30045eec     cg_consolecmds.obj
 0002:00001ef8       ??_C@_07NBKBBFDF@viewpos?$AA@ 30045ef8     cg_consolecmds.obj
 0002:00001f00       ??_C@_07PNHLECKB@?$CLscores?$AA@ 30045f00     cg_consolecmds.obj
 0002:00001f08       ??_C@_07DLBEELCG@?9scores?$AA@ 30045f08     cg_consolecmds.obj
 0002:00001f10       ??_C@_05GAKJCNGF@?$CLzoom?$AA@ 30045f10     cg_consolecmds.obj
 0002:00001f18       ??_C@_05LGPAMOHI@?9zoom?$AA@ 30045f18     cg_consolecmds.obj
 0002:00001f20       ??_C@_06FCHHJILH@sizeup?$AA@ 30045f20     cg_consolecmds.obj
 0002:00001f28       ??_C@_08KKGKLAHJ@sizedown?$AA@ 30045f28     cg_consolecmds.obj
 0002:00001f34       ??_C@_08IJHOKAF@weapnext?$AA@ 30045f34     cg_consolecmds.obj
 0002:00001f40       ??_C@_08DMEBPOGB@weapprev?$AA@ 30045f40     cg_consolecmds.obj
 0002:00001f4c       ??_C@_06GEPNGEJI@weapon?$AA@ 30045f4c     cg_consolecmds.obj
 0002:00001f54       ??_C@_0M@IEEMCPKO@tell_target?$AA@ 30045f54     cg_consolecmds.obj
 0002:00001f60       ??_C@_0O@CIPPGGPC@tell_attacker?$AA@ 30045f60     cg_consolecmds.obj
 0002:00001f70       ??_C@_0N@OKPMAMBK@vtell_target?$AA@ 30045f70     cg_consolecmds.obj
 0002:00001f80       ??_C@_0P@KDBBCIM@vtell_attacker?$AA@ 30045f80     cg_consolecmds.obj
 0002:00001f90       ??_C@_04FNICOANA@tcmd?$AA@ 30045f90     cg_consolecmds.obj
 0002:00001f98       ??_C@_07GCEEHPOI@loadhud?$AA@ 30045f98     cg_consolecmds.obj
 0002:00001fa0       ??_C@_0P@GJIGAACM@nextTeamMember?$AA@ 30045fa0     cg_consolecmds.obj
 0002:00001fb0       ??_C@_0P@NMPIEJIB@prevTeamMember?$AA@ 30045fb0     cg_consolecmds.obj
 0002:00001fc0       ??_C@_09DIHAGAEB@nextOrder?$AA@ 30045fc0     cg_consolecmds.obj
 0002:00001fcc       ??_C@_0N@KJLGMAFH@confirmOrder?$AA@ 30045fcc     cg_consolecmds.obj
 0002:00001fdc       ??_C@_09PEFBKJOE@denyOrder?$AA@ 30045fdc     cg_consolecmds.obj
 0002:00001fe8       ??_C@_0M@PDBEJPDO@taskOffense?$AA@ 30045fe8     cg_consolecmds.obj
 0002:00001ff4       ??_C@_0M@JPJGJJPF@taskDefense?$AA@ 30045ff4     cg_consolecmds.obj
 0002:00002000       ??_C@_0L@HNDPADH@taskPatrol?$AA@ 30046000     cg_consolecmds.obj
 0002:0000200c       ??_C@_08OELCHPPI@taskCamp?$AA@ 3004600c     cg_consolecmds.obj
 0002:00002018       ??_C@_0L@HALHAPMG@taskFollow?$AA@ 30046018     cg_consolecmds.obj
 0002:00002024       ??_C@_0N@DNLIECKN@taskRetrieve?$AA@ 30046024     cg_consolecmds.obj
 0002:00002034       ??_C@_0L@JKHNIMGE@taskEscort?$AA@ 30046034     cg_consolecmds.obj
 0002:00002040       ??_C@_0M@HEJOPHDA@taskSuicide?$AA@ 30046040     cg_consolecmds.obj
 0002:0000204c       ??_C@_0M@NPBCACOK@taskOwnFlag?$AA@ 3004604c     cg_consolecmds.obj
 0002:00002058       ??_C@_0BA@LAKLAIKA@tauntKillInsult?$AA@ 30046058     cg_consolecmds.obj
 0002:00002068       ??_C@_0M@FHJJKLIB@tauntPraise?$AA@ 30046068     cg_consolecmds.obj
 0002:00002074       ??_C@_0L@OFGCNOGN@tauntTaunt?$AA@ 30046074     cg_consolecmds.obj
 0002:00002080       ??_C@_0BB@DHLHLJJP@tauntDeathInsult?$AA@ 30046080     cg_consolecmds.obj
 0002:00002094       ??_C@_0O@BNPKDDEF@tauntGauntlet?$AA@ 30046094     cg_consolecmds.obj
 0002:000020a4       ??_C@_05NAPLEAGB@spWin?$AA@ 300460a4     cg_consolecmds.obj
 0002:000020ac       ??_C@_06EEKPMAA@spLose?$AA@ 300460ac     cg_consolecmds.obj
 0002:000020b4       ??_C@_0L@JEAJCAAH@scoresDown?$AA@ 300460b4     cg_consolecmds.obj
 0002:000020c0       ??_C@_08NILIEBDN@scoresUp?$AA@ 300460c0     cg_consolecmds.obj
 0002:000020cc       ??_C@_0L@FBDGNAPC@startOrbit?$AA@ 300460cc     cg_consolecmds.obj
 0002:000020d8       ??_C@_0N@FDCACBMC@loaddeferred?$AA@ 300460d8     cg_consolecmds.obj
 0002:000020e8       ??_C@_08FJOFODJK@gc?5?$CFi?5?$CFi?$AA@ 300460e8     cg_consolecmds.obj
 0002:000020f4       ??_C@_02IKAHHCAI@?$CFi?$AA@ 300460f4     cg_consolecmds.obj
 0002:000020f8       ??_C@_0M@NABCNGBA@cg_viewsize?$AA@ 300460f8     cg_consolecmds.obj
 0002:00002104       ??_C@_0BB@MJMOCNNN@?$CI?$CFi?5?$CFi?5?$CFi?$CJ?5?3?5?$CFi?6?$AA@ 30046104     cg_consolecmds.obj
 0002:00002118       ??_C@_05DBKDOICH@score?$AA@ 30046118     cg_consolecmds.obj
 0002:00002120       ??_C@_0M@OADJJKKA@cg_hudFiles?$AA@ 30046120     cg_consolecmds.obj
 0002:0000212c       ??_C@_0L@MOJBPIBA@ui?1hud?4txt?$AA@ 3004612c     cg_consolecmds.obj
 0002:00002138       ??_C@_01FDFGLJHB@2?$AA@    30046138     cg_consolecmds.obj
 0002:0000213c       ??_C@_0P@GDCMABHL@cg_cameraOrbit?$AA@ 3004613c     cg_consolecmds.obj
 0002:0000214c       ??_C@_02IEKCLPJC@35?$AA@   3004614c     cg_consolecmds.obj
 0002:00002150       ??_C@_0BE@EKDKKKAP@cg_cameraOrbitDelay?$AA@ 30046150     cg_consolecmds.obj
 0002:00002164       ??_C@_01HIHLOKLC@1?$AA@    30046164     cg_consolecmds.obj
 0002:00002168       ??_C@_0P@OPFJLCMG@cg_thirdPerson?$AA@ 30046168     cg_consolecmds.obj
 0002:00002178       ??_C@_01GBGANLPD@0?$AA@    30046178     cg_consolecmds.obj
 0002:0000217c       ??_C@_0BE@HGBFBDIP@cg_thirdPersonAngle?$AA@ 3004617c     cg_consolecmds.obj
 0002:00002190       ??_C@_03GNABGMEE@100?$AA@  30046190     cg_consolecmds.obj
 0002:00002194       ??_C@_0BE@FKFEAA@cg_thirdPersonRange?$AA@ 30046194     cg_consolecmds.obj
 0002:000021a8       ??_C@_08NLEPLOFO@YOU?5WIN?$CB?$AA@ 300461a8     cg_consolecmds.obj
 0002:000021b4       ??_C@_0M@BCMFLOBC@YOU?5LOSE?4?4?4?$AA@ 300461b4     cg_consolecmds.obj
 0002:000021c0       ??_C@_0L@EGAGNODH@tell?5?$CFi?5?$CFs?$AA@ 300461c0     cg_consolecmds.obj
 0002:000021cc       ??_C@_0M@JNCDINKA@vtell?5?$CFi?5?$CFs?$AA@ 300461cc     cg_consolecmds.obj
 0002:000021d8       ??_C@_03ICICOMAL@yes?$AA@  300461d8     cg_consolecmds.obj
 0002:000021dc       ??_C@_0BB@EDPDFHAC@cmd?5vtell?5?$CFd?5?$CFs?6?$AA@ 300461dc     cg_consolecmds.obj
 0002:000021f0       ??_C@_0BJ@CIHFDIFK@?$CLbutton5?$DL?5wait?$DL?5?9button5?$AA@ 300461f0     cg_consolecmds.obj
 0002:0000220c       ??_C@_0N@GCNFIOOC@teamtask?5?$CFd?6?$AA@ 3004620c     cg_consolecmds.obj
 0002:0000221c       ??_C@_02KAJCLHKP@no?$AA@   3004621c     cg_consolecmds.obj
 0002:00002220       ??_C@_0BJ@OJNOLGPL@?$CLbutton6?$DL?5wait?$DL?5?9button6?$AA@ 30046220     cg_consolecmds.obj
 0002:0000223c       ??_C@_09DPAAIBFE@ongetflag?$AA@ 3004623c     cg_consolecmds.obj
 0002:00002248       ??_C@_0BC@KMMJHODH@cmd?5vsay_team?5?$CFs?6?$AA@ 30046248     cg_consolecmds.obj
 0002:0000225c       ??_C@_09FDCOIECL@onoffense?$AA@ 3004625c     cg_consolecmds.obj
 0002:00002268       ??_C@_09DPKMICOA@ondefense?$AA@ 30046268     cg_consolecmds.obj
 0002:00002274       ??_C@_08DHCKJNNH@onpatrol?$AA@ 30046274     cg_consolecmds.obj
 0002:00002280       ??_C@_06BPKLMONJ@oncamp?$AA@ 30046280     cg_consolecmds.obj
 0002:00002288       ??_C@_08EAEOGCCG@onfollow?$AA@ 30046288     cg_consolecmds.obj
 0002:00002294       ??_C@_0N@INDGBJCC@onreturnflag?$AA@ 30046294     cg_consolecmds.obj
 0002:000022a4       ??_C@_0BA@DGOAEJLI@onfollowcarrier?$AA@ 300462a4     cg_consolecmds.obj
 0002:000022b4       ??_C@_09BJNHNGHD@ihaveflag?$AA@ 300462b4     cg_consolecmds.obj
 0002:000022c0       ??_C@_0BG@GKMCGMMB@cmd?5vsay?5kill_insult?6?$AA@ 300462c0     cg_consolecmds.obj
 0002:000022d8       ??_C@_0BB@DOCEHHHI@cmd?5vsay?5praise?6?$AA@ 300462d8     cg_consolecmds.obj
 0002:000022ec       ??_C@_0M@OIDHANKH@cmd?5vtaunt?6?$AA@ 300462ec     cg_consolecmds.obj
 0002:000022f8       ??_C@_0BH@PLPBAJGH@cmd?5vsay?5death_insult?6?$AA@ 300462f8     cg_consolecmds.obj
 0002:00002310       ??_C@_0BI@IILJCACF@cmd?5vsay?5kill_guantlet?6?$AA@ 30046310     cg_consolecmds.obj
 0002:00002328       ??_C@_0BA@GHKOOGOO@tell?5?$CFi?5suicide?$AA@ 30046328     cg_consolecmds.obj
 0002:00002338       ??_C@_09DNECJBKD@developer?$AA@ 30046338     cg_consolecmds.obj
 0002:00002344       ??_C@_01BMBHCPLG@5?$AA@    30046344     cg_consolecmds.obj
 0002:00002348       ??_C@_04BJJEOANI@kill?$AA@ 30046348     cg_consolecmds.obj
 0002:00002350       ??_C@_03BANJEMDJ@say?$AA@  30046350     cg_consolecmds.obj
 0002:00002354       ??_C@_08NBFNGOHN@say_team?$AA@ 30046354     cg_consolecmds.obj
 0002:00002360       ??_C@_04LBPCFPDD@tell?$AA@ 30046360     cg_consolecmds.obj
 0002:00002368       ??_C@_04IBCNHBFH@vsay?$AA@ 30046368     cg_consolecmds.obj
 0002:00002370       ??_C@_09CPIJOHHK@vsay_team?$AA@ 30046370     cg_consolecmds.obj
 0002:0000237c       ??_C@_05BLGJOHFB@vtell?$AA@ 3004637c     cg_consolecmds.obj
 0002:00002384       ??_C@_06IMDBNOMM@vtaunt?$AA@ 30046384     cg_consolecmds.obj
 0002:0000238c       ??_C@_05EGEGDMMG@vosay?$AA@ 3004638c     cg_consolecmds.obj
 0002:00002394       ??_C@_0L@GKKIAMHC@vosay_team?$AA@ 30046394     cg_consolecmds.obj
 0002:000023a0       ??_C@_06JMKGCPMO@votell?$AA@ 300463a0     cg_consolecmds.obj
 0002:000023a8       ??_C@_04BMBHJADG@give?$AA@ 300463a8     cg_consolecmds.obj
 0002:000023b0       ??_C@_03DKFAMNOH@god?$AA@  300463b0     cg_consolecmds.obj
 0002:000023b4       ??_C@_08HPLPOCJL@notarget?$AA@ 300463b4     cg_consolecmds.obj
 0002:000023c0       ??_C@_06IHODGGMJ@noclip?$AA@ 300463c0     cg_consolecmds.obj
 0002:000023c8       ??_C@_04KADBPNCB@team?$AA@ 300463c8     cg_consolecmds.obj
 0002:000023d0       ??_C@_06HNJAFFAK@follow?$AA@ 300463d0     cg_consolecmds.obj
 0002:000023d8       ??_C@_09EFOFPGPE@levelshot?$AA@ 300463d8     cg_consolecmds.obj
 0002:000023e4       ??_C@_06CJHCPEHG@addbot?$AA@ 300463e4     cg_consolecmds.obj
 0002:000023ec       ??_C@_0L@CCEFBCKP@setviewpos?$AA@ 300463ec     cg_consolecmds.obj
 0002:000023f8       ??_C@_08NNMLCPB@callvote?$AA@ 300463f8     cg_consolecmds.obj
 0002:00002404       ??_C@_04GHHIKFLG@vote?$AA@ 30046404     cg_consolecmds.obj
 0002:0000240c       ??_C@_0N@JDBKAFAM@callteamvote?$AA@ 3004640c     cg_consolecmds.obj
 0002:0000241c       ??_C@_08OLLMCBNG@teamvote?$AA@ 3004641c     cg_consolecmds.obj
 0002:00002428       ??_C@_05BLKJBNOD@stats?$AA@ 30046428     cg_consolecmds.obj
 0002:00002430       ??_C@_08OKGPDOIO@teamtask?$AA@ 30046430     cg_consolecmds.obj
 0002:0000243c       ??_C@_0M@NJBPNDAH@loaddefered?$AA@ 3004643c     cg_consolecmds.obj
 0002:00002448       ??_C@_01EFFIKLCJ@n?$AA@    30046448     cg_draw.obj
 0002:0000244c       ??_C@_0BH@OGHHEKME@time?3?$CFi?5snap?3?$CFi?5cmd?3?$CFi?$AA@ 3004644c     cg_draw.obj
 0002:00002464       ??_C@_05MDNADFFP@?$CFifps?$AA@ 30046464     cg_draw.obj
 0002:0000246c       ??_C@_07FFDCCNEB@?$CFi?3?$CFi?$CFi?$AA@ 3004646c     cg_draw.obj
 0002:00002474       ??_C@_07CIFAGBMG@unknown?$AA@ 30046474     cg_draw.obj
 0002:0000247c       ??_C@_07FJAEFGNG@?$CF3i?5?$CF3i?$AA@ 3004647c     cg_draw.obj
 0002:00002484       ??_C@_02DPKJAMEF@?$CFd?$AA@ 30046484     cg_draw.obj
 0002:00002488       ??_C@_0BH@HFDDJIMF@Connection?5Interrupted?$AA@ 30046488     cg_draw.obj
 0002:000024a0       ??_C@_0P@NNJCDNEK@gfx?12d?1net?4tga?$AA@ 300464a0     cg_draw.obj
 0002:000024b0       ??_C@_03KLKIPBNP@snc?$AA@  300464b0     cg_draw.obj
 0002:000024b4       ??_C@_09GNDCBOBP@SPECTATOR?$AA@ 300464b4     cg_draw.obj
 0002:000024c0       ??_C@_0BA@PJMJBMDH@waiting?5to?5play?$AA@ 300464c0     cg_draw.obj
 0002:000024d0       ??_C@_0CI@GGHFPFB@press?5ESC?5and?5use?5the?5JOIN?5menu?5@ 300464d0     cg_draw.obj
 0002:000024f8       ??_C@_0BJ@JAENOHOK@VOTE?$CI?$CFi?$CJ?3?$CFs?5yes?3?$CFi?5no?3?$CFi?$AA@ 300464f8     cg_draw.obj
 0002:00002514       ??_C@_0BN@JCDJAMHO@or?5press?5ESC?5then?5click?5Vote?$AA@ 30046514     cg_draw.obj
 0002:00002534       ??_C@_0BN@CPIJHJOL@TEAMVOTE?$CI?$CFi?$CJ?3?$CFs?5yes?3?$CFi?5no?3?$CFi?$AA@ 30046534     cg_draw.obj
 0002:00002554       ??_C@_0P@KAFIJJID@teamscore_menu?$AA@ 30046554     cg_draw.obj
 0002:00002564       ??_C@_0L@PNMKBLDO@score_menu?$AA@ 30046564     cg_draw.obj
 0002:00002570       ??_C@_09BEIPBMDN@following?$AA@ 30046570     cg_draw.obj
 0002:0000257c       ??_C@_0M@COLOONJC@OUT?5OF?5AMMO?$AA@ 3004657c     cg_draw.obj
 0002:00002588       ??_C@_0BB@IAFHNAPI@LOW?5AMMO?5WARNING?$AA@ 30046588     cg_draw.obj
 0002:0000259c       ??_C@_0BL@HOIEEGNH@INTERNAL?5COMBUSTION?5IN?3?5?$CFi?$AA@ 3004659c     cg_draw.obj
 0002:000025b8       ??_C@_0BE@CKMNDNBC@YOU?5HAVE?5BEEN?5MINED?$AA@ 300465b8     cg_draw.obj
 0002:000025cc       ??_C@_0BE@JNOOFOAO@Waiting?5for?5players?$AA@ 300465cc     cg_draw.obj
 0002:000025e0       ??_C@_08MFFNPGJB@?$CFs?5vs?5?$CFs?$AA@ 300465e0     cg_draw.obj
 0002:000025ec       ??_C@_0N@PCEMCJC@Free?5For?5All?$AA@ 300465ec     cg_draw.obj
 0002:000025fc       ??_C@_0BA@KHHNIIJE@Team?5Deathmatch?$AA@ 300465fc     cg_draw.obj
 0002:0000260c       ??_C@_0BB@OOIHNFAG@Capture?5the?5Flag?$AA@ 3004660c     cg_draw.obj
 0002:00002620       ??_C@_0N@FCMBHKKN@One?5Flag?5CTF?$AA@ 30046620     cg_draw.obj
 0002:00002630       ??_C@_08JKIFACLF@Overload?$AA@ 30046630     cg_draw.obj
 0002:0000263c       ??_C@_09OKMOBHEE@Harvester?$AA@ 3004663c     cg_draw.obj
 0002:00002648       ??_C@_0O@DIOKDBHN@Starts?5in?3?5?$CFi?$AA@ 30046648     cg_draw.obj
 0002:00002658       ??_C@_09PFKBKPHC@voiceMenu?$AA@ 30046658     cg_draw.obj
 0002:00002664       ??_C@_0O@PJLPEGOC@cl_conXOffset?$AA@ 30046664     cg_draw.obj
 0002:00002674       ??_C@_0CE@GNKHIBFA@CG_DrawActive?3?5Undefined?5stereoV@ 30046674     cg_draw.obj
 0002:00002698       __real@3ee66666            30046698     cg_draw.obj
 0002:0000269c       __real@3ef5c28f            3004669c     cg_draw.obj
 0002:000026a0       __real@3f028f5c            300466a0     cg_draw.obj
 0002:000026a4       __real@3f0a3d71            300466a4     cg_draw.obj
 0002:000026a8       __real@3fd126e978d4fdf4    300466a8     cg_draw.obj
 0002:000026b0       __real@40400000            300466b0     cg_draw.obj
 0002:000026b8       __real@404e000000000000    300466b8     cg_draw.obj
 0002:000026c0       __real@409f400000000000    300466c0     cg_draw.obj
 0002:000026c8       __real@41000000            300466c8     cg_draw.obj
 0002:000026cc       __real@42400000            300466cc     cg_draw.obj
 0002:000026d0       __real@43960000            300466d0     cg_draw.obj
 0002:000026d4       __real@43a00000            300466d4     cg_draw.obj
 0002:000026d8       __real@44610000            300466d8     cg_draw.obj
 0002:000026dc       __real@447a0000            300466dc     cg_draw.obj
 0002:000026e0       __real@48000000            300466e0     cg_draw.obj
 0002:000026e4       __real@bf000000            300466e4     cg_draw.obj
 0002:000026e8       __real@bfe0000000000000    300466e8     cg_draw.obj
 0002:000026f0       __real@3b800000            300466f0     cg_drawtools.obj
 0002:000026f4       __real@3d800000            300466f4     cg_drawtools.obj
 0002:000026f8       __real@3dd80000            300466f8     cg_drawtools.obj
 0002:000026fc       __real@3f400000            300466fc     cg_drawtools.obj
 0002:00002700       __real@3f90000000000000    30046700     cg_drawtools.obj
 0002:00002708       __real@3fb0000000000000    30046708     cg_drawtools.obj
 0002:00002710       __real@3fd5c28f5c28f5c2    30046710     cg_drawtools.obj
 0002:00002718       __real@3fe51eb851eb851f    30046718     cg_drawtools.obj
 0002:00002720       __real@3fe999999999999a    30046720     cg_drawtools.obj
 0002:00002728       __real@403e000000000000    30046728     cg_drawtools.obj
 0002:00002730       __real@4040800000000000    30046730     cg_drawtools.obj
 0002:00002738       __real@4069000000000000    30046738     cg_drawtools.obj
 0002:00002740       __real@41d80000            30046740     cg_drawtools.obj
 0002:00002744       ??_C@_0BM@FJKGAFKH@CG_MakeExplosion?3?5msec?5?$DN?5?$CFi?$AA@ 30046744     cg_effects.obj
 0002:00002760       __real@4000000000000000    30046760     cg_effects.obj
 0002:00002768       __real@4014000000000000    30046768     cg_effects.obj
 0002:00002770       __real@4018000000000000    30046770     cg_effects.obj
 0002:00002778       __real@4059000000000000    30046778     cg_effects.obj
 0002:00002780       __real@4062c00000000000    30046780     cg_effects.obj
 0002:00002788       __real@406f400000000000    30046788     cg_effects.obj
 0002:00002790       __real@437a0000            30046790     cg_effects.obj
 0002:00002794       __real@437f0000            30046794     cg_effects.obj
 0002:00002798       __real@43b40000            30046798     cg_effects.obj
 0002:0000279c       __real@453b8000            3004679c     cg_effects.obj
 0002:000027a0       __real@46fffe00            300467a0     cg_effects.obj
 0002:000027a4       ??_C@_0BM@DFPOGHOF@Bad?5item?5index?5?$CFi?5on?5entity?$AA@ 300467a4     cg_ents.obj
 0002:000027c0       ??_C@_0L@EKFDHKMA@tag_barrel?$AA@ 300467c0     cg_ents.obj
 0002:000027cc       ??_C@_0DB@OLDIELNC@CG_InterpoateEntityPosition?3?5cg?4@ 300467cc     cg_ents.obj
 0002:00002800       ??_C@_0BF@NGFHFBLN@Bad?5entity?5type?3?5?$CFi?6?$AA@ 30046800     cg_ents.obj
 0002:00002818       __real@3a800000            30046818     cg_ents.obj
 0002:00002820       __real@3ee4f8b588e368f1    30046820     cg_ents.obj
 0002:00002828       __real@3f40000000000000    30046828     cg_ents.obj
 0002:00002830       __real@3f70000000000000    30046830     cg_ents.obj
 0002:00002838       __real@3f747ae147ae147b    30046838     cg_ents.obj
 0002:00002840       __real@400921fb60000000    30046840     cg_ents.obj
 0002:00002848       __real@4010000000000000    30046848     cg_ents.obj
 0002:00002850       __real@4030000000000000    30046850     cg_ents.obj
 0002:00002858       __real@4066800000000000    30046858     cg_ents.obj
 0002:00002860       __real@4076800000000000    30046860     cg_ents.obj
 0002:00002868       __real@41400000            30046868     cg_ents.obj
 0002:0000286c       __real@42600000            3004686c     cg_ents.obj
 0002:00002870       __real@ba800000            30046870     cg_ents.obj
 0002:00002874       ??_C@_09LNCLIHP@Tied?5for?5?$AA@ 30046874     cg_event.obj
 0002:00002880       ??_C@_07OFHBJKHB@?$FO41st?$FO7?$AA@ 30046880     cg_event.obj
 0002:00002888       ??_C@_07PJLEMDNE@?$FO12nd?$FO7?$AA@ 30046888     cg_event.obj
 0002:00002890       ??_C@_07GHHLNL@?$FO33rd?$FO7?$AA@ 30046890     cg_event.obj
 0002:00002898       ??_C@_04BDNHCHDD@11th?$AA@ 30046898     cg_event.obj
 0002:000028a0       ??_C@_04BGCIINN@12th?$AA@  300468a0     cg_event.obj
 0002:000028a8       ??_C@_04LJNOOPLI@13th?$AA@ 300468a8     cg_event.obj
 0002:000028b0       ??_C@_04GLDGHKOE@?$CFist?$AA@ 300468b0     cg_event.obj
 0002:000028b8       ??_C@_04DFAKFIJG@?$CFind?$AA@ 300468b8     cg_event.obj
 0002:000028c0       ??_C@_04CADGACIC@?$CFird?$AA@ 300468c0     cg_event.obj
 0002:000028c8       ??_C@_04IIAODBDM@?$CFith?$AA@ 300468c8     cg_event.obj
 0002:000028d0       ??_C@_04HDOCAJNK@?$CFs?$CFs?$AA@ 300468d0     cg_event.obj
 0002:000028d8       ??_C@_0CB@LLKCBBGA@CG_Obituary?3?5target?5out?5of?5range@ 300468d8     cg_event.obj
 0002:000028fc       ??_C@_02PGJLIFGD@?$FO7?$AA@ 300468fc     cg_event.obj
 0002:00002900       ??_C@_08MOEOKJOB@suicides?$AA@ 30046900     cg_event.obj
 0002:0000290c       ??_C@_08PAHGPPBJ@cratered?$AA@ 3004690c     cg_event.obj
 0002:00002918       ??_C@_0N@JLHEPJHP@was?5squished?$AA@ 30046918     cg_event.obj
 0002:00002928       ??_C@_0BB@IPCHCEIC@sank?5like?5a?5rock?$AA@ 30046928     cg_event.obj
 0002:0000293c       ??_C@_06CHNJJJKC@melted?$AA@ 3004693c     cg_event.obj
 0002:00002944       ??_C@_0BP@NAHBLPBA@does?5a?5back?5flip?5into?5the?5lava?$AA@ 30046944     cg_event.obj
 0002:00002964       ??_C@_0O@LCLMFGAB@saw?5the?5light?$AA@ 30046964     cg_event.obj
 0002:00002974       ??_C@_0BH@GICEGFFN@was?5in?5the?5wrong?5place?$AA@ 30046974     cg_event.obj
 0002:0000298c       ??_C@_0BF@MFPMIIPG@goes?5out?5with?5a?5bang?$AA@ 3004698c     cg_event.obj
 0002:000029a4       ??_C@_0BL@MBMIHDKJ@tripped?5on?5her?5own?5grenade?$AA@ 300469a4     cg_event.obj
 0002:000029c0       ??_C@_0BL@PDGEHOJ@tripped?5on?5its?5own?5grenade?$AA@ 300469c0     cg_event.obj
 0002:000029dc       ??_C@_0BL@BJDCDLDL@tripped?5on?5his?5own?5grenade?$AA@ 300469dc     cg_event.obj
 0002:000029f8       ??_C@_0BA@DBAICHLN@blew?5herself?5up?$AA@ 300469f8     cg_event.obj
 0002:00002a08       ??_C@_0P@GOLBOBGC@blew?5itself?5up?$AA@ 30046a08     cg_event.obj
 0002:00002a18       ??_C@_0BA@FIENEKJD@blew?5himself?5up?$AA@ 30046a18     cg_event.obj
 0002:00002a28       ??_C@_0P@KJDPIID@melted?5herself?$AA@ 30046a28     cg_event.obj
 0002:00002a38       ??_C@_0O@OEFGEIJP@melted?5itself?$AA@ 30046a38     cg_event.obj
 0002:00002a48       ??_C@_0P@DPLDCCLJ@melted?5himself?$AA@ 30046a48     cg_event.obj
 0002:00002a58       ??_C@_0BP@DBEBPALD@should?5have?5used?5a?5smaller?5gun?$AA@ 30046a58     cg_event.obj
 0002:00002a78       ??_C@_0BE@GPPOPNBE@found?5her?5prox?5mine?$AA@ 30046a78     cg_event.obj
 0002:00002a8c       ??_C@_0BF@IPHNOAPJ@found?5it?8s?5prox?5mine?$AA@ 30046a8c     cg_event.obj
 0002:00002aa4       ??_C@_0BE@GOOBAIIA@found?5his?5prox?5mine?$AA@ 30046aa4     cg_event.obj
 0002:00002ab8       ??_C@_0P@IIICGFO@killed?5herself?$AA@ 30046ab8     cg_event.obj
 0002:00002ac8       ??_C@_0O@JCBLJPFM@killed?5itself?$AA@ 30046ac8     cg_event.obj
 0002:00002ad8       ??_C@_0P@DNKIPMGE@killed?5himself?$AA@ 30046ad8     cg_event.obj
 0002:00002ae8       ??_C@_07EJPAKPEC@?$CFs?5?$CFs?4?6?$AA@ 30046ae8     cg_event.obj
 0002:00002af0       ??_C@_0CA@EJEIBOAF@You?5fragged?5?$CFs?6?$CFs?5place?5with?5?$CFi?$AA@ 30046af0     cg_event.obj
 0002:00002b10       ??_C@_0P@IOLDCJGB@You?5fragged?5?$CFs?$AA@ 30046b10     cg_event.obj
 0002:00002b20       ??_C@_06LNKFDEGN@noname?$AA@ 30046b20     cg_event.obj
 0002:00002b28       ??_C@_0O@IBMLDOEJ@was?5caught?5by?$AA@ 30046b28     cg_event.obj
 0002:00002b38       ??_C@_0BA@DIGOJPDF@was?5pummeled?5by?$AA@ 30046b38     cg_event.obj
 0002:00002b48       ??_C@_0BF@PGKPLAEB@was?5machinegunned?5by?$AA@ 30046b48     cg_event.obj
 0002:00002b60       ??_C@_0BD@MKJCHKPL@was?5gunned?5down?5by?$AA@ 30046b60     cg_event.obj
 0002:00002b74       ??_C@_03BGFDOPOL@ate?$AA@  30046b74     cg_event.obj
 0002:00002b78       ??_C@_0L@KPHMDLGC@?8s?5grenade?$AA@ 30046b78     cg_event.obj
 0002:00002b84       ??_C@_0BA@LIKKPCIN@was?5shredded?5by?$AA@ 30046b84     cg_event.obj
 0002:00002b94       ??_C@_0M@BHBOCILJ@?8s?5shrapnel?$AA@ 30046b94     cg_event.obj
 0002:00002ba0       ??_C@_09DEADKGEN@?8s?5rocket?$AA@ 30046ba0     cg_event.obj
 0002:00002bac       ??_C@_0O@JENMCGOI@almost?5dodged?$AA@ 30046bac     cg_event.obj
 0002:00002bbc       ??_C@_0O@CLFCHHPJ@was?5melted?5by?$AA@ 30046bbc     cg_event.obj
 0002:00002bcc       ??_C@_0N@HJJMNEOJ@?8s?5plasmagun?$AA@ 30046bcc     cg_event.obj
 0002:00002bdc       ??_C@_0O@LMMKCAFN@was?5railed?5by?$AA@ 30046bdc     cg_event.obj
 0002:00002bec       ??_C@_0BE@IJJLPGGN@was?5electrocuted?5by?$AA@ 30046bec     cg_event.obj
 0002:00002c00       ??_C@_0P@CIDIINED@was?5blasted?5by?$AA@ 30046c00     cg_event.obj
 0002:00002c10       ??_C@_06NOMMMPPO@?8s?5BFG?$AA@ 30046c10     cg_event.obj
 0002:00002c18       ??_C@_0O@IBFIEBDL@was?5nailed?5by?$AA@ 30046c18     cg_event.obj
 0002:00002c28       ??_C@_0BI@GABGJPHN@got?5lead?5poisoning?5from?$AA@ 30046c28     cg_event.obj
 0002:00002c40       ??_C@_0M@PICELMO@?8s?5Chaingun?$AA@ 30046c40     cg_event.obj
 0002:00002c4c       ??_C@_0BB@MBDPEHDF@was?5too?5close?5to?$AA@ 30046c4c     cg_event.obj
 0002:00002c60       ??_C@_0N@OBOBDBMM@?8s?5Prox?5Mine?$AA@ 30046c60     cg_event.obj
 0002:00002c70       ??_C@_08LGDDNICP@falls?5to?$AA@ 30046c70     cg_event.obj
 0002:00002c7c       ??_C@_0BC@FAPFNLD@?8s?5Kamikaze?5blast?$AA@ 30046c7c     cg_event.obj
 0002:00002c90       ??_C@_0O@IPNHICNF@was?5juiced?5by?$AA@ 30046c90     cg_event.obj
 0002:00002ca0       ??_C@_0BA@CBNEPGEH@tried?5to?5invade?$AA@ 30046ca0     cg_event.obj
 0002:00002cb0       ??_C@_0BC@CJMFGHKA@?8s?5personal?5space?$AA@ 30046cb0     cg_event.obj
 0002:00002cc4       ??_C@_0O@JEEJCGAD@was?5killed?5by?$AA@ 30046cc4     cg_event.obj
 0002:00002cd4       ??_C@_0M@NLIGKFEM@?$CFs?5?$CFs?5?$CFs?$CFs?6?$AA@ 30046cd4     cg_event.obj
 0002:00002ce0       ??_C@_09PIPBOPDG@?$CFs?5died?4?6?$AA@ 30046ce0     cg_event.obj
 0002:00002cec       ??_C@_0P@MMJPCMLF@No?5item?5to?5use?$AA@ 30046cec     cg_event.obj
 0002:00002cfc       ??_C@_06FFLMGAMD@Use?5?$CFs?$AA@ 30046cfc     cg_event.obj
 0002:00002d04       ??_C@_0O@LDJLGKNK@?$CKpain25_1?4wav?$AA@ 30046d04     cg_event.obj
 0002:00002d14       ??_C@_0O@JPBKAJHH@?$CKpain50_1?4wav?$AA@ 30046d14     cg_event.obj
 0002:00002d24       ??_C@_0O@PJAMCPJF@?$CKpain75_1?4wav?$AA@ 30046d24     cg_event.obj
 0002:00002d34       ??_C@_0P@MHKKKFHB@?$CKpain100_1?4wav?$AA@ 30046d34     cg_event.obj
 0002:00002d44       ??_C@_0BE@HGIJDIOP@ent?3?$CF3i?5?5event?3?$CF3i?5?$AA@ 30046d44     cg_event.obj
 0002:00002d58       ??_C@_0L@GMIFJJAD@ZEROEVENT?6?$AA@ 30046d58     cg_event.obj
 0002:00002d64       ??_C@_0N@KAJBJGHI@EV_FOOTSTEP?6?$AA@ 30046d64     cg_event.obj
 0002:00002d74       ??_C@_0BD@GPGIDOAE@EV_FOOTSTEP_METAL?6?$AA@ 30046d74     cg_event.obj
 0002:00002d88       ??_C@_0P@ECCJNKCN@EV_FOOTSPLASH?6?$AA@ 30046d88     cg_event.obj
 0002:00002d98       ??_C@_0N@DBFBMKGC@EV_FOOTWADE?6?$AA@ 30046d98     cg_event.obj
 0002:00002da8       ??_C@_08KPLPEGCK@EV_SWIM?6?$AA@ 30046da8     cg_event.obj
 0002:00002db4       ??_C@_0P@DBGGEJF@EV_FALL_SHORT?6?$AA@ 30046db4     cg_event.obj
 0002:00002dc4       ??_C@_0BA@MCPBHBIM@EV_FALL_MEDIUM?6?$AA@ 30046dc4     cg_event.obj
 0002:00002dd4       ??_C@_0N@FDOJNPAA@EV_FALL_FAR?6?$AA@ 30046dd4     cg_event.obj
 0002:00002de4       ??_C@_0L@NLLHEJNK@?$CKfall1?4wav?$AA@ 30046de4     cg_event.obj
 0002:00002df0       ??_C@_08LGDHLDGB@EV_STEP?6?$AA@ 30046df0     cg_event.obj
 0002:00002dfc       ??_C@_0N@CDCGGHDH@EV_JUMP_PAD?6?$AA@ 30046dfc     cg_event.obj
 0002:00002e0c       ??_C@_0L@FMHDEMAN@?$CKjump1?4wav?$AA@ 30046e0c     cg_event.obj
 0002:00002e18       ??_C@_08GKDKOBGN@EV_JUMP?6?$AA@ 30046e18     cg_event.obj
 0002:00002e24       ??_C@_09OAFEJHMF@EV_TAUNT?6?$AA@ 30046e24     cg_event.obj
 0002:00002e30       ??_C@_0L@FDBCLIPJ@?$CKtaunt?4wav?$AA@ 30046e30     cg_event.obj
 0002:00002e3c       ??_C@_0O@JGINCOPL@EV_TAUNT_YES?6?$AA@ 30046e3c     cg_event.obj
 0002:00002e4c       ??_C@_0N@MPHDJALJ@EV_TAUNT_NO?6?$AA@ 30046e4c     cg_event.obj
 0002:00002e5c       ??_C@_0BD@OBMJKDBC@EV_TAUNT_FOLLOWME?6?$AA@ 30046e5c     cg_event.obj
 0002:00002e70       ??_C@_08LJGLPHPA@followme?$AA@ 30046e70     cg_event.obj
 0002:00002e7c       ??_C@_0BC@BMFLLOJO@EV_TAUNT_GETFLAG?6?$AA@ 30046e7c     cg_event.obj
 0002:00002e90       ??_C@_0BE@PKJDLCKD@EV_TAUNT_GUARDBASE?6?$AA@ 30046e90     cg_event.obj
 0002:00002ea4       ??_C@_0BB@JPOBDFNJ@EV_TAUNT_PATROL?6?$AA@ 30046ea4     cg_event.obj
 0002:00002eb8       ??_C@_0BA@PBFGAGAE@EV_WATER_TOUCH?6?$AA@ 30046eb8     cg_event.obj
 0002:00002ec8       ??_C@_0BA@POIDPCHH@EV_WATER_LEAVE?6?$AA@ 30046ec8     cg_event.obj
 0002:00002ed8       ??_C@_0BA@PFCHBJFN@EV_WATER_UNDER?6?$AA@ 30046ed8     cg_event.obj
 0002:00002ee8       ??_C@_0BA@OODKPEF@EV_WATER_CLEAR?6?$AA@ 30046ee8     cg_event.obj
 0002:00002ef8       ??_C@_09OICPJII@?$CKgasp?4wav?$AA@ 30046ef8     cg_event.obj
 0002:00002f04       ??_C@_0BA@LGJAHGJL@EV_ITEM_PICKUP?6?$AA@ 30046f04     cg_event.obj
 0002:00002f14       ??_C@_0BH@BPJPNNOH@EV_GLOBAL_ITEM_PICKUP?6?$AA@ 30046f14     cg_event.obj
 0002:00002f2c       ??_C@_0L@CIOCLBPP@EV_NOAMMO?6?$AA@ 30046f2c     cg_event.obj
 0002:00002f38       ??_C@_0BC@KBHMOJOO@EV_CHANGE_WEAPON?6?$AA@ 30046f38     cg_event.obj
 0002:00002f4c       ??_C@_0BA@CJMMIDHE@EV_FIRE_WEAPON?6?$AA@ 30046f4c     cg_event.obj
 0002:00002f5c       ??_C@_0O@COHCPJPC@EV_USE_ITEM0?6?$AA@ 30046f5c     cg_event.obj
 0002:00002f6c       ??_C@_0O@CPLAJDMF@EV_USE_ITEM1?6?$AA@ 30046f6c     cg_event.obj
 0002:00002f7c       ??_C@_0O@CNPGCNJM@EV_USE_ITEM2?6?$AA@ 30046f7c     cg_event.obj
 0002:00002f8c       ??_C@_0O@CMDEEHKL@EV_USE_ITEM3?6?$AA@ 30046f8c     cg_event.obj
 0002:00002f9c       ??_C@_0O@CJHLFBCO@EV_USE_ITEM4?6?$AA@ 30046f9c     cg_event.obj
 0002:00002fac       ??_C@_0O@CILJDLBJ@EV_USE_ITEM5?6?$AA@ 30046fac     cg_event.obj
 0002:00002fbc       ??_C@_0O@CKPPIFEA@EV_USE_ITEM6?6?$AA@ 30046fbc     cg_event.obj
 0002:00002fcc       ??_C@_0O@CLDNOPHH@EV_USE_ITEM7?6?$AA@ 30046fcc     cg_event.obj
 0002:00002fdc       ??_C@_0O@CAGBKIEK@EV_USE_ITEM8?6?$AA@ 30046fdc     cg_event.obj
 0002:00002fec       ??_C@_0O@CBKDMCHN@EV_USE_ITEM9?6?$AA@ 30046fec     cg_event.obj
 0002:00002ffc       ??_C@_0P@DIDCAOGA@EV_USE_ITEM10?6?$AA@ 30046ffc     cg_event.obj
 0002:0000300c       ??_C@_0P@DJPAGEFH@EV_USE_ITEM11?6?$AA@ 3004700c     cg_event.obj
 0002:0000301c       ??_C@_0P@DLLGNKAO@EV_USE_ITEM12?6?$AA@ 3004701c     cg_event.obj
 0002:0000302c       ??_C@_0P@DKHELADJ@EV_USE_ITEM13?6?$AA@ 3004702c     cg_event.obj
 0002:0000303c       ??_C@_0P@DPDLKGLM@EV_USE_ITEM14?6?$AA@ 3004703c     cg_event.obj
 0002:0000304c       ??_C@_0BH@EMPINMBK@EV_PLAYER_TELEPORT_IN?6?$AA@ 3004704c     cg_event.obj
 0002:00003064       ??_C@_0BI@GJLLMPKI@EV_PLAYER_TELEPORT_OUT?6?$AA@ 30047064     cg_event.obj
 0002:0000307c       ??_C@_0N@PBHGFCFD@EV_ITEM_POP?6?$AA@ 3004707c     cg_event.obj
 0002:0000308c       ??_C@_0BB@JFDGENII@EV_ITEM_RESPAWN?6?$AA@ 3004708c     cg_event.obj
 0002:000030a0       ??_C@_0BD@EIBAGLKH@EV_GRENADE_BOUNCE?6?$AA@ 300470a0     cg_event.obj
 0002:000030b4       ??_C@_0BJ@FHCFPAGP@EV_PROXIMITY_MINE_STICK?6?$AA@ 300470b4     cg_event.obj
 0002:000030d0       ??_C@_0BL@PFBHEDDH@EV_PROXIMITY_MINE_TRIGGER?6?$AA@ 300470d0     cg_event.obj
 0002:000030ec       ??_C@_0N@IMJDICHP@EV_KAMIKAZE?6?$AA@ 300470ec     cg_event.obj
 0002:000030fc       ??_C@_0BD@EBFIACJI@EV_OBELISKEXPLODE?6?$AA@ 300470fc     cg_event.obj
 0002:00003110       ??_C@_0BA@BPNNKJJM@EV_OBELISKPAIN?6?$AA@ 30047110     cg_event.obj
 0002:00003120       ??_C@_0BB@OHIPFOPI@EV_INVUL_IMPACT?6?$AA@ 30047120     cg_event.obj
 0002:00003134       ??_C@_0L@PFIEIHIH@EV_JUICED?6?$AA@ 30047134     cg_event.obj
 0002:00003140       ??_C@_0BC@KEEGBDGC@EV_LIGHTNINGBOLT?6?$AA@ 30047140     cg_event.obj
 0002:00003154       ??_C@_0O@HHOHODHG@EV_SCOREPLUM?6?$AA@ 30047154     cg_event.obj
 0002:00003164       ??_C@_0BA@IGKGMCOM@EV_MISSILE_HIT?6?$AA@ 30047164     cg_event.obj
 0002:00003174       ??_C@_0BB@PNKCFMCO@EV_MISSILE_MISS?6?$AA@ 30047174     cg_event.obj
 0002:00003188       ??_C@_0BH@JAOAMPDI@EV_MISSILE_MISS_METAL?6?$AA@ 30047188     cg_event.obj
 0002:000031a0       ??_C@_0O@MHELMGMI@EV_RAILTRAIL?6?$AA@ 300471a0     cg_event.obj
 0002:000031b0       ??_C@_0BE@DJCGNKAA@EV_BULLET_HIT_WALL?6?$AA@ 300471b0     cg_event.obj
 0002:000031c4       ??_C@_0BF@PBJFDGOC@EV_BULLET_HIT_FLESH?6?$AA@ 300471c4     cg_event.obj
 0002:000031dc       ??_C@_0M@PGOOOLMB@EV_SHOTGUN?6?$AA@ 300471dc     cg_event.obj
 0002:000031e8       ??_C@_0BC@BJDFIFFI@EV_GENERAL_SOUND?6?$AA@ 300471e8     cg_event.obj
 0002:000031fc       ??_C@_0BB@DOBOGIIM@EV_GLOBAL_SOUND?6?$AA@ 300471fc     cg_event.obj
 0002:00003210       ??_C@_0BG@DDNACAKH@EV_GLOBAL_TEAM_SOUND?6?$AA@ 30047210     cg_event.obj
 0002:00003228       ??_C@_08MEMNOIPP@EV_PAIN?6?$AA@ 30047228     cg_event.obj
 0002:00003234       ??_C@_0L@GGFIAEKN@EV_DEATHx?6?$AA@ 30047234     cg_event.obj
 0002:00003240       ??_C@_0N@OJAOIBLE@?$CKdeath?$CFi?4wav?$AA@ 30047240     cg_event.obj
 0002:00003250       ??_C@_0N@NHOCPMCE@EV_OBITUARY?6?$AA@ 30047250     cg_event.obj
 0002:00003260       ??_C@_0BB@BAEBNJML@EV_POWERUP_QUAD?6?$AA@ 30047260     cg_event.obj
 0002:00003274       ??_C@_0BH@DMMEDNOI@EV_POWERUP_BATTLESUIT?6?$AA@ 30047274     cg_event.obj
 0002:0000328c       ??_C@_0BC@IEBIBNLE@EV_POWERUP_REGEN?6?$AA@ 3004728c     cg_event.obj
 0002:000032a0       ??_C@_0P@OAKOFJEN@EV_GIB_PLAYER?6?$AA@ 300472a0     cg_event.obj
 0002:000032b0       ??_C@_0BF@JEGDHJFI@EV_STOPLOOPINGSOUND?6?$AA@ 300472b0     cg_event.obj
 0002:000032c8       ??_C@_0P@DKFKJLCN@EV_DEBUG_LINE?6?$AA@ 300472c8     cg_event.obj
 0002:000032d8       ??_C@_08GCOIMFOL@UNKNOWN?6?$AA@ 300472d8     cg_event.obj
 0002:000032e4       ??_C@_0BC@OKELKAPM@Unknown?5event?3?5?$CFi?$AA@ 300472e4     cg_event.obj
 0002:000032f8       __real@42000000            300472f8     cg_event.obj
 0002:000032fc       ??_C@_05NCCFOPHA@model?$AA@ 300472fc     cg_info.obj
 0002:00003304       ??_C@_07DLHCIBDH@default?$AA@ 30047304     cg_info.obj
 0002:0000330c       ??_C@_0BO@BHADLJEM@models?1players?1?$CFs?1icon_?$CFs?4tga?$AA@ 3004730c     cg_info.obj
 0002:0000332c       ??_C@_0CJ@KFDGMKIH@models?1players?1characters?1?$CFs?1ico@ 3004732c     cg_info.obj
 0002:00003358       ??_C@_05PDPNFFJO@sarge?$AA@ 30047358     cg_info.obj
 0002:00003360       ??_C@_0BN@PBJAICBL@sound?1player?1announce?1?$CFs?4wav?$AA@ 30047360     cg_info.obj
 0002:00003380       ??_C@_07KMNEBLH@mapname?$AA@ 30047380     cg_info.obj
 0002:00003388       ??_C@_0BC@PIIMIPAI@levelshots?1?$CFs?4tga?$AA@ 30047388     cg_info.obj
 0002:0000339c       ??_C@_0BE@JCMNICLJ@menu?1art?1unknownmap?$AA@ 3004739c     cg_info.obj
 0002:000033b0       ??_C@_0BA@LBOAECOK@levelShotDetail?$AA@ 300473b0     cg_info.obj
 0002:000033c0       ??_C@_0O@BKHPEAJO@Loading?4?4?4?5?$CFs?$AA@ 300473c0     cg_info.obj
 0002:000033d0       ??_C@_0BF@NHPKANBN@Awaiting?5snapshot?4?4?4?$AA@ 300473d0     cg_info.obj
 0002:000033e8       ??_C@_0L@MPAGGMDN@sv_running?$AA@ 300473e8     cg_info.obj
 0002:000033f4       ??_C@_0M@NHCIKFPA@sv_hostname?$AA@ 300473f4     cg_info.obj
 0002:00003400       ??_C@_07CAKOHKGL@sv_pure?$AA@ 30047400     cg_info.obj
 0002:00003408       ??_C@_0M@POENFNKG@Pure?5Server?$AA@ 30047408     cg_info.obj
 0002:00003414       ??_C@_09NFOPKLIK@sv_cheats?$AA@ 30047414     cg_info.obj
 0002:00003420       ??_C@_0BD@HCPEKLFD@CHEATS?5ARE?5ENABLED?$AA@ 30047420     cg_info.obj
 0002:00003434       ??_C@_0O@NNAOEDOE@Single?5Player?$AA@ 30047434     cg_info.obj
 0002:00003444       ??_C@_0L@FENDKKGN@Tournament?$AA@ 30047444     cg_info.obj
 0002:00003450       ??_C@_0BB@GMHGFHKF@Capture?5The?5Flag?$AA@ 30047450     cg_info.obj
 0002:00003464       ??_C@_0BB@DMLMKGKN@Unknown?5Gametype?$AA@ 30047464     cg_info.obj
 0002:00003478       ??_C@_09KPHKOKCC@timelimit?$AA@ 30047478     cg_info.obj
 0002:00003484       ??_C@_0N@FADOKLO@timelimit?5?$CFi?$AA@ 30047484     cg_info.obj
 0002:00003494       ??_C@_09GCIEGDDN@fraglimit?$AA@ 30047494     cg_info.obj
 0002:000034a0       ??_C@_0N@KCDNPCCH@fraglimit?5?$CFi?$AA@ 300474a0     cg_info.obj
 0002:000034b0       ??_C@_0N@FCAHJCDA@capturelimit?$AA@ 300474b0     cg_info.obj
 0002:000034c0       ??_C@_0BA@NDPDGDCC@capturelimit?5?$CFi?$AA@ 300474c0     cg_info.obj
 0002:000034d0       ??_C@_0BP@HOJADAKE@CG_FreeLocalEntity?3?5not?5active?$AA@ 300474d0     cg_localents.obj
 0002:000034f0       ??_C@_0P@JBCHHKP@Bad?5leType?3?5?$CFi?$AA@ 300474f0     cg_localents.obj
 0002:00003500       __real@3e800000            30047500     cg_localents.obj
 0002:00003508       __real@3fd3333333333333    30047508     cg_localents.obj
 0002:00003510       __real@3fd51eb851eb851f    30047510     cg_localents.obj
 0002:00003518       __real@3fe6666660000000    30047518     cg_localents.obj
 0002:00003520       __real@4020000000000000    30047520     cg_localents.obj
 0002:00003528       __real@4024000000000000    30047528     cg_localents.obj
 0002:00003530       __real@4034000000000000    30047530     cg_localents.obj
 0002:00003538       __real@4045000000000000    30047538     cg_localents.obj
 0002:00003540       __real@408f400000000000    30047540     cg_localents.obj
 0002:00003548       __real@42900000            30047548     cg_localents.obj
 0002:0000354c       __real@42b00000            3004754c     cg_localents.obj
 0002:00003550       __real@42dc0000            30047550     cg_localents.obj
 0002:00003554       __real@43fa0000            30047554     cg_localents.obj
 0002:00003558       __real@44300000            30047558     cg_localents.obj
 0002:0000355c       __real@44340000            3004755c     cg_localents.obj
 0002:00003560       __real@447f0000            30047560     cg_localents.obj
 0002:00003564       __real@44a50000            30047564     cg_localents.obj
 0002:00003568       __real@44dac000            30047568     cg_localents.obj
 0002:0000356c       __real@44fa0000            3004756c     cg_localents.obj
 0002:00003570       __real@c0000000            30047570     cg_localents.obj
 0002:00003574       ??_C@_09JDMGBOIM@cg_ignore?$AA@ 30047574     cg_main.obj
 0002:00003580       ??_C@_0O@JKEEFDLF@cg_autoswitch?$AA@ 30047580     cg_main.obj
 0002:00003590       ??_C@_0L@MLBFCMPB@cg_drawGun?$AA@ 30047590     cg_main.obj
 0002:0000359c       ??_C@_0L@DPFDGKBB@cg_zoomfov?$AA@ 3004759c     cg_main.obj
 0002:000035a8       ??_C@_04CIPMHKHC@22?45?$AA@ 300475a8     cg_main.obj
 0002:000035b0       ??_C@_06FDNMOLLD@cg_fov?$AA@ 300475b0     cg_main.obj
 0002:000035b8       ??_C@_02PEECMOAB@90?$AA@   300475b8     cg_main.obj
 0002:000035bc       ??_C@_0BE@EMBJACLB@cg_stereoSeparation?$AA@ 300475bc     cg_main.obj
 0002:000035d0       ??_C@_03KHGJEAFP@0?44?$AA@ 300475d0     cg_main.obj
 0002:000035d4       ??_C@_0L@MAOLAFLC@cg_shadows?$AA@ 300475d4     cg_main.obj
 0002:000035e0       ??_C@_07FFANGJCI@cg_gibs?$AA@ 300475e0     cg_main.obj
 0002:000035e8       ??_C@_09EKPCJMOG@cg_draw2D?$AA@ 300475e8     cg_main.obj
 0002:000035f4       ??_C@_0O@IIACNNIF@cg_drawStatus?$AA@ 300475f4     cg_main.obj
 0002:00003604       ??_C@_0N@FOINMAON@cg_drawTimer?$AA@ 30047604     cg_main.obj
 0002:00003614       ??_C@_0L@CHMHIHCB@cg_drawFPS?$AA@ 30047614     cg_main.obj
 0002:00003620       ??_C@_0BA@MIPMDAEB@cg_drawSnapshot?$AA@ 30047620     cg_main.obj
 0002:00003630       ??_C@_0P@DMBICICD@cg_draw3dIcons?$AA@ 30047630     cg_main.obj
 0002:00003640       ??_C@_0N@BEDCNPCC@cg_drawIcons?$AA@ 30047640     cg_main.obj
 0002:00003650       ??_C@_0BD@FJPGADGN@cg_drawAmmoWarning?$AA@ 30047650     cg_main.obj
 0002:00003664       ??_C@_0BA@HDEFAPDO@cg_drawAttacker?$AA@ 30047664     cg_main.obj
 0002:00003674       ??_C@_0BB@KBADOJHA@cg_drawCrosshair?$AA@ 30047674     cg_main.obj
 0002:00003688       ??_C@_01FAMBOPH@4?$AA@     30047688     cg_main.obj
 0002:0000368c       ??_C@_0BG@PFLNOEEN@cg_drawCrosshairNames?$AA@ 3004768c     cg_main.obj
 0002:000036a4       ??_C@_0P@GNHKLMJL@cg_drawRewards?$AA@ 300476a4     cg_main.obj
 0002:000036b4       ??_C@_0BB@NJOFJDCL@cg_crosshairSize?$AA@ 300476b4     cg_main.obj
 0002:000036c8       ??_C@_02JMHLOEOE@24?$AA@   300476c8     cg_main.obj
 0002:000036cc       ??_C@_0BD@JJIJCGAH@cg_crosshairHealth?$AA@ 300476cc     cg_main.obj
 0002:000036e0       ??_C@_0O@IHFEICLM@cg_crosshairX?$AA@ 300476e0     cg_main.obj
 0002:000036f0       ??_C@_0O@JOEPLDPN@cg_crosshairY?$AA@ 300476f0     cg_main.obj
 0002:00003700       ??_C@_0N@GADGJPHJ@cg_brassTime?$AA@ 30047700     cg_main.obj
 0002:00003710       ??_C@_04NOOEDIPE@2500?$AA@ 30047710     cg_main.obj
 0002:00003718       ??_C@_0P@CCFIBNOJ@cg_simpleItems?$AA@ 30047718     cg_main.obj
 0002:00003728       ??_C@_08OCDFECFG@cg_marks?$AA@ 30047728     cg_main.obj
 0002:00003734       ??_C@_0N@IBNNIGPC@cg_lagometer?$AA@ 30047734     cg_main.obj
 0002:00003744       ??_C@_0BB@PPFMMLIA@cg_railTrailTime?$AA@ 30047744     cg_main.obj
 0002:00003758       ??_C@_03FKNPJMHG@400?$AA@  30047758     cg_main.obj
 0002:0000375c       ??_C@_07DAKIIFAC@cg_gunX?$AA@ 3004775c     cg_main.obj
 0002:00003764       ??_C@_07CJLDLEED@cg_gunY?$AA@ 30047764     cg_main.obj
 0002:0000376c       ??_C@_07CJOOHIA@cg_gunZ?$AA@ 3004776c     cg_main.obj
 0002:00003774       ??_C@_0O@CMEJDJHP@cg_centertime?$AA@ 30047774     cg_main.obj
 0002:00003784       ??_C@_01EKENIIDA@3?$AA@    30047784     cg_main.obj
 0002:00003788       ??_C@_0M@JHJCCBOJ@cg_runpitch?$AA@ 30047788     cg_main.obj
 0002:00003794       ??_C@_05NIGIBNE@0?4002?$AA@ 30047794     cg_main.obj
 0002:0000379c       ??_C@_0L@MJJHGKNK@cg_runroll?$AA@ 3004779c     cg_main.obj
 0002:000037a8       ??_C@_05ECMHBHBD@0?4005?$AA@ 300477a8     cg_main.obj
 0002:000037b0       ??_C@_08MBNPMEME@cg_bobup?$AA@ 300477b0     cg_main.obj
 0002:000037bc       ??_C@_0M@BBIJCEAP@cg_bobpitch?$AA@ 300477bc     cg_main.obj
 0002:000037c8       ??_C@_0L@BEAFIAK@cg_bobroll?$AA@ 300477c8     cg_main.obj
 0002:000037d4       ??_C@_0O@NLMPFCHA@cg_swingSpeed?$AA@ 300477d4     cg_main.obj
 0002:000037e4       ??_C@_03OICINGJI@0?43?$AA@ 300477e4     cg_main.obj
 0002:000037e8       ??_C@_0N@EMGODPLM@cg_animspeed?$AA@ 300477e8     cg_main.obj
 0002:000037f8       ??_C@_0N@OLFHJPEJ@cg_debuganim?$AA@ 300477f8     cg_main.obj
 0002:00003808       ??_C@_0BB@PNGPLJB@cg_debugposition?$AA@ 30047808     cg_main.obj
 0002:0000381c       ??_C@_0P@NKGOJNHN@cg_debugevents?$AA@ 3004781c     cg_main.obj
 0002:0000382c       ??_C@_0O@MAANEMBM@cg_errordecay?$AA@ 3004782c     cg_main.obj
 0002:0000383c       ??_C@_0N@BMAKLHMK@cg_nopredict?$AA@ 3004783c     cg_main.obj
 0002:0000384c       ??_C@_0BB@HOMHKKFN@cg_noplayeranims?$AA@ 3004784c     cg_main.obj
 0002:00003860       ??_C@_0M@DOMGGLDE@cg_showmiss?$AA@ 30047860     cg_main.obj
 0002:0000386c       ??_C@_0N@GHAOKDNB@cg_footsteps?$AA@ 3004786c     cg_main.obj
 0002:0000387c       ??_C@_0BA@DJBDPKKA@cg_tracerchance?$AA@ 3004787c     cg_main.obj
 0002:0000388c       ??_C@_0P@ENCNJBFG@cg_tracerwidth?$AA@ 3004788c     cg_main.obj
 0002:0000389c       ??_C@_0BA@CAFKIKHE@cg_tracerlength?$AA@ 3004789c     cg_main.obj
 0002:000038ac       ??_C@_02PMJKFNFC@40?$AA@   300478ac     cg_main.obj
 0002:000038b0       ??_C@_0BA@FOMJOJCG@cg_teamChatTime?$AA@ 300478b0     cg_main.obj
 0002:000038c0       ??_C@_04NEFKOBHG@3000?$AA@ 300478c0     cg_main.obj
 0002:000038c8       ??_C@_0BC@JPKKPJNB@cg_teamChatHeight?$AA@ 300478c8     cg_main.obj
 0002:000038dc       ??_C@_0O@LJBBKNGE@cg_forceModel?$AA@ 300478dc     cg_main.obj
 0002:000038ec       ??_C@_0BA@PKAEEJJB@cg_predictItems?$AA@ 300478ec     cg_main.obj
 0002:000038fc       ??_C@_0BA@PFOJHBKN@cg_deferPlayers?$AA@ 300478fc     cg_main.obj
 0002:0000390c       ??_C@_0BD@BNGDPIGC@cg_drawTeamOverlay?$AA@ 3004790c     cg_main.obj
 0002:00003920       ??_C@_0M@IKKMOBIP@teamoverlay?$AA@ 30047920     cg_main.obj
 0002:0000392c       ??_C@_08CGDPCFHD@cg_stats?$AA@ 3004792c     cg_main.obj
 0002:00003938       ??_C@_0O@KGJIDOMN@cg_drawFriend?$AA@ 30047938     cg_main.obj
 0002:00003948       ??_C@_0BB@GFOCPFOA@cg_teamChatsOnly?$AA@ 30047948     cg_main.obj
 0002:0000395c       ??_C@_0BA@DGINBIDE@cg_noVoiceChats?$AA@ 3004795c     cg_main.obj
 0002:0000396c       ??_C@_0P@HEADOJJM@cg_noVoiceText?$AA@ 3004796c     cg_main.obj
 0002:0000397c       ??_C@_0BA@MOHNLIKA@com_buildScript?$AA@ 3004797c     cg_main.obj
 0002:0000398c       ??_C@_09DIABHAFB@cl_paused?$AA@ 3004798c     cg_main.obj
 0002:00003998       ??_C@_09DKNLLEN@com_blood?$AA@ 30047998     cg_main.obj
 0002:000039a4       ??_C@_0BF@LICFCALK@g_synchronousClients?$AA@ 300479a4     cg_main.obj
 0002:000039bc       ??_C@_09LPNHELAH@g_redteam?$AA@ 300479bc     cg_main.obj
 0002:000039c8       ??_C@_07OLKAFEPH@Stroggs?$AA@ 300479c8     cg_main.obj
 0002:000039d0       ??_C@_0L@CPNMJIBN@g_blueteam?$AA@ 300479d0     cg_main.obj
 0002:000039dc       ??_C@_06GMDNOCON@Pagans?$AA@ 300479dc     cg_main.obj
 0002:000039e4       ??_C@_0BJ@CEJCFKCN@cg_currentSelectedPlayer?$AA@ 300479e4     cg_main.obj
 0002:00003a00       ??_C@_0BN@HANLGBBD@cg_currentSelectedPlayerName?$AA@ 30047a00     cg_main.obj
 0002:00003a20       ??_C@_0BG@JDIGCOKJ@ui_singlePlayerActive?$AA@ 30047a20     cg_main.obj
 0002:00003a38       ??_C@_0N@CMGOADK@g_enableDust?$AA@ 30047a38     cg_main.obj
 0002:00003a48       ??_C@_0P@INMNNPOJ@g_enableBreath?$AA@ 30047a48     cg_main.obj
 0002:00003a58       ??_C@_0BA@OHINOCDN@ui_recordSPDemo?$AA@ 30047a58     cg_main.obj
 0002:00003a68       ??_C@_0BE@CELIAELA@ui_recordSPDemoName?$AA@ 30047a68     cg_main.obj
 0002:00003a7c       ??_C@_0BG@GHPGJFPD@g_obeliskRespawnDelay?$AA@ 30047a7c     cg_main.obj
 0002:00003a94       ??_C@_02PKFBJPLJ@10?$AA@   30047a94     cg_main.obj
 0002:00003a98       ??_C@_02PNFIDHGF@50?$AA@   30047a98     cg_main.obj
 0002:00003a9c       ??_C@_0BE@INLNOCBP@cg_timescaleFadeEnd?$AA@ 30047a9c     cg_main.obj
 0002:00003ab0       ??_C@_0BG@HODAAIBP@cg_timescaleFadeSpeed?$AA@ 30047ab0     cg_main.obj
 0002:00003ac8       ??_C@_09IIOBMIO@timescale?$AA@ 30047ac8     cg_main.obj
 0002:00003ad4       ??_C@_0O@ECBGLFLJ@cg_scorePlums?$AA@ 30047ad4     cg_main.obj
 0002:00003ae4       ??_C@_0BB@EPNKMEEL@cg_smoothClients?$AA@ 30047ae4     cg_main.obj
 0002:00003af8       ??_C@_0P@EIAPFKBF@com_cameraMode?$AA@ 30047af8     cg_main.obj
 0002:00003b08       ??_C@_0M@HOGKGHBI@pmove_fixed?$AA@ 30047b08     cg_main.obj
 0002:00003b14       ??_C@_0L@JLBEBBAD@pmove_msec?$AA@ 30047b14     cg_main.obj
 0002:00003b20       ??_C@_01KJLJFBPL@8?$AA@    30047b20     cg_main.obj
 0002:00003b24       ??_C@_0L@BNLHLPGL@cg_noTaunt?$AA@ 30047b24     cg_main.obj
 0002:00003b30       ??_C@_0BF@IHAIMPIG@cg_noProjectileTrail?$AA@ 30047b30     cg_main.obj
 0002:00003b48       ??_C@_0N@CLDCAIAI@ui_smallFont?$AA@ 30047b48     cg_main.obj
 0002:00003b58       ??_C@_04FNMPJLCB@0?425?$AA@ 30047b58     cg_main.obj
 0002:00003b60       ??_C@_0L@LPOJJAMJ@ui_bigFont?$AA@ 30047b60     cg_main.obj
 0002:00003b6c       ??_C@_0L@FKCBCOIH@cg_oldRail?$AA@ 30047b6c     cg_main.obj
 0002:00003b78       ??_C@_0N@EADGKNDD@cg_oldRocket?$AA@ 30047b78     cg_main.obj
 0002:00003b88       ??_C@_0N@IHPGFFAI@cg_oldPlasma?$AA@ 30047b88     cg_main.obj
 0002:00003b98       ??_C@_0BB@DCJMDHFD@cg_trueLightning?$AA@ 30047b98     cg_main.obj
 0002:00003bac       ??_C@_03MDAFIFFL@0?40?$AA@ 30047bac     cg_main.obj
 0002:00003bb0       ??_C@_0BI@NODEBLMA@gfx?12d?1numbers?1zero_32b?$AA@ 30047bb0     cg_main.obj
 0002:00003bc8       ??_C@_0BH@GPBOJLFB@gfx?12d?1numbers?1one_32b?$AA@ 30047bc8     cg_main.obj
 0002:00003be0       ??_C@_0BH@BNBCEMFH@gfx?12d?1numbers?1two_32b?$AA@ 30047be0     cg_main.obj
 0002:00003bf8       ??_C@_0BJ@KKKEIAHG@gfx?12d?1numbers?1three_32b?$AA@ 30047bf8     cg_main.obj
 0002:00003c14       ??_C@_0BI@HPOPJJKG@gfx?12d?1numbers?1four_32b?$AA@ 30047c14     cg_main.obj
 0002:00003c2c       ??_C@_0BI@JGLLLIJP@gfx?12d?1numbers?1five_32b?$AA@ 30047c2c     cg_main.obj
 0002:00003c44       ??_C@_0BH@DOOFJAPO@gfx?12d?1numbers?1six_32b?$AA@ 30047c44     cg_main.obj
 0002:00003c5c       ??_C@_0BJ@FHLKICGB@gfx?12d?1numbers?1seven_32b?$AA@ 30047c5c     cg_main.obj
 0002:00003c78       ??_C@_0BJ@OILFPBFC@gfx?12d?1numbers?1eight_32b?$AA@ 30047c78     cg_main.obj
 0002:00003c94       ??_C@_0BI@HJFCMICO@gfx?12d?1numbers?1nine_32b?$AA@ 30047c94     cg_main.obj
 0002:00003cac       ??_C@_0BJ@PPCBGHDL@gfx?12d?1numbers?1minus_32b?$AA@ 30047cac     cg_main.obj
 0002:00003cc8       ??_C@_0BL@MDCOCEP@vmMain?3?5unknown?5command?5?$CFi?$AA@ 30047cc8     cg_main.obj
 0002:00003ce4       ??_C@_09DHBBGOBJ@headmodel?$AA@ 30047ce4     cg_main.obj
 0002:00003cf0       ??_C@_05MAECCALN@james?$AA@ 30047cf0     cg_main.obj
 0002:00003cf8       ??_C@_0L@KEDOKIKJ@team_model?$AA@ 30047cf8     cg_main.obj
 0002:00003d04       ??_C@_06IHCBDILC@?$CKjames?$AA@ 30047d04     cg_main.obj
 0002:00003d0c       ??_C@_0P@JMIBMNM@team_headmodel?$AA@ 30047d0c     cg_main.obj
 0002:00003d1c       ??_C@_02DKCKIIND@?$CFs?$AA@ 30047d1c     cg_main.obj
 0002:00003d20       ??_C@_0CJ@CMOPAMCG@PrecacheItem?3?5?$CFs?5has?5bad?5precach@ 30047d20     cg_main.obj
 0002:00003d4c       ??_C@_03BICDMHKB@wav?$AA@  30047d4c     cg_main.obj
 0002:00003d50       ??_C@_0BM@GFEGEKEP@sound?1feedback?11_minute?4wav?$AA@ 30047d50     cg_main.obj
 0002:00003d6c       ??_C@_0BM@KFPPCANJ@sound?1feedback?15_minute?4wav?$AA@ 30047d6c     cg_main.obj
 0002:00003d88       ??_C@_0CA@MIDPIFA@sound?1feedback?1sudden_death?4wav?$AA@ 30047d88     cg_main.obj
 0002:00003da8       ??_C@_0BK@OBKGIBHG@sound?1feedback?11_frag?4wav?$AA@ 30047da8     cg_main.obj
 0002:00003dc4       ??_C@_0BL@FOHEHFCN@sound?1feedback?12_frags?4wav?$AA@ 30047dc4     cg_main.obj
 0002:00003de0       ??_C@_0BL@MFNBDJEC@sound?1feedback?13_frags?4wav?$AA@ 30047de0     cg_main.obj
 0002:00003dfc       ??_C@_0BJ@BMGLCFHO@sound?1feedback?1three?4wav?$AA@ 30047dfc     cg_main.obj
 0002:00003e18       ??_C@_0BH@IKFNOJCO@sound?1feedback?1two?4wav?$AA@ 30047e18     cg_main.obj
 0002:00003e30       ??_C@_0BH@PIFBDOCI@sound?1feedback?1one?4wav?$AA@ 30047e30     cg_main.obj
 0002:00003e48       ??_C@_0BJ@LFENOPFJ@sound?1feedback?1fight?4wav?$AA@ 30047e48     cg_main.obj
 0002:00003e64       ??_C@_0BL@OKIMFPPI@sound?1feedback?1prepare?4wav?$AA@ 30047e64     cg_main.obj
 0002:00003e80       ??_C@_0CA@KNKCOJJA@sound?1feedback?1prepare_team?4wav?$AA@ 30047e80     cg_main.obj
 0002:00003ea0       ??_C@_0CI@PGKAABCI@sound?1teamplay?1flagcapture_yourt@ 30047ea0     cg_main.obj
 0002:00003ec8       ??_C@_0BM@MOIOEAMK@sound?1feedback?1redleads?4wav?$AA@ 30047ec8     cg_main.obj
 0002:00003ee4       ??_C@_0BN@KNKFAPML@sound?1feedback?1blueleads?4wav?$AA@ 30047ee4     cg_main.obj
 0002:00003f04       ??_C@_0BN@HMCOLEK@sound?1feedback?1teamstied?4wav?$AA@ 30047f04     cg_main.obj
 0002:00003f24       ??_C@_0CA@NGJNFJDA@sound?1feedback?1hit_teammate?4wav?$AA@ 30047f24     cg_main.obj
 0002:00003f44       ??_C@_0CC@JMEMACMF@sound?1teamplay?1voc_red_scores?4wa@ 30047f44     cg_main.obj
 0002:00003f68       ??_C@_0CD@KLDPFGFG@sound?1teamplay?1voc_blue_scores?4w@ 30047f68     cg_main.obj
 0002:00003f8c       ??_C@_0CI@NELGEHON@sound?1teamplay?1flagcapture_oppon@ 30047f8c     cg_main.obj
 0002:00003fb4       ??_C@_0CH@GPMKLIFJ@sound?1teamplay?1flagreturn_yourte@ 30047fb4     cg_main.obj
 0002:00003fdc       ??_C@_0CH@ENNMPOJM@sound?1teamplay?1flagreturn_oppone@ 30047fdc     cg_main.obj
 0002:00004004       ??_C@_0CG@PPKEHJCF@sound?1teamplay?1flagtaken_yourtea@ 30048004     cg_main.obj
 0002:0000402c       ??_C@_0CG@NNLCDPOA@sound?1teamplay?1flagtaken_opponen@ 3004802c     cg_main.obj
 0002:00004054       ??_C@_0CE@LLBNHHJG@sound?1teamplay?1voc_red_returned?4@ 30048054     cg_main.obj
 0002:00004078       ??_C@_0CF@INHHAMNB@sound?1teamplay?1voc_blue_returned@ 30048078     cg_main.obj
 0002:000040a0       ??_C@_0CC@BAGJBDIN@sound?1teamplay?1voc_enemy_flag?4wa@ 300480a0     cg_main.obj
 0002:000040c4       ??_C@_0CB@NCMOABK@sound?1teamplay?1voc_team_flag?4wav@ 300480c4     cg_main.obj
 0002:000040e8       ??_C@_0CC@MDHGHHAG@sound?1teamplay?1voc_team_1flag?4wa@ 300480e8     cg_main.obj
 0002:0000410c       ??_C@_0CD@KNAADEBC@sound?1teamplay?1voc_enemy_1flag?4w@ 3004810c     cg_main.obj
 0002:00004130       ??_C@_0CA@HNMMFEAI@sound?1teamplay?1voc_you_flag?4wav?$AA@ 30048130     cg_main.obj
 0002:00004150       ??_C@_0CA@JIIPPEEH@sound?1feedback?1voc_holyshit?4wav?$AA@ 30048150     cg_main.obj
 0002:00004170       ??_C@_0CD@MMOPNHNP@sound?1teamplay?1voc_base_attack?4w@ 30048170     cg_main.obj
 0002:00004194       ??_C@_0CG@FIPFLECJ@sound?1weapons?1machinegun?1buletby@ 30048194     cg_main.obj
 0002:000041bc       ??_C@_0BJ@EFMFEOAN@sound?1weapons?1change?4wav?$AA@ 300481bc     cg_main.obj
 0002:000041d8       ??_C@_0BI@CHMBGLDC@sound?1items?1wearoff?4wav?$AA@ 300481d8     cg_main.obj
 0002:000041f0       ??_C@_0BM@OECMCAJK@sound?1items?1use_nothing?4wav?$AA@ 300481f0     cg_main.obj
 0002:0000420c       ??_C@_0BK@DOOOBPFM@sound?1player?1gibsplt1?4wav?$AA@ 3004820c     cg_main.obj
 0002:00004228       ??_C@_0BJ@FBCIMJLB@sound?1player?1gibimp1?4wav?$AA@ 30048228     cg_main.obj
 0002:00004244       ??_C@_0BJ@NHLMLLBP@sound?1player?1gibimp2?4wav?$AA@ 30048244     cg_main.obj
 0002:00004260       ??_C@_0BJ@BMOAGILK@sound?1player?1gibimp3?4wav?$AA@ 30048260     cg_main.obj
 0002:0000427c       ??_C@_0BP@KNMMKFFC@sound?1items?1invul_activate?4wav?$AA@ 3004827c     cg_main.obj
 0002:0000429c       ??_C@_0CA@NFGOLPHB@sound?1items?1invul_impact_01?4wav?$AA@ 3004829c     cg_main.obj
 0002:000042bc       ??_C@_0CA@FDPKMNNP@sound?1items?1invul_impact_02?4wav?$AA@ 300482bc     cg_main.obj
 0002:000042dc       ??_C@_0CA@JIKGBOHK@sound?1items?1invul_impact_03?4wav?$AA@ 300482dc     cg_main.obj
 0002:000042fc       ??_C@_0BN@OPNHAJLA@sound?1items?1invul_juiced?4wav?$AA@ 300482fc     cg_main.obj
 0002:0000431c       ??_C@_0BP@JBBCELGB@sound?1items?1obelisk_hit_01?4wav?$AA@ 3004831c     cg_main.obj
 0002:0000433c       ??_C@_0BP@BHIGDJMP@sound?1items?1obelisk_hit_02?4wav?$AA@ 3004833c     cg_main.obj
 0002:0000435c       ??_C@_0BP@NMNKOKGK@sound?1items?1obelisk_hit_03?4wav?$AA@ 3004835c     cg_main.obj
 0002:0000437c       ??_C@_0CA@PIPHPFNP@sound?1items?1obelisk_respawn?4wav?$AA@ 3004837c     cg_main.obj
 0002:0000439c       ??_C@_0BN@KOBIHBKB@sound?1items?1cl_ammoregen?4wav?$AA@ 3004839c     cg_main.obj
 0002:000043bc       ??_C@_0BL@HCECONJB@sound?1items?1cl_doubler?4wav?$AA@ 300483bc     cg_main.obj
 0002:000043d8       ??_C@_0BJ@LEHINCNN@sound?1items?1cl_guard?4wav?$AA@ 300483d8     cg_main.obj
 0002:000043f4       ??_C@_0BJ@JGBMOGJD@sound?1items?1cl_scout?4wav?$AA@ 300483f4     cg_main.obj
 0002:00004410       ??_C@_0BH@EJCDOPNG@sound?1world?1telein?4wav?$AA@ 30048410     cg_main.obj
 0002:00004428       ??_C@_0BI@EBCHHAFA@sound?1world?1teleout?4wav?$AA@ 30048428     cg_main.obj
 0002:00004440       ??_C@_0BJ@LOHBFELN@sound?1items?1respawn1?4wav?$AA@ 30048440     cg_main.obj
 0002:0000445c       ??_C@_0BJ@OHOJGDLI@sound?1weapons?1noammo?4wav?$AA@ 3004845c     cg_main.obj
 0002:00004478       ??_C@_0BG@MOPKJEGA@sound?1player?1talk?4wav?$AA@ 30048478     cg_main.obj
 0002:00004490       ??_C@_0BH@BPJFFDHG@sound?1player?1land1?4wav?$AA@ 30048490     cg_main.obj
 0002:000044a8       ??_C@_0BH@PPLJNIIB@sound?1feedback?1hit?4wav?$AA@ 300484a8     cg_main.obj
 0002:000044c0       ??_C@_0BJ@OGPIPIGH@sound?1feedback?1hithi?4wav?$AA@ 300484c0     cg_main.obj
 0002:000044dc       ??_C@_0BJ@MEOODPGJ@sound?1feedback?1hitlo?4wav?$AA@ 300484dc     cg_main.obj
 0002:000044f8       ??_C@_0BO@HFFLOFKH@sound?1feedback?1impressive?4wav?$AA@ 300484f8     cg_main.obj
 0002:00004518       ??_C@_0BN@MOGPPGAM@sound?1feedback?1excellent?4wav?$AA@ 30048518     cg_main.obj
 0002:00004538       ??_C@_0BK@HPEMDLDJ@sound?1feedback?1denied?4wav?$AA@ 30048538     cg_main.obj
 0002:00004554       ??_C@_0BP@GOCIBAEN@sound?1feedback?1humiliation?4wav?$AA@ 30048554     cg_main.obj
 0002:00004574       ??_C@_0BK@HOPMGIJN@sound?1feedback?1assist?4wav?$AA@ 30048574     cg_main.obj
 0002:00004590       ??_C@_0BL@BAGIPNBG@sound?1feedback?1defense?4wav?$AA@ 30048590     cg_main.obj
 0002:000045ac       ??_C@_0CE@EFIMKJJP@sound?1feedback?1first_impressive?4@ 300485ac     cg_main.obj
 0002:000045d0       ??_C@_0CD@KMNMCHOD@sound?1feedback?1first_excellent?4w@ 300485d0     cg_main.obj
 0002:000045f4       ??_C@_0CC@PKCNONPJ@sound?1feedback?1first_gauntlet?4wa@ 300485f4     cg_main.obj
 0002:00004618       ??_C@_0BN@PBCHFDJF@sound?1feedback?1takenlead?4wav?$AA@ 30048618     cg_main.obj
 0002:00004638       ??_C@_0BM@NNDKOIIH@sound?1feedback?1tiedlead?4wav?$AA@ 30048638     cg_main.obj
 0002:00004654       ??_C@_0BM@LNOOLHLA@sound?1feedback?1lostlead?4wav?$AA@ 30048654     cg_main.obj
 0002:00004670       ??_C@_0BM@ENEKGDDA@sound?1feedback?1vote_now?4wav?$AA@ 30048670     cg_main.obj
 0002:0000468c       ??_C@_0BP@ODEDGCEO@sound?1feedback?1vote_passed?4wav?$AA@ 3004868c     cg_main.obj
 0002:000046ac       ??_C@_0BP@DJHFIHKO@sound?1feedback?1vote_failed?4wav?$AA@ 300486ac     cg_main.obj
 0002:000046cc       ??_C@_0BJ@CLKANPDE@sound?1player?1watr_in?4wav?$AA@ 300486cc     cg_main.obj
 0002:000046e8       ??_C@_0BK@PEBHADE@sound?1player?1watr_out?4wav?$AA@ 300486e8     cg_main.obj
 0002:00004704       ??_C@_0BJ@ILNOCJIO@sound?1player?1watr_un?4wav?$AA@ 30048704     cg_main.obj
 0002:00004720       ??_C@_0BI@DGLBHPLI@sound?1world?1jumppad?4wav?$AA@ 30048720     cg_main.obj
 0002:00004738       ??_C@_0CC@LNDAOHOB@sound?1player?1footsteps?1step?$CFi?4wa@ 30048738     cg_main.obj
 0002:0000475c       ??_C@_0CC@BMGCACJB@sound?1player?1footsteps?1boot?$CFi?4wa@ 3004875c     cg_main.obj
 0002:00004780       ??_C@_0CD@GNKAFNDH@sound?1player?1footsteps?1flesh?$CFi?4w@ 30048780     cg_main.obj
 0002:000047a4       ??_C@_0CC@FFJILBOO@sound?1player?1footsteps?1mech?$CFi?4wa@ 300487a4     cg_main.obj
 0002:000047c8       ??_C@_0CE@GKFIFOMA@sound?1player?1footsteps?1energy?$CFi?4@ 300487c8     cg_main.obj
 0002:000047ec       ??_C@_0CE@GNHKDPID@sound?1player?1footsteps?1splash?$CFi?4@ 300487ec     cg_main.obj
 0002:00004810       ??_C@_0CD@CPOICIJI@sound?1player?1footsteps?1clank?$CFi?4w@ 30048810     cg_main.obj
 0002:00004834       ??_C@_0BI@NNKBCBOK@sound?1items?1damage3?4wav?$AA@ 30048834     cg_main.obj
 0002:0000484c       ??_C@_0CC@FENOCDBN@sound?1weapons?1machinegun?1ric1?4wa@ 3004884c     cg_main.obj
 0002:00004870       ??_C@_0CC@NCEKFBLD@sound?1weapons?1machinegun?1ric2?4wa@ 30048870     cg_main.obj
 0002:00004894       ??_C@_0CC@BJBGICBG@sound?1weapons?1machinegun?1ric3?4wa@ 30048894     cg_main.obj
 0002:000048b8       ??_C@_0CD@BFPOBJCL@sound?1weapons?1railgun?1railgf1a?4w@ 300488b8     cg_main.obj
 0002:000048dc       ??_C@_0CC@GHLEALEG@sound?1weapons?1rocket?1rocklx1a?4wa@ 300488dc     cg_main.obj
 0002:00004900       ??_C@_0CC@JCODPDKN@sound?1weapons?1plasma?1plasmx1a?4wa@ 30048900     cg_main.obj
 0002:00004924       ??_C@_0CE@MNAJPJNH@sound?1weapons?1proxmine?1wstbexpl?4@ 30048924     cg_main.obj
 0002:00004948       ??_C@_0CD@JLHAODJH@sound?1weapons?1nailgun?1wnalimpd?4w@ 30048948     cg_main.obj
 0002:0000496c       ??_C@_0CD@HHCDGBPK@sound?1weapons?1nailgun?1wnalimpl?4w@ 3004896c     cg_main.obj
 0002:00004990       ??_C@_0CD@LMHPLCFP@sound?1weapons?1nailgun?1wnalimpm?4w@ 30048990     cg_main.obj
 0002:000049b4       ??_C@_0CC@EEEBGBLI@sound?1weapons?1vulcan?1wvulimpd?4wa@ 300489b4     cg_main.obj
 0002:000049d8       ??_C@_0CC@KIBCODNF@sound?1weapons?1vulcan?1wvulimpl?4wa@ 300489d8     cg_main.obj
 0002:000049fc       ??_C@_0CC@GDEODAHA@sound?1weapons?1vulcan?1wvulimpm?4wa@ 300489fc     cg_main.obj
 0002:00004a20       ??_C@_0BP@IBPCHDOG@sound?1weapons?1weapon_hover?4wav?$AA@ 30048a20     cg_main.obj
 0002:00004a40       ??_C@_0BM@HALLKLLF@sound?1items?1kam_explode?4wav?$AA@ 30048a40     cg_main.obj
 0002:00004a5c       ??_C@_0BM@KKBAIOLN@sound?1items?1kam_implode?4wav?$AA@ 30048a5c     cg_main.obj
 0002:00004a78       ??_C@_0CA@NMIENIHE@sound?1items?1kam_explode_far?4wav?$AA@ 30048a78     cg_main.obj
 0002:00004a98       ??_C@_0BO@HDIIBMMH@sound?1feedback?1voc_youwin?4wav?$AA@ 30048a98     cg_main.obj
 0002:00004ab8       ??_C@_0BP@KOGCMDPJ@sound?1feedback?1voc_youlose?4wav?$AA@ 30048ab8     cg_main.obj
 0002:00004ad8       ??_C@_0BH@IKEMOPN@sound?1misc?1yousuck?4wav?$AA@ 30048ad8     cg_main.obj
 0002:00004af0       ??_C@_0CE@BPGGDFIM@sound?1weapons?1proxmine?1wstbimpl?4@ 30048af0     cg_main.obj
 0002:00004b14       ??_C@_0CE@NEDKOGCJ@sound?1weapons?1proxmine?1wstbimpm?4@ 30048b14     cg_main.obj
 0002:00004b38       ??_C@_0CE@PDDFLHOB@sound?1weapons?1proxmine?1wstbimpd?4@ 30048b38     cg_main.obj
 0002:00004b5c       ??_C@_0CE@OHDGIAEI@sound?1weapons?1proxmine?1wstbactv?4@ 30048b5c     cg_main.obj
 0002:00004b80       ??_C@_0BJ@CANBBPKF@sound?1items?1protect3?4wav?$AA@ 30048b80     cg_main.obj
 0002:00004b9c       ??_C@_0CD@HAIKBKOI@sound?1weapons?1grenade?1hgrenb1a?4w@ 30048b9c     cg_main.obj
 0002:00004bc0       ??_C@_0CD@EBGCAAHF@sound?1weapons?1grenade?1hgrenb2a?4w@ 30048bc0     cg_main.obj
 0002:00004be4       ??_C@_0BO@GIFODGKG@sound?1player?1james?1death1?4wav?$AA@ 30048be4     cg_main.obj
 0002:00004c04       ??_C@_0BO@OOMKEEAI@sound?1player?1james?1death2?4wav?$AA@ 30048c04     cg_main.obj
 0002:00004c24       ??_C@_0BO@CFJGJHKN@sound?1player?1james?1death3?4wav?$AA@ 30048c24     cg_main.obj
 0002:00004c44       ??_C@_0BN@EJBGILFF@sound?1player?1james?1jump1?4wav?$AA@ 30048c44     cg_main.obj
 0002:00004c64       ??_C@_0CA@GIFHMBJJ@sound?1player?1james?1pain25_1?4wav?$AA@ 30048c64     cg_main.obj
 0002:00004c84       ??_C@_0CA@CCMAIENG@sound?1player?1james?1pain75_1?4wav?$AA@ 30048c84     cg_main.obj
 0002:00004ca4       ??_C@_0CB@CIKEHJPA@sound?1player?1james?1pain100_1?4wav@ 30048ca4     cg_main.obj
 0002:00004cc8       ??_C@_0CA@GKNABPOP@sound?1player?1james?1falling1?4wav?$AA@ 30048cc8     cg_main.obj
 0002:00004ce8       ??_C@_0BM@LBGIOINF@sound?1player?1james?1gasp?4wav?$AA@ 30048ce8     cg_main.obj
 0002:00004d04       ??_C@_0BN@EJOEFFPO@sound?1player?1james?1drown?4wav?$AA@ 30048d04     cg_main.obj
 0002:00004d24       ??_C@_0BN@MONCIOIC@sound?1player?1james?1fall1?4wav?$AA@ 30048d24     cg_main.obj
 0002:00004d44       ??_C@_0BN@EGHHHPKB@sound?1player?1james?1taunt?4wav?$AA@ 30048d44     cg_main.obj
 0002:00004d64       ??_C@_0BO@EFAFKIH@sound?1player?1janet?1death1?4wav?$AA@ 30048d64     cg_main.obj
 0002:00004d84       ??_C@_0BO@ICMECICJ@sound?1player?1janet?1death2?4wav?$AA@ 30048d84     cg_main.obj
 0002:00004da4       ??_C@_0BO@EJJIPLIM@sound?1player?1janet?1death3?4wav?$AA@ 30048da4     cg_main.obj
 0002:00004dc4       ??_C@_0BN@EBOPEHAB@sound?1player?1janet?1jump1?4wav?$AA@ 30048dc4     cg_main.obj
 0002:00004de4       ??_C@_0CA@KAMMJFAH@sound?1player?1janet?1pain25_1?4wav?$AA@ 30048de4     cg_main.obj
 0002:00004e04       ??_C@_0CA@OKFLNAEI@sound?1player?1janet?1pain75_1?4wav?$AA@ 30048e04     cg_main.obj
 0002:00004e24       ??_C@_0CB@DPNLFMOH@sound?1player?1janet?1pain100_1?4wav@ 30048e24     cg_main.obj
 0002:00004e48       ??_C@_0CA@KCELELHB@sound?1player?1janet?1falling1?4wav?$AA@ 30048e48     cg_main.obj
 0002:00004e68       ??_C@_0BM@CFJJJBJI@sound?1player?1janet?1gasp?4wav?$AA@ 30048e68     cg_main.obj
 0002:00004e84       ??_C@_0BN@EBBNJJKK@sound?1player?1janet?1drown?4wav?$AA@ 30048e84     cg_main.obj
 0002:00004ea4       ??_C@_0BN@MGCLECNG@sound?1player?1janet?1fall1?4wav?$AA@ 30048ea4     cg_main.obj
 0002:00004ec4       ??_C@_0BN@EOIOLDPF@sound?1player?1janet?1taunt?4wav?$AA@ 30048ec4     cg_main.obj
 0002:00004ee4       ??_C@_0L@EDDEHNPC@game?5media?$AA@ 30048ee4     cg_main.obj
 0002:00004ef0       ??_C@_0BE@DKNNEAFH@menu?1art?1skill1?4tga?$AA@ 30048ef0     cg_main.obj
 0002:00004f04       ??_C@_0BE@LMEJDCPJ@menu?1art?1skill2?4tga?$AA@ 30048f04     cg_main.obj
 0002:00004f18       ??_C@_0BE@HHBFOBFM@menu?1art?1skill3?4tga?$AA@ 30048f18     cg_main.obj
 0002:00004f2c       ??_C@_0BE@GKBANBOE@menu?1art?1skill4?4tga?$AA@ 30048f2c     cg_main.obj
 0002:00004f40       ??_C@_0BE@KBEMACEB@menu?1art?1skill5?4tga?$AA@ 30048f40     cg_main.obj
 0002:00004f54       ??_C@_0P@IMGKCNMO@viewBloodBlend?$AA@ 30048f54     cg_main.obj
 0002:00004f64       ??_C@_0BB@OIENEINL@gfx?12d?1defer?4tga?$AA@ 30048f64     cg_main.obj
 0002:00004f78       ??_C@_0BC@FCBJHGEN@menu?1tab?1name?4tga?$AA@ 30048f78     cg_main.obj
 0002:00004f8c       ??_C@_0BC@JJNOEPIN@menu?1tab?1ping?4tga?$AA@ 30048f8c     cg_main.obj
 0002:00004fa0       ??_C@_0BD@DJDOFAFI@menu?1tab?1score?4tga?$AA@ 30048fa0     cg_main.obj
 0002:00004fb4       ??_C@_0BC@LIBCKFBH@menu?1tab?1time?4tga?$AA@ 30048fb4     cg_main.obj
 0002:00004fc8       ??_C@_09GPGLBPNG@smokePuff?$AA@ 30048fc8     cg_main.obj
 0002:00004fd4       ??_C@_0BB@LHMIJHPJ@smokePuffRagePro?$AA@ 30048fd4     cg_main.obj
 0002:00004fe8       ??_C@_0BB@FPJBCPAO@shotgunSmokePuff?$AA@ 30048fe8     cg_main.obj
 0002:00004ffc       ??_C@_09FIEBDLG@nailtrail?$AA@ 30048ffc     cg_main.obj
 0002:00005008       ??_C@_0BO@KJFBGMBP@models?1weaphits?1proxmineb?4md3?$AA@ 30049008     cg_main.obj
 0002:00005028       ??_C@_0BA@PMLAEFDB@sprites?1plasma1?$AA@ 30049028     cg_main.obj
 0002:00005038       ??_C@_0L@LLCKKMKM@bloodTrail?$AA@ 30049038     cg_main.obj
 0002:00005044       ??_C@_09GJJGLCPD@lagometer?$AA@ 30049044     cg_main.obj
 0002:00005050       ??_C@_0N@GGGDBMDO@disconnected?$AA@ 30049050     cg_main.obj
 0002:00005060       ??_C@_0M@OBGACBNG@waterBubble?$AA@ 30049060     cg_main.obj
 0002:0000506c       ??_C@_0BA@LPLLBJPM@gfx?1misc?1tracer?$AA@ 3004906c     cg_main.obj
 0002:0000507c       ??_C@_0O@MHPONILH@gfx?12d?1select?$AA@ 3004907c     cg_main.obj
 0002:0000508c       ??_C@_0BD@PPPBDMEH@gfx?12d?1crosshair?$CFc?$AA@ 3004908c     cg_main.obj
 0002:000050a0       ??_C@_0BA@PJMLIFEA@gfx?12d?1backtile?$AA@ 300490a0     cg_main.obj
 0002:000050b0       ??_C@_0N@COAENKOL@icons?1noammo?$AA@ 300490b0     cg_main.obj
 0002:000050c0       ??_C@_0O@IDIMMBII@powerups?1quad?$AA@ 300490c0     cg_main.obj
 0002:000050d0       ??_C@_0BE@KLLJIGAB@powerups?1quadWeapon?$AA@ 300490d0     cg_main.obj
 0002:000050e4       ??_C@_0BE@NKPPFPFJ@powerups?1battleSuit?$AA@ 300490e4     cg_main.obj
 0002:000050f8       ??_C@_0BG@GANDEAKN@powerups?1battleWeapon?$AA@ 300490f8     cg_main.obj
 0002:00005110       ??_C@_0BG@BGIMBFCE@powerups?1invisibility?$AA@ 30049110     cg_main.obj
 0002:00005128       ??_C@_0P@NKEDBBDN@powerups?1regen?$AA@ 30049128     cg_main.obj
 0002:00005138       ??_C@_0P@IJPLAABH@hasteSmokePuff?$AA@ 30049138     cg_main.obj
 0002:00005148       ??_C@_0BA@OMPBBNIO@icons?1skull_red?$AA@ 30049148     cg_main.obj
 0002:00005158       ??_C@_0BB@BCGKNBJH@icons?1skull_blue?$AA@ 30049158     cg_main.obj
 0002:0000516c       ??_C@_0BB@GHKJEHCM@icons?1iconf_red2?$AA@ 3004916c     cg_main.obj
 0002:00005180       ??_C@_0BB@HOLCHGGN@icons?1iconf_red3?$AA@ 30049180     cg_main.obj
 0002:00005194       ??_C@_0BB@GHKFFGGD@icons?1iconf_blu2?$AA@ 30049194     cg_main.obj
 0002:000051a8       ??_C@_0BB@HOLOGHCC@icons?1iconf_blu3?$AA@ 300491a8     cg_main.obj
 0002:000051bc       ??_C@_0BK@NHEDDPHF@models?1flag2?1flagpole?4md3?$AA@ 300491bc     cg_main.obj
 0002:000051d8       ??_C@_0BL@NNONIMAN@models?1flag2?1flagflap3?4md3?$AA@ 300491d8     cg_main.obj
 0002:000051f4       ??_C@_0BG@MEOIELJK@models?1flag2?1red?4skin?$AA@ 300491f4     cg_main.obj
 0002:0000520c       ??_C@_0BH@NJLGOKNJ@models?1flag2?1blue?4skin?$AA@ 3004920c     cg_main.obj
 0002:00005224       ??_C@_0BI@CBMNOKHH@models?1flag2?1white?4skin?$AA@ 30049224     cg_main.obj
 0002:0000523c       ??_C@_0CI@PFOOJNMO@models?1mapobjects?1flagbase?1red_b@ 3004923c     cg_main.obj
 0002:00005264       ??_C@_0CJ@MEDKOFPD@models?1mapobjects?1flagbase?1blue_@ 30049264     cg_main.obj
 0002:00005290       ??_C@_0CJ@PBONGGD@models?1mapobjects?1flagbase?1ntrl_@ 30049290     cg_main.obj
 0002:000052bc       ??_C@_0BF@NEFAMDEL@icons?1iconf_neutral3?$AA@ 300492bc     cg_main.obj
 0002:000052d4       ??_C@_0CC@PBKEHLOD@models?1powerups?1overload_base?4md@ 300492d4     cg_main.obj
 0002:000052f8       ??_C@_0CE@EBGIKIOM@models?1powerups?1overload_target?4@ 300492f8     cg_main.obj
 0002:0000531c       ??_C@_0CE@KFFBHPMG@models?1powerups?1overload_lights?4@ 3004931c     cg_main.obj
 0002:00005340       ??_C@_0CE@IOAPKGK@models?1powerups?1overload_energy?4@ 30049340     cg_main.obj
 0002:00005364       ??_C@_0CI@DFCDHBJM@models?1powerups?1harvester?1harves@ 30049364     cg_main.obj
 0002:0000538c       ??_C@_0CD@OFEPFHCB@models?1powerups?1harvester?1red?4sk@ 3004938c     cg_main.obj
 0002:000053b0       ??_C@_0CE@IFCECHMB@models?1powerups?1harvester?1blue?4s@ 300493b0     cg_main.obj
 0002:000053d4       ??_C@_0CE@MCANOKFM@models?1powerups?1obelisk?1obelisk?4@ 300493d4     cg_main.obj
 0002:000053f8       ??_C@_0BJ@JKJMDCHD@models?1weaphits?1kamikred?$AA@ 300493f8     cg_main.obj
 0002:00005414       ??_C@_0M@FBFPNKIP@sprites?1foe?$AA@ 30049414     cg_main.obj
 0002:00005420       ??_C@_0BC@PBFIMOJD@powerups?1blueflag?$AA@ 30049420     cg_main.obj
 0002:00005434       ??_C@_0BE@MEJHIMJO@gfx?12d?1colorbar?4tga?$AA@ 30049434     cg_main.obj
 0002:00005448       ??_C@_0BJ@JGINHNHD@models?1weaphits?1kamikblu?$AA@ 30049448     cg_main.obj
 0002:00005464       ??_C@_0CD@LDBBEFLC@models?1weapons2?1shells?1m_shell?4m@ 30049464     cg_main.obj
 0002:00005488       ??_C@_0CD@FGDIHLFA@models?1weapons2?1shells?1s_shell?4m@ 30049488     cg_main.obj
 0002:000054ac       ??_C@_0BI@KACGLCGL@models?1gibs?1abdomen?4md3?$AA@ 300494ac     cg_main.obj
 0002:000054c4       ??_C@_0BE@GJNHALAL@models?1gibs?1arm?4md3?$AA@ 300494c4     cg_main.obj
 0002:000054d8       ??_C@_0BG@HOCHIPGC@models?1gibs?1chest?4md3?$AA@ 300494d8     cg_main.obj
 0002:000054f0       ??_C@_0BF@LHDMLCCD@models?1gibs?1fist?4md3?$AA@ 300494f0     cg_main.obj
 0002:00005508       ??_C@_0BF@NBCNENBO@models?1gibs?1foot?4md3?$AA@ 30049508     cg_main.obj
 0002:00005520       ??_C@_0BI@NDPGKIHD@models?1gibs?1forearm?4md3?$AA@ 30049520     cg_main.obj
 0002:00005538       ??_C@_0BK@EGFHPFIO@models?1gibs?1intestine?4md3?$AA@ 30049538     cg_main.obj
 0002:00005554       ??_C@_0BE@PBDAJPPM@models?1gibs?1leg?4md3?$AA@ 30049554     cg_main.obj
 0002:00005568       ??_C@_0BG@GCKMGPLF@models?1gibs?1skull?4md3?$AA@ 30049568     cg_main.obj
 0002:00005580       ??_C@_0BG@ENKCMADE@models?1gibs?1brain?4md3?$AA@ 30049580     cg_main.obj
 0002:00005598       ??_C@_0BB@NCNCDGDJ@sprites?1balloon3?$AA@ 30049598     cg_main.obj
 0002:000055ac       ??_C@_0P@JNFBEAMD@bloodExplosion?$AA@ 300495ac     cg_main.obj
 0002:000055bc       ??_C@_0BL@KJKOFMEH@models?1weaphits?1bullet?4md3?$AA@ 300495bc     cg_main.obj
 0002:000055d8       ??_C@_0BL@OBLKOCFL@models?1weaphits?1ring02?4md3?$AA@ 300495d8     cg_main.obj
 0002:000055f4       ??_C@_0BL@ECHNCMPC@models?1weaphits?1boom01?4md3?$AA@ 300495f4     cg_main.obj
 0002:00005610       ??_C@_0BI@PLDBBFOI@models?1powerups?1pop?4md3?$AA@ 30049610     cg_main.obj
 0002:00005628       ??_C@_0BN@DEMJBCDL@models?1weaphits?1kamboom2?4md3?$AA@ 30049628     cg_main.obj
 0002:00005648       ??_C@_0BM@CDEJJFEP@models?1weaphits?1kamwave?4md3?$AA@ 30049648     cg_main.obj
 0002:00005664       ??_C@_0BO@LACIIILA@models?1powerups?1trailtest?4md3?$AA@ 30049664     cg_main.obj
 0002:00005684       ??_C@_0CB@BMPAEPEC@models?1powerups?1guard_player?4md3@ 30049684     cg_main.obj
 0002:000056a8       ??_C@_0CB@PBKGLCOF@models?1powerups?1scout_player?4md3@ 300496a8     cg_main.obj
 0002:000056cc       ??_C@_0CD@BEHAECPG@models?1powerups?1doubler_player?4m@ 300496cc     cg_main.obj
 0002:000056f0       ??_C@_0CA@BMCIIMK@models?1powerups?1ammo_player?4md3?$AA@ 300496f0     cg_main.obj
 0002:00005710       ??_C@_0CC@FJKBJPMP@models?1powerups?1shield?1impact?4md@ 30049710     cg_main.obj
 0002:00005734       ??_C@_0CC@DPFBNKC@models?1powerups?1shield?1juicer?4md@ 30049734     cg_main.obj
 0002:00005758       ??_C@_0BK@FOGDGJDH@models?1powerups?1regen?4md3?$AA@ 30049758     cg_main.obj
 0002:00005774       ??_C@_0CH@BGFFCLAG@ui?1assets?1statusbar?1selectedheal@ 30049774     cg_main.obj
 0002:0000579c       ??_C@_0CC@ICGGEAGG@models?1powerups?1shield?1shield?4md@ 3004979c     cg_main.obj
 0002:000057c0       ??_C@_0BB@OCKBIFDG@medal_impressive?$AA@ 300497c0     cg_main.obj
 0002:000057d4       ??_C@_0BA@PLFOJPJ@medal_excellent?$AA@ 300497d4     cg_main.obj
 0002:000057e4       ??_C@_0P@CBAOAFEF@medal_gauntlet?$AA@ 300497e4     cg_main.obj
 0002:000057f4       ??_C@_0N@JPEODKCB@medal_defend?$AA@ 300497f4     cg_main.obj
 0002:00005804       ??_C@_0N@KEBDHBDI@medal_assist?$AA@ 30049804     cg_main.obj
 0002:00005814       ??_C@_0O@LNEKLMGE@medal_capture?$AA@ 30049814     cg_main.obj
 0002:00005824       ??_C@_0BG@FPMKOIGF@gfx?1damage?1bullet_mrk?$AA@ 30049824     cg_main.obj
 0002:0000583c       ??_C@_0BI@HAJPOEDB@gfx?1damage?1burn_med_mrk?$AA@ 3004983c     cg_main.obj
 0002:00005854       ??_C@_0BH@NJDKADCK@gfx?1damage?1hole_lg_mrk?$AA@ 30049854     cg_main.obj
 0002:0000586c       ??_C@_0BG@EGMLCGNC@gfx?1damage?1plasma_mrk?$AA@ 3004986c     cg_main.obj
 0002:00005884       ??_C@_0L@KHLAIOEE@markShadow?$AA@ 30049884     cg_main.obj
 0002:00005890       ??_C@_04KNLNBPHI@wake?$AA@ 30049890     cg_main.obj
 0002:00005898       ??_C@_09GGOFPAOP@bloodMark?$AA@ 30049898     cg_main.obj
 0002:000058a4       ??_C@_03JLINDLFM@?$CK?$CFi?$AA@ 300498a4     cg_main.obj
 0002:000058a8       ??_C@_0BP@JMKNBDMD@ui?1assets?1statusbar?1patrol?4tga?$AA@ 300498a8     cg_main.obj
 0002:000058c8       ??_C@_0CA@BMENIIHA@ui?1assets?1statusbar?1assault?4tga?$AA@ 300498c8     cg_main.obj
 0002:000058e8       ??_C@_0BN@IFHLAFIM@ui?1assets?1statusbar?1camp?4tga?$AA@ 300498e8     cg_main.obj
 0002:00005908       ??_C@_0BP@NDBPBMNA@ui?1assets?1statusbar?1follow?4tga?$AA@ 30049908     cg_main.obj
 0002:00005928       ??_C@_0BP@DFAFNPOM@ui?1assets?1statusbar?1defend?4tga?$AA@ 30049928     cg_main.obj
 0002:00005948       ??_C@_0CE@MMLKAKOP@ui?1assets?1statusbar?1team_leader?4@ 30049948     cg_main.obj
 0002:0000596c       ??_C@_0CB@LAIMNJFD@ui?1assets?1statusbar?1retrieve?4tga@ 3004996c     cg_main.obj
 0002:00005990       ??_C@_0BP@KGMEFMCF@ui?1assets?1statusbar?1escort?4tga?$AA@ 30049990     cg_main.obj
 0002:000059b0       ??_C@_0BD@CHEDBJDN@menu?1art?13_cursor2?$AA@ 300499b0     cg_main.obj
 0002:000059c4       ??_C@_0BJ@LEDAGAI@ui?1assets?1sizecursor?4tga?$AA@ 300499c4     cg_main.obj
 0002:000059e0       ??_C@_0BL@LPJJLJJG@ui?1assets?1selectcursor?4tga?$AA@ 300499e0     cg_main.obj
 0002:000059fc       ??_C@_0CF@ENDMFFOH@ui?1assets?1statusbar?1flag_in_base@ 300499fc     cg_main.obj
 0002:00005a24       ??_C@_0CF@LPJBOID@ui?1assets?1statusbar?1flag_capture@ 30049a24     cg_main.obj
 0002:00005a4c       ??_C@_0CF@BBPPIJMH@ui?1assets?1statusbar?1flag_missing@ 30049a4c     cg_main.obj
 0002:00005a74       ??_C@_0BP@HOALNKFB@models?1players?1james?1lower?4md3?$AA@ 30049a74     cg_main.obj
 0002:00005a94       ??_C@_0BP@NMAMPEMK@models?1players?1james?1upper?4md3?$AA@ 30049a94     cg_main.obj
 0002:00005ab4       ??_C@_0CF@FFBPBBCI@models?1players?1heads?1james?1james@ 30049ab4     cg_main.obj
 0002:00005adc       ??_C@_0BP@HGPCBGAF@models?1players?1janet?1lower?4md3?$AA@ 30049adc     cg_main.obj
 0002:00005afc       ??_C@_0BP@NEPFDIJO@models?1players?1janet?1upper?4md3?$AA@ 30049afc     cg_main.obj
 0002:00005b1c       ??_C@_0CF@MOGMOKCH@models?1players?1heads?1janet?1janet@ 30049b1c     cg_main.obj
 0002:00005b44       ??_C@_07DNFNGBFM@?$CFs?5?5?5?5?5?$AA@ 30049b44     cg_main.obj
 0002:00005b4c       ??_C@_0BP@KAAOENNK@CG_ConfigString?3?5bad?5index?3?5?$CFi?$AA@ 30049b4c     cg_main.obj
 0002:00005b6c       ??_C@_0DD@JILOANNP@?$FO1menu?5file?5too?5large?3?5?$CFs?5is?5?$CFi?0@ 30049b6c     cg_main.obj
 0002:00005ba0       ??_C@_01HCONENDN@?$HL?$AA@ 30049ba0     cg_main.obj
 0002:00005ba4       ??_C@_01CELHOKLL@?$HN?$AA@ 30049ba4     cg_main.obj
 0002:00005ba8       ??_C@_04EFPADHIC@font?$AA@ 30049ba8     cg_main.obj
 0002:00005bb0       ??_C@_09DOKKJGBA@smallFont?$AA@ 30049bb0     cg_main.obj
 0002:00005bbc       ??_C@_07HPOBIOOE@bigfont?$AA@ 30049bbc     cg_main.obj
 0002:00005bc4       ??_C@_0M@KMLBJNNP@gradientbar?$AA@ 30049bc4     cg_main.obj
 0002:00005bd0       ??_C@_0P@HOFNPEDB@menuEnterSound?$AA@ 30049bd0     cg_main.obj
 0002:00005be0       ??_C@_0O@CCIDDBMD@menuExitSound?$AA@ 30049be0     cg_main.obj
 0002:00005bf0       ??_C@_0P@IGAMHAPB@itemFocusSound?$AA@ 30049bf0     cg_main.obj
 0002:00005c00       ??_C@_0O@JDBLIAHI@menuBuzzSound?$AA@ 30049c00     cg_main.obj
 0002:00005c10       ??_C@_06CHDIMBDP@cursor?$AA@ 30049c10     cg_main.obj
 0002:00005c18       ??_C@_09DPBPOIDH@fadeClamp?$AA@ 30049c18     cg_main.obj
 0002:00005c24       ??_C@_09LGBLEGN@fadeCycle?$AA@ 30049c24     cg_main.obj
 0002:00005c30       ??_C@_0L@JDDHILPC@fadeAmount?$AA@ 30049c30     cg_main.obj
 0002:00005c3c       ??_C@_07OPNIPHMJ@shadowX?$AA@ 30049c3c     cg_main.obj
 0002:00005c44       ??_C@_07PGMDMGII@shadowY?$AA@ 30049c44     cg_main.obj
 0002:00005c4c       ??_C@_0M@JPJLLJDB@shadowColor?$AA@ 30049c4c     cg_main.obj
 0002:00005c58       ??_C@_0BA@HHBGDHLB@ui?1testhud?4menu?$AA@ 30049c58     cg_main.obj
 0002:00005c68       ??_C@_0P@JJKHBDCP@assetGlobalDef?$AA@ 30049c68     cg_main.obj
 0002:00005c78       ??_C@_07MCIOFCJF@menudef?$AA@ 30049c78     cg_main.obj
 0002:00005c80       ??_C@_0CK@EJKAPAFF@?$FO3menu?5file?5not?5found?3?5?$CFs?0?5using@ 30049c80     cg_main.obj
 0002:00005cb0       ??_C@_0EA@NOKNMOHD@?$FO1default?5menu?5file?5not?5found?3?5u@ 30049cb0     cg_main.obj
 0002:00005cf0       ??_C@_08GJJFPOLP@loadmenu?$AA@ 30049cf0     cg_main.obj
 0002:00005cfc       ??_C@_0CG@GMHEABBC@UI?5menu?5load?5time?5?$DN?5?$CFd?5milli?5sec@ 30049cfc     cg_main.obj
 0002:00005d24       ??_C@_05GMBADOLI@Ready?$AA@ 30049d24     cg_main.obj
 0002:00005d2c       ??_C@_05PPJGDEGI@?$CFi?1?$CFi?$AA@ 30049d2c     cg_main.obj
 0002:00005d34       ??_C@_09BCJOCADI@Spectator?$AA@ 30049d34     cg_main.obj
 0002:00005d40       ??_C@_06PKACINHD@Leader?$AA@ 30049d40     cg_main.obj
 0002:00005d48       ??_C@_03NOAKOCEN@?$CF4i?$AA@ 30049d48     cg_main.obj
 0002:00005d4c       ??_C@_0L@FJAFPCBC@connecting?$AA@ 30049d4c     cg_main.obj
 0002:00005d58       ??_C@_0BL@LDKEDAHM@ui?1assets?1gradientbar2?4tga?$AA@ 30049d58     cg_main.obj
 0002:00005d74       ??_C@_0BB@OMABGHIG@menu?1art?1fx_base?$AA@ 30049d74     cg_main.obj
 0002:00005d88       ??_C@_0BA@NNOEOMD@menu?1art?1fx_red?$AA@ 30049d88     cg_main.obj
 0002:00005d98       ??_C@_0BA@BCAGEDMK@menu?1art?1fx_yel?$AA@ 30049d98     cg_main.obj
 0002:00005da8       ??_C@_0BA@IJJPLEBB@menu?1art?1fx_grn?$AA@ 30049da8     cg_main.obj
 0002:00005db8       ??_C@_0BB@ECKDFOKE@menu?1art?1fx_teal?$AA@ 30049db8     cg_main.obj
 0002:00005dcc       ??_C@_0BB@BKOGMDOJ@menu?1art?1fx_blue?$AA@ 30049dcc     cg_main.obj
 0002:00005de0       ??_C@_0BB@LIJKJPJD@menu?1art?1fx_cyan?$AA@ 30049de0     cg_main.obj
 0002:00005df4       ??_C@_0BC@GAPGDHHF@menu?1art?1fx_white?$AA@ 30049df4     cg_main.obj
 0002:00005e08       ??_C@_0BI@KPCDEFNA@ui?1assets?1scrollbar?4tga?$AA@ 30049e08     cg_main.obj
 0002:00005e20       ??_C@_0CE@NANBDJEF@ui?1assets?1scrollbar_arrow_dwn_a?4@ 30049e20     cg_main.obj
 0002:00005e44       ??_C@_0CD@DMKJOOMK@ui?1assets?1scrollbar_arrow_up_a?4t@ 30049e44     cg_main.obj
 0002:00005e68       ??_C@_0CD@GGHBFGAG@ui?1assets?1scrollbar_arrow_left?4t@ 30049e68     cg_main.obj
 0002:00005e8c       ??_C@_0CE@LPPDECNG@ui?1assets?1scrollbar_arrow_right?4@ 30049e8c     cg_main.obj
 0002:00005eb0       ??_C@_0BO@POOFAODB@ui?1assets?1scrollbar_thumb?4tga?$AA@ 30049eb0     cg_main.obj
 0002:00005ed0       ??_C@_0BG@JHGOBLH@ui?1assets?1slider2?4tga?$AA@ 30049ed0     cg_main.obj
 0002:00005ee8       ??_C@_0BL@BKEMOAEL@ui?1assets?1sliderbutt_1?4tga?$AA@ 30049ee8     cg_main.obj
 0002:00005f04       ??_C@_0BA@FILGFBEK@gfx?12d?1bigchars?$AA@ 30049f04     cg_main.obj
 0002:00005f14       ??_C@_05PMAELIEO@white?$AA@ 30049f14     cg_main.obj
 0002:00005f1c       ??_C@_0BI@JNLIGCIJ@menu?1art?1font1_prop?4tga?$AA@ 30049f1c     cg_main.obj
 0002:00005f34       ??_C@_0BM@PPJDNIIP@menu?1art?1font1_prop_glo?4tga?$AA@ 30049f34     cg_main.obj
 0002:00005f50       ??_C@_0BI@EFKAEII@menu?1art?1font2_prop?4tga?$AA@ 30049f50     cg_main.obj
 0002:00005f68       ??_C@_08CCHPPKDI@baseq3?91?$AA@ 30049f68     cg_main.obj
 0002:00005f74       ??_C@_0CD@GOCPBDLD@Client?1Server?5game?5mismatch?3?5?$CFs?1@ 30049f74     cg_main.obj
 0002:00005f98       ??_C@_0O@IKDCOHPA@collision?5map?$AA@ 30049f98     cg_main.obj
 0002:00005fa8       ??_C@_06OHLGPBPO@sounds?$AA@ 30049fa8     cg_main.obj
 0002:00005fb0       ??_C@_08EIINAAAI@graphics?$AA@ 30049fb0     cg_main.obj
 0002:00005fbc       ??_C@_07HKJFGNHJ@clients?$AA@ 30049fbc     cg_main.obj
 0002:00005fc8       __real@407e000000000000    30049fc8     cg_main.obj
 0002:00005fd0       __real@4084000000000000    30049fd0     cg_main.obj
 0002:00005fd8       __real@40c00000            30049fd8     cg_main.obj
 0002:00005fdc       ??_C@_08MEIODECE@explode1?$AA@ 30049fdc     cg_marks.obj
 0002:00005fe8       ??_C@_0CG@NBPMFGF@CG_ImpactMark?5called?5with?5?$DM?$DN?50?5r@ 30049fe8     cg_marks.obj
 0002:00006010       ??_C@_04MDMPPDAB@?$CFs?$CFi?$AA@ 3004a010     cg_marks.obj
 0002:00006018       ??_C@_0EI@EKMNKCC@CG_ParticleExplosion?3?5animStr?5is@ 3004a018     cg_marks.obj
 0002:00006060       ??_C@_0DE@LHPJKLJP@CG_ParticleExplosion?3?5unknown?5an@ 3004a060     cg_marks.obj
 0002:00006094       __real@3e6147ae            3004a094     cg_marks.obj
 0002:00006098       __real@3f7ff972            3004a098     cg_marks.obj
 0002:000060a0       __real@3fd999999999999a    3004a0a0     cg_marks.obj
 0002:000060a8       __real@3feccccccccccccd    3004a0a8     cg_marks.obj
 0002:000060b0       __real@4049000000000000    3004a0b0     cg_marks.obj
 0002:000060b8       __real@4066600000000000    3004a0b8     cg_marks.obj
 0002:000060c0       __real@407c200000000000    3004a0c0     cg_marks.obj
 0002:000060c8       __real@40a7700000000000    3004a0c8     cg_marks.obj
 0002:000060d0       __real@43000000            3004a0d0     cg_marks.obj
 0002:000060d4       __real@43340000            3004a0d4     cg_marks.obj
 0002:000060d8       __real@44800000            3004a0d8     cg_marks.obj
 0002:000060dc       __real@44bb8000            3004a0dc     cg_marks.obj
 0002:000060e0       __real@45800000            3004a0e0     cg_marks.obj
 0002:000060e4       __real@c1000000            3004a0e4     cg_marks.obj
 0002:000060e8       __real@c1a00000            3004a0e8     cg_marks.obj
 0002:000060ec       ??_C@_07GBMLDGPP@offense?$AA@ 3004a0ec     cg_newDraw.obj
 0002:000060f4       ??_C@_0BJ@BPJHDBFL@?$CLbutton7?$DL?5wait?$DL?5?9button7?$AA@ 3004a0f4     cg_newDraw.obj
 0002:00006110       ??_C@_06BMABBLML@defend?$AA@ 3004a110     cg_newDraw.obj
 0002:00006118       ??_C@_0BJ@GOHAIJPM@?$CLbutton8?$DL?5wait?$DL?5?9button8?$AA@ 3004a118     cg_newDraw.obj
 0002:00006134       ??_C@_06KPEKKPL@patrol?$AA@ 3004a134     cg_newDraw.obj
 0002:0000613c       ??_C@_0BJ@JIDJAOFM@?$CLbutton9?$DL?5wait?$DL?5?9button9?$AA@ 3004a13c     cg_newDraw.obj
 0002:00006158       ??_C@_0BL@GLABPEEB@?$CLbutton10?$DL?5wait?$DL?5?9button10?$AA@ 3004a158     cg_newDraw.obj
 0002:00006174       ??_C@_04LOFLEJM@camp?$AA@  3004a174     cg_newDraw.obj
 0002:0000617c       ??_C@_0L@BCFFODB@returnflag?$AA@ 3004a17c     cg_newDraw.obj
 0002:00006188       ??_C@_0BC@HILCMIJJ@followflagcarrier?$AA@ 3004a188     cg_newDraw.obj
 0002:0000619c       ??_C@_0N@GKANBNLB@teamtask?5?$CFi?6?$AA@ 3004a19c     cg_newDraw.obj
 0002:000061ac       ??_C@_0BG@ICIOFDPB@cg_selectedPlayerName?$AA@ 3004a1ac     cg_newDraw.obj
 0002:000061c4       ??_C@_0BC@HCNILCAE@cg_selectedPlayer?$AA@ 3004a1c4     cg_newDraw.obj
 0002:000061d8       ??_C@_08LFOMOGKF@Everyone?$AA@ 3004a1d8     cg_newDraw.obj
 0002:000061e4       ??_C@_01JOAMLHOP@?9?$AA@   3004a1e4     cg_newDraw.obj
 0002:000061e8       ??_C@_0O@BCAEDBLM@Fragged?5by?5?$CFs?$AA@ 3004a1e8     cg_newDraw.obj
 0002:000061f8       ??_C@_03NKIHJOPP@?$CF2i?$AA@ 3004a1f8     cg_newDraw.obj
 0002:000061fc       ??_C@_0BB@IIGPLNFH@?$CFs?5place?5with?5?$CFi?$AA@ 3004a1fc     cg_newDraw.obj
 0002:00006210       ??_C@_0BF@GPCPNFAF@Teams?5are?5tied?5at?5?$CFi?$AA@ 3004a210     cg_newDraw.obj
 0002:00006228       ??_C@_0BJ@IDJIBDHM@Red?5leads?5Blue?0?5?$CFi?5to?5?$CFi?$AA@ 3004a228     cg_newDraw.obj
 0002:00006244       ??_C@_0BJ@NGKAICIK@Blue?5leads?5Red?0?5?$CFi?5to?5?$CFi?$AA@ 3004a244     cg_newDraw.obj
 0002:00006260       ??_C@_04KAKHEEPD@?$CFi?$CF?$CF?$AA@ 3004a260     cg_newDraw.obj
 0002:00006268       ??_C@_03KLJEHENE@Wow?$AA@  3004a268     cg_newDraw.obj
 0002:0000626c       ??_C@_08JIDHMNC@teamMenu?$AA@ 3004a26c     cg_newDraw.obj
 0002:00006278       ??_C@_07LFFEFFPB@getMenu?$AA@ 3004a278     cg_newDraw.obj
 0002:00006280       ??_C@_02MMOKIBIJ@72?$AA@   3004a280     cg_newDraw.obj
 0002:00006288       __real@3fe8000000000000    3004a288     cg_newDraw.obj
 0002:00006290       __real@3ff4000000000000    3004a290     cg_newDraw.obj
 0002:00006298       __real@4056800000000000    3004a298     cg_newDraw.obj
 0002:000062a0       __real@4084500000000000    3004a2a0     cg_newDraw.obj
 0002:000062a8       __real@42480000            3004a2a8     cg_newDraw.obj
 0002:000062ac       __real@bf800000            3004a2ac     cg_newDraw.obj
 0002:000062b0       ??_C@_0M@NPLIKKH@?$CKdeath1?4wav?$AA@ 3004a2b0     cg_players.obj
 0002:000062bc       ??_C@_0M@ILGPPIAJ@?$CKdeath2?4wav?$AA@ 3004a2bc     cg_players.obj
 0002:000062c8       ??_C@_0M@EADDCLKM@?$CKdeath3?4wav?$AA@ 3004a2c8     cg_players.obj
 0002:000062d4       ??_C@_0O@LBBMLEKM@?$CKfalling1?4wav?$AA@ 3004a2d4     cg_players.obj
 0002:000062e4       ??_C@_0L@FMIBJCKG@?$CKdrown?4wav?$AA@ 3004a2e4     cg_players.obj
 0002:000062f0       ??_C@_0BJ@HBJEEGKP@Unknown?5custom?5sound?3?5?$CFs?$AA@ 3004a2f0     cg_players.obj
 0002:0000630c       ??_C@_0BC@NFDFKMPA@File?5?$CFs?5too?5long?6?$AA@ 3004a30c     cg_players.obj
 0002:00006320       ??_C@_09IPEFJHNA@footsteps?$AA@ 3004a320     cg_players.obj
 0002:0000632c       ??_C@_06IKLLLDHL@normal?$AA@ 3004a32c     cg_players.obj
 0002:00006334       ??_C@_04LBLCPLHF@boot?$AA@ 3004a334     cg_players.obj
 0002:0000633c       ??_C@_05DLDJBIMA@flesh?$AA@ 3004a33c     cg_players.obj
 0002:00006344       ??_C@_04LDDCCIPJ@mech?$AA@ 3004a344     cg_players.obj
 0002:0000634c       ??_C@_06KKGCKCNJ@energy?$AA@ 3004a34c     cg_players.obj
 0002:00006354       ??_C@_0BO@KPCLPKFJ@Bad?5footsteps?5parm?5in?5?$CFs?3?5?$CFs?6?$AA@ 3004a354     cg_players.obj
 0002:00006374       ??_C@_0L@JPPMCFBB@headoffset?$AA@ 3004a374     cg_players.obj
 0002:00006380       ??_C@_03OMLNFKE@sex?$AA@   3004a380     cg_players.obj
 0002:00006384       ??_C@_09BMKCBKIH@fixedlegs?$AA@ 3004a384     cg_players.obj
 0002:00006390       ??_C@_0L@FDFHPMAL@fixedtorso?$AA@ 3004a390     cg_players.obj
 0002:0000639c       ??_C@_0BK@CGODILEM@unknown?5token?5?8?$CFs?8?5is?5?$CFs?6?$AA@ 3004a39c     cg_players.obj
 0002:000063b8       ??_C@_0CB@CMKGLJDL@Error?5parsing?5animation?5file?3?5?$CFs@ 3004a3b8     cg_players.obj
 0002:000063dc       ??_C@_04OBGPFBCN@blue?$AA@ 3004a3dc     cg_players.obj
 0002:000063e4       ??_C@_03FAAAOPJM@red?$AA@  3004a3e4     cg_players.obj
 0002:000063e8       ??_C@_0CC@DEGJNDKJ@models?1players?1?$CFs?$CFs?1?$CFs?$CFs_?$CFs_?$CFs?4?$CF@ 3004a3e8     cg_players.obj
 0002:0000640c       ??_C@_0CA@EELEKOBE@models?1players?1?$CFs?$CFs?1?$CFs_?$CFs_?$CFs?4?$CFs?$AA@ 3004a40c     cg_players.obj
 0002:0000642c       ??_C@_0BP@EDGPHBII@models?1players?1?$CFs?$CFs?1?$CFs?$CFs_?$CFs?4?$CFs?$AA@ 3004a42c     cg_players.obj
 0002:0000644c       ??_C@_0BN@EDIIPDOB@models?1players?1?$CFs?$CFs?1?$CFs_?$CFs?4?$CFs?$AA@ 3004a44c     cg_players.obj
 0002:0000646c       ??_C@_0M@DDGCLDMM@characters?1?$AA@ 3004a46c     cg_players.obj
 0002:00006478       ??_C@_06NGEOGMCH@heads?1?$AA@ 3004a478     cg_players.obj
 0002:00006480       ??_C@_0CC@BLDEMPPB@models?1players?1?$CFs?$CFs?1?$CFs?1?$CFs?$CFs_?$CFs?4?$CF@ 3004a480     cg_players.obj
 0002:000064a4       ??_C@_0CA@LCPNCLIM@models?1players?1?$CFs?$CFs?1?$CFs?1?$CFs_?$CFs?4?$CFs?$AA@ 3004a4a4     cg_players.obj
 0002:000064c4       ??_C@_04NHPAFEHJ@skin?$AA@ 3004a4c4     cg_players.obj
 0002:000064cc       ??_C@_05IPJEPLHL@lower?$AA@ 3004a4cc     cg_players.obj
 0002:000064d4       ??_C@_0BL@NBGPNFJF@Leg?5skin?5load?5failure?3?5?$CFs?6?$AA@ 3004a4d4     cg_players.obj
 0002:000064f0       ??_C@_05NECKJAMC@upper?$AA@ 3004a4f0     cg_players.obj
 0002:000064f8       ??_C@_0BN@BAPBAPJE@Torso?5skin?5load?5failure?3?5?$CFs?6?$AA@ 3004a4f8     cg_players.obj
 0002:00006518       ??_C@_04NEODDMOL@head?$AA@ 3004a518     cg_players.obj
 0002:00006520       ??_C@_0BM@CECLOEIL@Head?5skin?5load?5failure?3?5?$CFs?6?$AA@ 3004a520     cg_players.obj
 0002:0000653c       ??_C@_0BM@MMDCMNND@models?1players?1?$CFs?1lower?4md3?$AA@ 3004a53c     cg_players.obj
 0002:00006558       ??_C@_0CH@LMILJCAL@models?1players?1characters?1?$CFs?1low@ 3004a558     cg_players.obj
 0002:00006580       ??_C@_0BO@KKNKOPB@Failed?5to?5load?5model?5file?5?$CFs?6?$AA@ 3004a580     cg_players.obj
 0002:000065a0       ??_C@_0BM@GODFODEI@models?1players?1?$CFs?1upper?4md3?$AA@ 3004a5a0     cg_players.obj
 0002:000065bc       ??_C@_0CH@BOIMLMJA@models?1players?1characters?1?$CFs?1upp@ 3004a5bc     cg_players.obj
 0002:000065e4       ??_C@_0BP@KFHLABFJ@models?1players?1heads?1?$CFs?1?$CFs?4md3?$AA@ 3004a5e4     cg_players.obj
 0002:00006604       ??_C@_0BL@MHNDFDC@models?1players?1?$CFs?1head?4md3?$AA@ 3004a604     cg_players.obj
 0002:00006620       ??_C@_0DB@JFHOKPOB@Failed?5to?5load?5skin?5file?3?5?$CFs?5?3?5?$CF@ 3004a620     cg_players.obj
 0002:00006654       ??_C@_03NPMJBIL@?$CFs?1?$AA@ 3004a654     cg_players.obj
 0002:00006658       ??_C@_0CM@NJHANNLM@Failed?5to?5load?5skin?5file?3?5?$CFs?5?3?5?$CF@ 3004a658     cg_players.obj
 0002:00006684       ??_C@_0CA@MLIOIMKH@models?1players?1?$CFs?1animation?4cfg?$AA@ 3004a684     cg_players.obj
 0002:000066a4       ??_C@_0CL@CKIMBAJB@models?1players?1characters?1?$CFs?1ani@ 3004a6a4     cg_players.obj
 0002:000066d0       ??_C@_0CC@BDJGDBLP@Failed?5to?5load?5animation?5file?5?$CFs@ 3004a6d0     cg_players.obj
 0002:000066f4       ??_C@_04DMJJIPAH@icon?$AA@ 3004a6f4     cg_players.obj
 0002:000066fc       ??_C@_03LJIJAGL@tga?$AA@   3004a6fc     cg_players.obj
 0002:00006700       ??_C@_01KMDKNFGN@?1?$AA@   3004a700     cg_players.obj
 0002:00006704       ??_C@_0DH@DLIOIGIN@CG_RegisterClientModelname?$CI?5?$CFs?0?5@ 3004a704     cg_players.obj
 0002:0000673c       ??_C@_0DF@GJHBNGJF@DEFAULT_TEAM_MODEL?5?1?5skin?5?$CI?$CFs?1?$CFs@ 3004a73c     cg_players.obj
 0002:00006774       ??_C@_0CG@NFMPGJHJ@DEFAULT_MODEL?5?$CI?$CFs?$CJ?5failed?5to?5reg@ 3004a774     cg_players.obj
 0002:0000679c       ??_C@_08BPBKIHMF@tag_flag?$AA@ 3004a79c     cg_players.obj
 0002:000067a8       ??_C@_0BD@NDLIHGFC@sound?1player?1?$CFs?1?$CFs?$AA@ 3004a7a8     cg_players.obj
 0002:000067bc       ??_C@_0CN@PBDGFPPP@CG_SetDeferredClientInfo?3?5no?5val@ 3004a7bc     cg_players.obj
 0002:000067ec       ??_C@_02IMHCFECG@c1?$AA@   3004a7ec     cg_players.obj
 0002:000067f0       ??_C@_02KHFPAHOF@c2?$AA@   3004a7f0     cg_players.obj
 0002:000067f4       ??_C@_05ODMCMJAJ@skill?$AA@ 3004a7f4     cg_players.obj
 0002:000067fc       ??_C@_02IKKIEBB@hc?$AA@    3004a7fc     cg_players.obj
 0002:00006800       ??_C@_01NOFIACDB@w?$AA@    3004a800     cg_players.obj
 0002:00006804       ??_C@_01HHGOMJKL@l?$AA@    3004a804     cg_players.obj
 0002:00006808       ??_C@_01PFHFFBPC@t?$AA@    3004a808     cg_players.obj
 0002:0000680c       ??_C@_02BIBFFKJD@tt?$AA@   3004a80c     cg_players.obj
 0002:00006810       ??_C@_02JKAOMCMK@tl?$AA@   3004a810     cg_players.obj
 0002:00006814       ??_C@_06EGNCJDCP@hmodel?$AA@ 3004a814     cg_players.obj
 0002:0000681c       ??_C@_0CH@OIHGELEA@Memory?5is?5low?4?5?5Using?5deferred?5m@ 3004a81c     cg_players.obj
 0002:00006844       ??_C@_0BJ@OHDPKGG@Bad?5animation?5number?3?5?$CFi?$AA@ 3004a844     cg_players.obj
 0002:00006860       ??_C@_09JCEMHLHC@Anim?3?5?$CFi?6?$AA@ 3004a860     cg_players.obj
 0002:0000686c       ??_C@_0BF@IBAKKNBL@Clamp?5lf?9?$DOframeTime?6?$AA@ 3004a86c     cg_players.obj
 0002:00006884       ??_C@_0BK@GAIDHALI@Bad?5player?5movement?5angle?$AA@ 3004a884     cg_players.obj
 0002:000068a0       ??_C@_0BP@EEHJJPLA@Bad?5clientNum?5on?5player?5entity?$AA@ 3004a8a0     cg_players.obj
 0002:000068c0       ??_C@_09FJEJHBEN@tag_torso?$AA@ 3004a8c0     cg_players.obj
 0002:000068cc       ??_C@_08PGAPCFON@tag_head?$AA@ 3004a8cc     cg_players.obj
 0002:000068d8       ??_C@_0BN@FKDGBGEH@?$CFi?5ResetPlayerEntity?5yaw?$DN?$CFi?6?$AA@ 3004a8d8     cg_players.obj
 0002:000068f8       __real@3d4ccccd            3004a8f8     cg_players.obj
 0002:000068fc       __real@3fc00000            3004a8fc     cg_players.obj
 0002:00006900       __real@3ff921fb60000000    3004a900     cg_players.obj
 0002:00006908       __real@402e000000000000    3004a908     cg_players.obj
 0002:00006910       __real@40c90fdb            3004a910     cg_players.obj
 0002:00006914       __real@42a00000            3004a914     cg_players.obj
 0002:00006918       __real@42b40000            3004a918     cg_players.obj
 0002:0000691c       __real@3dcccccd            3004a91c     cg_playerstate.obj
 0002:00006920       __real@4044000000000000    3004a920     cg_playerstate.obj
 0002:00006928       __real@406fe00000000000    3004a928     cg_playerstate.obj
 0002:00006930       ??_C@_0CE@JCAHPAJ@exceeded?5PACKET_BACKUP?5on?5comman@ 3004a930     cg_predict.obj
 0002:00006954       ??_C@_02NCPIBIBE@33?$AA@   3004a954     cg_predict.obj
 0002:00006958       ??_C@_0BE@DPKKIGLP@PredictionTeleport?6?$AA@ 3004a958     cg_predict.obj
 0002:0000696c       ??_C@_0BC@GIKLPGML@prediction?5error?6?$AA@ 3004a96c     cg_predict.obj
 0002:00006980       ??_C@_0BF@BBGFLFIG@Prediction?5miss?3?5?$CFf?6?$AA@ 3004a980     cg_predict.obj
 0002:00006998       ??_C@_0BN@HNLMAFPF@Double?5prediction?5decay?3?5?$CFf?6?$AA@ 3004a998     cg_predict.obj
 0002:000069b8       ??_C@_0L@NKHFPHNI@?$FL?$CFi?5?3?5?$CFi?$FN?5?$AA@ 3004a9b8     cg_predict.obj
 0002:000069c4       ??_C@_0L@DOJHFFNN@not?5moved?6?$AA@ 3004a9c4     cg_predict.obj
 0002:000069d0       ??_C@_0BI@ELMKHMCD@WARNING?3?5dropped?5event?6?$AA@ 3004a9d0     cg_predict.obj
 0002:000069e8       ??_C@_0BH@JOJLKMBP@WARNING?3?5double?5event?6?$AA@ 3004a9e8     cg_predict.obj
 0002:00006a4c       ??_C@_07NOFDDIA@getflag?$AA@ 3004aa4c     cg_servercmds.obj
 0002:00006a54       ??_C@_0L@LIAONOLJ@defendflag?$AA@ 3004aa54     cg_servercmds.obj
 0002:00006a60       ??_C@_0L@GFINLBEC@g_gametype?$AA@ 3004aa60     cg_servercmds.obj
 0002:00006a6c       ??_C@_07GMGCLCAP@dmflags?$AA@ 3004aa6c     cg_servercmds.obj
 0002:00006a74       ??_C@_09ELHMOKHN@teamflags?$AA@ 3004aa74     cg_servercmds.obj
 0002:00006a80       ??_C@_0O@OCOCOONB@sv_maxclients?$AA@ 3004aa80     cg_servercmds.obj
 0002:00006a90       ??_C@_0M@DKNJHPLK@maps?1?$CFs?4bsp?$AA@ 3004aa90     cg_servercmds.obj
 0002:00006a9c       ??_C@_09HOBGGEAD@g_redTeam?$AA@ 3004aa9c     cg_servercmds.obj
 0002:00006aa8       ??_C@_0L@OOBNLHBJ@g_blueTeam?$AA@ 3004aaa8     cg_servercmds.obj
 0002:00006ab4       ??_C@_01NEMOKFLO@?$DN?$AA@ 3004aab4     cg_servercmds.obj
 0002:00006ab8       ??_C@_01JLIPDDHJ@?3?$AA@   3004aab8     cg_servercmds.obj
 0002:00006abc       ??_C@_01EOFPKCAF@?$EA?$AA@ 3004aabc     cg_servercmds.obj
 0002:00006ac0       ??_C@_0P@HFBEHELF@CG_MapRestart?6?$AA@ 3004aac0     cg_servercmds.obj
 0002:00006ad0       ??_C@_06DOEGFMGC@FIGHT?$CB?$AA@ 3004aad0     cg_servercmds.obj
 0002:00006ad8       ??_C@_0BC@FKLDKIMG@ui_matchStartTime?$AA@ 3004aad8     cg_servercmds.obj
 0002:00006aec       ??_C@_0CJ@FEDCKNPF@set?5g_synchronousclients?51?5?$DL?5rec@ 3004aaec     cg_servercmds.obj
 0002:00006b18       ??_C@_0CB@LCNFPPPE@?$FO1voice?5chat?5file?5not?5found?3?5?$CFs?6@ 3004ab18     cg_servercmds.obj
 0002:00006b3c       ??_C@_0DJ@DIHCICBL@?$FO1voice?5chat?5file?5too?5large?3?5?$CFs?5@ 3004ab3c     cg_servercmds.obj
 0002:00006b78       ??_C@_06GJLDEJIL@female?$AA@ 3004ab78     cg_servercmds.obj
 0002:00006b80       ??_C@_04ICKCIGNO@male?$AA@ 3004ab80     cg_servercmds.obj
 0002:00006b88       ??_C@_06GHFJMDBL@neuter?$AA@ 3004ab88     cg_servercmds.obj
 0002:00006b90       ??_C@_0DE@LFCGMCMO@?$FO1expected?5gender?5not?5found?5in?5v@ 3004ab90     cg_servercmds.obj
 0002:00006bc4       ??_C@_0CO@OOFJHLNN@?$FO1expected?5?$HL?5found?5?$CFs?5in?5voice?5c@ 3004abc4     cg_servercmds.obj
 0002:00006bf4       ??_C@_0BG@EAMJLLDA@scripts?1female1?4voice?$AA@ 3004abf4     cg_servercmds.obj
 0002:00006c0c       ??_C@_0BG@MOEGLMND@scripts?1female2?4voice?$AA@ 3004ac0c     cg_servercmds.obj
 0002:00006c24       ??_C@_0BG@COMLMEN@scripts?1female3?4voice?$AA@ 3004ac24     cg_servercmds.obj
 0002:00006c3c       ??_C@_0BE@CJHDAPPO@scripts?1male1?4voice?$AA@ 3004ac3c     cg_servercmds.obj
 0002:00006c50       ??_C@_0BE@KHPMAIBN@scripts?1male2?4voice?$AA@ 3004ac50     cg_servercmds.obj
 0002:00006c64       ??_C@_0BE@GLFGAIID@scripts?1male3?4voice?$AA@ 3004ac64     cg_servercmds.obj
 0002:00006c78       ??_C@_0BE@GBJDABJK@scripts?1male4?4voice?$AA@ 3004ac78     cg_servercmds.obj
 0002:00006c8c       ??_C@_0BE@KNDJABAE@scripts?1male5?4voice?$AA@ 3004ac8c     cg_servercmds.obj
 0002:00006ca0       ??_C@_0BN@NIPMNCMN@voice?5chat?5memory?5size?5?$DN?5?$CFd?6?$AA@ 3004aca0     cg_servercmds.obj
 0002:00006cc0       ??_C@_05GFOLEBJA@?$CFs?1?$CFs?$AA@ 3004acc0     cg_servercmds.obj
 0002:00006cc8       ??_C@_0O@BPOFCDLG@scripts?1?$CFs?4vc?$AA@ 3004acc8     cg_servercmds.obj
 0002:00006cd8       ??_C@_03OFAPEBGM@?$CFs?6?$AA@ 3004acd8     cg_servercmds.obj
 0002:00006cdc       ??_C@_0N@PONKLBDP@?$FL?$CFs?$FN?3?5?$CFc?$CFc?$CFs?$AA@ 3004acdc     cg_servercmds.obj
 0002:00006cec       ??_C@_0N@GEGIEJH@?$CI?$CFs?$CJ?3?5?$CFc?$CFc?$CFs?$AA@ 3004acec     cg_servercmds.obj
 0002:00006cfc       ??_C@_0L@DFGHEGGP@?$CFs?3?5?$CFc?$CFc?$CFs?$AA@ 3004acfc     cg_servercmds.obj
 0002:00006d08       ??_C@_0M@MPCEANBE@kill_insult?$AA@ 3004ad08     cg_servercmds.obj
 0002:00006d14       ??_C@_05CPCHEFAA@taunt?$AA@ 3004ad14     cg_servercmds.obj
 0002:00006d1c       ??_C@_0N@EPKIJPHK@death_insult?$AA@ 3004ad1c     cg_servercmds.obj
 0002:00006d2c       ??_C@_0O@ILEOHMJK@kill_gauntlet?$AA@ 3004ad2c     cg_servercmds.obj
 0002:00006d3c       ??_C@_06GEFAPDPP@praise?$AA@ 3004ad3c     cg_servercmds.obj
 0002:00006d44       ??_C@_02GFBACKGC@cp?$AA@   3004ad44     cg_servercmds.obj
 0002:00006d48       ??_C@_02EODNHJKB@cs?$AA@   3004ad48     cg_servercmds.obj
 0002:00006d4c       ??_C@_05IJDJACGD@print?$AA@ 3004ad4c     cg_servercmds.obj
 0002:00006d54       ??_C@_0M@BNMAKDOK@vote?5failed?$AA@ 3004ad54     cg_servercmds.obj
 0002:00006d60       ??_C@_0BB@IIMCAHJJ@team?5vote?5failed?$AA@ 3004ad60     cg_servercmds.obj
 0002:00006d74       ??_C@_0M@DLOEMCPE@vote?5passed?$AA@ 3004ad74     cg_servercmds.obj
 0002:00006d80       ??_C@_0BB@KOOGGGIH@team?5vote?5passed?$AA@ 3004ad80     cg_servercmds.obj
 0002:00006d94       ??_C@_04BLJLMHHG@chat?$AA@ 3004ad94     cg_servercmds.obj
 0002:00006d9c       ??_C@_05PMMINOBP@tchat?$AA@ 3004ad9c     cg_servercmds.obj
 0002:00006da4       ??_C@_05LBAAHPBE@vchat?$AA@ 3004ada4     cg_servercmds.obj
 0002:00006dac       ??_C@_06FPNOEFND@vtchat?$AA@ 3004adac     cg_servercmds.obj
 0002:00006db4       ??_C@_06KBCJDMLG@scores?$AA@ 3004adb4     cg_servercmds.obj
 0002:00006dbc       ??_C@_05DPGKEEHN@tinfo?$AA@ 3004adbc     cg_servercmds.obj
 0002:00006dc4       ??_C@_0M@NBIMEKNE@map_restart?$AA@ 3004adc4     cg_servercmds.obj
 0002:00006dd0       ??_C@_0M@BLBAMFDN@remapShader?$AA@ 3004add0     cg_servercmds.obj
 0002:00006ddc       ??_C@_0BA@GNMFKLDC@clientLevelShot?$AA@ 3004addc     cg_servercmds.obj
 0002:00006dec       ??_C@_0CB@KPHIIGNM@Unknown?5client?5game?5command?3?5?$CFs?6@ 3004adec     cg_servercmds.obj
 0002:00006e10       ??_C@_0CE@BCLPNDDL@CG_TransitionSnapshot?3?5NULL?5cg?4s@ 3004ae10     cg_snapshot.obj
 0002:00006e34       ??_C@_0CI@JDFDPIEH@CG_TransitionSnapshot?3?5NULL?5cg?4n@ 3004ae34     cg_snapshot.obj
 0002:00006e5c       ??_C@_0DI@DABDJKNL@WARNING?3?5CG_ReadNextSnapshot?3?5wa@ 3004ae5c     cg_snapshot.obj
 0002:00006e94       ??_C@_0CO@FFJEMNFE@CG_ProcessSnapshots?3?5n?5?$DM?5cg?4late@ 3004ae94     cg_snapshot.obj
 0002:00006ec4       ??_C@_0DA@GODLLJKJ@CG_ProcessSnapshots?3?5Server?5time@ 3004aec4     cg_snapshot.obj
 0002:00006ef4       ??_C@_0CF@EPBFNJFD@CG_ProcessSnapshots?3?5cg?4snap?5?$DN?$DN?5@ 3004aef4     cg_snapshot.obj
 0002:00006f1c       ??_C@_0DI@NCDIEGIG@CG_ProcessSnapshots?3?5cg?4nextSnap@ 3004af1c     cg_snapshot.obj
 0002:00006f54       ??_C@_0BG@GCFGCMGP@Can?8t?5register?5model?6?$AA@ 3004af54     cg_view.obj
 0002:00006f6c       ??_C@_09FLAEHDCJ@frame?5?$CFi?6?$AA@ 3004af6c     cg_view.obj
 0002:00006f78       ??_C@_08JKENKHJN@skin?5?$CFi?6?$AA@ 3004af78     cg_view.obj
 0002:00006f84       ??_C@_02PJNFELNH@30?$AA@   3004af84     cg_view.obj
 0002:00006f88       ??_C@_02NJPGOMH@?$CFf?$AA@ 3004af88     cg_view.obj
 0002:00006f8c       ??_C@_0BD@PLOBIDP@cg?4clientFrame?3?$CFi?6?$AA@ 3004af8c     cg_view.obj
 0002:00006fa0       __real@4040000000000000    3004afa0     cg_view.obj
 0002:00006fa8       __real@4052c00000000000    3004afa8     cg_view.obj
 0002:00006fb0       __real@43160000            3004afb0     cg_view.obj
 0002:00006fb4       __real@43200000            3004afb4     cg_view.obj
 0002:00006fb8       __real@43c80000            3004afb8     cg_view.obj
 0002:00006fbc       __real@43e10000            3004afbc     cg_view.obj
 0002:00006fc0       __real@44000000            3004afc0     cg_view.obj
 0002:00006fc8       __real@c04ca5dc00000000    3004afc8     cg_view.obj
 0002:00006fd0       ??_C@_0BI@JJFMDMDC@Couldn?8t?5find?5weapon?5?$CFi?$AA@ 3004afd0     cg_weapons.obj
 0002:00006fe8       ??_C@_0L@DAPODOKF@_flash?4md3?$AA@ 3004afe8     cg_weapons.obj
 0002:00006ff4       ??_C@_0M@GGMINFPA@_barrel?4md3?$AA@ 3004aff4     cg_weapons.obj
 0002:00007000       ??_C@_09OLHEALFG@_hand?4md3?$AA@ 3004b000     cg_weapons.obj
 0002:0000700c       ??_C@_0CJ@PEFFPDCJ@models?1weapons2?1shotgun?1shotgun_@ 3004b00c     cg_weapons.obj
 0002:00007038       ??_C@_0BP@BOHFALII@sound?1weapons?1melee?1fstrun?4wav?$AA@ 3004b038     cg_weapons.obj
 0002:00007058       ??_C@_0CA@KEKFDEFA@sound?1weapons?1melee?1fstatck?4wav?$AA@ 3004b058     cg_weapons.obj
 0002:00007078       ??_C@_0BP@HFJKFEMF@sound?1weapons?1melee?1fsthum?4wav?$AA@ 3004b078     cg_weapons.obj
 0002:00007098       ??_C@_0CD@IOHDBJGJ@sound?1weapons?1lightning?1lg_hum?4w@ 3004b098     cg_weapons.obj
 0002:000070bc       ??_C@_0CE@DECINOH@sound?1weapons?1lightning?1lg_fire?4@ 3004b0bc     cg_weapons.obj
 0002:000070e0       ??_C@_0BB@FHMAJPD@lightningBoltNew?$AA@ 3004b0e0     cg_weapons.obj
 0002:000070f4       ??_C@_0BM@KLCPGNMA@models?1weaphits?1crackle?4md3?$AA@ 3004b0f4     cg_weapons.obj
 0002:00007110       ??_C@_0CD@KNELMIA@sound?1weapons?1lightning?1lg_hit?4w@ 3004b110     cg_weapons.obj
 0002:00007134       ??_C@_0CE@LJNLFLAA@sound?1weapons?1lightning?1lg_hit2?4@ 3004b134     cg_weapons.obj
 0002:00007158       ??_C@_0CE@HCIHIIKF@sound?1weapons?1lightning?1lg_hit3?4@ 3004b158     cg_weapons.obj
 0002:0000717c       ??_C@_0BO@BLENFKPL@models?1ammo?1rocket?1rocket?4md3?$AA@ 3004b17c     cg_weapons.obj
 0002:0000719c       ??_C@_0CC@EDHBGCBP@sound?1weapons?1vulcan?1wvulfire?4wa@ 3004b19c     cg_weapons.obj
 0002:000071c0       ??_C@_0CD@FOPGFCCK@sound?1weapons?1vulcan?1vulcanf1b?4w@ 3004b1c0     cg_weapons.obj
 0002:000071e4       ??_C@_0CD@GPBOEILH@sound?1weapons?1vulcan?1vulcanf2b?4w@ 3004b1e4     cg_weapons.obj
 0002:00007208       ??_C@_0CD@MJGJEDAD@sound?1weapons?1vulcan?1vulcanf3b?4w@ 3004b208     cg_weapons.obj
 0002:0000722c       ??_C@_0CD@MMOHNIN@sound?1weapons?1vulcan?1vulcanf4b?4w@ 3004b22c     cg_weapons.obj
 0002:00007250       ??_C@_0BA@DOLAHAKE@bulletExplosion?$AA@ 3004b250     cg_weapons.obj
 0002:00007260       ??_C@_0CG@PKGEPJOA@sound?1weapons?1machinegun?1machgf1@ 3004b260     cg_weapons.obj
 0002:00007288       ??_C@_0CG@MLIMODHN@sound?1weapons?1machinegun?1machgf2@ 3004b288     cg_weapons.obj
 0002:000072b0       ??_C@_0CG@GNPLOIMJ@sound?1weapons?1machinegun?1machgf3@ 3004b2b0     cg_weapons.obj
 0002:000072d8       ??_C@_0CG@KIFMNGEH@sound?1weapons?1machinegun?1machgf4@ 3004b2d8     cg_weapons.obj
 0002:00007300       ??_C@_0CD@NCGDEMHJ@sound?1weapons?1shotgun?1sshotf1b?4w@ 3004b300     cg_weapons.obj
 0002:00007324       ??_C@_0CB@EAPDKGGC@sound?1weapons?1rocket?1rockfly?4wav@ 3004b324     cg_weapons.obj
 0002:00007348       ??_C@_0CC@OIFCIFP@sound?1weapons?1rocket?1rocklf1a?4wa@ 3004b348     cg_weapons.obj
 0002:0000736c       ??_C@_0BA@NABNBOMN@rocketExplosion?$AA@ 3004b36c     cg_weapons.obj
 0002:0000737c       ??_C@_0BN@LMJLJPHN@models?1weaphits?1proxmine?4md3?$AA@ 3004b37c     cg_weapons.obj
 0002:0000739c       ??_C@_0CE@PEAFLEEG@sound?1weapons?1proxmine?1wstbfire?4@ 3004b39c     cg_weapons.obj
 0002:000073c0       ??_C@_0BB@LIEJLDGP@grenadeExplosion?$AA@ 3004b3c0     cg_weapons.obj
 0002:000073d4       ??_C@_0BJ@IPKCPFEO@models?1ammo?1grenade1?4md3?$AA@ 3004b3d4     cg_weapons.obj
 0002:000073f0       ??_C@_0CD@BGNAFJPC@sound?1weapons?1grenade?1grenlf1a?4w@ 3004b3f0     cg_weapons.obj
 0002:00007414       ??_C@_0BJ@BINIPDMI@models?1weaphits?1nail?4md3?$AA@ 3004b414     cg_weapons.obj
 0002:00007430       ??_C@_0CD@JMEAOADA@sound?1weapons?1nailgun?1wnalfire?4w@ 3004b430     cg_weapons.obj
 0002:00007454       ??_C@_0CA@FGEGNBKP@sound?1weapons?1plasma?1lasfly?4wav?$AA@ 3004b454     cg_weapons.obj
 0002:00007474       ??_C@_0CC@NOGOIAAL@sound?1weapons?1plasma?1hyprbf1a?4wa@ 3004b474     cg_weapons.obj
 0002:00007498       ??_C@_0BA@JAAHPOLK@plasmaExplosion?$AA@ 3004b498     cg_weapons.obj
 0002:000074a8       ??_C@_08EJMAMOFN@railDisc?$AA@ 3004b4a8     cg_weapons.obj
 0002:000074b4       ??_C@_0CB@BJCODCG@sound?1weapons?1railgun?1rg_hum?4wav@ 3004b4b4     cg_weapons.obj
 0002:000074d8       ??_C@_0O@HDLAOPGI@railExplosion?$AA@ 3004b4d8     cg_weapons.obj
 0002:000074e8       ??_C@_08IJBDIACA@railCore?$AA@ 3004b4e8     cg_weapons.obj
 0002:000074f4       ??_C@_0BO@DKJAPIPN@sound?1weapons?1bfg?1bfg_hum?4wav?$AA@ 3004b4f4     cg_weapons.obj
 0002:00007514       ??_C@_0BP@PEJEDJFL@sound?1weapons?1bfg?1bfg_fire?4wav?$AA@ 3004b514     cg_weapons.obj
 0002:00007534       ??_C@_0N@EKABNDDO@bfgExplosion?$AA@ 3004b534     cg_weapons.obj
 0002:00007544       ??_C@_0BI@CJNPJIJG@models?1weaphits?1bfg?4md3?$AA@ 3004b544     cg_weapons.obj
 0002:0000755c       ??_C@_0DH@ECKDIILO@CG_RegisterItemVisuals?3?5itemNum?5@ 3004b55c     cg_weapons.obj
 0002:00007594       ??_C@_0L@FGMMEJDC@tag_weapon?$AA@ 3004b594     cg_weapons.obj
 0002:000075a0       ??_C@_09FNBKMGLL@tag_flash?$AA@ 3004b5a0     cg_weapons.obj
 0002:000075ac       ??_C@_0CN@NBNBAPF@CG_FireWeapon?3?5ent?9?$DOweapon?5?$DO?$DN?5WP@ 3004b5ac     cg_weapons.obj
 0002:000075e0       __real@3f847ae147ae147b    3004b5e0     cg_weapons.obj
 0002:000075e8       __real@3fc999999999999a    3004b5e8     cg_weapons.obj
 0002:000075f0       __real@4054000000000000    3004b5f0     cg_weapons.obj
 0002:000075f8       __real@405e000000000000    3004b5f8     cg_weapons.obj
 0002:00007600       __real@4072c00000000000    3004b600     cg_weapons.obj
 0002:00007608       __real@41600000            3004b608     cg_weapons.obj
 0002:0000760c       __real@41d00000            3004b60c     cg_weapons.obj
 0002:00007610       __real@427c0000            3004b610     cg_weapons.obj
 0002:00007614       __real@442f0000            3004b614     cg_weapons.obj
 0002:00007618       __real@44400000            3004b618     cg_weapons.obj
 0002:00007620       __real@bfc999999999999a    3004b620     cg_weapons.obj
 0002:00007628       __real@c3340000            3004b628     cg_weapons.obj
 0002:0000762c       __real@37800000            3004b62c     q_math.obj
 0002:00007630       __real@3c8efa35            3004b630     q_math.obj
 0002:00007638       __real@4066c16c16c16c17    3004b638     q_math.obj
 0002:00007640       __real@43870000            3004b640     q_math.obj
 0002:00007650       __xmm@80000000000000008000000000000000 3004b650     q_math.obj
 0002:00007660       ??_C@_0BG@EKAPNPCH@Q_strncpyz?3?5NULL?5dest?$AA@ 3004b660     q_shared.obj
 0002:00007678       ??_C@_0BF@BJHHBLMD@Q_strncpyz?3?5NULL?5src?$AA@ 3004b678     q_shared.obj
 0002:00007690       ??_C@_0BJ@OLBOPICM@Q_strncpyz?3?5destsize?5?$DM?51?$AA@ 3004b690     q_shared.obj
 0002:000076ac       ??_C@_0BN@EFOOAHFL@Q_strcat?3?5already?5overflowed?$AA@ 3004b6ac     q_shared.obj
 0002:000076cc       ??_C@_0CC@GMEFDOKA@Com_sprintf?3?5overflowed?5bigbuffe@ 3004b6cc     q_shared.obj
 0002:000076f0       ??_C@_0CD@GIPJKOOD@Com_sprintf?3?5overflow?5of?5?$CFi?5in?5?$CF@ 3004b6f0     q_shared.obj
 0002:00007714       ??_C@_0CG@FLHABLN@Info_ValueForKey?3?5oversize?5infos@ 3004b714     q_shared.obj
 0002:0000773c       ??_C@_08GFFBPDLD@?$CLbutton2?$AA@ 3004b73c     ui_shared.obj
 0002:00007748       ??_C@_06JIDIHCBO@?$CLspeed?$AA@ 3004b748     ui_shared.obj
 0002:00007750       ??_C@_08KKEOHAPB@?$CLforward?$AA@ 3004b750     ui_shared.obj
 0002:0000775c       ??_C@_05IPKGNIPH@?$CLback?$AA@ 3004b75c     ui_shared.obj
 0002:00007764       ??_C@_09IPJNFGKP@?$CLmoveleft?$AA@ 3004b764     ui_shared.obj
 0002:00007770       ??_C@_0L@FMBJCMEG@?$CLmoveright?$AA@ 3004b770     ui_shared.obj
 0002:0000777c       ??_C@_07CKGNAPCP@?$CLmoveup?$AA@ 3004b77c     ui_shared.obj
 0002:00007784       ??_C@_09HNJJMOJG@?$CLmovedown?$AA@ 3004b784     ui_shared.obj
 0002:00007790       ??_C@_05HEGFDNLE@?$CLleft?$AA@ 3004b790     ui_shared.obj
 0002:00007798       ??_C@_06NGIHBNMB@?$CLright?$AA@ 3004b798     ui_shared.obj
 0002:000077a0       ??_C@_07CHKKNAEO@?$CLstrafe?$AA@ 3004b7a0     ui_shared.obj
 0002:000077a8       ??_C@_07BDFIGFL@?$CLlookup?$AA@ 3004b7a8     ui_shared.obj
 0002:000077b0       ??_C@_09KCKOGCLI@?$CLlookdown?$AA@ 3004b7b0     ui_shared.obj
 0002:000077bc       ??_C@_06OBEGBCAL@?$CLmlook?$AA@ 3004b7bc     ui_shared.obj
 0002:000077c4       ??_C@_0L@FHIBDANG@centerview?$AA@ 3004b7c4     ui_shared.obj
 0002:000077d0       ??_C@_08NFHIAPM@weapon?51?$AA@ 3004b7d0     ui_shared.obj
 0002:000077dc       ??_C@_08CGHKNDDP@weapon?52?$AA@ 3004b7dc     ui_shared.obj
 0002:000077e8       ??_C@_08DPGBOCHO@weapon?53?$AA@ 3004b7e8     ui_shared.obj
 0002:000077f4       ??_C@_08HACAHELJ@weapon?54?$AA@ 3004b7f4     ui_shared.obj
 0002:00007800       ??_C@_08GJDLEFPI@weapon?55?$AA@ 3004b800     ui_shared.obj
 0002:0000780c       ??_C@_08ECBGBGDL@weapon?56?$AA@ 3004b80c     ui_shared.obj
 0002:00007818       ??_C@_08FLANCHHK@weapon?57?$AA@ 3004b818     ui_shared.obj
 0002:00007824       ??_C@_08NMJFDLLF@weapon?58?$AA@ 3004b824     ui_shared.obj
 0002:00007830       ??_C@_08MFIOAKPE@weapon?59?$AA@ 3004b830     ui_shared.obj
 0002:0000783c       ??_C@_09GLEANPEE@weapon?510?$AA@ 3004b83c     ui_shared.obj
 0002:00007848       ??_C@_09HCFLOOAF@weapon?511?$AA@ 3004b848     ui_shared.obj
 0002:00007854       ??_C@_09FJHGLNMG@weapon?512?$AA@ 3004b854     ui_shared.obj
 0002:00007860       ??_C@_09EAGNIMIH@weapon?513?$AA@ 3004b860     ui_shared.obj
 0002:0000786c       ??_C@_07MAODEHGM@?$CLattack?$AA@ 3004b86c     ui_shared.obj
 0002:00007874       ??_C@_08HMEKMCPC@?$CLbutton3?$AA@ 3004b874     ui_shared.obj
 0002:00007880       ??_C@_08DDALFEDF@?$CLbutton4?$AA@ 3004b880     ui_shared.obj
 0002:0000788c       ??_C@_06JFGPOFJL@fadein?$AA@ 3004b88c     ui_shared.obj
 0002:00007894       ??_C@_07BJADIKJG@fadeout?$AA@ 3004b894     ui_shared.obj
 0002:0000789c       ??_C@_04FKMICODN@show?$AA@ 3004b89c     ui_shared.obj
 0002:000078a4       ??_C@_04IBOFHAPJ@hide?$AA@ 3004b8a4     ui_shared.obj
 0002:000078ac       ??_C@_08OKIEAMBM@setcolor?$AA@ 3004b8ac     ui_shared.obj
 0002:000078b8       ??_C@_04PMOCAHAA@open?$AA@ 3004b8b8     ui_shared.obj
 0002:000078c0       ??_C@_0BA@JLPGECPM@conditionalopen?$AA@ 3004b8c0     ui_shared.obj
 0002:000078d0       ??_C@_05LBOHBHFK@close?$AA@ 3004b8d0     ui_shared.obj
 0002:000078d8       ??_C@_08FBOLLCAN@setasset?$AA@ 3004b8d8     ui_shared.obj
 0002:000078e4       ??_C@_0O@FOIIKEEB@setbackground?$AA@ 3004b8e4     ui_shared.obj
 0002:000078f4       ??_C@_0N@EBBIOPHN@setitemcolor?$AA@ 3004b8f4     ui_shared.obj
 0002:00007904       ??_C@_0N@KMLJLNON@setteamcolor?$AA@ 3004b904     ui_shared.obj
 0002:00007914       ??_C@_08OKIAJKBO@setfocus?$AA@ 3004b914     ui_shared.obj
 0002:00007920       ??_C@_0P@COHLPKKB@setplayermodel?$AA@ 3004b920     ui_shared.obj
 0002:00007930       ??_C@_0O@DDHOJBLA@setplayerhead?$AA@ 3004b930     ui_shared.obj
 0002:00007940       ??_C@_0L@KGLELNDP@transition?$AA@ 3004b940     ui_shared.obj
 0002:0000794c       ??_C@_07DFOFNCMO@setcvar?$AA@ 3004b94c     ui_shared.obj
 0002:00007954       ??_C@_04MGEIEJAD@exec?$AA@ 3004b954     ui_shared.obj
 0002:0000795c       ??_C@_04GBHMDDO@play?$AA@  3004b95c     ui_shared.obj
 0002:00007964       ??_C@_0L@NDOCJLDE@playlooped?$AA@ 3004b964     ui_shared.obj
 0002:00007970       ??_C@_05KJPHCDKJ@orbit?$AA@ 3004b970     ui_shared.obj
 0002:00007978       ??_C@_0M@JINOELJH@messagemode?$AA@ 3004b978     ui_shared.obj
 0002:00007984       ??_C@_0N@IDIDIMNN@messagemode2?$AA@ 3004b984     ui_shared.obj
 0002:00007994       ??_C@_0N@JKJILNJM@messagemode3?$AA@ 3004b994     ui_shared.obj
 0002:000079a4       ??_C@_0N@NFNJCLFL@messagemode4?$AA@ 3004b9a4     ui_shared.obj
 0002:000079b8       ??_C@_04MEMAJGDJ@name?$AA@ 3004b9b8     ui_shared.obj
 0002:000079c0       ??_C@_04CIMGMMMG@text?$AA@ 3004b9c0     ui_shared.obj
 0002:000079c8       ??_C@_05MGJOOGAJ@group?$AA@ 3004b9c8     ui_shared.obj
 0002:000079d0       ??_C@_0M@DKAIGAGN@asset_model?$AA@ 3004b9d0     ui_shared.obj
 0002:000079dc       ??_C@_0N@HLFJAKEA@asset_shader?$AA@ 3004b9dc     ui_shared.obj
 0002:000079ec       ??_C@_0N@LHLPLFLG@model_origin?$AA@ 3004b9ec     ui_shared.obj
 0002:000079fc       ??_C@_0L@MFDDKKLB@model_fovx?$AA@ 3004b9fc     ui_shared.obj
 0002:00007a08       ??_C@_0L@NMCIJLPA@model_fovy?$AA@ 3004ba08     ui_shared.obj
 0002:00007a14       ??_C@_0P@NOKHMHPD@model_rotation?$AA@ 3004ba14     ui_shared.obj
 0002:00007a24       ??_C@_0M@HHMGANAM@model_angle?$AA@ 3004ba24     ui_shared.obj
 0002:00007a30       ??_C@_04LHPFHFPH@rect?$AA@ 3004ba30     ui_shared.obj
 0002:00007a38       ??_C@_05IAKJCFIM@style?$AA@ 3004ba38     ui_shared.obj
 0002:00007a40       ??_C@_0L@GFEIECKE@decoration?$AA@ 3004ba40     ui_shared.obj
 0002:00007a4c       ??_C@_0O@FDEIBLKE@notselectable?$AA@ 3004ba4c     ui_shared.obj
 0002:00007a5c       ??_C@_07FJHHECNJ@wrapped?$AA@ 3004ba5c     ui_shared.obj
 0002:00007a64       ??_C@_0M@HHKOOJO@autowrapped?$AA@ 3004ba64     ui_shared.obj
 0002:00007a70       ??_C@_0BB@EIBMEDHI@horizontalscroll?$AA@ 3004ba70     ui_shared.obj
 0002:00007a84       ??_C@_04GPMDFGEJ@type?$AA@ 3004ba84     ui_shared.obj
 0002:00007a8c       ??_C@_0N@MILKKPGL@elementwidth?$AA@ 3004ba8c     ui_shared.obj
 0002:00007a9c       ??_C@_0O@MNJDKOBB@elementheight?$AA@ 3004ba9c     ui_shared.obj
 0002:00007aac       ??_C@_06GEEPENGB@feeder?$AA@ 3004baac     ui_shared.obj
 0002:00007ab4       ??_C@_0M@HBNIAHKL@elementtype?$AA@ 3004bab4     ui_shared.obj
 0002:00007ac0       ??_C@_07HIFEPIJN@columns?$AA@ 3004bac0     ui_shared.obj
 0002:00007ac8       ??_C@_06ODFLABIG@border?$AA@ 3004bac8     ui_shared.obj
 0002:00007ad0       ??_C@_0L@BAAMOEHP@bordersize?$AA@ 3004bad0     ui_shared.obj
 0002:00007adc       ??_C@_07DPDAEJMK@visible?$AA@ 3004badc     ui_shared.obj
 0002:00007ae4       ??_C@_09HGLBOMNF@ownerdraw?$AA@ 3004bae4     ui_shared.obj
 0002:00007af0       ??_C@_05CBJPDLOK@align?$AA@ 3004baf0     ui_shared.obj
 0002:00007af8       ??_C@_09PNBDGNCL@textalign?$AA@ 3004baf8     ui_shared.obj
 0002:00007b04       ??_C@_0L@ELKHBJND@textalignx?$AA@ 3004bb04     ui_shared.obj
 0002:00007b10       ??_C@_0L@FCLMCIJC@textaligny?$AA@ 3004bb10     ui_shared.obj
 0002:00007b1c       ??_C@_09BLEIEHKP@textscale?$AA@ 3004bb1c     ui_shared.obj
 0002:00007b28       ??_C@_09FMCFHDEN@textstyle?$AA@ 3004bb28     ui_shared.obj
 0002:00007b34       ??_C@_0N@LGJOCBPD@outlinecolor?$AA@ 3004bb34     ui_shared.obj
 0002:00007b44       ??_C@_0L@EGCKCJDC@background?$AA@ 3004bb44     ui_shared.obj
 0002:00007b50       ??_C@_07PFEHHELH@onFocus?$AA@ 3004bb50     ui_shared.obj
 0002:00007b58       ??_C@_0L@LMAJDKOE@leaveFocus?$AA@ 3004bb58     ui_shared.obj
 0002:00007b64       ??_C@_0L@KAGOMOPN@mouseEnter?$AA@ 3004bb64     ui_shared.obj
 0002:00007b70       ??_C@_09OIHCIOIA@mouseExit?$AA@ 3004bb70     ui_shared.obj
 0002:00007b7c       ??_C@_0P@BCEPHLNB@mouseEnterText?$AA@ 3004bb7c     ui_shared.obj
 0002:00007b8c       ??_C@_0O@GFPABKKP@mouseExitText?$AA@ 3004bb8c     ui_shared.obj
 0002:00007b9c       ??_C@_06DDLLCOJG@action?$AA@ 3004bb9c     ui_shared.obj
 0002:00007ba4       ??_C@_07BELCMIIP@special?$AA@ 3004bba4     ui_shared.obj
 0002:00007bac       ??_C@_04PNAHEAFM@cvar?$AA@ 3004bbac     ui_shared.obj
 0002:00007bb4       ??_C@_08IHGPPBOI@maxChars?$AA@ 3004bbb4     ui_shared.obj
 0002:00007bc0       ??_C@_0O@HPCOAMJM@maxPaintChars?$AA@ 3004bbc0     ui_shared.obj
 0002:00007bd0       ??_C@_0L@NOGKCHFE@focusSound?$AA@ 3004bbd0     ui_shared.obj
 0002:00007bdc       ??_C@_09CGGKHKAP@cvarFloat?$AA@ 3004bbdc     ui_shared.obj
 0002:00007be8       ??_C@_0M@GOKMFACI@cvarStrList?$AA@ 3004bbe8     ui_shared.obj
 0002:00007bf4       ??_C@_0O@IKNDJMDK@cvarFloatList?$AA@ 3004bbf4     ui_shared.obj
 0002:00007c04       ??_C@_0O@BGFKBLBI@addColorRange?$AA@ 3004bc04     ui_shared.obj
 0002:00007c14       ??_C@_0O@DACAJCLK@ownerdrawFlag?$AA@ 3004bc14     ui_shared.obj
 0002:00007c24       ??_C@_0L@LCDHKNEJ@enableCvar?$AA@ 3004bc24     ui_shared.obj
 0002:00007c30       ??_C@_08KBIDCBHN@cvarTest?$AA@ 3004bc30     ui_shared.obj
 0002:00007c3c       ??_C@_0M@FBHLBFCC@disableCvar?$AA@ 3004bc3c     ui_shared.obj
 0002:00007c48       ??_C@_08LNBEMJIA@showCvar?$AA@ 3004bc48     ui_shared.obj
 0002:00007c54       ??_C@_08BDDCOCNI@hideCvar?$AA@ 3004bc54     ui_shared.obj
 0002:00007c60       ??_C@_09DHDJHDLH@cinematic?$AA@ 3004bc60     ui_shared.obj
 0002:00007c6c       ??_C@_0M@IHJKFHF@doubleclick?$AA@ 3004bc6c     ui_shared.obj
 0002:00007c78       ??_C@_0L@GIACNHMO@fullscreen?$AA@ 3004bc78     ui_shared.obj
 0002:00007c84       ??_C@_06CJGNFCEB@onOpen?$AA@ 3004bc84     ui_shared.obj
 0002:00007c8c       ??_C@_07LAOJOJAJ@onClose?$AA@ 3004bc8c     ui_shared.obj
 0002:00007c94       ??_C@_05IIPJAONP@onESC?$AA@ 3004bc94     ui_shared.obj
 0002:00007c9c       ??_C@_0L@NBMNMLHL@borderSize?$AA@ 3004bc9c     ui_shared.obj
 0002:00007ca8       ??_C@_0L@OKFLOHAM@focuscolor?$AA@ 3004bca8     ui_shared.obj
 0002:00007cb4       ??_C@_0N@EEPADJLO@disablecolor?$AA@ 3004bcb4     ui_shared.obj
 0002:00007cc4       ??_C@_0BB@FOHPFLED@outOfBoundsClick?$AA@ 3004bcc4     ui_shared.obj
 0002:00007cd8       ??_C@_09LMHPKFJB@soundLoop?$AA@ 3004bcd8     ui_shared.obj
 0002:00007ce4       ??_C@_07BNAIEIKL@itemDef?$AA@ 3004bce4     ui_shared.obj
 0002:00007cec       ??_C@_05EIEHMANA@popup?$AA@ 3004bcec     ui_shared.obj
 0002:00007cf4       ??_C@_09OPNKCLNO@backcolor?$AA@ 3004bcf4     ui_shared.obj
 0002:00007d00       ??_C@_09MONNBKNO@forecolor?$AA@ 3004bd00     ui_shared.obj
 0002:00007d0c       ??_C@_0M@CJNAABJD@bordercolor?$AA@ 3004bd0c     ui_shared.obj
 0002:00007d18       ??_C@_0CD@LBKPCJLM@UI_Alloc?3?5Failure?4?5Out?5of?5memory@ 3004bd18     ui_shared.obj
 0002:00007d3c       ??_C@_0BK@OKFEFFGN@?$FO1ERROR?3?5?$CFs?0?5line?5?$CFd?3?5?$CFs?6?$AA@ 3004bd3c     ui_shared.obj
 0002:00007d58       ??_C@_0BN@CKJPOGNB@expected?5float?5but?5found?5?$CFs?6?$AA@ 3004bd58     ui_shared.obj
 0002:00007d78       ??_C@_0BP@FLADEANJ@expected?5integer?5but?5found?5?$CFs?6?$AA@ 3004bd78     ui_shared.obj
 0002:00007d98       ??_C@_04OEDFLLKD@?$CC?$CFs?$CC?$AA@ 3004bd98     ui_shared.obj
 0002:00007da0       ??_C@_01CLKCMJKC@?5?$AA@   3004bda0     ui_shared.obj
 0002:00007da4       ??_C@_05LKKGNBCL@?$CFs?5?$DL?5?$AA@ 3004bda4     ui_shared.obj
 0002:00007dac       ??_C@_0BI@MLGEDDNA@slider?5handle?5key?5exit?6?$AA@ 3004bdac     ui_shared.obj
 0002:00007dc4       ??_C@_0M@FHKEBODE@screenshot?6?$AA@ 3004bdc4     ui_shared.obj
 0002:00007dd0       ??_C@_03CCLAEDDF@Yes?$AA@  3004bdd0     ui_shared.obj
 0002:00007dd4       ??_C@_02JINPPBEP@No?$AA@   3004bdd4     ui_shared.obj
 0002:00007dd8       ??_C@_0M@LMHCNBPD@in_restart?6?$AA@ 3004bdd8     ui_shared.obj
 0002:00007de4       ??_C@_04FJKIFICP@?5or?5?$AA@ 3004bde4     ui_shared.obj
 0002:00007dec       ??_C@_05DJCKAPIL@FIXME?$AA@ 3004bdec     ui_shared.obj
 0002:00007df4       ??_C@_0BO@GKGLOPGG@end?5of?5file?5inside?5menu?5item?6?$AA@ 3004bdf4     ui_shared.obj
 0002:00007e14       ??_C@_0BN@JHFMAPJL@unknown?5menu?5item?5keyword?5?$CFs?$AA@ 3004be14     ui_shared.obj
 0002:00007e34       ??_C@_0CE@OIGKMGKE@couldn?8t?5parse?5menu?5item?5keyword@ 3004be34     ui_shared.obj
 0002:00007e58       ??_C@_04GHJNJNPO@main?$AA@ 3004be58     ui_shared.obj
 0002:00007e60       ??_C@_0BJ@MPIMCBOA@end?5of?5file?5inside?5menu?6?$AA@ 3004be60     ui_shared.obj
 0002:00007e7c       ??_C@_0BI@PALCAEGK@unknown?5menu?5keyword?5?$CFs?$AA@ 3004be7c     ui_shared.obj
 0002:00007e94       ??_C@_0BP@HJCDHJDP@couldn?8t?5parse?5menu?5keyword?5?$CFs?$AA@ 3004be94     ui_shared.obj
 0002:00007eb4       ??_C@_07KLAFGBNN@fps?3?5?$CFf?$AA@ 3004beb4     ui_shared.obj
 0002:00007ebc       __real@3f4ccccd            3004bebc     ui_shared.obj
 0002:00007ec0       __real@3faaceea00000000    3004bec0     ui_shared.obj
 0002:00007ec8       __real@4058000000000000    3004bec8     ui_shared.obj
 0002:00007ed0       __real@42c00000            3004bed0     ui_shared.obj
 0002:00009030       __FPinit                   3004d030     LIBCMT:fpinit.obj
 0002:0000bf50       __pDefaultRawDllMain       3004ff50     LIBCMT:dllcrt0.obj
 0002:0000bf50       __pRawDllMain              3004ff50     LIBCMT:dllcrt0.obj
 0002:0000bf54       ??_C@_05KLBDPFGC@e?$CL000?$AA@ 3004ff54     LIBCMT:cvt.obj
 0002:0000bfc8       ??_C@_03MGHMBJCF@log?$AA@  3004ffc8     LIBCMT:libm_error.obj
 0002:0000bfcc       ??_C@_05HGHHAHAP@log10?$AA@ 3004ffcc     LIBCMT:libm_error.obj
 0002:0000bfd4       ??_C@_03KHJOGHMM@exp?$AA@  3004ffd4     LIBCMT:libm_error.obj
 0002:0000bfd8       ??_C@_03JGHBODFD@pow?$AA@  3004ffd8     LIBCMT:libm_error.obj
 0002:0000bfdc       ??_C@_04FIHNOPOL@asin?$AA@ 3004ffdc     LIBCMT:libm_error.obj
 0002:0000bfe4       ??_C@_04PDIFKINK@acos?$AA@ 3004ffe4     LIBCMT:libm_error.obj
 0002:0000bfec       ??_C@_05EOHGHCHD@exp10?$AA@ 3004ffec     LIBCMT:libm_error.obj
 0002:0000bff4       ??_C@_04MLLJIGOK@atan?$AA@ 3004fff4     LIBCMT:libm_error.obj
 0002:0000bffc       ??_C@_04GFPJNGEK@ceil?$AA@ 3004fffc     LIBCMT:libm_error.obj
 0002:0000c004       ??_C@_05PBJFFIGL@floor?$AA@ 30050004     LIBCMT:libm_error.obj
 0002:0000c00c       ??_C@_04EHEDPDJG@modf?$AA@ 3005000c     LIBCMT:libm_error.obj
 0002:0000c014       ??_C@_03BLEJJJBH@sin?$AA@  30050014     LIBCMT:libm_error.obj
 0002:0000c018       ??_C@_03LALBNOCG@cos?$AA@  30050018     LIBCMT:libm_error.obj
 0002:0000c01c       ??_C@_03IIINPABG@tan?$AA@  3005001c     LIBCMT:libm_error.obj
 0002:0000c020       ??_C@_04EIAKFFMI@sqrt?$AA@ 30050020     LIBCMT:libm_error.obj
 0002:0000c028       ??_C@_1BK@MGMFAEKH@?$AAk?$AAe?$AAr?$AAn?$AAe?$AAl?$AA3?$AA2?$AA?4?$AAd?$AAl?$AAl?$AA?$AA@ 30050028     LIBCMT:winapisupp.obj
 0002:0000c044       ??_C@_08KNHFBNJ@FlsAlloc?$AA@ 30050044     LIBCMT:winapisupp.obj
 0002:0000c050       ??_C@_07PEJMOBNF@FlsFree?$AA@ 30050050     LIBCMT:winapisupp.obj
 0002:0000c058       ??_C@_0M@GDNOONDI@FlsGetValue?$AA@ 30050058     LIBCMT:winapisupp.obj
 0002:0000c064       ??_C@_0M@JCPCPOEF@FlsSetValue?$AA@ 30050064     LIBCMT:winapisupp.obj
 0002:0000c070       ??_C@_0BM@HCFOFFN@InitializeCriticalSectionEx?$AA@ 30050070     LIBCMT:winapisupp.obj
 0002:0000c08c       ??_C@_0BD@KIEEOEEH@CreateSemaphoreExW?$AA@ 3005008c     LIBCMT:winapisupp.obj
 0002:0000c0a0       ??_C@_0BI@BKLFFAPO@SetThreadStackGuarantee?$AA@ 300500a0     LIBCMT:winapisupp.obj
 0002:0000c0b8       ??_C@_0BG@OGFAJCKC@CreateThreadpoolTimer?$AA@ 300500b8     LIBCMT:winapisupp.obj
 0002:0000c0d0       ??_C@_0BD@LPLEMMDI@SetThreadpoolTimer?$AA@ 300500d0     LIBCMT:winapisupp.obj
 0002:0000c0e4       ??_C@_0CA@FMNJENH@WaitForThreadpoolTimerCallbacks?$AA@ 300500e4     LIBCMT:winapisupp.obj
 0002:0000c104       ??_C@_0BF@DCFCCNOC@CloseThreadpoolTimer?$AA@ 30050104     LIBCMT:winapisupp.obj
 0002:0000c11c       ??_C@_0BF@FLABGKKM@CreateThreadpoolWait?$AA@ 3005011c     LIBCMT:winapisupp.obj
 0002:0000c134       ??_C@_0BC@MGCOHNA@SetThreadpoolWait?$AA@ 30050134     LIBCMT:winapisupp.obj
 0002:0000c148       ??_C@_0BE@OCIOMIMP@CloseThreadpoolWait?$AA@ 30050148     LIBCMT:winapisupp.obj
 0002:0000c15c       ??_C@_0BJ@LKGHFHBO@FlushProcessWriteBuffers?$AA@ 3005015c     LIBCMT:winapisupp.obj
 0002:0000c178       ??_C@_0BP@KALKKPMO@FreeLibraryWhenCallbackReturns?$AA@ 30050178     LIBCMT:winapisupp.obj
 0002:0000c198       ??_C@_0BK@DFNBACLA@GetCurrentProcessorNumber?$AA@ 30050198     LIBCMT:winapisupp.obj
 0002:0000c1b4       ??_C@_0BP@KHGALBC@GetLogicalProcessorInformation?$AA@ 300501b4     LIBCMT:winapisupp.obj
 0002:0000c1d4       ??_C@_0BE@FKKLLFLM@CreateSymbolicLinkW?$AA@ 300501d4     LIBCMT:winapisupp.obj
 0002:0000c1e8       ??_C@_0BJ@OHNKDLIJ@SetDefaultDllDirectories?$AA@ 300501e8     LIBCMT:winapisupp.obj
 0002:0000c204       ??_C@_0BE@LJANKFHF@EnumSystemLocalesEx?$AA@ 30050204     LIBCMT:winapisupp.obj
 0002:0000c218       ??_C@_0BA@IHGNDAEB@CompareStringEx?$AA@ 30050218     LIBCMT:winapisupp.obj
 0002:0000c228       ??_C@_0BA@EPCJIIPD@GetDateFormatEx?$AA@ 30050228     LIBCMT:winapisupp.obj
 0002:0000c238       ??_C@_0BA@ONOKGCMP@GetLocaleInfoEx?$AA@ 30050238     LIBCMT:winapisupp.obj
 0002:0000c248       ??_C@_0BA@CIJJKCJJ@GetTimeFormatEx?$AA@ 30050248     LIBCMT:winapisupp.obj
 0002:0000c258       ??_C@_0BJ@PBCCBIPI@GetUserDefaultLocaleName?$AA@ 30050258     LIBCMT:winapisupp.obj
 0002:0000c274       ??_C@_0BC@CELBKLLA@IsValidLocaleName?$AA@ 30050274     LIBCMT:winapisupp.obj
 0002:0000c288       ??_C@_0O@KKBNKAPF@LCMapStringEx?$AA@ 30050288     LIBCMT:winapisupp.obj
 0002:0000c298       ??_C@_0BE@JOGNEJCI@GetCurrentPackageId?$AA@ 30050298     LIBCMT:winapisupp.obj
 0002:0000c2bc       ??_C@_1M@HPNHIDJI@?$AAj?$AAa?$AA?9?$AAJ?$AAP?$AA?$AA@ 300502bc     LIBCMT:mbctype.obj
 0002:0000c2c8       ??_C@_1M@BIBDDEMK@?$AAz?$AAh?$AA?9?$AAC?$AAN?$AA?$AA@ 300502c8     LIBCMT:mbctype.obj
 0002:0000c2d4       ??_C@_1M@JLOOOEGK@?$AAk?$AAo?$AA?9?$AAK?$AAR?$AA?$AA@ 300502d4     LIBCMT:mbctype.obj
 0002:0000c2e0       ??_C@_1M@CLNBBOPM@?$AAz?$AAh?$AA?9?$AAT?$AAW?$AA?$AA@ 300502e0     LIBCMT:mbctype.obj
 0002:0000c2ec       ??_C@_03KOEHGMDN@Sun?$AA@  300502ec     LIBCMT:nlsdata.obj
 0002:0000c2f0       ??_C@_03PDAGKDH@Mon?$AA@   300502f0     LIBCMT:nlsdata.obj
 0002:0000c2f4       ??_C@_03NAGEINEP@Tue?$AA@  300502f4     LIBCMT:nlsdata.obj
 0002:0000c2f8       ??_C@_03MHOMLAJA@Wed?$AA@  300502f8     LIBCMT:nlsdata.obj
 0002:0000c2fc       ??_C@_03IOFIKPDN@Thu?$AA@  300502fc     LIBCMT:nlsdata.obj
 0002:0000c300       ??_C@_03IDIOELNC@Fri?$AA@  30050300     LIBCMT:nlsdata.obj
 0002:0000c304       ??_C@_03FEFJNEK@Sat?$AA@   30050304     LIBCMT:nlsdata.obj
 0002:0000c308       ??_C@_06OOPIFAJ@Sunday?$AA@ 30050308     LIBCMT:nlsdata.obj
 0002:0000c310       ??_C@_06JLEDEDGH@Monday?$AA@ 30050310     LIBCMT:nlsdata.obj
 0002:0000c318       ??_C@_07BAAGCFCM@Tuesday?$AA@ 30050318     LIBCMT:nlsdata.obj
 0002:0000c320       ??_C@_09DLIGFAKA@Wednesday?$AA@ 30050320     LIBCMT:nlsdata.obj
 0002:0000c32c       ??_C@_08HACCIKIA@Thursday?$AA@ 3005032c     LIBCMT:nlsdata.obj
 0002:0000c338       ??_C@_06JECMNKMI@Friday?$AA@ 30050338     LIBCMT:nlsdata.obj
 0002:0000c340       ??_C@_08INBOOONO@Saturday?$AA@ 30050340     LIBCMT:nlsdata.obj
 0002:0000c34c       ??_C@_03JIHJHPIE@Jan?$AA@  3005034c     LIBCMT:nlsdata.obj
 0002:0000c350       ??_C@_03HJBDCHOM@Feb?$AA@  30050350     LIBCMT:nlsdata.obj
 0002:0000c354       ??_C@_03ODNJBKGA@Mar?$AA@  30050354     LIBCMT:nlsdata.obj
 0002:0000c358       ??_C@_03LEOLGMJP@Apr?$AA@  30050358     LIBCMT:nlsdata.obj
 0002:0000c35c       ??_C@_03CNMDKL@May?$AA@    3005035c     LIBCMT:nlsdata.obj
 0002:0000c360       ??_C@_03IDFGHECI@Jun?$AA@  30050360     LIBCMT:nlsdata.obj
 0002:0000c364       ??_C@_03LBGABGKK@Jul?$AA@  30050364     LIBCMT:nlsdata.obj
 0002:0000c368       ??_C@_03IFJFEIGA@Aug?$AA@  30050368     LIBCMT:nlsdata.obj
 0002:0000c36c       ??_C@_03GGCAPAJC@Sep?$AA@  3005036c     LIBCMT:nlsdata.obj
 0002:0000c370       ??_C@_03BMAOKBAD@Oct?$AA@  30050370     LIBCMT:nlsdata.obj
 0002:0000c374       ??_C@_03JPJOFNIA@Nov?$AA@  30050374     LIBCMT:nlsdata.obj
 0002:0000c378       ??_C@_03MKABNOCG@Dec?$AA@  30050378     LIBCMT:nlsdata.obj
 0002:0000c37c       ??_C@_07CGJPFGJA@January?$AA@ 3005037c     LIBCMT:nlsdata.obj
 0002:0000c384       ??_C@_08GNJGEPFN@February?$AA@ 30050384     LIBCMT:nlsdata.obj
 0002:0000c390       ??_C@_05HPCKOFNC@March?$AA@ 30050390     LIBCMT:nlsdata.obj
 0002:0000c398       ??_C@_05DMJDNLEJ@April?$AA@ 30050398     LIBCMT:nlsdata.obj
 0002:0000c3a0       ??_C@_04CNLMGBGM@June?$AA@ 300503a0     LIBCMT:nlsdata.obj
 0002:0000c3a8       ??_C@_04MIEPOIFP@July?$AA@ 300503a8     LIBCMT:nlsdata.obj
 0002:0000c3b0       ??_C@_06LBBHFDDG@August?$AA@ 300503b0     LIBCMT:nlsdata.obj
 0002:0000c3b8       ??_C@_09BHHEALKD@September?$AA@ 300503b8     LIBCMT:nlsdata.obj
 0002:0000c3c4       ??_C@_07JJNFCEND@October?$AA@ 300503c4     LIBCMT:nlsdata.obj
 0002:0000c3cc       ??_C@_08HCHEGEOA@November?$AA@ 300503cc     LIBCMT:nlsdata.obj
 0002:0000c3d8       ??_C@_08EDHMEBNP@December?$AA@ 300503d8     LIBCMT:nlsdata.obj
 0002:0000c3e4       ??_C@_02DEDBPAFC@AM?$AA@   300503e4     LIBCMT:nlsdata.obj
 0002:0000c3e8       ??_C@_02CJNFDJBF@PM?$AA@   300503e8     LIBCMT:nlsdata.obj
 0002:0000c3ec       ??_C@_08BPBNCDIB@MM?1dd?1yy?$AA@ 300503ec     LIBCMT:nlsdata.obj
 0002:0000c3f8       ??_C@_0BE@CKGJFCPC@dddd?0?5MMMM?5dd?0?5yyyy?$AA@ 300503f8     LIBCMT:nlsdata.obj
 0002:0000c40c       ??_C@_08JCCMCCIL@HH?3mm?3ss?$AA@ 3005040c     LIBCMT:nlsdata.obj
 0002:0000c418       ??_C@_17MBGCMIPB@?$AAS?$AAu?$AAn?$AA?$AA@ 30050418     LIBCMT:nlsdata.obj
 0002:0000c420       ??_C@_17KBOMKBF@?$AAM?$AAo?$AAn?$AA?$AA@ 30050420     LIBCMT:nlsdata.obj
 0002:0000c428       ??_C@_17BMKGEGOJ@?$AAT?$AAu?$AAe?$AA?$AA@ 30050428     LIBCMT:nlsdata.obj
 0002:0000c430       ??_C@_17CJEDCEPE@?$AAW?$AAe?$AAd?$AA?$AA@ 30050430     LIBCMT:nlsdata.obj
 0002:0000c438       ??_C@_17PDPHAADD@?$AAT?$AAh?$AAu?$AA?$AA@ 30050438     LIBCMT:nlsdata.obj
 0002:0000c440       ??_C@_17HFOLPPLP@?$AAF?$AAr?$AAi?$AA?$AA@ 30050440     LIBCMT:nlsdata.obj
 0002:0000c448       ??_C@_17GGIBDPIH@?$AAS?$AAa?$AAt?$AA?$AA@ 30050448     LIBCMT:nlsdata.obj
 0002:0000c450       ??_C@_1O@IHNHDHPB@?$AAS?$AAu?$AAn?$AAd?$AAa?$AAy?$AA?$AA@ 30050450     LIBCMT:nlsdata.obj
 0002:0000c460       ??_C@_1O@MMNBFLIA@?$AAM?$AAo?$AAn?$AAd?$AAa?$AAy?$AA?$AA@ 30050460     LIBCMT:nlsdata.obj
 0002:0000c470       ??_C@_1BA@ENFBFFEK@?$AAT?$AAu?$AAe?$AAs?$AAd?$AAa?$AAy?$AA?$AA@ 30050470     LIBCMT:nlsdata.obj
 0002:0000c480       ??_C@_1BE@EBOGMDOH@?$AAW?$AAe?$AAd?$AAn?$AAe?$AAs?$AAd?$AAa?$AAy?$AA?$AA@ 30050480     LIBCMT:nlsdata.obj
 0002:0000c494       ??_C@_1BC@HHMNLIHE@?$AAT?$AAh?$AAu?$AAr?$AAs?$AAd?$AAa?$AAy?$AA?$AA@ 30050494     LIBCMT:nlsdata.obj
 0002:0000c4a8       ??_C@_1O@PDICJHAG@?$AAF?$AAr?$AAi?$AAd?$AAa?$AAy?$AA?$AA@ 300504a8     LIBCMT:nlsdata.obj
 0002:0000c4b8       ??_C@_1BC@ENMNNPAJ@?$AAS?$AAa?$AAt?$AAu?$AAr?$AAd?$AAa?$AAy?$AA?$AA@ 300504b8     LIBCMT:nlsdata.obj
 0002:0000c4cc       ??_C@_17DKNBKCHM@?$AAJ?$AAa?$AAn?$AA?$AA@ 300504cc     LIBCMT:nlsdata.obj
 0002:0000c4d4       ??_C@_17LMDJEKJN@?$AAF?$AAe?$AAb?$AA?$AA@ 300504d4     LIBCMT:nlsdata.obj
 0002:0000c4dc       ??_C@_17CKNLEDEC@?$AAM?$AAa?$AAr?$AA?$AA@ 300504dc     LIBCMT:nlsdata.obj
 0002:0000c4e4       ??_C@_17LFPOIHDD@?$AAA?$AAp?$AAr?$AA?$AA@ 300504e4     LIBCMT:nlsdata.obj
 0002:0000c4ec       ??_C@_17PNNKMEED@?$AAM?$AAa?$AAy?$AA?$AA@ 300504ec     LIBCMT:nlsdata.obj
 0002:0000c4f4       ??_C@_17KCJGOCPB@?$AAJ?$AAu?$AAn?$AA?$AA@ 300504f4     LIBCMT:nlsdata.obj
 0002:0000c4fc       ??_C@_17IJPCKHK@?$AAJ?$AAu?$AAl?$AA?$AA@ 300504fc     LIBCMT:nlsdata.obj
 0002:0000c504       ??_C@_17ICPELBCN@?$AAA?$AAu?$AAg?$AA?$AA@ 30050504     LIBCMT:nlsdata.obj
 0002:0000c50c       ??_C@_17HCHCOKMG@?$AAS?$AAe?$AAp?$AA?$AA@ 3005050c     LIBCMT:nlsdata.obj
 0002:0000c514       ??_C@_17FNLKOI@?$AAO?$AAc?$AAt?$AA?$AA@ 30050514     LIBCMT:nlsdata.obj
 0002:0000c51c       ??_C@_17BBDMLCIG@?$AAN?$AAo?$AAv?$AA?$AA@ 3005051c     LIBCMT:nlsdata.obj
 0002:0000c524       ??_C@_17EGKACKIF@?$AAD?$AAe?$AAc?$AA?$AA@ 30050524     LIBCMT:nlsdata.obj
 0002:0000c52c       ??_C@_1BA@EFMEIEBA@?$AAJ?$AAa?$AAn?$AAu?$AAa?$AAr?$AAy?$AA?$AA@ 3005052c     LIBCMT:nlsdata.obj
 0002:0000c53c       ??_C@_1BC@JGDDFFAM@?$AAF?$AAe?$AAb?$AAr?$AAu?$AAa?$AAr?$AAy?$AA?$AA@ 3005053c     LIBCMT:nlsdata.obj
 0002:0000c550       ??_C@_1M@IKEENEDF@?$AAM?$AAa?$AAr?$AAc?$AAh?$AA?$AA@ 30050550     LIBCMT:nlsdata.obj
 0002:0000c55c       ??_C@_1M@GJNLMHFD@?$AAA?$AAp?$AAr?$AAi?$AAl?$AA?$AA@ 3005055c     LIBCMT:nlsdata.obj
 0002:0000c568       ??_C@_19EPFLPGAP@?$AAJ?$AAu?$AAn?$AAe?$AA?$AA@ 30050568     LIBCMT:nlsdata.obj
 0002:0000c574       ??_C@_19BIFMLPCD@?$AAJ?$AAu?$AAl?$AAy?$AA?$AA@ 30050574     LIBCMT:nlsdata.obj
 0002:0000c580       ??_C@_1O@PAHLKOAC@?$AAA?$AAu?$AAg?$AAu?$AAs?$AAt?$AA?$AA@ 30050580     LIBCMT:nlsdata.obj
 0002:0000c590       ??_C@_1BE@DKAAMBJL@?$AAS?$AAe?$AAp?$AAt?$AAe?$AAm?$AAb?$AAe?$AAr?$AA?$AA@ 30050590     LIBCMT:nlsdata.obj
 0002:0000c5a4       ??_C@_1BA@EPANDLNG@?$AAO?$AAc?$AAt?$AAo?$AAb?$AAe?$AAr?$AA?$AA@ 300505a4     LIBCMT:nlsdata.obj
 0002:0000c5b4       ??_C@_1BC@BGLIFPF@?$AAN?$AAo?$AAv?$AAe?$AAm?$AAb?$AAe?$AAr?$AA?$AA@ 300505b4     LIBCMT:nlsdata.obj
 0002:0000c5c8       ??_C@_1BC@FEMKIFH@?$AAD?$AAe?$AAc?$AAe?$AAm?$AAb?$AAe?$AAr?$AA?$AA@ 300505c8     LIBCMT:nlsdata.obj
 0002:0000c5dc       ??_C@_15ODEHAHHF@?$AAA?$AAM?$AA?$AA@ 300505dc     LIBCMT:nlsdata.obj
 0002:0000c5e4       ??_C@_15CLMNNGEL@?$AAP?$AAM?$AA?$AA@ 300505e4     LIBCMT:nlsdata.obj
 0002:0000c5ec       ??_C@_1BC@IEBCMHCM@?$AAM?$AAM?$AA?1?$AAd?$AAd?$AA?1?$AAy?$AAy?$AA?$AA@ 300505ec     LIBCMT:nlsdata.obj
 0002:0000c600       ??_C@_1CI@KNAKOEBC@?$AAd?$AAd?$AAd?$AAd?$AA?0?$AA?5?$AAM?$AAM?$AAM?$AAM?$AA?5?$AAd?$AAd?$AA?0?$AA?5?$AAy?$AAy?$AAy?$AAy?$AA?$AA@ 30050600     LIBCMT:nlsdata.obj
 0002:0000c628       ??_C@_1BC@GDGBMEMK@?$AAH?$AAH?$AA?3?$AAm?$AAm?$AA?3?$AAs?$AAs?$AA?$AA@ 30050628     LIBCMT:nlsdata.obj
 0002:0000c63c       ??_C@_1M@BMHNFIME@?$AAe?$AAn?$AA?9?$AAU?$AAS?$AA?$AA@ 3005063c     LIBCMT:nlsdata.obj
 0002:0000c648       ??_C@_06OJHGLDPL@?$CInull?$CJ?$AA@ 30050648     LIBCMT:output.obj
 0002:0000c650       ??_C@_1O@CEDCILHN@?$AA?$CI?$AAn?$AAu?$AAl?$AAl?$AA?$CJ?$AA?$AA@ 30050650     LIBCMT:output.obj
 0002:0000c660       ___lookuptable             30050660     LIBCMT:output.obj
 0002:0000c6c0       __OP_ATAN2jmptab           300506c0     LIBCMT:87triga.obj
 0002:0000c7c0       __XcptActTab               300507c0     LIBCMT:winxfltr.obj
 0002:0000c850       __XcptActTabCount          30050850     LIBCMT:winxfltr.obj
 0002:0000c854       __XcptActTabSize           30050854     LIBCMT:winxfltr.obj
 0002:0000c858       __First_FPE_Indx           30050858     LIBCMT:winxfltr.obj
 0002:0000c85c       __Num_FPE                  3005085c     LIBCMT:winxfltr.obj
 0002:0000c860       ??_C@_1BI@BGOHAHKC@?$AAm?$AAs?$AAc?$AAo?$AAr?$AAe?$AAe?$AA?4?$AAd?$AAl?$AAl?$AA?$AA@ 30050860     LIBCMT:crt0dat.obj
 0002:0000c878       ??_C@_0P@MIGLKIOC@CorExitProcess?$AA@ 30050878     LIBCMT:crt0dat.obj
 0002:0000d140       __indefinite               30051140     LIBCMT:87disp.obj
 0002:0000d14a       __piby2                    3005114a     LIBCMT:87disp.obj
 0002:0000d178       __DEFAULT_CW_in_mem        30051178     LIBCMT:common.obj
 0002:0000d17a       __pi_by_2_to_61            3005117a     LIBCMT:common.obj
 0002:0000f280       ___newctype                30053280     LIBCMT:ctype.obj
 0002:0000f580       __wctype                   30053580     LIBCMT:ctype.obj
 0002:0000f788       ___newclmap                30053788     LIBCMT:ctype.obj
 0002:0000f908       ___newcumap                30053908     LIBCMT:ctype.obj
 0002:0000fa88       ___lookuptable_s           30053a88     LIBCMT:outputs.obj
 0002:0000fae4       ??_C@_04COOMCNPB@sinh?$AA@ 30053ae4     LIBCMT:fpexcept.obj
 0002:0000faec       ??_C@_04HPJJNFIM@cosh?$AA@ 30053aec     LIBCMT:fpexcept.obj
 0002:0000faf4       ??_C@_04FJHINJAO@tanh?$AA@ 30053af4     LIBCMT:fpexcept.obj
 0002:0000fafc       ??_C@_05KNGEOGJB@atan2?$AA@ 30053afc     LIBCMT:fpexcept.obj
 0002:0000fb04       ??_C@_04ODHECPBC@fabs?$AA@ 30053b04     LIBCMT:fpexcept.obj
 0002:0000fb0c       ??_C@_05CEJMAHNP@ldexp?$AA@ 30053b0c     LIBCMT:fpexcept.obj
 0002:0000fb14       ??_C@_05KBKMEMPO@_cabs?$AA@ 30053b14     LIBCMT:fpexcept.obj
 0002:0000fb1c       ??_C@_06MEIMCGCF@_hypot?$AA@ 30053b1c     LIBCMT:fpexcept.obj
 0002:0000fb24       ??_C@_04KEPJIHGP@fmod?$AA@ 30053b24     LIBCMT:fpexcept.obj
 0002:0000fb2c       ??_C@_05GKKHEGJL@frexp?$AA@ 30053b2c     LIBCMT:fpexcept.obj
 0002:0000fb34       ??_C@_03MJLDFKDL@_y0?$AA@  30053b34     LIBCMT:fpexcept.obj
 0002:0000fb38       ??_C@_03NAKIGLHK@_y1?$AA@  30053b38     LIBCMT:fpexcept.obj
 0002:0000fb3c       ??_C@_03ONILCKOB@_yn?$AA@  30053b3c     LIBCMT:fpexcept.obj
 0002:0000fb40       ??_C@_05JGDBENOH@_logb?$AA@ 30053b40     LIBCMT:fpexcept.obj
 0002:0000fb48       ??_C@_0L@KDOEJCKC@_nextafter?$AA@ 30053b48     LIBCMT:fpexcept.obj
 0002:00011200       _LcidToLocaleNameTable     30055200     LIBCMT:winapinls.obj
 0002:00011920       _LocaleNameToIndexTable    30055920     LIBCMT:winapinls.obj
 0002:00012040       ??_C@_15EMKDOKLE@?$AAa?$AAr?$AA?$AA@ 30056040     LIBCMT:winapinls.obj
 0002:00012048       ??_C@_15KNPADPLH@?$AAb?$AAg?$AA?$AA@ 30056048     LIBCMT:winapinls.obj
 0002:00012050       ??_C@_15EDMHLDMO@?$AAc?$AAa?$AA?$AA@ 30056050     LIBCMT:winapinls.obj
 0002:00012058       ??_C@_1O@BPEAJADD@?$AAz?$AAh?$AA?9?$AAC?$AAH?$AAS?$AA?$AA@ 30056058     LIBCMT:winapinls.obj
 0002:00012068       ??_C@_15LJNHCMNK@?$AAc?$AAs?$AA?$AA@ 30056068     LIBCMT:winapinls.obj
 0002:00012070       ??_C@_15FOMCIDHG@?$AAd?$AAa?$AA?$AA@ 30056070     LIBCMT:winapinls.obj
 0002:00012078       ??_C@_15NBKABECB@?$AAd?$AAe?$AA?$AA@ 30056078     LIBCMT:winapinls.obj
 0002:00012080       ??_C@_15GHPEIIAO@?$AAe?$AAl?$AA?$AA@ 30056080     LIBCMT:winapinls.obj
 0002:00012088       ??_C@_15MNPNEAIF@?$AAe?$AAn?$AA?$AA@ 30056088     LIBCMT:winapinls.obj
 0002:00012090       ??_C@_15GPIOMPMH@?$AAe?$AAs?$AA?$AA@ 30056090     LIBCMT:winapinls.obj
 0002:00012098       ??_C@_15NGLOAKJC@?$AAf?$AAi?$AA?$AA@ 30056098     LIBCMT:winapinls.obj
 0002:000120a0       ??_C@_15FBKGNKAM@?$AAf?$AAr?$AA?$AA@ 300560a0     LIBCMT:winapinls.obj
 0002:000120a8       ??_C@_15KGGCNEFK@?$AAh?$AAe?$AA?$AA@ 300560a8     LIBCMT:winapinls.obj
 0002:000120b0       ??_C@_15PGHLIDMF@?$AAh?$AAu?$AA?$AA@ 300560b0     LIBCMT:winapinls.obj
 0002:000120b8       ??_C@_15BIEMAPLM@?$AAi?$AAs?$AA?$AA@ 300560b8     LIBCMT:winapinls.obj
 0002:000120c0       ??_C@_15IFJLDHAF@?$AAi?$AAt?$AA?$AA@ 300560c0     LIBCMT:winapinls.obj
 0002:000120c8       ??_C@_15GEMIOCAG@?$AAj?$AAa?$AA?$AA@ 300560c8     LIBCMT:winapinls.obj
 0002:000120d0       ??_C@_15EPELEGJA@?$AAk?$AAo?$AA?$AA@ 300560d0     LIBCMT:winapinls.obj
 0002:000120d8       ??_C@_15NDDHIMN@?$AAn?$AAl?$AA?$AA@ 300560d8     LIBCMT:winapinls.obj
 0002:000120e0       ??_C@_15BPIGNHCD@?$AAn?$AAo?$AA?$AA@ 300560e0     LIBCMT:winapinls.obj
 0002:000120e8       ??_C@_15DEOPBLCG@?$AAp?$AAl?$AA?$AA@ 300560e8     LIBCMT:winapinls.obj
 0002:000120f0       ??_C@_15KBECGEFG@?$AAp?$AAt?$AA?$AA@ 300560f0     LIBCMT:winapinls.obj
 0002:000120f8       ??_C@_15GLJCBFMD@?$AAr?$AAo?$AA?$AA@ 300560f8     LIBCMT:winapinls.obj
 0002:00012100       ??_C@_15FEDGKCDI@?$AAr?$AAu?$AA?$AA@ 30056100     LIBCMT:winapinls.obj
 0002:00012108       ??_C@_15GLKMLLHM@?$AAh?$AAr?$AA?$AA@ 30056108     LIBCMT:winapinls.obj
 0002:00012110       ??_C@_15CPKMFBDB@?$AAs?$AAk?$AA?$AA@ 30056110     LIBCMT:winapinls.obj
 0002:00012118       ??_C@_15BAAIOGMK@?$AAs?$AAq?$AA?$AA@ 30056118     LIBCMT:winapinls.obj
 0002:00012120       ??_C@_15INNPNOHD@?$AAs?$AAv?$AA?$AA@ 30056120     LIBCMT:winapinls.obj
 0002:00012128       ??_C@_15CABMMOGH@?$AAt?$AAh?$AA?$AA@ 30056128     LIBCMT:winapinls.obj
 0002:00012130       ??_C@_15BPLIHJJM@?$AAt?$AAr?$AA?$AA@ 30056130     LIBCMT:winapinls.obj
 0002:00012138       ??_C@_15NEOEKKDJ@?$AAu?$AAr?$AA?$AA@ 30056138     LIBCMT:winapinls.obj
 0002:00012140       ??_C@_15NFICGAJK@?$AAi?$AAd?$AA?$AA@ 30056140     LIBCMT:winapinls.obj
 0002:00012148       ??_C@_15PJPFLCCM@?$AAu?$AAk?$AA?$AA@ 30056148     LIBCMT:winapinls.obj
 0002:00012150       ??_C@_15HPJPHDM@?$AAb?$AAe?$AA?$AA@ 30056150     LIBCMT:winapinls.obj
 0002:00012158       ??_C@_15LCHLGJII@?$AAs?$AAl?$AA?$AA@ 30056158     LIBCMT:winapinls.obj
 0002:00012160       ??_C@_15PCFJPHHO@?$AAe?$AAt?$AA?$AA@ 30056160     LIBCMT:winapinls.obj
 0002:00012168       ??_C@_15HPFPGODN@?$AAl?$AAv?$AA?$AA@ 30056168     LIBCMT:winapinls.obj
 0002:00012170       ??_C@_15NFFGKGLG@?$AAl?$AAt?$AA?$AA@ 30056170     LIBCMT:winapinls.obj
 0002:00012178       ??_C@_15BDAKCCHN@?$AAf?$AAa?$AA?$AA@ 30056178     LIBCMT:winapinls.obj
 0002:00012180       ??_C@_15NFGIAIAJ@?$AAv?$AAi?$AA?$AA@ 30056180     LIBCMT:winapinls.obj
 0002:00012188       ??_C@_15LMKNDMHN@?$AAh?$AAy?$AA?$AA@ 30056188     LIBCMT:winapinls.obj
 0002:00012190       ??_C@_15IJBHMCFL@?$AAa?$AAz?$AA?$AA@ 30056190     LIBCMT:winapinls.obj
 0002:00012198       ??_C@_15EKOFJABL@?$AAe?$AAu?$AA?$AA@ 30056198     LIBCMT:winapinls.obj
 0002:000121a0       ??_C@_15BGHADCNK@?$AAm?$AAk?$AA?$AA@ 300561a0     LIBCMT:winapinls.obj
 0002:000121a8       ??_C@_15JDNICKHM@?$AAa?$AAf?$AA?$AA@ 300561a8     LIBCMT:winapinls.obj
 0002:000121b0       ??_C@_15KPJEDBKD@?$AAk?$AAa?$AA?$AA@ 300561b0     LIBCMT:winapinls.obj
 0002:000121b8       ??_C@_15PDNFFFEO@?$AAf?$AAo?$AA?$AA@ 300561b8     LIBCMT:winapinls.obj
 0002:000121c0       ??_C@_15OMLEGLOC@?$AAh?$AAi?$AA?$AA@ 300561c0     LIBCMT:winapinls.obj
 0002:000121c8       ??_C@_15IDNNENKK@?$AAm?$AAs?$AA?$AA@ 300561c8     LIBCMT:winapinls.obj
 0002:000121d0       ??_C@_15MACJNBMH@?$AAk?$AAk?$AA?$AA@ 300561d0     LIBCMT:winapinls.obj
 0002:000121d8       ??_C@_15DKDJEOND@?$AAk?$AAy?$AA?$AA@ 300561d8     LIBCMT:winapinls.obj
 0002:000121e0       ??_C@_15DFGDLJBG@?$AAs?$AAw?$AA?$AA@ 300561e0     LIBCMT:winapinls.obj
 0002:000121e8       ??_C@_15BBFAICNG@?$AAu?$AAz?$AA?$AA@ 300561e8     LIBCMT:winapinls.obj
 0002:000121f0       ??_C@_15DKNDCGEA@?$AAt?$AAt?$AA?$AA@ 300561f0     LIBCMT:winapinls.obj
 0002:000121f8       ??_C@_15MGIFMDPL@?$AAp?$AAa?$AA?$AA@ 300561f8     LIBCMT:winapinls.obj
 0002:00012200       ??_C@_15HCNDBBA@?$AAg?$AAu?$AA?$AA@ 30056200     LIBCMT:winapinls.obj
 0002:00012208       ??_C@_15FNBEIBON@?$AAt?$AAa?$AA?$AA@ 30056208     LIBCMT:winapinls.obj
 0002:00012210       ??_C@_15NCHGBGLK@?$AAt?$AAe?$AA?$AA@ 30056210     LIBCMT:winapinls.obj
 0002:00012218       ??_C@_15PHPHCBPF@?$AAk?$AAn?$AA?$AA@ 30056218     LIBCMT:winapinls.obj
 0002:00012220       ??_C@_15DLGBCKMP@?$AAm?$AAr?$AA?$AA@ 30056220     LIBCMT:winapinls.obj
 0002:00012228       ??_C@_15EABBLBFF@?$AAs?$AAa?$AA?$AA@ 30056228     LIBCMT:winapinls.obj
 0002:00012230       ??_C@_15CBKOMCOI@?$AAm?$AAn?$AA?$AA@ 30056230     LIBCMT:winapinls.obj
 0002:00012238       ??_C@_15CKDMCJAF@?$AAg?$AAl?$AA?$AA@ 30056238     LIBCMT:winapinls.obj
 0002:00012240       ??_C@_17CNJFBPG@?$AAk?$AAo?$AAk?$AA?$AA@ 30056240     LIBCMT:winapinls.obj
 0002:00012248       ??_C@_17FFBJICPL@?$AAs?$AAy?$AAr?$AA?$AA@ 30056248     LIBCMT:winapinls.obj
 0002:00012250       ??_C@_17KPNDCPAF@?$AAd?$AAi?$AAv?$AA?$AA@ 30056250     LIBCMT:winapinls.obj
 0002:00012258       ??_C@_11LOCGONAA@?$AA?$AA@ 30056258     LIBCMT:winapinls.obj
 0002:0001225c       ??_C@_1M@OKAHONE@?$AAa?$AAr?$AA?9?$AAS?$AAA?$AA?$AA@ 3005625c     LIBCMT:winapinls.obj
 0002:00012268       ??_C@_1M@FFFIGIGK@?$AAb?$AAg?$AA?9?$AAB?$AAG?$AA?$AA@ 30056268     LIBCMT:winapinls.obj
 0002:00012274       ??_C@_1M@BJNKEDC@?$AAc?$AAa?$AA?9?$AAE?$AAS?$AA?$AA@ 30056274     LIBCMT:winapinls.obj
 0002:00012280       ??_C@_1M@IJJHFJHA@?$AAc?$AAs?$AA?9?$AAC?$AAZ?$AA?$AA@ 30056280     LIBCMT:winapinls.obj
 0002:0001228c       ??_C@_1M@CLPEOBGI@?$AAd?$AAa?$AA?9?$AAD?$AAK?$AA?$AA@ 3005628c     LIBCMT:winapinls.obj
 0002:00012298       ??_C@_1M@MCMADGCB@?$AAd?$AAe?$AA?9?$AAD?$AAE?$AA?$AA@ 30056298     LIBCMT:winapinls.obj
 0002:000122a4       ??_C@_1M@OOCKEMAM@?$AAe?$AAl?$AA?9?$AAG?$AAR?$AA?$AA@ 300562a4     LIBCMT:winapinls.obj
 0002:000122b0       ??_C@_1M@DDNJFGID@?$AAf?$AAi?$AA?9?$AAF?$AAI?$AA?$AA@ 300562b0     LIBCMT:winapinls.obj
 0002:000122bc       ??_C@_1M@GLIPPMAC@?$AAf?$AAr?$AA?9?$AAF?$AAR?$AA?$AA@ 300562bc     LIBCMT:winapinls.obj
 0002:000122c8       ??_C@_1M@GFMCHPE@?$AAh?$AAe?$AA?9?$AAI?$AAL?$AA?$AA@ 300562c8     LIBCMT:winapinls.obj
 0002:000122d4       ??_C@_1M@MHLPGNKM@?$AAh?$AAu?$AA?9?$AAH?$AAU?$AA?$AA@ 300562d4     LIBCMT:winapinls.obj
 0002:000122e0       ??_C@_1M@LPDDNNPN@?$AAi?$AAs?$AA?9?$AAI?$AAS?$AA?$AA@ 300562e0     LIBCMT:winapinls.obj
 0002:000122ec       ??_C@_1M@MADIPODN@?$AAi?$AAt?$AA?9?$AAI?$AAT?$AA?$AA@ 300562ec     LIBCMT:winapinls.obj
 0002:000122f8       ??_C@_1M@IHBJJGG@?$AAn?$AAl?$AA?9?$AAN?$AAL?$AA?$AA@ 300562f8     LIBCMT:winapinls.obj
 0002:00012304       ??_C@_1M@EANAGDL@?$AAn?$AAb?$AA?9?$AAN?$AAO?$AA?$AA@ 30056304     LIBCMT:winapinls.obj
 0002:00012310       ??_C@_1M@NEIEMEGP@?$AAp?$AAl?$AA?9?$AAP?$AAL?$AA?$AA@ 30056310     LIBCMT:winapinls.obj
 0002:0001231c       ??_C@_1M@BOCFIGEP@?$AAp?$AAt?$AA?9?$AAB?$AAR?$AA?$AA@ 3005631c     LIBCMT:winapinls.obj
 0002:00012328       ??_C@_1M@IMPFOPBG@?$AAr?$AAo?$AA?9?$AAR?$AAO?$AA?$AA@ 30056328     LIBCMT:winapinls.obj
 0002:00012334       ??_C@_1M@IDNNEJMM@?$AAr?$AAu?$AA?9?$AAR?$AAU?$AA?$AA@ 30056334     LIBCMT:winapinls.obj
 0002:00012340       ??_C@_1M@LILEEOGM@?$AAh?$AAr?$AA?9?$AAH?$AAR?$AA?$AA@ 30056340     LIBCMT:winapinls.obj
 0002:0001234c       ??_C@_1M@FKIFEHPB@?$AAs?$AAk?$AA?9?$AAS?$AAK?$AA?$AA@ 3005634c     LIBCMT:winapinls.obj
 0002:00012358       ??_C@_1M@LJMAMNPJ@?$AAs?$AAq?$AA?9?$AAA?$AAL?$AA?$AA@ 30056358     LIBCMT:winapinls.obj
 0002:00012364       ??_C@_1M@GIAKDKJK@?$AAs?$AAv?$AA?9?$AAS?$AAE?$AA?$AA@ 30056364     LIBCMT:winapinls.obj
 0002:00012370       ??_C@_1M@MKJKIKCL@?$AAt?$AAh?$AA?9?$AAT?$AAH?$AA?$AA@ 30056370     LIBCMT:winapinls.obj
 0002:0001237c       ??_C@_1M@MFLCCMPB@?$AAt?$AAr?$AA?9?$AAT?$AAR?$AA?$AA@ 3005637c     LIBCMT:winapinls.obj
 0002:00012388       ??_C@_1M@OIJHDKJN@?$AAu?$AAr?$AA?9?$AAP?$AAK?$AA?$AA@ 30056388     LIBCMT:winapinls.obj
 0002:00012394       ??_C@_1M@LHIPCIEK@?$AAi?$AAd?$AA?9?$AAI?$AAD?$AA?$AA@ 30056394     LIBCMT:winapinls.obj
 0002:000123a0       ??_C@_1M@MFMOBGI@?$AAu?$AAk?$AA?9?$AAU?$AAA?$AA?$AA@ 300563a0     LIBCMT:winapinls.obj
 0002:000123ac       ??_C@_1M@OBGLJIPL@?$AAb?$AAe?$AA?9?$AAB?$AAY?$AA?$AA@ 300563ac     LIBCMT:winapinls.obj
 0002:000123b8       ??_C@_1M@BCFAJEAD@?$AAs?$AAl?$AA?9?$AAS?$AAI?$AA?$AA@ 300563b8     LIBCMT:winapinls.obj
 0002:000123c4       ??_C@_1M@FKFFEDDN@?$AAe?$AAt?$AA?9?$AAE?$AAE?$AA?$AA@ 300563c4     LIBCMT:winapinls.obj
 0002:000123d0       ??_C@_1M@KGKKAACI@?$AAl?$AAv?$AA?9?$AAL?$AAV?$AA?$AA@ 300563d0     LIBCMT:winapinls.obj
 0002:000123dc       ??_C@_1M@IFGBIJO@?$AAl?$AAt?$AA?9?$AAL?$AAT?$AA?$AA@ 300563dc     LIBCMT:winapinls.obj
 0002:000123e8       ??_C@_1M@FGEAHEDM@?$AAf?$AAa?$AA?9?$AAI?$AAR?$AA?$AA@ 300563e8     LIBCMT:winapinls.obj
 0002:000123f4       ??_C@_1M@KBMAIBFN@?$AAv?$AAi?$AA?9?$AAV?$AAN?$AA?$AA@ 300563f4     LIBCMT:winapinls.obj
 0002:00012400       ??_C@_1M@GPCBKDJK@?$AAh?$AAy?$AA?9?$AAA?$AAM?$AA?$AA@ 30056400     LIBCMT:winapinls.obj
 0002:0001240c       ??_C@_1BG@BECMDDJB@?$AAa?$AAz?$AA?9?$AAA?$AAZ?$AA?9?$AAL?$AAa?$AAt?$AAn?$AA?$AA@ 3005640c     LIBCMT:winapinls.obj
 0002:00012424       ??_C@_1M@MAOFCAEA@?$AAe?$AAu?$AA?9?$AAE?$AAS?$AA?$AA@ 30056424     LIBCMT:winapinls.obj
 0002:00012430       ??_C@_1M@IGHABKPI@?$AAm?$AAk?$AA?9?$AAM?$AAK?$AA?$AA@ 30056430     LIBCMT:winapinls.obj
 0002:0001243c       ??_C@_1M@IAIGNEJG@?$AAt?$AAn?$AA?9?$AAZ?$AAA?$AA?$AA@ 3005643c     LIBCMT:winapinls.obj
 0002:00012448       ??_C@_1M@IIJCOJFA@?$AAx?$AAh?$AA?9?$AAZ?$AAA?$AA?$AA@ 30056448     LIBCMT:winapinls.obj
 0002:00012454       ??_C@_1M@LGPJHNJH@?$AAz?$AAu?$AA?9?$AAZ?$AAA?$AA?$AA@ 30056454     LIBCMT:winapinls.obj
 0002:00012460       ??_C@_1M@HOKAOIO@?$AAa?$AAf?$AA?9?$AAZ?$AAA?$AA?$AA@ 30056460     LIBCMT:winapinls.obj
 0002:0001246c       ??_C@_1M@DPCLHLIE@?$AAk?$AAa?$AA?9?$AAG?$AAE?$AA?$AA@ 3005646c     LIBCMT:winapinls.obj
 0002:00012478       ??_C@_1M@BLKMHJBI@?$AAf?$AAo?$AA?9?$AAF?$AAO?$AA?$AA@ 30056478     LIBCMT:winapinls.obj
 0002:00012484       ??_C@_1M@LGGJAPPB@?$AAh?$AAi?$AA?9?$AAI?$AAN?$AA?$AA@ 30056484     LIBCMT:winapinls.obj
 0002:00012490       ??_C@_1M@FIKPIHFE@?$AAm?$AAt?$AA?9?$AAM?$AAT?$AA?$AA@ 30056490     LIBCMT:winapinls.obj
 0002:0001249c       ??_C@_1M@HEGGPBFA@?$AAs?$AAe?$AA?9?$AAN?$AAO?$AA?$AA@ 3005649c     LIBCMT:winapinls.obj
 0002:000124a8       ??_C@_1M@EIBJEEPA@?$AAm?$AAs?$AA?9?$AAM?$AAY?$AA?$AA@ 300564a8     LIBCMT:winapinls.obj
 0002:000124b4       ??_C@_1M@FHLBGMPP@?$AAk?$AAk?$AA?9?$AAK?$AAZ?$AA?$AA@ 300564b4     LIBCMT:winapinls.obj
 0002:000124c0       ??_C@_1M@NGJJLCGI@?$AAk?$AAy?$AA?9?$AAK?$AAG?$AA?$AA@ 300564c0     LIBCMT:winapinls.obj
 0002:000124cc       ??_C@_1M@GIENNBFC@?$AAs?$AAw?$AA?9?$AAK?$AAE?$AA?$AA@ 300564cc     LIBCMT:winapinls.obj
 0002:000124d8       ??_C@_1BG@NDGMJIMJ@?$AAu?$AAz?$AA?9?$AAU?$AAZ?$AA?9?$AAL?$AAa?$AAt?$AAn?$AA?$AA@ 300564d8     LIBCMT:winapinls.obj
 0002:000124f0       ??_C@_1M@IDCCIHBC@?$AAt?$AAt?$AA?9?$AAR?$AAU?$AA?$AA@ 300564f0     LIBCMT:winapinls.obj
 0002:000124fc       ??_C@_1M@LOICPMOJ@?$AAb?$AAn?$AA?9?$AAI?$AAN?$AA?$AA@ 300564fc     LIBCMT:winapinls.obj
 0002:00012508       ??_C@_1M@KPKKNEAH@?$AAp?$AAa?$AA?9?$AAI?$AAN?$AA?$AA@ 30056508     LIBCMT:winapinls.obj
 0002:00012514       ??_C@_1M@PJGPPBOG@?$AAg?$AAu?$AA?9?$AAI?$AAN?$AA?$AA@ 30056514     LIBCMT:winapinls.obj
 0002:00012520       ??_C@_1M@KMKMOPHI@?$AAt?$AAa?$AA?9?$AAI?$AAN?$AA?$AA@ 30056520     LIBCMT:winapinls.obj
 0002:0001252c       ??_C@_1M@KFEHEPAC@?$AAt?$AAe?$AA?9?$AAI?$AAN?$AA?$AA@ 3005652c     LIBCMT:winapinls.obj
 0002:00012538       ??_C@_1M@CDCLMGHI@?$AAk?$AAn?$AA?9?$AAI?$AAN?$AA?$AA@ 30056538     LIBCMT:winapinls.obj
 0002:00012544       ??_C@_1M@MIODLDKF@?$AAm?$AAl?$AA?9?$AAI?$AAN?$AA?$AA@ 30056544     LIBCMT:winapinls.obj
 0002:00012550       ??_C@_1M@PBIEACPO@?$AAm?$AAr?$AA?9?$AAI?$AAN?$AA?$AA@ 30056550     LIBCMT:winapinls.obj
 0002:0001255c       ??_C@_1M@NIDEAGPH@?$AAs?$AAa?$AA?9?$AAI?$AAN?$AA?$AA@ 3005655c     LIBCMT:winapinls.obj
 0002:00012568       ??_C@_1M@FHIHCBIO@?$AAm?$AAn?$AA?9?$AAM?$AAN?$AA?$AA@ 30056568     LIBCMT:winapinls.obj
 0002:00012574       ??_C@_1M@JAIJPENP@?$AAc?$AAy?$AA?9?$AAG?$AAB?$AA?$AA@ 30056574     LIBCMT:winapinls.obj
 0002:00012580       ??_C@_1M@PHGFBEPN@?$AAg?$AAl?$AA?9?$AAE?$AAS?$AA?$AA@ 30056580     LIBCMT:winapinls.obj
 0002:0001258c       ??_C@_1O@KPIPDNCP@?$AAk?$AAo?$AAk?$AA?9?$AAI?$AAN?$AA?$AA@ 3005658c     LIBCMT:winapinls.obj
 0002:0001259c       ??_C@_1O@KNHJLDJA@?$AAs?$AAy?$AAr?$AA?9?$AAS?$AAY?$AA?$AA@ 3005659c     LIBCMT:winapinls.obj
 0002:000125ac       ??_C@_1O@MKEKBLAH@?$AAd?$AAi?$AAv?$AA?9?$AAM?$AAV?$AA?$AA@ 300565ac     LIBCMT:winapinls.obj
 0002:000125bc       ??_C@_1O@OHDCKDDF@?$AAq?$AAu?$AAz?$AA?9?$AAB?$AAO?$AA?$AA@ 300565bc     LIBCMT:winapinls.obj
 0002:000125cc       ??_C@_1M@LEPJNLFD@?$AAn?$AAs?$AA?9?$AAZ?$AAA?$AA?$AA@ 300565cc     LIBCMT:winapinls.obj
 0002:000125d8       ??_C@_1M@OMLEIIJB@?$AAm?$AAi?$AA?9?$AAN?$AAZ?$AA?$AA@ 300565d8     LIBCMT:winapinls.obj
 0002:000125e4       ??_C@_1M@PMPEAILG@?$AAa?$AAr?$AA?9?$AAI?$AAQ?$AA?$AA@ 300565e4     LIBCMT:winapinls.obj
 0002:000125f0       ??_C@_1M@CNKPNOEE@?$AAd?$AAe?$AA?9?$AAC?$AAH?$AA?$AA@ 300565f0     LIBCMT:winapinls.obj
 0002:000125fc       ??_C@_1M@LKMGMLKO@?$AAe?$AAn?$AA?9?$AAG?$AAB?$AA?$AA@ 300565fc     LIBCMT:winapinls.obj
 0002:00012608       ??_C@_1M@PGKJFFGL@?$AAe?$AAs?$AA?9?$AAM?$AAX?$AA?$AA@ 30056608     LIBCMT:winapinls.obj
 0002:00012614       ??_C@_1M@DNNANBDC@?$AAf?$AAr?$AA?9?$AAB?$AAE?$AA?$AA@ 30056614     LIBCMT:winapinls.obj
 0002:00012620       ??_C@_1M@HLGMDFHM@?$AAi?$AAt?$AA?9?$AAC?$AAH?$AA?$AA@ 30056620     LIBCMT:winapinls.obj
 0002:0001262c       ??_C@_1M@CLLBGJH@?$AAn?$AAl?$AA?9?$AAB?$AAE?$AA?$AA@ 3005662c     LIBCMT:winapinls.obj
 0002:00012638       ??_C@_1M@BODBOGLF@?$AAn?$AAn?$AA?9?$AAN?$AAO?$AA?$AA@ 30056638     LIBCMT:winapinls.obj
 0002:00012644       ??_C@_1M@HFFAHKAD@?$AAp?$AAt?$AA?9?$AAP?$AAT?$AA?$AA@ 30056644     LIBCMT:winapinls.obj
 0002:00012650       ??_C@_1BG@LNOAKHIE@?$AAs?$AAr?$AA?9?$AAS?$AAP?$AA?9?$AAL?$AAa?$AAt?$AAn?$AA?$AA@ 30056650     LIBCMT:winapinls.obj
 0002:00012668       ??_C@_1M@HBMHBGAK@?$AAs?$AAv?$AA?9?$AAF?$AAI?$AA?$AA@ 30056668     LIBCMT:winapinls.obj
 0002:00012674       ??_C@_1BG@DGCJGJBE@?$AAa?$AAz?$AA?9?$AAA?$AAZ?$AA?9?$AAC?$AAy?$AAr?$AAl?$AA?$AA@ 30056674     LIBCMT:winapinls.obj
 0002:0001268c       ??_C@_1M@KEJDAAHB@?$AAs?$AAe?$AA?9?$AAS?$AAE?$AA?$AA@ 3005668c     LIBCMT:winapinls.obj
 0002:00012698       ??_C@_1M@HEIBJJAD@?$AAm?$AAs?$AA?9?$AAB?$AAN?$AA?$AA@ 30056698     LIBCMT:winapinls.obj
 0002:000126a4       ??_C@_1BG@PBGJMCEM@?$AAu?$AAz?$AA?9?$AAU?$AAZ?$AA?9?$AAC?$AAy?$AAr?$AAl?$AA?$AA@ 300566a4     LIBCMT:winapinls.obj
 0002:000126bc       ??_C@_1O@LAOBCMDF@?$AAq?$AAu?$AAz?$AA?9?$AAE?$AAC?$AA?$AA@ 300566bc     LIBCMT:winapinls.obj
 0002:000126cc       ??_C@_1M@POEEMAIO@?$AAa?$AAr?$AA?9?$AAE?$AAG?$AA?$AA@ 300566cc     LIBCMT:winapinls.obj
 0002:000126d8       ??_C@_1M@EFAKDEDL@?$AAz?$AAh?$AA?9?$AAH?$AAK?$AA?$AA@ 300566d8     LIBCMT:winapinls.obj
 0002:000126e4       ??_C@_1M@HKKIJHGI@?$AAd?$AAe?$AA?9?$AAA?$AAT?$AA?$AA@ 300566e4     LIBCMT:winapinls.obj
 0002:000126f0       ??_C@_1M@KBFBEHJF@?$AAe?$AAn?$AA?9?$AAA?$AAU?$AA?$AA@ 300566f0     LIBCMT:winapinls.obj
 0002:000126fc       ??_C@_1M@MNPLFAAH@?$AAe?$AAs?$AA?9?$AAE?$AAS?$AA?$AA@ 300566fc     LIBCMT:winapinls.obj
 0002:00012708       ??_C@_1M@HJOOJFMA@?$AAf?$AAr?$AA?9?$AAC?$AAA?$AA?$AA@ 30056708     LIBCMT:winapinls.obj
 0002:00012714       ??_C@_1BG@JPOFPNAB@?$AAs?$AAr?$AA?9?$AAS?$AAP?$AA?9?$AAC?$AAy?$AAr?$AAl?$AA?$AA@ 30056714     LIBCMT:winapinls.obj
 0002:0001272c       ??_C@_1M@LNFOCMOB@?$AAs?$AAe?$AA?9?$AAF?$AAI?$AA?$AA@ 3005672c     LIBCMT:winapinls.obj
 0002:00012738       ??_C@_1O@MGJBOAMB@?$AAq?$AAu?$AAz?$AA?9?$AAP?$AAE?$AA?$AA@ 30056738     LIBCMT:winapinls.obj
 0002:00012748       ??_C@_1M@GJINLBOK@?$AAa?$AAr?$AA?9?$AAL?$AAY?$AA?$AA@ 30056748     LIBCMT:winapinls.obj
 0002:00012754       ??_C@_1M@GGMNHJNL@?$AAz?$AAh?$AA?9?$AAS?$AAG?$AA?$AA@ 30056754     LIBCMT:winapinls.obj
 0002:00012760       ??_C@_1M@HOIKODND@?$AAd?$AAe?$AA?9?$AAL?$AAU?$AA?$AA@ 30056760     LIBCMT:winapinls.obj
 0002:0001276c       ??_C@_1M@DDOCCGFG@?$AAe?$AAn?$AA?9?$AAC?$AAA?$AA?$AA@ 3005676c     LIBCMT:winapinls.obj
 0002:00012778       ??_C@_1M@BNOEMJLF@?$AAe?$AAs?$AA?9?$AAG?$AAT?$AA?$AA@ 30056778     LIBCMT:winapinls.obj
 0002:00012784       ??_C@_1M@EOGNKEK@?$AAf?$AAr?$AA?9?$AAC?$AAH?$AA?$AA@ 30056784     LIBCMT:winapinls.obj
 0002:00012790       ??_C@_1M@FLIDJFHL@?$AAh?$AAr?$AA?9?$AAB?$AAA?$AA?$AA@ 30056790     LIBCMT:winapinls.obj
 0002:0001279c       ??_C@_1O@FMCELNAJ@?$AAs?$AAm?$AAj?$AA?9?$AAN?$AAO?$AA?$AA@ 3005679c     LIBCMT:winapinls.obj
 0002:000127ac       ??_C@_1M@JHGLJMGJ@?$AAa?$AAr?$AA?9?$AAD?$AAZ?$AA?$AA@ 300567ac     LIBCMT:winapinls.obj
 0002:000127b8       ??_C@_1M@JKKFDCNP@?$AAz?$AAh?$AA?9?$AAM?$AAO?$AA?$AA@ 300567b8     LIBCMT:winapinls.obj
 0002:000127c4       ??_C@_1M@GEEFALPE@?$AAd?$AAe?$AA?9?$AAL?$AAI?$AA?$AA@ 300567c4     LIBCMT:winapinls.obj
 0002:000127d0       ??_C@_1M@IGEOFBG@?$AAe?$AAn?$AA?9?$AAN?$AAZ?$AA?$AA@ 300567d0     LIBCMT:winapinls.obj
 0002:000127dc       ??_C@_1M@KDBONEHP@?$AAe?$AAs?$AA?9?$AAC?$AAR?$AA?$AA@ 300567dc     LIBCMT:winapinls.obj
 0002:000127e8       ??_C@_1M@FHMDOHNN@?$AAf?$AAr?$AA?9?$AAL?$AAU?$AA?$AA@ 300567e8     LIBCMT:winapinls.obj
 0002:000127f4       ??_C@_1BG@NFKKMAFG@?$AAb?$AAs?$AA?9?$AAB?$AAA?$AA?9?$AAL?$AAa?$AAt?$AAn?$AA?$AA@ 300567f4     LIBCMT:winapinls.obj
 0002:0001280c       ??_C@_1O@IMNBEMCI@?$AAs?$AAm?$AAj?$AA?9?$AAS?$AAE?$AA?$AA@ 3005680c     LIBCMT:winapinls.obj
 0002:0001281c       ??_C@_1M@DHHMBNDP@?$AAa?$AAr?$AA?9?$AAM?$AAA?$AA?$AA@ 3005681c     LIBCMT:winapinls.obj
 0002:00012828       ??_C@_1M@BNBLJCGH@?$AAe?$AAn?$AA?9?$AAI?$AAE?$AA?$AA@ 30056828     LIBCMT:winapinls.obj
 0002:00012834       ??_C@_1M@GEPAFMDL@?$AAe?$AAs?$AA?9?$AAP?$AAA?$AA?$AA@ 30056834     LIBCMT:winapinls.obj
 0002:00012840       ??_C@_1M@OJONDMDL@?$AAf?$AAr?$AA?9?$AAM?$AAC?$AA?$AA@ 30056840     LIBCMT:winapinls.obj
 0002:0001284c       ??_C@_1BG@OBCNFJB@?$AAs?$AAr?$AA?9?$AAB?$AAA?$AA?9?$AAL?$AAa?$AAt?$AAn?$AA?$AA@ 3005684c     LIBCMT:winapinls.obj
 0002:00012864       ??_C@_1O@KEMEEGPO@?$AAs?$AAm?$AAa?$AA?9?$AAN?$AAO?$AA?$AA@ 30056864     LIBCMT:winapinls.obj
 0002:00012874       ??_C@_1M@ELMGFODK@?$AAa?$AAr?$AA?9?$AAT?$AAN?$AA?$AA@ 30056874     LIBCMT:winapinls.obj
 0002:00012880       ??_C@_1M@BHDLHFAF@?$AAe?$AAn?$AA?9?$AAZ?$AAA?$AA?$AA@ 30056880     LIBCMT:winapinls.obj
 0002:0001288c       ??_C@_1M@BMGIGLIF@?$AAe?$AAs?$AA?9?$AAD?$AAO?$AA?$AA@ 3005688c     LIBCMT:winapinls.obj
 0002:00012898       ??_C@_1BG@CMBHIPBE@?$AAs?$AAr?$AA?9?$AAB?$AAA?$AA?9?$AAC?$AAy?$AAr?$AAl?$AA?$AA@ 30056898     LIBCMT:winapinls.obj
 0002:000128b0       ??_C@_1O@HEDBLHNP@?$AAs?$AAm?$AAa?$AA?9?$AAS?$AAE?$AA?$AA@ 300568b0     LIBCMT:winapinls.obj
 0002:000128c0       ??_C@_1M@DAGCADIM@?$AAa?$AAr?$AA?9?$AAO?$AAM?$AA?$AA@ 300568c0     LIBCMT:winapinls.obj
 0002:000128cc       ??_C@_1M@FODLMICG@?$AAe?$AAn?$AA?9?$AAJ?$AAM?$AA?$AA@ 300568cc     LIBCMT:winapinls.obj
 0002:000128d8       ??_C@_1M@DNMLCIHB@?$AAe?$AAs?$AA?9?$AAV?$AAE?$AA?$AA@ 300568d8     LIBCMT:winapinls.obj
 0002:000128e4       ??_C@_1O@EOKHMKJK@?$AAs?$AAm?$AAs?$AA?9?$AAF?$AAI?$AA?$AA@ 300568e4     LIBCMT:winapinls.obj
 0002:000128f4       ??_C@_1M@CAFJMKOF@?$AAa?$AAr?$AA?9?$AAY?$AAE?$AA?$AA@ 300568f4     LIBCMT:winapinls.obj
 0002:00012900       ??_C@_1M@CBFHIJLI@?$AAe?$AAn?$AA?9?$AAC?$AAB?$AA?$AA@ 30056900     LIBCMT:winapinls.obj
 0002:0001290c       ??_C@_1M@BGNFLDN@?$AAe?$AAs?$AA?9?$AAC?$AAO?$AA?$AA@ 3005690c     LIBCMT:winapinls.obj
 0002:00012918       ??_C@_1O@JMPHMAMC@?$AAs?$AAm?$AAn?$AA?9?$AAF?$AAI?$AA?$AA@ 30056918     LIBCMT:winapinls.obj
 0002:00012928       ??_C@_1M@JLANABKE@?$AAa?$AAr?$AA?9?$AAS?$AAY?$AA?$AA@ 30056928     LIBCMT:winapinls.obj
 0002:00012934       ??_C@_1M@HPKGCFGN@?$AAe?$AAn?$AA?9?$AAB?$AAZ?$AA?$AA@ 30056934     LIBCMT:winapinls.obj
 0002:00012940       ??_C@_1M@OLJCMLGM@?$AAe?$AAs?$AA?9?$AAP?$AAE?$AA?$AA@ 30056940     LIBCMT:winapinls.obj
 0002:0001294c       ??_C@_1M@MKKGFKLE@?$AAa?$AAr?$AA?9?$AAJ?$AAO?$AA?$AA@ 3005694c     LIBCMT:winapinls.obj
 0002:00012958       ??_C@_1M@EKPGLDNI@?$AAe?$AAn?$AA?9?$AAT?$AAT?$AA?$AA@ 30056958     LIBCMT:winapinls.obj
 0002:00012964       ??_C@_1M@OONGHFHE@?$AAe?$AAs?$AA?9?$AAA?$AAR?$AA?$AA@ 30056964     LIBCMT:winapinls.obj
 0002:00012970       ??_C@_1M@OOJFGBHE@?$AAa?$AAr?$AA?9?$AAL?$AAB?$AA?$AA@ 30056970     LIBCMT:winapinls.obj
 0002:0001297c       ??_C@_1M@GCEJHNEG@?$AAe?$AAn?$AA?9?$AAZ?$AAW?$AA?$AA@ 3005697c     LIBCMT:winapinls.obj
 0002:00012988       ??_C@_1M@JNOCAHJI@?$AAe?$AAs?$AA?9?$AAE?$AAC?$AA?$AA@ 30056988     LIBCMT:winapinls.obj
 0002:00012994       ??_C@_1M@JEFHPGGB@?$AAa?$AAr?$AA?9?$AAK?$AAW?$AA?$AA@ 30056994     LIBCMT:winapinls.obj
 0002:000129a0       ??_C@_1M@MLKIBJOJ@?$AAe?$AAn?$AA?9?$AAP?$AAH?$AA?$AA@ 300569a0     LIBCMT:winapinls.obj
 0002:000129ac       ??_C@_1M@BDNIPEND@?$AAe?$AAs?$AA?9?$AAC?$AAL?$AA?$AA@ 300569ac     LIBCMT:winapinls.obj
 0002:000129b8       ??_C@_1M@MPNMEKBD@?$AAa?$AAr?$AA?9?$AAA?$AAE?$AA?$AA@ 300569b8     LIBCMT:winapinls.obj
 0002:000129c4       ??_C@_1M@KBJALCPI@?$AAe?$AAs?$AA?9?$AAU?$AAY?$AA?$AA@ 300569c4     LIBCMT:winapinls.obj
 0002:000129d0       ??_C@_1M@LLCCOAGA@?$AAa?$AAr?$AA?9?$AAB?$AAH?$AA?$AA@ 300569d0     LIBCMT:winapinls.obj
 0002:000129dc       ??_C@_1M@PBFNCDEL@?$AAe?$AAs?$AA?9?$AAP?$AAY?$AA?$AA@ 300569dc     LIBCMT:winapinls.obj
 0002:000129e8       ??_C@_1M@EDGINPNP@?$AAa?$AAr?$AA?9?$AAQ?$AAA?$AA?$AA@ 300569e8     LIBCMT:winapinls.obj
 0002:000129f4       ??_C@_1M@MKDBIIJI@?$AAe?$AAs?$AA?9?$AAB?$AAO?$AA?$AA@ 300569f4     LIBCMT:winapinls.obj
 0002:00012a00       ??_C@_1M@CPKKEBLD@?$AAe?$AAs?$AA?9?$AAS?$AAV?$AA?$AA@ 30056a00     LIBCMT:winapinls.obj
 0002:00012a0c       ??_C@_1M@NDBGMMJL@?$AAe?$AAs?$AA?9?$AAH?$AAN?$AA?$AA@ 30056a0c     LIBCMT:winapinls.obj
 0002:00012a18       ??_C@_1M@JIJIBHDP@?$AAe?$AAs?$AA?9?$AAN?$AAI?$AA?$AA@ 30056a18     LIBCMT:winapinls.obj
 0002:00012a24       ??_C@_1M@CGFMKEEK@?$AAe?$AAs?$AA?9?$AAP?$AAR?$AA?$AA@ 30056a24     LIBCMT:winapinls.obj
 0002:00012a30       ??_C@_1O@ICJHKIIK@?$AAz?$AAh?$AA?9?$AAC?$AAH?$AAT?$AA?$AA@ 30056a30     LIBCMT:winapinls.obj
 0002:00012a40       ??_C@_15CLNEJCE@?$AAs?$AAr?$AA?$AA@ 30056a40     LIBCMT:winapinls.obj
 0002:00012a48       ??_C@_1M@KAHEKEIG@?$AAa?$AAf?$AA?9?$AAz?$AAa?$AA?$AA@ 30056a48     LIBCMT:winapinls.obj
 0002:00012a54       ??_C@_1M@GIECOABL@?$AAa?$AAr?$AA?9?$AAa?$AAe?$AA?$AA@ 30056a54     LIBCMT:winapinls.obj
 0002:00012a60       ??_C@_1M@BMLMEKGI@?$AAa?$AAr?$AA?9?$AAb?$AAh?$AA?$AA@ 30056a60     LIBCMT:winapinls.obj
 0002:00012a6c       ??_C@_1M@DAPFDGGB@?$AAa?$AAr?$AA?9?$AAd?$AAz?$AA?$AA@ 30056a6c     LIBCMT:winapinls.obj
 0002:00012a78       ??_C@_1M@FJNKGKIG@?$AAa?$AAr?$AA?9?$AAe?$AAg?$AA?$AA@ 30056a78     LIBCMT:winapinls.obj
 0002:00012a84       ??_C@_1M@FLGKKCLO@?$AAa?$AAr?$AA?9?$AAi?$AAq?$AA?$AA@ 30056a84     LIBCMT:winapinls.obj
 0002:00012a90       ??_C@_1M@GNDIPALM@?$AAa?$AAr?$AA?9?$AAj?$AAo?$AA?$AA@ 30056a90     LIBCMT:winapinls.obj
 0002:00012a9c       ??_C@_1M@DDMJFMGJ@?$AAa?$AAr?$AA?9?$AAk?$AAw?$AA?$AA@ 30056a9c     LIBCMT:winapinls.obj
 0002:00012aa8       ??_C@_1M@EJALMLHM@?$AAa?$AAr?$AA?9?$AAl?$AAb?$AA?$AA@ 30056aa8     LIBCMT:winapinls.obj
 0002:00012ab4       ??_C@_1M@MOBDBLOC@?$AAa?$AAr?$AA?9?$AAl?$AAy?$AA?$AA@ 30056ab4     LIBCMT:winapinls.obj
 0002:00012ac0       ??_C@_1M@JAOCLHDH@?$AAa?$AAr?$AA?9?$AAm?$AAa?$AA?$AA@ 30056ac0     LIBCMT:winapinls.obj
 0002:00012acc       ??_C@_1M@JHPMKJIE@?$AAa?$AAr?$AA?9?$AAo?$AAm?$AA?$AA@ 30056acc     LIBCMT:winapinls.obj
 0002:00012ad8       ??_C@_1M@OEPGHFNH@?$AAa?$AAr?$AA?9?$AAq?$AAa?$AA?$AA@ 30056ad8     LIBCMT:winapinls.obj
 0002:00012ae4       ??_C@_1M@KJDONENM@?$AAa?$AAr?$AA?9?$AAs?$AAa?$AA?$AA@ 30056ae4     LIBCMT:winapinls.obj
 0002:00012af0       ??_C@_1M@DMJDKLKM@?$AAa?$AAr?$AA?9?$AAs?$AAy?$AA?$AA@ 30056af0     LIBCMT:winapinls.obj
 0002:00012afc       ??_C@_1M@OMFIPEDC@?$AAa?$AAr?$AA?9?$AAt?$AAn?$AA?$AA@ 30056afc     LIBCMT:winapinls.obj
 0002:00012b08       ??_C@_1M@IHMHGAON@?$AAa?$AAr?$AA?9?$AAy?$AAe?$AA?$AA@ 30056b08     LIBCMT:winapinls.obj
 0002:00012b14       ??_C@_1BG@KDCPGJGB@?$AAa?$AAz?$AA?9?$AAa?$AAz?$AA?9?$AAc?$AAy?$AAr?$AAl?$AA?$AA@ 30056b14     LIBCMT:winapinls.obj
 0002:00012b2c       ??_C@_1BG@IBCKDDOE@?$AAa?$AAz?$AA?9?$AAa?$AAz?$AA?9?$AAl?$AAa?$AAt?$AAn?$AA?$AA@ 30056b2c     LIBCMT:winapinls.obj
 0002:00012b44       ??_C@_1M@EGPFDCPD@?$AAb?$AAe?$AA?9?$AAb?$AAy?$AA?$AA@ 30056b44     LIBCMT:winapinls.obj
 0002:00012b50       ??_C@_1M@PCMGMCGC@?$AAb?$AAg?$AA?9?$AAb?$AAg?$AA?$AA@ 30056b50     LIBCMT:winapinls.obj
 0002:00012b5c       ??_C@_1M@BJBMFGOB@?$AAb?$AAn?$AA?9?$AAi?$AAn?$AA?$AA@ 30056b5c     LIBCMT:winapinls.obj
 0002:00012b68       ??_C@_1BG@EAKMMACD@?$AAb?$AAs?$AA?9?$AAb?$AAa?$AA?9?$AAl?$AAa?$AAt?$AAn?$AA?$AA@ 30056b68     LIBCMT:winapinls.obj
 0002:00012b80       ??_C@_1M@KGADAODK@?$AAc?$AAa?$AA?9?$AAe?$AAs?$AA?$AA@ 30056b80     LIBCMT:winapinls.obj
 0002:00012b8c       ??_C@_1M@COAJPDHI@?$AAc?$AAs?$AA?9?$AAc?$AAz?$AA?$AA@ 30056b8c     LIBCMT:winapinls.obj
 0002:00012b98       ??_C@_1M@DHBHFONH@?$AAc?$AAy?$AA?9?$AAg?$AAb?$AA?$AA@ 30056b98     LIBCMT:winapinls.obj
 0002:00012ba4       ??_C@_1M@IMGKELGA@?$AAd?$AAa?$AA?9?$AAd?$AAk?$AA?$AA@ 30056ba4     LIBCMT:winapinls.obj
 0002:00012bb0       ??_C@_1M@NNDGDNGA@?$AAd?$AAe?$AA?9?$AAa?$AAt?$AA?$AA@ 30056bb0     LIBCMT:winapinls.obj
 0002:00012bbc       ??_C@_1M@IKDBHEEM@?$AAd?$AAe?$AA?9?$AAc?$AAh?$AA?$AA@ 30056bbc     LIBCMT:winapinls.obj
 0002:00012bc8       ??_C@_1M@GFFOJMCJ@?$AAd?$AAe?$AA?9?$AAd?$AAe?$AA?$AA@ 30056bc8     LIBCMT:winapinls.obj
 0002:00012bd4       ??_C@_1M@MDNLKBPM@?$AAd?$AAe?$AA?9?$AAl?$AAi?$AA?$AA@ 30056bd4     LIBCMT:winapinls.obj
 0002:00012be0       ??_C@_1M@NJBEEJNL@?$AAd?$AAe?$AA?9?$AAl?$AAu?$AA?$AA@ 30056be0     LIBCMT:winapinls.obj
 0002:00012bec       ??_C@_1O@GNNELBAP@?$AAd?$AAi?$AAv?$AA?9?$AAm?$AAv?$AA?$AA@ 30056bec     LIBCMT:winapinls.obj
 0002:00012bfc       ??_C@_1M@EJLEOGAE@?$AAe?$AAl?$AA?9?$AAg?$AAr?$AA?$AA@ 30056bfc     LIBCMT:winapinls.obj
 0002:00012c08       ??_C@_1M@GMPONJN@?$AAe?$AAn?$AA?9?$AAa?$AAu?$AA?$AA@ 30056c08     LIBCMT:winapinls.obj
 0002:00012c14       ??_C@_1M@NIDIIPGF@?$AAe?$AAn?$AA?9?$AAb?$AAz?$AA?$AA@ 30056c14     LIBCMT:winapinls.obj
 0002:00012c20       ??_C@_1M@JEHMIMFO@?$AAe?$AAn?$AA?9?$AAc?$AAa?$AA?$AA@ 30056c20     LIBCMT:winapinls.obj
 0002:00012c2c       ??_C@_1M@IGMJCDLA@?$AAe?$AAn?$AA?9?$AAc?$AAb?$AA?$AA@ 30056c2c     LIBCMT:winapinls.obj
 0002:00012c38       ??_C@_1M@BNFIGBKG@?$AAe?$AAn?$AA?9?$AAg?$AAb?$AA?$AA@ 30056c38     LIBCMT:winapinls.obj
 0002:00012c44       ??_C@_1M@LKIFDIGP@?$AAe?$AAn?$AA?9?$AAi?$AAe?$AA?$AA@ 30056c44     LIBCMT:winapinls.obj
 0002:00012c50       ??_C@_1M@PJKFGCCO@?$AAe?$AAn?$AA?9?$AAj?$AAm?$AA?$AA@ 30056c50     LIBCMT:winapinls.obj
 0002:00012c5c       ??_C@_1M@KPPKEPBO@?$AAe?$AAn?$AA?9?$AAn?$AAz?$AA?$AA@ 30056c5c     LIBCMT:winapinls.obj
 0002:00012c68       ??_C@_1M@GMDGLDOB@?$AAe?$AAn?$AA?9?$AAp?$AAh?$AA?$AA@ 30056c68     LIBCMT:winapinls.obj
 0002:00012c74       ??_C@_1M@ONGIBJNA@?$AAe?$AAn?$AA?9?$AAt?$AAt?$AA?$AA@ 30056c74     LIBCMT:winapinls.obj
 0002:00012c80       ??_C@_1M@LLODPCMM@?$AAe?$AAn?$AA?9?$AAu?$AAs?$AA?$AA@ 30056c80     LIBCMT:winapinls.obj
 0002:00012c8c       ??_C@_1M@LAKFNPAN@?$AAe?$AAn?$AA?9?$AAz?$AAa?$AA?$AA@ 30056c8c     LIBCMT:winapinls.obj
 0002:00012c98       ??_C@_1M@MFNHNHEO@?$AAe?$AAn?$AA?9?$AAz?$AAw?$AA?$AA@ 30056c98     LIBCMT:winapinls.obj
 0002:00012ca4       ??_C@_1M@EJEINPHM@?$AAe?$AAs?$AA?9?$AAa?$AAr?$AA?$AA@ 30056ca4     LIBCMT:winapinls.obj
 0002:00012cb0       ??_C@_1M@GNKPCCJA@?$AAe?$AAs?$AA?9?$AAb?$AAo?$AA?$AA@ 30056cb0     LIBCMT:winapinls.obj
 0002:00012cbc       ??_C@_1M@LEEGFONL@?$AAe?$AAs?$AA?9?$AAc?$AAl?$AA?$AA@ 30056cbc     LIBCMT:winapinls.obj
 0002:00012cc8       ??_C@_1M@KGPDPBDF@?$AAe?$AAs?$AA?9?$AAc?$AAo?$AA?$AA@ 30056cc8     LIBCMT:winapinls.obj
 0002:00012cd4       ??_C@_1M@EIAHOHH@?$AAe?$AAs?$AA?9?$AAc?$AAr?$AA?$AA@ 30056cd4     LIBCMT:winapinls.obj
 0002:00012ce0       ??_C@_1M@LLPGMBIN@?$AAe?$AAs?$AA?9?$AAd?$AAo?$AA?$AA@ 30056ce0     LIBCMT:winapinls.obj
 0002:00012cec       ??_C@_1M@DKHMKNJA@?$AAe?$AAs?$AA?9?$AAe?$AAc?$AA?$AA@ 30056cec     LIBCMT:winapinls.obj
 0002:00012cf8       ??_C@_1M@GKGFPKAP@?$AAe?$AAs?$AA?9?$AAe?$AAs?$AA?$AA@ 30056cf8     LIBCMT:winapinls.obj
 0002:00012d04       ??_C@_1M@LKHKGDLN@?$AAe?$AAs?$AA?9?$AAg?$AAt?$AA?$AA@ 30056d04     LIBCMT:winapinls.obj
 0002:00012d10       ??_C@_1M@HEIIGGJD@?$AAe?$AAs?$AA?9?$AAh?$AAn?$AA?$AA@ 30056d10     LIBCMT:winapinls.obj
 0002:00012d1c       ??_C@_1M@FBDHPPGD@?$AAe?$AAs?$AA?9?$AAm?$AAx?$AA?$AA@ 30056d1c     LIBCMT:winapinls.obj
 0002:00012d28       ??_C@_1M@DPAGLNDH@?$AAe?$AAs?$AA?9?$AAn?$AAi?$AA?$AA@ 30056d28     LIBCMT:winapinls.obj
 0002:00012d34       ??_C@_1M@MDGOPGDD@?$AAe?$AAs?$AA?9?$AAp?$AAa?$AA?$AA@ 30056d34     LIBCMT:winapinls.obj
 0002:00012d40       ??_C@_1M@EMAMGBGE@?$AAe?$AAs?$AA?9?$AAp?$AAe?$AA?$AA@ 30056d40     LIBCMT:winapinls.obj
 0002:00012d4c       ??_C@_1M@IBMCAOEC@?$AAe?$AAs?$AA?9?$AAp?$AAr?$AA?$AA@ 30056d4c     LIBCMT:winapinls.obj
 0002:00012d58       ??_C@_1M@FGMDIJED@?$AAe?$AAs?$AA?9?$AAp?$AAy?$AA?$AA@ 30056d58     LIBCMT:winapinls.obj
 0002:00012d64       ??_C@_1M@IIDEOLLL@?$AAe?$AAs?$AA?9?$AAs?$AAv?$AA?$AA@ 30056d64     LIBCMT:winapinls.obj
 0002:00012d70       ??_C@_1M@GAOBIPA@?$AAe?$AAs?$AA?9?$AAu?$AAy?$AA?$AA@ 30056d70     LIBCMT:winapinls.obj
 0002:00012d7c       ??_C@_1M@JKFFICHJ@?$AAe?$AAs?$AA?9?$AAv?$AAe?$AA?$AA@ 30056d7c     LIBCMT:winapinls.obj
 0002:00012d88       ??_C@_1M@PNMLOJDF@?$AAe?$AAt?$AA?9?$AAe?$AAe?$AA?$AA@ 30056d88     LIBCMT:winapinls.obj
 0002:00012d94       ??_C@_1M@GHHLIKEI@?$AAe?$AAu?$AA?9?$AAe?$AAs?$AA?$AA@ 30056d94     LIBCMT:winapinls.obj
 0002:00012da0       ??_C@_1M@PBNONODE@?$AAf?$AAa?$AA?9?$AAi?$AAr?$AA?$AA@ 30056da0     LIBCMT:winapinls.obj
 0002:00012dac       ??_C@_1M@JEEHPMIL@?$AAf?$AAi?$AA?9?$AAf?$AAi?$AA?$AA@ 30056dac     LIBCMT:winapinls.obj
 0002:00012db8       ??_C@_1M@LMDCNDBA@?$AAf?$AAo?$AA?9?$AAf?$AAo?$AA?$AA@ 30056db8     LIBCMT:winapinls.obj
 0002:00012dc4       ??_C@_1M@JKEOHLDK@?$AAf?$AAr?$AA?9?$AAb?$AAe?$AA?$AA@ 30056dc4     LIBCMT:winapinls.obj
 0002:00012dd0       ??_C@_1M@NOHADPMI@?$AAf?$AAr?$AA?9?$AAc?$AAa?$AA?$AA@ 30056dd0     LIBCMT:winapinls.obj
 0002:00012ddc       ??_C@_1M@KDHIHAEC@?$AAf?$AAr?$AA?9?$AAc?$AAh?$AA?$AA@ 30056ddc     LIBCMT:winapinls.obj
 0002:00012de8       ??_C@_1M@MMBBFGAK@?$AAf?$AAr?$AA?9?$AAf?$AAr?$AA?$AA@ 30056de8     LIBCMT:winapinls.obj
 0002:00012df4       ??_C@_1M@PAFNENNF@?$AAf?$AAr?$AA?9?$AAl?$AAu?$AA?$AA@ 30056df4     LIBCMT:winapinls.obj
 0002:00012e00       ??_C@_1M@EOHDJGDD@?$AAf?$AAr?$AA?9?$AAm?$AAc?$AA?$AA@ 30056e00     LIBCMT:winapinls.obj
 0002:00012e0c       ??_C@_1M@FAPLLOPF@?$AAg?$AAl?$AA?9?$AAe?$AAs?$AA?$AA@ 30056e0c     LIBCMT:winapinls.obj
 0002:00012e18       ??_C@_1M@FOPBFLOO@?$AAg?$AAu?$AA?9?$AAi?$AAn?$AA?$AA@ 30056e18     LIBCMT:winapinls.obj
 0002:00012e24       ??_C@_1M@KBMCINPM@?$AAh?$AAe?$AA?9?$AAi?$AAl?$AA?$AA@ 30056e24     LIBCMT:winapinls.obj
 0002:00012e30       ??_C@_1M@BBPHKFPJ@?$AAh?$AAi?$AA?9?$AAi?$AAn?$AA?$AA@ 30056e30     LIBCMT:winapinls.obj
 0002:00012e3c       ??_C@_1M@PMBNDPHD@?$AAh?$AAr?$AA?9?$AAb?$AAa?$AA?$AA@ 30056e3c     LIBCMT:winapinls.obj
 0002:00012e48       ??_C@_1M@BPCKOEGE@?$AAh?$AAr?$AA?9?$AAh?$AAr?$AA?$AA@ 30056e48     LIBCMT:winapinls.obj
 0002:00012e54       ??_C@_1M@GACBMHKE@?$AAh?$AAu?$AA?9?$AAh?$AAu?$AA?$AA@ 30056e54     LIBCMT:winapinls.obj
 0002:00012e60       ??_C@_1M@MILPAJJC@?$AAh?$AAy?$AA?9?$AAa?$AAm?$AA?$AA@ 30056e60     LIBCMT:winapinls.obj
 0002:00012e6c       ??_C@_1M@BABBICEC@?$AAi?$AAd?$AA?9?$AAi?$AAd?$AA?$AA@ 30056e6c     LIBCMT:winapinls.obj
 0002:00012e78       ??_C@_1M@BIKNHHPF@?$AAi?$AAs?$AA?9?$AAi?$AAs?$AA?$AA@ 30056e78     LIBCMT:winapinls.obj
 0002:00012e84       ??_C@_1M@NMPCJPHE@?$AAi?$AAt?$AA?9?$AAc?$AAh?$AA?$AA@ 30056e84     LIBCMT:winapinls.obj
 0002:00012e90       ??_C@_1M@GHKGFEDF@?$AAi?$AAt?$AA?9?$AAi?$AAt?$AA?$AA@ 30056e90     LIBCMT:winapinls.obj
 0002:00012e9c       ??_C@_1M@NIEJCJJA@?$AAj?$AAa?$AA?9?$AAj?$AAp?$AA?$AA@ 30056e9c     LIBCMT:winapinls.obj
 0002:00012ea8       ??_C@_1M@JILFNBIM@?$AAk?$AAa?$AA?9?$AAg?$AAe?$AA?$AA@ 30056ea8     LIBCMT:winapinls.obj
 0002:00012eb4       ??_C@_1M@PACPMGPH@?$AAk?$AAk?$AA?9?$AAk?$AAz?$AA?$AA@ 30056eb4     LIBCMT:winapinls.obj
 0002:00012ec0       ??_C@_1M@IELFGMHA@?$AAk?$AAn?$AA?9?$AAi?$AAn?$AA?$AA@ 30056ec0     LIBCMT:winapinls.obj
 0002:00012ecc       ??_C@_1O@IBBJHCH@?$AAk?$AAo?$AAk?$AA?9?$AAi?$AAn?$AA?$AA@ 30056ecc     LIBCMT:winapinls.obj
 0002:00012edc       ??_C@_1M@DMHAEOGC@?$AAk?$AAo?$AA?9?$AAk?$AAr?$AA?$AA@ 30056edc     LIBCMT:winapinls.obj
 0002:00012ee8       ??_C@_1M@HBAHBIGA@?$AAk?$AAy?$AA?9?$AAk?$AAg?$AA?$AA@ 30056ee8     LIBCMT:winapinls.obj
 0002:00012ef4       ??_C@_1M@KPMILCJG@?$AAl?$AAt?$AA?9?$AAl?$AAt?$AA?$AA@ 30056ef4     LIBCMT:winapinls.obj
 0002:00012f00       ??_C@_1M@BDEKKCA@?$AAl?$AAv?$AA?9?$AAl?$AAv?$AA?$AA@ 30056f00     LIBCMT:winapinls.obj
 0002:00012f0c       ??_C@_1M@ELCKCCJJ@?$AAm?$AAi?$AA?9?$AAn?$AAz?$AA?$AA@ 30056f0c     LIBCMT:winapinls.obj
 0002:00012f18       ??_C@_1M@CBOOLAPA@?$AAm?$AAk?$AA?9?$AAm?$AAk?$AA?$AA@ 30056f18     LIBCMT:winapinls.obj
 0002:00012f24       ??_C@_1M@GPHNBJKN@?$AAm?$AAl?$AA?9?$AAi?$AAn?$AA?$AA@ 30056f24     LIBCMT:winapinls.obj
 0002:00012f30       ??_C@_1M@PABJILIG@?$AAm?$AAn?$AA?9?$AAm?$AAn?$AA?$AA@ 30056f30     LIBCMT:winapinls.obj
 0002:00012f3c       ??_C@_1M@FGBKKIPG@?$AAm?$AAr?$AA?9?$AAi?$AAn?$AA?$AA@ 30056f3c     LIBCMT:winapinls.obj
 0002:00012f48       ??_C@_1M@NDBPDDAL@?$AAm?$AAs?$AA?9?$AAb?$AAn?$AA?$AA@ 30056f48     LIBCMT:winapinls.obj
 0002:00012f54       ??_C@_1M@OPIHOOPI@?$AAm?$AAs?$AA?9?$AAm?$AAy?$AA?$AA@ 30056f54     LIBCMT:winapinls.obj
 0002:00012f60       ??_C@_1M@PPDBCNFM@?$AAm?$AAt?$AA?9?$AAm?$AAt?$AA?$AA@ 30056f60     LIBCMT:winapinls.obj
 0002:00012f6c       ??_C@_1M@KDJDKMDD@?$AAn?$AAb?$AA?9?$AAn?$AAo?$AA?$AA@ 30056f6c     LIBCMT:winapinls.obj
 0002:00012f78       ??_C@_1M@KFCFLMJP@?$AAn?$AAl?$AA?9?$AAb?$AAe?$AA?$AA@ 30056f78     LIBCMT:winapinls.obj
 0002:00012f84       ??_C@_1M@KPOPDDGO@?$AAn?$AAl?$AA?9?$AAn?$AAl?$AA?$AA@ 30056f84     LIBCMT:winapinls.obj
 0002:00012f90       ??_C@_1M@LJKPEMLN@?$AAn?$AAn?$AA?9?$AAn?$AAo?$AA?$AA@ 30056f90     LIBCMT:winapinls.obj
 0002:00012f9c       ??_C@_1M@BDGHHBFL@?$AAn?$AAs?$AA?9?$AAz?$AAa?$AA?$AA@ 30056f9c     LIBCMT:winapinls.obj
 0002:00012fa8       ??_C@_1M@IDEHOAP@?$AAp?$AAa?$AA?9?$AAi?$AAn?$AA?$AA@ 30056fa8     LIBCMT:winapinls.obj
 0002:00012fb4       ??_C@_1M@HDBKGOGH@?$AAp?$AAl?$AA?9?$AAp?$AAl?$AA?$AA@ 30056fb4     LIBCMT:winapinls.obj
 0002:00012fc0       ??_C@_1M@LJLLCMEH@?$AAp?$AAt?$AA?9?$AAb?$AAr?$AA?$AA@ 30056fc0     LIBCMT:winapinls.obj
 0002:00012fcc       ??_C@_1M@NCMONAAL@?$AAp?$AAt?$AA?9?$AAp?$AAt?$AA?$AA@ 30056fcc     LIBCMT:winapinls.obj
 0002:00012fd8       ??_C@_1O@EAKMAJDN@?$AAq?$AAu?$AAz?$AA?9?$AAb?$AAo?$AA?$AA@ 30056fd8     LIBCMT:winapinls.obj
 0002:00012fe8       ??_C@_1O@BHHPIGDN@?$AAq?$AAu?$AAz?$AA?9?$AAe?$AAc?$AA?$AA@ 30056fe8     LIBCMT:winapinls.obj
 0002:00012ff8       ??_C@_1O@GBAPEKMJ@?$AAq?$AAu?$AAz?$AA?9?$AAp?$AAe?$AA?$AA@ 30056ff8     LIBCMT:winapinls.obj
 0002:00013008       ??_C@_1M@CLGLEFBO@?$AAr?$AAo?$AA?9?$AAr?$AAo?$AA?$AA@ 30057008     LIBCMT:winapinls.obj
 0002:00013014       ??_C@_1M@CEEDODME@?$AAr?$AAu?$AA?9?$AAr?$AAu?$AA?$AA@ 30057014     LIBCMT:winapinls.obj
 0002:00013020       ??_C@_1M@HPKKKMPP@?$AAs?$AAa?$AA?9?$AAi?$AAn?$AA?$AA@ 30057020     LIBCMT:winapinls.obj
 0002:0001302c       ??_C@_1M@BKMAIGOJ@?$AAs?$AAe?$AA?9?$AAf?$AAi?$AA?$AA@ 3005702c     LIBCMT:winapinls.obj
 0002:00013038       ??_C@_1M@NDPIFLFI@?$AAs?$AAe?$AA?9?$AAn?$AAo?$AA?$AA@ 30057038     LIBCMT:winapinls.obj
 0002:00013044       ??_C@_1M@DANKKHJ@?$AAs?$AAe?$AA?9?$AAs?$AAe?$AA?$AA@ 30057044     LIBCMT:winapinls.obj
 0002:00013050       ??_C@_1M@PNBLONPJ@?$AAs?$AAk?$AA?9?$AAs?$AAk?$AA?$AA@ 30057050     LIBCMT:winapinls.obj
 0002:0001305c       ??_C@_1M@LFMODOAL@?$AAs?$AAl?$AA?9?$AAs?$AAi?$AA?$AA@ 3005705c     LIBCMT:winapinls.obj
 0002:00013068       ??_C@_1O@DFKOMPG@?$AAs?$AAm?$AAa?$AA?9?$AAn?$AAo?$AA?$AA@ 30057068     LIBCMT:winapinls.obj
 0002:00013078       ??_C@_1O@NDKPBNNH@?$AAs?$AAm?$AAa?$AA?9?$AAs?$AAe?$AA?$AA@ 30057078     LIBCMT:winapinls.obj
 0002:00013088       ??_C@_1O@PLLKBHAB@?$AAs?$AAm?$AAj?$AA?9?$AAn?$AAo?$AA?$AA@ 30057088     LIBCMT:winapinls.obj
 0002:00013098       ??_C@_1O@CLEPOGCA@?$AAs?$AAm?$AAj?$AA?9?$AAs?$AAe?$AA?$AA@ 30057098     LIBCMT:winapinls.obj
 0002:000130a8       ??_C@_1O@DLGJGKMK@?$AAs?$AAm?$AAn?$AA?9?$AAf?$AAi?$AA?$AA@ 300570a8     LIBCMT:winapinls.obj
 0002:000130b8       ??_C@_1O@OJDJGAJC@?$AAs?$AAm?$AAs?$AA?9?$AAf?$AAi?$AA?$AA@ 300570b8     LIBCMT:winapinls.obj
 0002:000130c8       ??_C@_1M@BOFOGHPB@?$AAs?$AAq?$AA?9?$AAa?$AAl?$AA?$AA@ 300570c8     LIBCMT:winapinls.obj
 0002:000130d4       ??_C@_1BG@LJBBIPGB@?$AAs?$AAr?$AA?9?$AAb?$AAa?$AA?9?$AAc?$AAy?$AAr?$AAl?$AA?$AA@ 300570d4     LIBCMT:winapinls.obj
 0002:000130ec       ??_C@_1BG@JLBENFOE@?$AAs?$AAr?$AA?9?$AAb?$AAa?$AA?9?$AAl?$AAa?$AAt?$AAn?$AA?$AA@ 300570ec     LIBCMT:winapinls.obj
 0002:00013104       ??_C@_1BG@KODPNHE@?$AAs?$AAr?$AA?9?$AAs?$AAp?$AA?9?$AAc?$AAy?$AAr?$AAl?$AA?$AA@ 30057104     LIBCMT:winapinls.obj
 0002:0001311c       ??_C@_1BG@CIOGKHPB@?$AAs?$AAr?$AA?9?$AAs?$AAp?$AA?9?$AAl?$AAa?$AAt?$AAn?$AA?$AA@ 3005711c     LIBCMT:winapinls.obj
 0002:00013134       ??_C@_1M@NGFJLMAC@?$AAs?$AAv?$AA?9?$AAf?$AAi?$AA?$AA@ 30057134     LIBCMT:winapinls.obj
 0002:00013140       ??_C@_1M@MPJEJAJC@?$AAs?$AAv?$AA?9?$AAs?$AAe?$AA?$AA@ 30057140     LIBCMT:winapinls.obj
 0002:0001314c       ??_C@_1M@MPNDHLFK@?$AAs?$AAw?$AA?9?$AAk?$AAe?$AA?$AA@ 3005714c     LIBCMT:winapinls.obj
 0002:00013158       ??_C@_1O@KOHBJJI@?$AAs?$AAy?$AAr?$AA?9?$AAs?$AAy?$AA?$AA@ 30057158     LIBCMT:winapinls.obj
 0002:00013168       ??_C@_1M@LDCEFHA@?$AAt?$AAa?$AA?9?$AAi?$AAn?$AA?$AA@ 30057168     LIBCMT:winapinls.obj
 0002:00013174       ??_C@_1M@CNJOFAK@?$AAt?$AAe?$AA?9?$AAi?$AAn?$AA?$AA@ 30057174     LIBCMT:winapinls.obj
 0002:00013180       ??_C@_1M@GNAECACD@?$AAt?$AAh?$AA?9?$AAt?$AAh?$AA?$AA@ 30057180     LIBCMT:winapinls.obj
 0002:0001318c       ??_C@_1M@CHBIHOJO@?$AAt?$AAn?$AA?9?$AAz?$AAa?$AA?$AA@ 3005718c     LIBCMT:winapinls.obj
 0002:00013198       ??_C@_1M@GCCMIGPJ@?$AAt?$AAr?$AA?9?$AAt?$AAr?$AA?$AA@ 30057198     LIBCMT:winapinls.obj
 0002:000131a4       ??_C@_1M@CELMCNBK@?$AAt?$AAt?$AA?9?$AAr?$AAu?$AA?$AA@ 300571a4     LIBCMT:winapinls.obj
 0002:000131b0       ??_C@_1M@KLMCELGA@?$AAu?$AAk?$AA?9?$AAu?$AAa?$AA?$AA@ 300571b0     LIBCMT:winapinls.obj
 0002:000131bc       ??_C@_1M@EPAJJAJF@?$AAu?$AAr?$AA?9?$AAp?$AAk?$AA?$AA@ 300571bc     LIBCMT:winapinls.obj
 0002:000131c8       ??_C@_1BG@GEGPMCDJ@?$AAu?$AAz?$AA?9?$AAu?$AAz?$AA?9?$AAc?$AAy?$AAr?$AAl?$AA?$AA@ 300571c8     LIBCMT:winapinls.obj
 0002:000131e0       ??_C@_1BG@EGGKJILM@?$AAu?$AAz?$AA?9?$AAu?$AAz?$AA?9?$AAl?$AAa?$AAt?$AAn?$AA?$AA@ 300571e0     LIBCMT:winapinls.obj
 0002:000131f8       ??_C@_1M@GFOCLFF@?$AAv?$AAi?$AA?9?$AAv?$AAn?$AA?$AA@ 300571f8     LIBCMT:winapinls.obj
 0002:00013204       ??_C@_1M@CPAMEDFI@?$AAx?$AAh?$AA?9?$AAz?$AAa?$AA?$AA@ 30057204     LIBCMT:winapinls.obj
 0002:00013210       ??_C@_1O@EBKIFIGN@?$AAz?$AAh?$AA?9?$AAc?$AAh?$AAs?$AA?$AA@ 30057210     LIBCMT:winapinls.obj
 0002:00013220       ??_C@_1O@NMHPGANE@?$AAz?$AAh?$AA?9?$AAc?$AAh?$AAt?$AA?$AA@ 30057220     LIBCMT:winapinls.obj
 0002:00013230       ??_C@_1M@LPINJOMC@?$AAz?$AAh?$AA?9?$AAc?$AAn?$AA?$AA@ 30057230     LIBCMT:winapinls.obj
 0002:0001323c       ??_C@_1M@OCJEJODD@?$AAz?$AAh?$AA?9?$AAh?$AAk?$AA?$AA@ 3005723c     LIBCMT:winapinls.obj
 0002:00013248       ??_C@_1M@DNDLJINH@?$AAz?$AAh?$AA?9?$AAm?$AAo?$AA?$AA@ 30057248     LIBCMT:winapinls.obj
 0002:00013254       ??_C@_1M@MBFDNDND@?$AAz?$AAh?$AA?9?$AAs?$AAg?$AA?$AA@ 30057254     LIBCMT:winapinls.obj
 0002:00013260       ??_C@_1M@IMEPLEPE@?$AAz?$AAh?$AA?9?$AAt?$AAw?$AA?$AA@ 30057260     LIBCMT:winapinls.obj
 0002:0001326c       ??_C@_1M@BBGHNHJP@?$AAz?$AAu?$AA?9?$AAz?$AAa?$AA?$AA@ 3005726c     LIBCMT:winapinls.obj
 0002:00013278       ___rg_language_count       30057278     LIBCMT:getqloc.obj
 0002:0001327c       ___rg_country_count        3005727c     LIBCMT:getqloc.obj
 0002:00013280       ??_C@_1FE@LLNEDJMD@?$AAR?$AA6?$AA0?$AA0?$AA8?$AA?$AN?$AA?6?$AA?9?$AA?5?$AAn?$AAo?$AAt?$AA?5?$AAe?$AAn?$AAo?$AAu?$AAg?$AAh?$AA?5?$AAs?$AAp?$AAa?$AAc?$AAe?$AA?5?$AAf?$AAo?$AAr?$AA?5?$AAa?$AAr@ 30057280     LIBCMT:crt0msg.obj
 0002:000132d8       ??_C@_1FI@HONFMGBI@?$AAR?$AA6?$AA0?$AA0?$AA9?$AA?$AN?$AA?6?$AA?9?$AA?5?$AAn?$AAo?$AAt?$AA?5?$AAe?$AAn?$AAo?$AAu?$AAg?$AAh?$AA?5?$AAs?$AAp?$AAa?$AAc?$AAe?$AA?5?$AAf?$AAo?$AAr?$AA?5?$AAe?$AAn@ 300572d8     LIBCMT:crt0msg.obj
 0002:00013330       ??_C@_1EG@BEHAGFJD@?$AAR?$AA6?$AA0?$AA1?$AA0?$AA?$AN?$AA?6?$AA?9?$AA?5?$AAa?$AAb?$AAo?$AAr?$AAt?$AA?$CI?$AA?$CJ?$AA?5?$AAh?$AAa?$AAs?$AA?5?$AAb?$AAe?$AAe?$AAn?$AA?5?$AAc?$AAa?$AAl?$AAl?$AAe?$AAd@ 30057330     LIBCMT:crt0msg.obj
 0002:00013378       ??_C@_1FI@LOGNIKDM@?$AAR?$AA6?$AA0?$AA1?$AA6?$AA?$AN?$AA?6?$AA?9?$AA?5?$AAn?$AAo?$AAt?$AA?5?$AAe?$AAn?$AAo?$AAu?$AAg?$AAh?$AA?5?$AAs?$AAp?$AAa?$AAc?$AAe?$AA?5?$AAf?$AAo?$AAr?$AA?5?$AAt?$AAh@ 30057378     LIBCMT:crt0msg.obj
 0002:000133d0       ??_C@_1FK@BEOGODMC@?$AAR?$AA6?$AA0?$AA1?$AA7?$AA?$AN?$AA?6?$AA?9?$AA?5?$AAu?$AAn?$AAe?$AAx?$AAp?$AAe?$AAc?$AAt?$AAe?$AAd?$AA?5?$AAm?$AAu?$AAl?$AAt?$AAi?$AAt?$AAh?$AAr?$AAe?$AAa?$AAd?$AA?5@ 300573d0     LIBCMT:crt0msg.obj
 0002:00013430       ??_C@_1EC@JIBHAOPH@?$AAR?$AA6?$AA0?$AA1?$AA8?$AA?$AN?$AA?6?$AA?9?$AA?5?$AAu?$AAn?$AAe?$AAx?$AAp?$AAe?$AAc?$AAt?$AAe?$AAd?$AA?5?$AAh?$AAe?$AAa?$AAp?$AA?5?$AAe?$AAr?$AAr?$AAo?$AAr?$AA?$AN?$AA?6@ 30057430     LIBCMT:crt0msg.obj
 0002:00013478       ??_C@_1FC@ECHBIFBC@?$AAR?$AA6?$AA0?$AA1?$AA9?$AA?$AN?$AA?6?$AA?9?$AA?5?$AAu?$AAn?$AAa?$AAb?$AAl?$AAe?$AA?5?$AAt?$AAo?$AA?5?$AAo?$AAp?$AAe?$AAn?$AA?5?$AAc?$AAo?$AAn?$AAs?$AAo?$AAl?$AAe?$AA?5@ 30057478     LIBCMT:crt0msg.obj
 0002:000134d0       ??_C@_1GK@FHCKBEFA@?$AAR?$AA6?$AA0?$AA2?$AA4?$AA?$AN?$AA?6?$AA?9?$AA?5?$AAn?$AAo?$AAt?$AA?5?$AAe?$AAn?$AAo?$AAu?$AAg?$AAh?$AA?5?$AAs?$AAp?$AAa?$AAc?$AAe?$AA?5?$AAf?$AAo?$AAr?$AA?5?$AA_?$AAo@ 300574d0     LIBCMT:crt0msg.obj
 0002:00013540       ??_C@_1EM@MAADIHMB@?$AAR?$AA6?$AA0?$AA2?$AA5?$AA?$AN?$AA?6?$AA?9?$AA?5?$AAp?$AAu?$AAr?$AAe?$AA?5?$AAv?$AAi?$AAr?$AAt?$AAu?$AAa?$AAl?$AA?5?$AAf?$AAu?$AAn?$AAc?$AAt?$AAi?$AAo?$AAn?$AA?5?$AAc@ 30057540     LIBCMT:crt0msg.obj
 0002:00013590       ??_C@_1GK@MCAAGJMO@?$AAR?$AA6?$AA0?$AA2?$AA6?$AA?$AN?$AA?6?$AA?9?$AA?5?$AAn?$AAo?$AAt?$AA?5?$AAe?$AAn?$AAo?$AAu?$AAg?$AAh?$AA?5?$AAs?$AAp?$AAa?$AAc?$AAe?$AA?5?$AAf?$AAo?$AAr?$AA?5?$AAs?$AAt@ 30057590     LIBCMT:crt0msg.obj
 0002:00013600       ??_C@_1GK@MFGOKLAG@?$AAR?$AA6?$AA0?$AA2?$AA7?$AA?$AN?$AA?6?$AA?9?$AA?5?$AAn?$AAo?$AAt?$AA?5?$AAe?$AAn?$AAo?$AAu?$AAg?$AAh?$AA?5?$AAs?$AAp?$AAa?$AAc?$AAe?$AA?5?$AAf?$AAo?$AAr?$AA?5?$AAl?$AAo@ 30057600     LIBCMT:crt0msg.obj
 0002:00013670       ??_C@_1EK@HHFLMAOL@?$AAR?$AA6?$AA0?$AA2?$AA8?$AA?$AN?$AA?6?$AA?9?$AA?5?$AAu?$AAn?$AAa?$AAb?$AAl?$AAe?$AA?5?$AAt?$AAo?$AA?5?$AAi?$AAn?$AAi?$AAt?$AAi?$AAa?$AAl?$AAi?$AAz?$AAe?$AA?5?$AAh?$AAe@ 30057670     LIBCMT:crt0msg.obj
 0002:000136bc       ??_C@_1DO@BMFCDCD@?$AAR?$AA6?$AA0?$AA3?$AA0?$AA?$AN?$AA?6?$AA?9?$AA?5?$AAC?$AAR?$AAT?$AA?5?$AAn?$AAo?$AAt?$AA?5?$AAi?$AAn?$AAi?$AAt?$AAi?$AAa?$AAl?$AAi?$AAz?$AAe?$AAd?$AA?$AN?$AA?6?$AA?$AA@ 300576bc     LIBCMT:crt0msg.obj
 0002:00013700       ??_C@_1MG@ENCOOIDF@?$AAR?$AA6?$AA0?$AA3?$AA1?$AA?$AN?$AA?6?$AA?9?$AA?5?$AAA?$AAt?$AAt?$AAe?$AAm?$AAp?$AAt?$AA?5?$AAt?$AAo?$AA?5?$AAi?$AAn?$AAi?$AAt?$AAi?$AAa?$AAl?$AAi?$AAz?$AAe?$AA?5?$AAt@ 30057700     LIBCMT:crt0msg.obj
 0002:000137c8       ??_C@_1GG@GOPILAJP@?$AAR?$AA6?$AA0?$AA3?$AA2?$AA?$AN?$AA?6?$AA?9?$AA?5?$AAn?$AAo?$AAt?$AA?5?$AAe?$AAn?$AAo?$AAu?$AAg?$AAh?$AA?5?$AAs?$AAp?$AAa?$AAc?$AAe?$AA?5?$AAf?$AAo?$AAr?$AA?5?$AAl?$AAo@ 300577c8     LIBCMT:crt0msg.obj
 0002:00013830       ??_C@_1BOO@KGEDBGAJ@?$AAR?$AA6?$AA0?$AA3?$AA3?$AA?$AN?$AA?6?$AA?9?$AA?5?$AAA?$AAt?$AAt?$AAe?$AAm?$AAp?$AAt?$AA?5?$AAt?$AAo?$AA?5?$AAu?$AAs?$AAe?$AA?5?$AAM?$AAS?$AAI?$AAL?$AA?5?$AAc?$AAo?$AAd@ 30057830     LIBCMT:crt0msg.obj
 0002:00013a20       ??_C@_1GG@MKFPEKFO@?$AAR?$AA6?$AA0?$AA3?$AA4?$AA?$AN?$AA?6?$AA?9?$AA?5?$AAi?$AAn?$AAc?$AAo?$AAn?$AAs?$AAi?$AAs?$AAt?$AAe?$AAn?$AAt?$AA?5?$AAo?$AAn?$AAe?$AAx?$AAi?$AAt?$AA?5?$AAb?$AAe?$AAg@ 30057a20     LIBCMT:crt0msg.obj
 0002:00013a88       ??_C@_1BO@BFCDCGC@?$AAD?$AAO?$AAM?$AAA?$AAI?$AAN?$AA?5?$AAe?$AAr?$AAr?$AAo?$AAr?$AA?$AN?$AA?6?$AA?$AA@ 30057a88     LIBCMT:crt0msg.obj
 0002:00013aa8       ??_C@_1BK@KMOMNAAI@?$AAS?$AAI?$AAN?$AAG?$AA?5?$AAe?$AAr?$AAr?$AAo?$AAr?$AA?$AN?$AA?6?$AA?$AA@ 30057aa8     LIBCMT:crt0msg.obj
 0002:00013ac4       ??_C@_1BM@JBBEPPHI@?$AAT?$AAL?$AAO?$AAS?$AAS?$AA?5?$AAe?$AAr?$AAr?$AAo?$AAr?$AA?$AN?$AA?6?$AA?$AA@ 30057ac4     LIBCMT:crt0msg.obj
 0002:00013ae0       ??_C@_15JNBOKNOG@?$AA?$AN?$AA?6?$AA?$AA@ 30057ae0     LIBCMT:crt0msg.obj
 0002:00013ae8       ??_C@_1BO@BKOMIGKJ@?$AAr?$AAu?$AAn?$AAt?$AAi?$AAm?$AAe?$AA?5?$AAe?$AAr?$AAr?$AAo?$AAr?$AA?5?$AA?$AA@ 30057ae8     LIBCMT:crt0msg.obj
 0002:00013bc0       ??_C@_1FK@PGACCAFB@?$AAR?$AA6?$AA0?$AA0?$AA2?$AA?$AN?$AA?6?$AA?9?$AA?5?$AAf?$AAl?$AAo?$AAa?$AAt?$AAi?$AAn?$AAg?$AA?5?$AAp?$AAo?$AAi?$AAn?$AAt?$AA?5?$AAs?$AAu?$AAp?$AAp?$AAo?$AAr?$AAt?$AA?5@ 30057bc0     LIBCMT:crt0msg.obj
 0002:00013c1c       ??_C@_1DE@JNGNBFGO@?$AAR?$AAu?$AAn?$AAt?$AAi?$AAm?$AAe?$AA?5?$AAE?$AAr?$AAr?$AAo?$AAr?$AA?$CB?$AA?6?$AA?6?$AAP?$AAr?$AAo?$AAg?$AAr?$AAa?$AAm?$AA?3?$AA?5?$AA?$AA@ 30057c1c     LIBCMT:crt0msg.obj
 0002:00013c50       ??_C@_1CO@EAEJAADC@?$AA?$DM?$AAp?$AAr?$AAo?$AAg?$AAr?$AAa?$AAm?$AA?5?$AAn?$AAa?$AAm?$AAe?$AA?5?$AAu?$AAn?$AAk?$AAn?$AAo?$AAw?$AAn?$AA?$DO?$AA?$AA@ 30057c50     LIBCMT:crt0msg.obj
 0002:00013c80       ??_C@_17LGKOMLJ@?$AA?4?$AA?4?$AA?4?$AA?$AA@ 30057c80     LIBCMT:crt0msg.obj
 0002:00013c88       ??_C@_15IABLJNFO@?$AA?6?$AA?6?$AA?$AA@ 30057c88     LIBCMT:crt0msg.obj
 0002:00013c90       ??_C@_1EK@MBDPDCGA@?$AAM?$AAi?$AAc?$AAr?$AAo?$AAs?$AAo?$AAf?$AAt?$AA?5?$AAV?$AAi?$AAs?$AAu?$AAa?$AAl?$AA?5?$AAC?$AA?$CL?$AA?$CL?$AA?5?$AAR?$AAu?$AAn?$AAt?$AAi?$AAm?$AAe?$AA?5?$AAL?$AAi?$AAb@ 30057c90     LIBCMT:crt0msg.obj
 0002:00013cdc       ??_C@_06PGGFOGJG@1?$CDSNAN?$AA@ 30057cdc     LIBCMT:x10fout.obj
 0002:00013ce4       ??_C@_05PHHOCPM@1?$CDIND?$AA@ 30057ce4     LIBCMT:x10fout.obj
 0002:00013cec       ??_C@_05DNEBIAHO@1?$CDINF?$AA@ 30057cec     LIBCMT:x10fout.obj
 0002:00013cf4       ??_C@_06IMKFLFPG@1?$CDQNAN?$AA@ 30057cf4     LIBCMT:x10fout.obj
 0002:00013cfc       ??_C@_1BG@GOEBHBDC@?$AAU?$AAS?$AAE?$AAR?$AA3?$AA2?$AA?4?$AAD?$AAL?$AAL?$AA?$AA@ 30057cfc     LIBCMT:crtmboxw.obj
 0002:00013d14       ??_C@_0M@DLDCCGNP@MessageBoxW?$AA@ 30057d14     LIBCMT:crtmboxw.obj
 0002:00013d20       ??_C@_0BA@HNOPNCHB@GetActiveWindow?$AA@ 30057d20     LIBCMT:crtmboxw.obj
 0002:00013d30       ??_C@_0BD@HHGDFDBJ@GetLastActivePopup?$AA@ 30057d30     LIBCMT:crtmboxw.obj
 0002:00013d44       ??_C@_0BK@DEKFELLI@GetUserObjectInformationW?$AA@ 30057d44     LIBCMT:crtmboxw.obj
 0002:00013d60       ??_C@_0BI@DFKBFLJE@GetProcessWindowStation?$AA@ 30057d60     LIBCMT:crtmboxw.obj
 0002:00013d78       ??_C@_1BA@BALFACEM@?$AAC?$AAO?$AAN?$AAO?$AAU?$AAT?$AA$?$AA?$AA@ 30057d78     LIBCMT:initcon.obj
 0002:00013d88       __load_config_used         30057d88     LIBCMT:loadcfg.obj
 0002:00013dd0       ___safe_se_handler_table   30057dd0     <linker-defined>
 0002:00013ddc       ___rtc_iaa                 30057ddc     LIBCMT:initsect.obj
 0002:00013de0       ___rtc_izz                 30057de0     LIBCMT:initsect.obj
 0002:00013de4       ___rtc_taa                 30057de4     LIBCMT:initsect.obj
 0002:00013de8       ___rtc_tzz                 30057de8     LIBCMT:initsect.obj
 0002:00014104       __IMPORT_DESCRIPTOR_KERNEL32 30058104     kernel32:KERNEL32.dll
 0002:00014118       __NULL_IMPORT_DESCRIPTOR   30058118     kernel32:KERNEL32.dll
 0003:00000000       _eventnames                30059000     bg_misc.obj
 0003:00000130       _bg_itemlist               30059130     bg_misc.obj
 0003:00000bf4       _bg_numItems               30059bf4     bg_misc.obj
 0003:00000bf8       _pm_stopspeed              30059bf8     bg_pmove.obj
 0003:00000bfc       _pm_duckScale              30059bfc     bg_pmove.obj
 0003:00000c00       _pm_swimScale              30059c00     bg_pmove.obj
 0003:00000c04       _pm_wadeScale              30059c04     bg_pmove.obj
 0003:00000c08       _pm_accelerate             30059c08     bg_pmove.obj
 0003:00000c0c       _pm_airaccelerate          30059c0c     bg_pmove.obj
 0003:00000c10       _pm_wateraccelerate        30059c10     bg_pmove.obj
 0003:00000c14       _pm_flyaccelerate          30059c14     bg_pmove.obj
 0003:00000c18       _pm_friction               30059c18     bg_pmove.obj
 0003:00000c1c       _pm_waterfriction          30059c1c     bg_pmove.obj
 0003:00000c20       _pm_flightfriction         30059c20     bg_pmove.obj
 0003:00000c24       _pm_spectatorfriction      30059c24     bg_pmove.obj
 0003:00001528       _forceModelModificationCount 3005a528     cg_main.obj
 0003:00001d30       _cl_numparticles           3005ad30     cg_marks.obj
 0003:00001d34       _drawTeamOverlayModificationCount 3005ad34     cg_newDraw.obj
 0003:00001d38       _cg_customSoundNames       3005ad38     cg_players.obj
 0003:00001df8       _bytedirs                  3005adf8     q_math.obj
 0003:00002590       _colorBlack                3005b590     q_math.obj
 0003:000025a0       _colorRed                  3005b5a0     q_math.obj
 0003:000025b0       _colorGreen                3005b5b0     q_math.obj
 0003:000025c0       _colorBlue                 3005b5c0     q_math.obj
 0003:000025d0       _colorYellow               3005b5d0     q_math.obj
 0003:000025e0       _colorMagenta              3005b5e0     q_math.obj
 0003:000025f0       _colorCyan                 3005b5f0     q_math.obj
 0003:00002600       _colorWhite                3005b600     q_math.obj
 0003:00002610       _colorLtGrey               3005b610     q_math.obj
 0003:00002620       _colorMdGrey               3005b620     q_math.obj
 0003:00002630       _colorDkGrey               3005b630     q_math.obj
 0003:00002640       _g_color_table             3005b640     q_math.obj
 0003:000026c0       _axisDefault               3005b6c0     q_math.obj
 0003:00002c88       _commandList               3005bc88     ui_shared.obj
 0003:00002d30       _scriptCommandCount        3005bd30     ui_shared.obj
 0003:00002d38       _itemParseKeywords         3005bd38     ui_shared.obj
 0003:00003030       _menuParseKeywords         3005c030     ui_shared.obj
 0003:00003190       ___security_cookie         3005c190     LIBCMT:gs_cookie.obj
 0003:00003194       ___security_cookie_complement 3005c194     LIBCMT:gs_cookie.obj
 0003:00003198       __fltused                  3005c198     LIBCMT:fpinit.obj
 0003:0000319c       __ldused                   3005c19c     LIBCMT:fpinit.obj
 0003:000031b8       __cfltcvt_tab              3005c1b8     LIBCMT:cmiscdat.obj
 0003:000031e8       ___isa_enabled             3005c1e8     LIBCMT:cpu_disp.obj
 0003:000031f0       ___flsindex                3005c1f0     LIBCMT:tidtable.obj
 0003:00003378       ___ptmbcinfo               3005c378     LIBCMT:mbctype.obj
 0003:00003470       __mbctype                  3005c470     LIBCMT:mbctype.obj
 0003:00003578       __mbcasemap                3005c578     LIBCMT:mbctype.obj
 0003:00003678       ___initialmbcinfo          3005c678     LIBCMT:mbctype.obj
 0003:00003898       ___wclocalestr             3005c898     LIBCMT:nlsdata.obj
 0003:000038a0       ___lc_time_c               3005c8a0     LIBCMT:nlsdata.obj
 0003:00003a04       ___ptlocinfo               3005ca04     LIBCMT:nlsdata.obj
 0003:00003a08       ___initiallocinfo          3005ca08     LIBCMT:nlsdata.obj
 0003:00003ac0       ___initiallocalestructinfo 3005cac0     LIBCMT:nlsdata.obj
 0003:00003ac8       ___mb_cur_max              3005cac8     LIBCMT:nlsdata.obj
 0003:00003acc       ___globallocalestatus      3005cacc     LIBCMT:glstatus.obj
 0003:00003ad0       ___nullstring              3005cad0     LIBCMT:output.obj
 0003:00003ad4       ___wnullstring             3005cad4     LIBCMT:output.obj
 0003:00003af0       ___badioinfo               3005caf0     LIBCMT:ioinit.obj
 0003:00003b30       __matherr_flag             3005cb30     LIBCMT:matherr.obj
 0003:00003c90       __pow10pos                 3005cc90     LIBCMT:constpow.obj
 0003:00003df0       __pow10neg                 3005cdf0     LIBCMT:constpow.obj
 0003:00003f50       ___lconv                   3005cf50     LIBCMT:lconv.obj
 0003:00003f54       ___lconv_static_decimal    3005cf54     LIBCMT:lconv.obj
 0003:00003f58       ___lconv_c                 3005cf58     LIBCMT:lconv.obj
 0003:00003fa8       ___lconv_static_W_decimal  3005cfa8     LIBCMT:lconv.obj
 0003:00003fac       __pctype                   3005cfac     LIBCMT:ctype.obj
 0003:00003fb0       __pwctype                  3005cfb0     LIBCMT:ctype.obj
 0003:00003fb8       __iob                      3005cfb8     LIBCMT:_file.obj
 0003:00004320       __d_inf                    3005d320     LIBCMT:util.obj
 0003:00004328       __d_ind                    3005d328     LIBCMT:util.obj
 0003:00004330       __d_max                    3005d330     LIBCMT:util.obj
 0003:00004338       __d_min                    3005d338     LIBCMT:util.obj
 0003:00004340       __d_mzero                  3005d340     LIBCMT:util.obj
 0003:00004370       ___abort_behavior          3005d370     LIBCMT:abort.obj
 0003:00004380       __NLG_Destination          3005d380     LIBCMT:exsup.obj
 0003:00004390       __confh                    3005d390     LIBCMT:initcon.obj
 0003:000043a0       _c_pmove                   3005d3a0     bg_pmove.obj
 0003:000043a4       _menuScoreboard            3005d3a4     cg_draw.obj
 0003:0000d8d8       _initparticles             300668d8     cg_marks.obj
 0003:000101dc       _vec3_origin               300691dc     q_math.obj
 0003:00026444       _DC                        3007f444     ui_shared.obj
 0003:00026458       _menuCount                 3007f458     ui_shared.obj
 0003:0002645c       _openMenuCount             3007f45c     ui_shared.obj
 0003:0018a4b0       ___fastflag                301e34b0     LIBCMT:fpinit.obj
 0003:0018a7dc       __aenvptr                  301e37dc     LIBCMT:dllcrt0.obj
 0003:0018a7e0       __wenvptr                  301e37e0     LIBCMT:dllcrt0.obj
 0003:0018a7e8       ___isa_available           301e37e8     LIBCMT:cpu_disp.obj
 0003:0018a7ec       ___favor                   301e37ec     LIBCMT:cpu_disp.obj
 0003:0018a7f0       ___pInvalidArgHandler      301e37f0     LIBCMT:invarg.obj
 0003:0018a7f4       ___mblocalename            301e37f4     LIBCMT:mbctype.obj
 0003:0018a7f8       ___mbcodepage              301e37f8     LIBCMT:mbctype.obj
 0003:0018a7fc       ___ismbcodepage            301e37fc     LIBCMT:mbctype.obj
 0003:0018a800       ___mbulinfo                301e3800     LIBCMT:mbctype.obj
 0003:0018a810       ___locale_changed          301e3810     LIBCMT:wsetloca.obj
 0003:0018a814       __umaskval                 301e3814     LIBCMT:crt0dat.obj
 0003:0018a818       __exitflag                 301e3818     LIBCMT:crt0dat.obj
 0003:0018a81c       __C_Termination_Done       301e381c     LIBCMT:crt0dat.obj
 0003:0018a820       ___winitenv                301e3820     LIBCMT:crt0dat.obj
 0003:0018a824       ___initenv                 301e3824     LIBCMT:crt0dat.obj
 0003:0018a828       __C_Exit_Done              301e3828     LIBCMT:crt0dat.obj
 0003:0018a82c       ___argc                    301e382c     LIBCMT:crt0dat.obj
 0003:0018a830       ___argv                    301e3830     LIBCMT:crt0dat.obj
 0003:0018a834       ___wargv                   301e3834     LIBCMT:crt0dat.obj
 0003:0018a838       __environ                  301e3838     LIBCMT:crt0dat.obj
 0003:0018a83c       __wenviron                 301e383c     LIBCMT:crt0dat.obj
 0003:0018a840       __pgmptr                   301e3840     LIBCMT:crt0dat.obj
 0003:0018a844       __wpgmptr                  301e3844     LIBCMT:crt0dat.obj
 0003:0018a848       __crtheap                  301e3848     LIBCMT:heapinit.obj
 0003:0018a850       ___pioinfo                 301e3850     LIBCMT:ioinit.obj
 0003:0018aa58       __maxwait                  301e3a58     LIBCMT:crtheap.obj
 0003:0018aa5c       __outputformat             301e3a5c     LIBCMT:outputformat.obj
 0003:0018abb0       ___lconv_static_null       301e3bb0     LIBCMT:lconv.obj
 0003:0018abb4       ___lconv_static_W_null     301e3bb4     LIBCMT:lconv.obj
 0003:0018abb8       __cflush                   301e3bb8     LIBCMT:_file.obj
 0003:0018abc8       ___app_type                301e3bc8     LIBCMT:crt0msg.obj
 0003:0018b1f8       ?__pInconsistency@@3P6AXXZA 301e41f8     LIBCMT:hooks.obj
 0003:0018b1fc       ?_pnhHeap@@3P6AHI@ZA       301e41fc     LIBCMT:handler.obj
 0003:0018b200       ___pPurecall               301e4200     LIBCMT:inithelp.obj
 0003:0018b21c       __stdbuf                   301e421c     LIBCMT:_sftbuf.obj
 0003:0018b224       __newmode                  301e4224     LIBCMT:_newmode.obj
 0003:0018b228       ___error_mode              301e4228     LIBCMT:errmode.obj
 0003:0018b240       _menuParseKeywordHash      301e4240     <common>
 0003:0018ba40       _itemParseKeywordHash      301e4a40     <common>
 0003:0018c240       _menuStack                 301e5240     <common>
 0003:0018c280       _Menus                     301e5280     <common>
 0003:00196380       _g_nameBind2               301ef380     <common>
 0003:001963a0       _g_nameBind1               301ef3a0     <common>
 0003:001963c0       _voiceChatBuffer           301ef3c0     <common>
 0003:00198ac0       _headModelVoiceChat        301f1ac0     <common>
 0003:00199bc0       _voiceChatLists            301f2bc0     <common>
 0003:003c2600       _cg_markPolys              3041b600     <common>
 0003:003d4600       _oldtime                   3042d600     <common>
 0003:003d4610       _rup                       3042d610     <common>
 0003:003d4620       _rright                    3042d620     <common>
 0003:003d4630       _rforward                  3042d630     <common>
 0003:003d4640       _pvup                      3042d640     <common>
 0003:003d4650       _pvright                   3042d650     <common>
 0003:003d4660       _pvforward                 3042d660     <common>
 0003:003d4680       _particles                 3042d680     <common>
 0003:003f3680       _free_particles            3044c680     <common>
 0003:003f3684       _active_particles          3044c684     <common>
 0003:003f3688       _cg_freeMarkPolys          3044c688     <common>
 0003:003f36a0       _cg_activeMarkPolys        3044c6a0     <common>
 0003:003f37c0       _cg_obeliskRespawnDelay    3044c7c0     <common>
 0003:003f38e0       _cg_recordSPDemoName       3044c8e0     <common>
 0003:003f3a00       _cg_recordSPDemo           3044ca00     <common>
 0003:003f3b20       _cg_singlePlayerActive     3044cb20     <common>
 0003:003f3c40       _cg_enableBreath           3044cc40     <common>
 0003:003f3d60       _cg_enableDust             3044cd60     <common>
 0003:003f3e80       _cg_singlePlayer           3044ce80     <common>
 0003:003f3fa0       _cg_currentSelectedPlayerName 3044cfa0     <common>
 0003:003f40c0       _cg_currentSelectedPlayer  3044d0c0     <common>
 0003:003f41e0       _cg_blueTeamName           3044d1e0     <common>
 0003:003f4300       _cg_redTeamName            3044d300     <common>
 0003:003f4420       _cg_trueLightning          3044d420     <common>
 0003:003f4540       _cg_oldPlasma              3044d540     <common>
 0003:003f4660       _cg_oldRocket              3044d660     <common>
 0003:003f4780       _cg_oldRail                3044d780     <common>
 0003:003f48a0       _cg_noProjectileTrail      3044d8a0     <common>
 0003:003f49c0       _cg_noTaunt                3044d9c0     <common>
 0003:003f4ae0       _cg_bigFont                3044dae0     <common>
 0003:003f4c00       _cg_smallFont              3044dc00     <common>
 0003:003f4d20       _cg_cameraMode             3044dd20     <common>
 0003:003f4e40       _cg_timescale              3044de40     <common>
 0003:003f4f60       _cg_timescaleFadeSpeed     3044df60     <common>
 0003:003f5080       _cg_timescaleFadeEnd       3044e080     <common>
 0003:003f51a0       _cg_cameraOrbitDelay       3044e1a0     <common>
 0003:003f52c0       _cg_cameraOrbit            3044e2c0     <common>
 0003:003f53e0       _pmove_msec                3044e3e0     <common>
 0003:003f5500       _pmove_fixed               3044e500     <common>
 0003:003f5620       _cg_smoothClients          3044e620     <common>
 0003:003f5740       _cg_scorePlum              3044e740     <common>
 0003:003f5860       _cg_noVoiceText            3044e860     <common>
 0003:003f5980       _cg_noVoiceChats           3044e980     <common>
 0003:003f5aa0       _cg_teamChatsOnly          3044eaa0     <common>
 0003:003f5bc0       _cg_drawFriend             3044ebc0     <common>
 0003:003f5ce0       _cg_deferPlayers           3044ece0     <common>
 0003:003f5e00       _cg_predictItems           3044ee00     <common>
 0003:003f5f20       _cg_blood                  3044ef20     <common>
 0003:003f6040       _cg_paused                 3044f040     <common>
 0003:003f6160       _cg_buildScript            3044f160     <common>
 0003:003f6280       _cg_forceModel             3044f280     <common>
 0003:003f63a0       _cg_stats                  3044f3a0     <common>
 0003:003f64c0       _cg_teamChatHeight         3044f4c0     <common>
 0003:003f65e0       _cg_teamChatTime           3044f5e0     <common>
 0003:003f6700       _cg_synchronousClients     3044f700     <common>
 0003:003f6820       _cg_drawAttacker           3044f820     <common>
 0003:003f6940       _cg_lagometer              3044f940     <common>
 0003:003f6a60       _cg_stereoSeparation       3044fa60     <common>
 0003:003f6b80       _cg_thirdPerson            3044fb80     <common>
 0003:003f6ca0       _cg_thirdPersonAngle       3044fca0     <common>
 0003:003f6dc0       _cg_thirdPersonRange       3044fdc0     <common>
 0003:003f6ee0       _cg_zoomFov                3044fee0     <common>
 0003:003f7000       _cg_fov                    30450000     <common>
 0003:003f7120       _cg_simpleItems            30450120     <common>
 0003:003f7240       _cg_ignore                 30450240     <common>
 0003:003f7360       _cg_autoswitch             30450360     <common>
 0003:003f7480       _cg_tracerLength           30450480     <common>
 0003:003f75a0       _cg_tracerWidth            304505a0     <common>
 0003:003f76c0       _cg_tracerChance           304506c0     <common>
 0003:003f77e0       _cg_viewsize               304507e0     <common>
 0003:003f7900       _cg_drawGun                30450900     <common>
 0003:003f7a20       _cg_gun_z                  30450a20     <common>
 0003:003f7b40       _cg_gun_y                  30450b40     <common>
 0003:003f7c60       _cg_gun_x                  30450c60     <common>
 0003:003f7d80       _cg_gun_frame              30450d80     <common>
 0003:003f7ea0       _cg_brassTime              30450ea0     <common>
 0003:003f7fc0       _cg_addMarks               30450fc0     <common>
 0003:003f80e0       _cg_footsteps              304510e0     <common>
 0003:003f8200       _cg_showmiss               30451200     <common>
 0003:003f8320       _cg_noPlayerAnims          30451320     <common>
 0003:003f8440       _cg_nopredict              30451440     <common>
 0003:003f8560       _cg_errorDecay             30451560     <common>
 0003:003f8680       _cg_railTrailTime          30451680     <common>
 0003:003f87a0       _cg_debugEvents            304517a0     <common>
 0003:003f88c0       _cg_debugPosition          304518c0     <common>
 0003:003f89e0       _cg_debugAnim              304519e0     <common>
 0003:003f8b00       _cg_animSpeed              30451b00     <common>
 0003:003f8c20       _cg_draw2D                 30451c20     <common>
 0003:003f8d40       _cg_drawStatus             30451d40     <common>
 0003:003f8e60       _cg_crosshairHealth        30451e60     <common>
 0003:003f8f80       _cg_crosshairSize          30451f80     <common>
 0003:003f90a0       _cg_crosshairY             304520a0     <common>
 0003:003f91c0       _cg_crosshairX             304521c0     <common>
 0003:003f92e0       _cg_teamOverlayUserinfo    304522e0     <common>
 0003:003f9400       _cg_drawTeamOverlay        30452400     <common>
 0003:003f9520       _cg_drawRewards            30452520     <common>
 0003:003f9640       _cg_drawCrosshairNames     30452640     <common>
 0003:003f9760       _cg_drawCrosshair          30452760     <common>
 0003:003f9880       _cg_drawAmmoWarning        30452880     <common>
 0003:003f99a0       _cg_drawIcons              304529a0     <common>
 0003:003f9ac0       _cg_draw3dIcons            30452ac0     <common>
 0003:003f9be0       _cg_drawSnapshot           30452be0     <common>
 0003:003f9d00       _cg_drawFPS                30452d00     <common>
 0003:003f9e20       _cg_drawTimer              30452e20     <common>
 0003:003f9f40       _cg_gibs                   30452f40     <common>
 0003:003fa060       _cg_shadows                30453060     <common>
 0003:003fa180       _cg_swingSpeed             30453180     <common>
 0003:003fa2a0       _cg_bobroll                304532a0     <common>
 0003:003fa3c0       _cg_bobpitch               304533c0     <common>
 0003:003fa4e0       _cg_bobup                  304534e0     <common>
 0003:003fa600       _cg_runroll                30453600     <common>
 0003:003fa720       _cg_runpitch               30453720     <common>
 0003:003fa840       _cg_centertime             30453840     <common>
 0003:003fa960       _cg_items                  30453960     <common>
 0003:003fc160       _cg_weapons                30455160     <common>
 0003:003fc9e0       _cg_entities               304559e0     <common>
 0003:004b2a00       _cg                        3050ba00     <common>
 0003:004d1240       _cgs                       3052a240     <common>
 0003:004f6a60       _cg_hudFiles               3054fa60     <common>
 0003:004f6b80       _cgDC                      3054fb80     <common>
 0003:00508a48       _cg_freeLocalEntities      30561a48     <common>
 0003:00508a60       _cg_activeLocalEntities    30561a60     <common>
 0003:00508ba0       _cg_localEntities          30561ba0     <common>
 0003:0052d3a0       _lagometer                 305863a0     <common>
 0003:0052d9c0       _teamChat2                 305869c0     <common>
 0003:0052dac0       _teamChat1                 30586ac0     <common>
 0003:0052dbc0       _systemChat                30586bc0     <common>
 0003:0052dcc0       _numSortedTeamPlayers      30586cc0     <common>
 0003:0052dce0       _sortedTeamPlayers         30586ce0     <common>
 0003:0052dd60       _pml                       30586d60     <common>
 0003:0052ddec       _pm                        30586dec     <common>
 0003:0052ddf0       ___piob                    30586df0     <common>
 0003:0052ddf4       __nstream                  30586df4     <common>
 0003:0052de00       __bufin                    30586e00     <common>
 0003:0052ee00       __pDestructExceptionObject 30587e00     <common>
 0003:0052ee04       __nhandle                  30587e04     <common>
 0003:0052ee08       ___dyn_tls_init_callback   30587e08     <common>
 0003:0052ee0c       ___onexitend               30587e0c     <common>
 0003:0052ee10       ___onexitbegin             30587e10     <common>
 0003:0052ee14       ___mbctype_initialized     30587e14     <common>
 0003:0052ee18       ___env_initialized         30587e18     <common>
 0003:0052ee1c       ___use_sse2_mathfcns       30587e1c     <common>
 0003:0052ee20       _encodedKERNEL32Functions  30587e20     <common>
 0003:0052ee94       __debugger_hook_dummy      30587e94     <common>
 0003:0052ee98       __pmatherr                 30587e98     <common>
 0003:0052ee9c       __acmdln                   30587e9c     <common>

 entry point at        0001:000362c6

 Static symbols

 0001:00000258       $LN56                      30001258     bg_misc.obj
 0001:00000408       $LN16                      30001408     bg_misc.obj
 0001:0000054c       $LN13                      3000154c     bg_misc.obj
 0001:000009b0       _PM_Accelerate             300019b0 f   bg_pmove.obj
 0001:00000ac0       _PM_AirMove                30001ac0 f   bg_pmove.obj
 0001:00000c20       _PM_Animate                30001c20 f   bg_pmove.obj
 0001:00000ce0       _PM_BeginWeaponChange      30001ce0 f   bg_pmove.obj
 0001:00000d50       _PM_CheckDuck              30001d50 f   bg_pmove.obj
 0001:00000f90       _PM_CheckJump              30001f90 f   bg_pmove.obj
 0001:00001040       _PM_CheckWaterJump         30002040 f   bg_pmove.obj
 0001:00001240       _PM_CmdScale               30002240 f   bg_pmove.obj
 0001:00001300       _PM_ContinueLegsAnim       30002300 f   bg_pmove.obj
 0001:00001330       _PM_ContinueTorsoAnim      30002330 f   bg_pmove.obj
 0001:00001360       _PM_CorrectAllSolid        30002360 f   bg_pmove.obj
 0001:00001540       _PM_CrashLand              30002540 f   bg_pmove.obj
 0001:000016f0       _PM_DeadMove               300026f0 f   bg_pmove.obj
 0001:000017c0       _PM_DropTimers             300027c0 f   bg_pmove.obj
 0001:00001850       _PM_FinishWeaponChange     30002850 f   bg_pmove.obj
 0001:000018b0       _PM_FlyMove                300028b0 f   bg_pmove.obj
 0001:000019f0       _PM_FootstepForSurface     300029f0 f   bg_pmove.obj
 0001:00001a10       _PM_Footsteps              30002a10 f   bg_pmove.obj
 0001:00001bf0       _PM_ForceLegsAnim          30002bf0 f   bg_pmove.obj
 0001:00001c10       _PM_Friction               30002c10 f   bg_pmove.obj
 0001:00001da0       _PM_GrappleMove            30002da0 f   bg_pmove.obj
 0001:00001f20       _PM_GroundTrace            30002f20 f   bg_pmove.obj
 0001:000021e0       _PM_GroundTraceMissed      300031e0 f   bg_pmove.obj
 0001:00002300       _PM_InvulnerabilityMove    30003300 f   bg_pmove.obj
 0001:00002340       _PM_NoclipMove             30003340 f   bg_pmove.obj
 0001:00002580       _PM_SetMovementDir         30003580 f   bg_pmove.obj
 0001:00002640       _PM_SetWaterLevel          30003640 f   bg_pmove.obj
 0001:000027b0       _PM_StartLegsAnim          300037b0 f   bg_pmove.obj
 0001:000027e0       _PM_StartTorsoAnim         300037e0 f   bg_pmove.obj
 0001:00002810       _PM_TorsoAnimation         30003810 f   bg_pmove.obj
 0001:00002910       _PM_WalkMove               30003910 f   bg_pmove.obj
 0001:00002cc0       _PM_WaterEvents            30003cc0 f   bg_pmove.obj
 0001:00002d50       _PM_WaterJumpMove          30003d50 f   bg_pmove.obj
 0001:00002da0       _PM_WaterMove              30003da0 f   bg_pmove.obj
 0001:00003020       _PM_Weapon                 30004020 f   bg_pmove.obj
 0001:000032a4       $LN53                      300042a4     bg_pmove.obj
 0001:000042a0       _CG_SizeUp_f               300052a0 f   cg_consolecmds.obj
 0001:000042d0       _CG_SizeDown_f             300052d0 f   cg_consolecmds.obj
 0001:00004300       _CG_Viewpos_f              30005300 f   cg_consolecmds.obj
 0001:00004340       _CG_ScoresDown_f           30005340 f   cg_consolecmds.obj
 0001:00004390       _CG_ScoresUp_f             30005390 f   cg_consolecmds.obj
 0001:000043b0       _CG_LoadHud_f              300053b0 f   cg_consolecmds.obj
 0001:00004430       _CG_scrollScoresDown_f     30005430 f   cg_consolecmds.obj
 0001:00004470       _CG_scrollScoresUp_f       30005470 f   cg_consolecmds.obj
 0001:000044b0       _CG_spWin_f                300054b0 f   cg_consolecmds.obj
 0001:00004520       _CG_spLose_f               30005520 f   cg_consolecmds.obj
 0001:00004590       _CG_TellTarget_f           30005590 f   cg_consolecmds.obj
 0001:00004600       _CG_TellAttacker_f         30005600 f   cg_consolecmds.obj
 0001:00004670       _CG_VoiceTellTarget_f      30005670 f   cg_consolecmds.obj
 0001:000046e0       _CG_VoiceTellAttacker_f    300056e0 f   cg_consolecmds.obj
 0001:00004750       _CG_NextTeamMember_f       30005750 f   cg_consolecmds.obj
 0001:00004760       _CG_PrevTeamMember_f       30005760 f   cg_consolecmds.obj
 0001:00004770       _CG_NextOrder_f            30005770 f   cg_consolecmds.obj
 0001:00004810       _CG_ConfirmOrder_f         30005810 f   cg_consolecmds.obj
 0001:00004870       _CG_DenyOrder_f            30005870 f   cg_consolecmds.obj
 0001:000048b0       _CG_TaskOffense_f          300058b0 f   cg_consolecmds.obj
 0001:00004900       _CG_TaskDefense_f          30005900 f   cg_consolecmds.obj
 0001:00004930       _CG_TaskPatrol_f           30005930 f   cg_consolecmds.obj
 0001:00004960       _CG_TaskCamp_f             30005960 f   cg_consolecmds.obj
 0001:00004990       _CG_TaskFollow_f           30005990 f   cg_consolecmds.obj
 0001:000049c0       _CG_TaskRetrieve_f         300059c0 f   cg_consolecmds.obj
 0001:000049f0       _CG_TaskEscort_f           300059f0 f   cg_consolecmds.obj
 0001:00004a20       _CG_TaskOwnFlag_f          30005a20 f   cg_consolecmds.obj
 0001:00004a40       _CG_TauntKillInsult_f      30005a40 f   cg_consolecmds.obj
 0001:00004a50       _CG_TauntPraise_f          30005a50 f   cg_consolecmds.obj
 0001:00004a60       _CG_TauntTaunt_f           30005a60 f   cg_consolecmds.obj
 0001:00004a70       _CG_TauntDeathInsult_f     30005a70 f   cg_consolecmds.obj
 0001:00004a80       _CG_TauntGauntlet_f        30005a80 f   cg_consolecmds.obj
 0001:00004a90       _CG_TaskSuicide_f          30005a90 f   cg_consolecmds.obj
 0001:00004af0       _CG_StartOrbit_f           30005af0 f   cg_consolecmds.obj
 0001:00004e50       _CG_Draw2D                 30005e50 f   cg_draw.obj
 0001:000051d0       _CG_DrawAmmoWarning        300061d0 f   cg_draw.obj
 0001:00005220       _CG_DrawAttacker           30006220 f   cg_draw.obj
 0001:00005360       _CG_DrawCenterString       30006360 f   cg_draw.obj
 0001:000054e0       _CG_DrawCrosshair          300064e0 f   cg_draw.obj
 0001:000056d0       _CG_DrawCrosshairNames     300066d0 f   cg_draw.obj
 0001:000057b0       _CG_DrawDisconnect         300067b0 f   cg_draw.obj
 0001:00005870       _CG_DrawFPS                30006870 f   cg_draw.obj
 0001:00005b40       _CG_DrawFollow             30006b40 f   cg_draw.obj
 0001:00005df0       _CG_DrawIntermission       30006df0 f   cg_draw.obj
 0001:00005e10       _CG_DrawLagometer          30006e10 f   cg_draw.obj
 0001:00006240       _CG_DrawProxWarning        30007240 f   cg_draw.obj
 0001:00006340       _CG_DrawReward             30007340 f   cg_draw.obj
 0001:00006510       _CG_DrawScoreboard         30007510 f   cg_draw.obj
 0001:00006630       _CG_DrawSnapshot           30007630 f   cg_draw.obj
 0001:000066c0       _CG_DrawSpectator          300076c0 f   cg_draw.obj
 0001:000067f0       _CG_DrawTeamOverlay        300077f0 f   cg_draw.obj
 0001:00006c50       _CG_DrawTeamVote           30007c50 f   cg_draw.obj
 0001:00006d50       _CG_DrawTimer              30007d50 f   cg_draw.obj
 0001:00006e20       _CG_DrawUpperRight         30007e20 f   cg_draw.obj
 0001:00006ed0       _CG_DrawVote               30007ed0 f   cg_draw.obj
 0001:00006f80       _CG_DrawWarmup             30007f80 f   cg_draw.obj
 0001:00007200       _CG_ScanForCrosshairEntity 30008200 f   cg_draw.obj
 0001:000081c0       _CG_TileClearBox           300091c0 f   cg_drawtools.obj
 0001:000084e0       _UI_DrawProportionalString2 300094e0 f   cg_drawtools.obj
 0001:00009f60       _CG_AddCEntity             3000af60 f   cg_ents.obj
 0001:0000a018       $LN19                      3000b018     cg_ents.obj
 0001:0000a360       _CG_CalcEntityLerpPositions 3000b360 f   cg_ents.obj
 0001:0000a410       _CG_EntityEffects          3000b410 f   cg_ents.obj
 0001:0000a4d0       _CG_General                3000b4d0 f   cg_ents.obj
 0001:0000a5b0       _CG_Grapple                3000b5b0 f   cg_ents.obj
 0001:0000a6d0       _CG_InterpolateEntityPosition 3000b6d0 f   cg_ents.obj
 0001:0000a850       _CG_Item                   3000b850 f   cg_ents.obj
 0001:0000b030       _CG_Missile                3000c030 f   cg_ents.obj
 0001:0000b280       _CG_Mover                  3000c280 f   cg_ents.obj
 0001:0000b380       _CG_Portal                 3000c380 f   cg_ents.obj
 0001:0000b820       _CG_Speaker                3000c820 f   cg_ents.obj
 0001:0000b8d0       _CG_TeamBase               3000c8d0 f   cg_ents.obj
 0001:0000d6cc       $LN272                     3000e6cc     cg_event.obj
 0001:0000d814       $LN273                     3000e814     cg_event.obj
 0001:0000d824       $LN274                     3000e824     cg_event.obj
 0001:0000d860       _CG_ItemPickup             3000e860 f   cg_event.obj
 0001:0000d8b0       _CG_Obituary               3000e8b0 f   cg_event.obj
 0001:0000dcf0       $LN90                      3000ecf0     cg_event.obj
 0001:0000dd14       $LN91                      3000ed14     cg_event.obj
 0001:0000dd30       $LN86                      3000ed30     cg_event.obj
 0001:0000dd48       $LN92                      3000ed48     cg_event.obj
 0001:0000df10       _CG_UseItem                3000ef10 f   cg_event.obj
 0001:0000dfec       $LN20                      3000efec     cg_event.obj
 0001:0000e3c8       $LN30                      3000f3c8     cg_info.obj
 0001:0000e3f0       _CG_DrawLoadingIcons       3000f3f0 f   cg_info.obj
 0001:0000e6e0       _CG_AddExplosion           3000f6e0 f   cg_localents.obj
 0001:0000e830       _CG_AddFallScaleFade       3000f830 f   cg_localents.obj
 0001:0000f2f8       $LN27                      300102f8     cg_localents.obj
 0001:0000f330       _CG_AddMoveScaleFade       30010330 f   cg_localents.obj
 0001:0000f4a0       _CG_AddScaleFade           300104a0 f   cg_localents.obj
 0001:0000f8d0       _CG_AddSpriteExplosion     300108d0 f   cg_localents.obj
 0001:000105d0       _CG_Cvar_Get               300115d0 f   cg_main.obj
 0001:00010640       _CG_DrawCinematic          30011640 f   cg_main.obj
 0001:000106c0       _CG_FeederCount            300116c0 f   cg_main.obj
 0001:00010740       _CG_FeederItemText         30011740 f   cg_main.obj
 0001:0001095c       $LN39                      3001195c     cg_main.obj
 0001:00010980       _CG_FeederSelection        30011980 f   cg_main.obj
 0001:000109f0       _CG_ForceModelChange       300119f0 f   cg_main.obj
 0001:00010a20       _CG_InfoFromScoreIndex     30011a20 f   cg_main.obj
 0001:00011110       _CG_FeederItemImage        30012110 f   cg_main.obj
 0001:00011110       _CG_OwnerDrawHandleKey     30012110 f   cg_main.obj
 0001:00011120       _CG_OwnerDrawWidth         30012120 f   cg_main.obj
 0001:000111d4       $LN12                      300121d4     cg_main.obj
 0001:000111ec       $LN10                      300121ec     cg_main.obj
 0001:000112e0       _CG_PlayCinematic          300122e0 f   cg_main.obj
 0001:00011360       _CG_RegisterClients        30012360 f   cg_main.obj
 0001:000114a0       _CG_RegisterGraphics       300124a0 f   cg_main.obj
 0001:00011fb0       _CG_RegisterItemSounds     30012fb0 f   cg_main.obj
 0001:000120d0       _CG_RegisterSounds         300130d0 f   cg_main.obj
 0001:00012bf0       _CG_RunCinematicFrame      30013bf0 f   cg_main.obj
 0001:00012d30       _CG_StopCinematic          30013d30 f   cg_main.obj
 0001:00012f6c       $LN18                      30013f6c     cg_main.obj
 0001:00015bd4       $LN21                      30016bd4     cg_newDraw.obj
 0001:00015bf0       _CG_Draw1stPlace           30016bf0 f   cg_newDraw.obj
 0001:00015c50       _CG_Draw2ndPlace           30016c50 f   cg_newDraw.obj
 0001:00015cb0       _CG_DrawAreaChat           30016cb0 f   cg_newDraw.obj
 0001:00015d00       _CG_DrawAreaPowerUp        30016d00 f   cg_newDraw.obj
 0001:00016040       _CG_DrawAreaSystemChat     30017040 f   cg_newDraw.obj
 0001:00016090       _CG_DrawAreaTeamChat       30017090 f   cg_newDraw.obj
 0001:000160e0       _CG_DrawBlueFlagHead       300170e0 f   cg_newDraw.obj
 0001:000161d0       _CG_DrawBlueFlagName       300171d0 f   cg_newDraw.obj
 0001:00016260       _CG_DrawBlueFlagStatus     30017260 f   cg_newDraw.obj
 0001:00016400       _CG_DrawBlueName           30017400 f   cg_newDraw.obj
 0001:00016450       _CG_DrawBlueScore          30017450 f   cg_newDraw.obj
 0001:00016520       _CG_DrawCTFPowerUp         30017520 f   cg_newDraw.obj
 0001:00016590       _CG_DrawCapFragLimit       30017590 f   cg_newDraw.obj
 0001:00016600       _CG_DrawGameStatus         30017600 f   cg_newDraw.obj
 0001:00016650       _CG_DrawGameType           30017650 f   cg_newDraw.obj
 0001:000166a0       _CG_DrawKiller             300176a0 f   cg_newDraw.obj
 0001:00016900       $LN25                      30017900     cg_newDraw.obj
 0001:00016924       $LN21                      30017924     cg_newDraw.obj
 0001:00016d40       _CG_DrawPlayerAmmoIcon     30017d40 f   cg_newDraw.obj
 0001:00016eb0       _CG_DrawPlayerAmmoValue    30017eb0 f   cg_newDraw.obj
 0001:00017000       _CG_DrawPlayerArmorIcon    30018000 f   cg_newDraw.obj
 0001:00017130       _CG_DrawPlayerArmorValue   30018130 f   cg_newDraw.obj
 0001:00017250       _CG_DrawPlayerHasFlag      30018250 f   cg_newDraw.obj
 0001:000172e0       _CG_DrawPlayerHead         300182e0 f   cg_newDraw.obj
 0001:000176d0       _CG_DrawPlayerHealth       300186d0 f   cg_newDraw.obj
 0001:000177f0       _CG_DrawPlayerItem         300187f0 f   cg_newDraw.obj
 0001:00017860       _CG_DrawPlayerLocation     30018860 f   cg_newDraw.obj
 0001:000178e0       _CG_DrawPlayerScore        300188e0 f   cg_newDraw.obj
 0001:00017a00       _CG_DrawPlayerStatus       30018a00 f   cg_newDraw.obj
 0001:00017a70       _CG_DrawRedFlagHead        30018a70 f   cg_newDraw.obj
 0001:00017b60       _CG_DrawRedFlagName        30018b60 f   cg_newDraw.obj
 0001:00017bf0       _CG_DrawRedFlagStatus      30018bf0 f   cg_newDraw.obj
 0001:00017d90       _CG_DrawRedName            30018d90 f   cg_newDraw.obj
 0001:00017de0       _CG_DrawRedScore           30018de0 f   cg_newDraw.obj
 0001:00017eb0       _CG_DrawSelectedPlayerArmor 30018eb0 f   cg_newDraw.obj
 0001:00017ff0       _CG_DrawSelectedPlayerHead 30018ff0 f   cg_newDraw.obj
 0001:000181f0       _CG_DrawSelectedPlayerHealth 300191f0 f   cg_newDraw.obj
 0001:00018320       _CG_DrawSelectedPlayerLocation 30019320 f   cg_newDraw.obj
 0001:000183a0       _CG_DrawSelectedPlayerName 300193a0 f   cg_newDraw.obj
 0001:00018420       _CG_DrawSelectedPlayerPowerup 30019420 f   cg_newDraw.obj
 0001:000184e0       _CG_DrawSelectedPlayerStatus 300194e0 f   cg_newDraw.obj
 0001:00018580       _CG_DrawSelectedPlayerWeapon 30019580 f   cg_newDraw.obj
 0001:00018600       _CG_DrawTeamColor          30019600 f   cg_newDraw.obj
 0001:00018b60       $LN17                      30019b60     cg_newDraw.obj
 0001:00018b84       $LN15                      30019b84     cg_newDraw.obj
 0001:00018bb0       _CG_HarvesterSkulls        30019bb0 f   cg_newDraw.obj
 0001:00018f70       _CG_OneFlagStatus          30019f70 f   cg_newDraw.obj
 0001:000196ec       $LN66                      3001a6ec     cg_newDraw.obj
 0001:000199e0       _CG_SetSelectedPlayerName  3001a9e0 f   cg_newDraw.obj
 0001:00019ad4       $LN14                      3001aad4     cg_newDraw.obj
 0001:00019af0       _CG_Text_Paint_Limit       3001aaf0 f   cg_newDraw.obj
 0001:00019d90       _CG_AddPainTwitch          3001ad90 f   cg_players.obj
 0001:00019ec0       _CG_BreathPuffs            3001aec0 f   cg_players.obj
 0001:0001a040       _CG_ClearLerpFrame         3001b040 f   cg_players.obj
 0001:0001a080       _CG_ColorFromString        3001b080 f   cg_players.obj
 0001:0001a0f0       _CG_CopyClientInfoModel    3001b0f0 f   cg_players.obj
 0001:0001a270       _CG_DustTrail              3001b270 f   cg_players.obj
 0001:0001a3d0       _CG_FileExists             3001b3d0 f   cg_players.obj
 0001:0001a3f0       _CG_FindClientHeadFile     3001b3f0 f   cg_players.obj
 0001:0001a580       _CG_FindClientModelFile    3001b580 f   cg_players.obj
 0001:0001a700       _CG_HasteTrail             3001b700 f   cg_players.obj
 0001:0001a800       _CG_LoadClientInfo         3001b800 f   cg_players.obj
 0001:0001af60       _CG_ParseAnimationFile     3001bf60 f   cg_players.obj
 0001:0001c390       _CG_PlayerAngles           3001d390 f   cg_players.obj
 0001:0001c730       _CG_PlayerAnimation        3001d730 f   cg_players.obj
 0001:0001c840       _CG_PlayerFlag             3001d840 f   cg_players.obj
 0001:0001cbe0       _CG_PlayerFloatSprite      3001dbe0 f   cg_players.obj
 0001:0001cca0       _CG_PlayerPowerups         3001dca0 f   cg_players.obj
 0001:0001cec0       _CG_PlayerShadow           3001dec0 f   cg_players.obj
 0001:0001d050       _CG_PlayerSplash           3001e050 f   cg_players.obj
 0001:0001d220       _CG_PlayerSprites          3001e220 f   cg_players.obj
 0001:0001d330       _CG_PlayerTokens           3001e330 f   cg_players.obj
 0001:0001d6a0       _CG_RegisterClientModelname 3001e6a0 f   cg_players.obj
 0001:0001da90       _CG_RegisterClientSkin     3001ea90 f   cg_players.obj
 0001:0001dd70       _CG_RunLerpFrame           3001ed70 f   cg_players.obj
 0001:0001df00       _CG_ScanForExistingClientInfo 3001ef00 f   cg_players.obj
 0001:0001e030       _CG_SetDeferredClientInfo  3001f030 f   cg_players.obj
 0001:0001e1c0       _CG_SetLerpFrameAnimation  3001f1c0 f   cg_players.obj
 0001:0001e230       _CG_SwingAngles            3001f230 f   cg_players.obj
 0001:0001e3f0       _CG_TrailItem              3001f3f0 f   cg_players.obj
 0001:0001e58c       $LN23                      3001f58c     cg_playerstate.obj
 0001:0001e594       $LN19                      3001f594     cg_playerstate.obj
 0001:0001eef0       _pushReward                3001fef0 f   cg_playerstate.obj
 0001:0001efe0       _CG_ClipMoveToEntities     3001ffe0 f   cg_predict.obj
 0001:0001f1e0       _CG_InterpolatePlayerState 300201e0 f   cg_predict.obj
 0001:0001fa00       _CG_TouchItem              30020a00 f   cg_predict.obj
 0001:0001fb00       _CG_TouchTriggerPrediction 30020b00 f   cg_predict.obj
 0001:0001fd30       _CG_AddToTeamChat          30020d30 f   cg_servercmds.obj
 0001:0001fe80       _CG_ConfigStringModified   30020e80 f   cg_servercmds.obj
 0001:000203a0       _CG_MapRestart             300213a0 f   cg_servercmds.obj
 0001:000204a0       _CG_ParseScores            300214a0 f   cg_servercmds.obj
 0001:000207b0       _CG_ParseTeamInfo          300217b0 f   cg_servercmds.obj
 0001:00020bf0       _CG_ParseWarmup            30021bf0 f   cg_servercmds.obj
 0001:00020d90       _CG_RemoveChatEscapeChar   30021d90 f   cg_servercmds.obj
 0001:00020dc0       _CG_ServerCommand          30021dc0 f   cg_servercmds.obj
 0001:00021510       _CG_ValidOrder             30022510 f   cg_servercmds.obj
 0001:00021c10       _CG_ReadNextSnapshot       30022c10 f   cg_snapshot.obj
 0001:00021ca0       _CG_ResetEntity            30022ca0 f   cg_snapshot.obj
 0001:00021df0       _CG_SetNextSnap            30022df0 f   cg_snapshot.obj
 0001:00021f10       _CG_TransitionEntity       30022f10 f   cg_snapshot.obj
 0001:00021f60       _CG_TransitionSnapshot     30022f60 f   cg_snapshot.obj
 0001:00022b60       _CG_AddTestModel           30023b60 f   cg_view.obj
 0001:00022cd0       _CG_CalcFov                30023cd0 f   cg_view.obj
 0001:00022ee0       _CG_CalcViewValues         30023ee0 f   cg_view.obj
 0001:00023170       _CG_CalcVrect              30024170 f   cg_view.obj
 0001:00023240       _CG_DamageBlendBlob        30024240 f   cg_view.obj
 0001:00023680       _CG_OffsetFirstPersonView  30024680 f   cg_view.obj
 0001:000239d0       _CG_OffsetThirdPersonView  300249d0 f   cg_view.obj
 0001:00023dc0       _CG_PlayBufferedSounds     30024dc0 f   cg_view.obj
 0001:00023e30       _CG_PowerupTimerSounds     30024e30 f   cg_view.obj
 0001:00023ec0       _CG_StepOffset             30024ec0 f   cg_view.obj
 0001:00024910       _CG_AddWeaponWithPowerups  30025910 f   cg_weapons.obj
 0001:00024ac0       _CG_CalcMuzzlePoint        30025ac0 f   cg_weapons.obj
 0001:00024c20       _CG_CalculateWeaponPosition 30025c20 f   cg_weapons.obj
 0001:000252c0       _CG_GrenadeTrail           300262c0 f   cg_weapons.obj
 0001:000252d0       _CG_LightningBolt          300262d0 f   cg_weapons.obj
 0001:00025660       _CG_MachineGunEjectBrass   30026660 f   cg_weapons.obj
 0001:00025a00       _CG_MachinegunSpinAngle    30026a00 f   cg_weapons.obj
 0001:00025b00       _CG_MapTorsoToWeaponFrame  30026b00 f   cg_weapons.obj
 0001:00025ba0       $LN9                       30026ba0     cg_weapons.obj
 0001:00025ba8       $LN7                       30026ba8     cg_weapons.obj
 0001:00026014       $LN53                      30027014     cg_weapons.obj
 0001:00026050       _CG_NailTrail              30027050 f   cg_weapons.obj
 0001:000261f0       _CG_NailgunEjectBrass      300271f0 f   cg_weapons.obj
 0001:000263f0       _CG_PlasmaTrail            300273f0 f   cg_weapons.obj
 0001:0002778c       $LN69                      3002878c     cg_weapons.obj
 0001:000277c0       _CG_RocketTrail            300287c0 f   cg_weapons.obj
 0001:00027960       _CG_ShotgunEjectBrass      30028960 f   cg_weapons.obj
 0001:00027e80       _CG_ShotgunPattern         30028e80 f   cg_weapons.obj
 0001:00028010       _CG_ShotgunPellet          30029010 f   cg_weapons.obj
 0001:00028140       _CG_SpawnRailTrail         30029140 f   cg_weapons.obj
 0001:000285b0       _CG_WeaponSelectable       300295b0 f   cg_weapons.obj
 0001:00029bc0       _SkipWhitespace            3002abc0 f   q_shared.obj
 0001:0002b920       _Controls_GetKeyAssignment 3002c920 f   ui_shared.obj
 0001:0002baa0       _Display_CloseCinematics   3002caa0 f   ui_shared.obj
 0001:0002c300       _Item_CorrectedTextRect    3002d300 f   ui_shared.obj
 0001:0002c5d0       $LN24                      3002d5d0     ui_shared.obj
 0001:0002edec       $LN68                      3002fdec     ui_shared.obj
 0001:0002fbb4       $LN15                      30030bb4     ui_shared.obj
 0001:0002fbc0       $LN11                      30030bc0     ui_shared.obj
 0001:000310f0       _Menu_CloseCinematics      300320f0 f   ui_shared.obj
 0001:0003173c       $LN65                      3003273c     ui_shared.obj
 0001:0003175c       $LN53                      3003275c     ui_shared.obj
 0001:00031b80       _Menu_OverActiveItem       30032b80 f   ui_shared.obj
 0001:00032070       _Menu_RunCloseScript       30033070 f   ui_shared.obj
 0001:00032e30       _Scroll_ListBox_AutoFunc   30033e30 f   ui_shared.obj
 0001:00032ea0       _Scroll_ListBox_ThumbFunc  30033ea0 f   ui_shared.obj
 0001:000330d0       _Scroll_Slider_ThumbFunc   300340d0 f   ui_shared.obj
 0001:00033400       _Window_CloseCinematic     30034400 f   ui_shared.obj
 0001:000339f0       _hashForString             300349f0 f   ui_shared.obj
 0001:00033a50       $$000000                   30034a50     LIBCMT:cos_sse2_precise.obj
 0001:00033c10       $$000000                   30034c10     LIBCMT:sin_sse2_precise.obj
 0001:00033e50       $$000000                   30034e50     LIBCMT:sqrt_sse2_precise.obj
 0001:00033f50       $$000000                   30034f50     LIBCMT:memset.obj
 0001:00034230       $$000000                   30035230     LIBCMT:acos_sse2_precise.obj
 0001:00034920       $$000000                   30035920     LIBCMT:memcpy.obj
 0001:00034b70       LeadUpVec                  30035b70     LIBCMT:memcpy.obj
 0001:00034bec       UnwindUpVec                30035bec     LIBCMT:memcpy.obj
 0001:00034c58       TrailUpVec                 30035c58     LIBCMT:memcpy.obj
 0001:00034cfc       LeadDownVec                30035cfc     LIBCMT:memcpy.obj
 0001:00034d88       UnwindDownVec              30035d88     LIBCMT:memcpy.obj
 0001:00034df4       TrailDownVec               30035df4     LIBCMT:memcpy.obj
 0001:00034f70       $$000000                   30035f70     LIBCMT:chkstk.obj
 0001:00034fa0       $$000000                   30035fa0     LIBCMT:floor_pentium4.obj
 0001:000350d0       $$000000                   300360d0     LIBCMT:strchr.obj
 0001:00035200       $$000000                   30036200     LIBCMT:strncpy.obj
 0001:00035330       $$000000                   30036330     LIBCMT:strstr.obj
 0001:000355a0       $$000000                   300365a0     LIBCMT:87ctriga.obj
 0001:000355c0       $$000000                   300365c0     LIBCMT:tan_sse2_precise.obj
 0001:00035b10       $$000000                   30036b10     LIBCMT:memmove.obj
 0001:00035d60       LeadUpVec                  30036d60     LIBCMT:memmove.obj
 0001:00035ddc       UnwindUpVec                30036ddc     LIBCMT:memmove.obj
 0001:00035e48       TrailUpVec                 30036e48     LIBCMT:memmove.obj
 0001:00035eec       LeadDownVec                30036eec     LIBCMT:memmove.obj
 0001:00035f78       UnwindDownVec              30036f78     LIBCMT:memmove.obj
 0001:00035fe4       TrailDownVec               30036fe4     LIBCMT:memmove.obj
 0001:000362e9       ___DllMainCRTStartup       300372e9 f   LIBCMT:dllcrt0.obj
 0001:00036420       $$000000                   30037420     LIBCMT:cos.obj
 0001:00036550       $$000000                   30037550     LIBCMT:sin.obj
 0001:00036a98       __cftoe2_l                 30037a98 f   LIBCMT:cvt.obj
 0001:00036cb3       __cftof2_l                 30037cb3 f   LIBCMT:cvt.obj
 0001:000370dd       __shift                    300380dd f   LIBCMT:cvt.obj
 0001:000373fb       $LN79                      300383fb     LIBCMT:libm_error.obj
 0001:00037440       $$000000                   30038440     LIBCMT:sqrt.obj
 0001:000376fb       ?strtoxl@@YAKPAUlocaleinfo_struct@@PBDPAPBDHH@Z 300386fb f   LIBCMT:strtol.obj
 0001:00037fc0       $$000000                   30038fc0     LIBCMT:acos.obj
 0001:00038b15       $LN304                     30039b15     LIBCMT:strgtold.obj
 0001:00038eaf       ?CPtoLocaleName@@YAPB_WH@Z 30039eaf f   LIBCMT:mbctype.obj
 0001:00038ee9       ?getSystemCP@@YAHH@Z       30039ee9 f   LIBCMT:mbctype.obj
 0001:00038f55       ?setSBCS@@YAXPAUthreadmbcinfostruct@@@Z 30039f55 f   LIBCMT:mbctype.obj
 0001:00038fbe       ?setSBUpLow@@YAXPAUthreadmbcinfostruct@@@Z 30039fbe f   LIBCMT:mbctype.obj
 0001:0003a2f8       $LN272                     3003b2f8     LIBCMT:output.obj
 0001:0003a318       _write_char                3003b318 f   LIBCMT:output.obj
 0001:0003a35e       _write_multi_char          3003b35e f   LIBCMT:output.obj
 0001:0003a38a       _write_string              3003b38a f   LIBCMT:output.obj
 0001:0003a4f0       $$000000                   3003b4f0     LIBCMT:87triga.obj
 0001:0003a5a0       $$000000                   3003b5a0     LIBCMT:87cdisp.obj
 0001:0003a820       $$000000                   3003b820     LIBCMT:tan.obj
 0001:0003a994       ?__crtLCMapStringA_stat@@YAHPAUlocaleinfo_struct@@PB_WKPBDHPADHHH@Z 3003b994 f   LIBCMT:a_map.obj
 0001:0003b00a       __initterm                 3003c00a f   LIBCMT:crt0dat.obj
 0001:0003b05a       _doexit                    3003c05a f   LIBCMT:crt0dat.obj
 0001:0003b557       _parse_cmdline             3003c557 f   LIBCMT:stdargv.obj
 0001:0003ba40       $$000000                   3003ca40     LIBCMT:sehprolg4.obj
 0001:0003bc40       $$000000                   3003cc40     LIBCMT:cos_pentium4.obj
 0001:0003bdf0       $$000000                   3003cdf0     LIBCMT:87disp.obj
 0001:0003bfc0       $$000000                   3003cfc0     LIBCMT:common.obj
 0001:0003c150       $$000000                   3003d150     LIBCMT:genexcep.obj
 0001:0003c1b0       $$000000                   3003d1b0     LIBCMT:sin_pentium4.obj
 0001:0003c450       $$000000                   3003d450     LIBCMT:strlen.obj
 0001:0003c4e0       $$000000                   3003d4e0     LIBCMT:strrchr.obj
 0001:0003c940       $$000000                   3003d940     LIBCMT:lldvrm.obj
 0001:0003ca20       $$000000                   3003da20     LIBCMT:ullshr.obj
 0001:0003cab0       $$000000                   3003dab0     LIBCMT:llmul.obj
 0001:0003caf0       $$000000                   3003daf0     LIBCMT:ulldvrm.obj
 0001:0003cd00       $$000000                   3003dd00     LIBCMT:acos_pentium4.obj
 0001:0003e3f9       ?__crtGetStringTypeA_stat@@YAHPAUlocaleinfo_struct@@KPBDHPAGHH@Z 3003f3f9 f   LIBCMT:a_str.obj
 0001:0003fda0       $$000000                   30040da0     LIBCMT:tan_pentium4.obj
 0001:000401d0       $$000000                   300411d0     LIBCMT:alloca16.obj
 0001:00040770       __onexit_nolock            30041770 f   LIBCMT:onexit.obj
 0001:00040aab       _siglookup                 30041aab f   LIBCMT:winsig.obj
 0001:00040af0       $$000000                   30041af0     LIBCMT:exsup4.obj
 0001:00040b80       __unwind_handler4          30041b80 f   LIBCMT:exsup4.obj
 0001:00040c42       ?x_ismbbtype_l@@YAHPAUlocaleinfo_struct@@IHH@Z 30041c42 f   LIBCMT:ismbbyte.obj
 0001:00041797       ___hw_cw_sse2              30042797 f   LIBCMT:ieee87.obj
 0001:00041b40       __hw_cw                    30042b40 f   LIBCMT:ieee87.obj
 0001:00041d27       _flsall                    30042d27 f   LIBCMT:fflush.obj
 0001:00042390       $$000000                   30043390     LIBCMT:exsup.obj
 0001:000423b0       __unwind_handler           300433b0 f   LIBCMT:exsup.obj
 0002:00000110       _pinit                     30044110     LIBCMT:cpu_disp.obj
 0002:00000114       _pinit                     30044114     LIBCMT:mbctype.obj
 0002:00000118       _pinit                     30044118     LIBCMT:mathfcns.obj
 0002:0000011c       _pinit                     3004411c     LIBCMT:_file.obj
 0002:00000120       _pinit                     30044120     LIBCMT:onexit.obj
 0002:0000012c       _pterm                     3004412c     LIBCMT:wsetloca.obj
 0002:00000130       _pterm                     30044130     LIBCMT:initcon.obj
 0002:00000134       _pterm                     30044134     LIBCMT:_file.obj
 0002:00006a00       _validOrders               3004aa00     cg_servercmds.obj
 0002:00006a48       _numValidOrders            3004aa48     cg_servercmds.obj
 0002:000079b4       _g_bindCount               3004b9b4     ui_shared.obj
 0002:00007ee0       Ctable                     3004bee0     LIBCMT:cos_sse2_precise.obj
 0002:000086e0       SC_1                       3004c6e0     LIBCMT:cos_sse2_precise.obj
 0002:000086f0       SC_2                       3004c6f0     LIBCMT:cos_sse2_precise.obj
 0002:00008700       SC_3                       3004c700     LIBCMT:cos_sse2_precise.obj
 0002:00008710       SC_4                       3004c710     LIBCMT:cos_sse2_precise.obj
 0002:00008720       PI32INV                    3004c720     LIBCMT:cos_sse2_precise.obj
 0002:00008728       SHIFTER                    3004c728     LIBCMT:cos_sse2_precise.obj
 0002:00008730       P_2                        3004c730     LIBCMT:cos_sse2_precise.obj
 0002:00008740       P_1                        3004c740     LIBCMT:cos_sse2_precise.obj
 0002:00008748       P_3                        3004c748     LIBCMT:cos_sse2_precise.obj
 0002:00008750       TWO_POW_55                 3004c750     LIBCMT:cos_sse2_precise.obj
 0002:00008758       TWO_POW_M55                3004c758     LIBCMT:cos_sse2_precise.obj
 0002:00008760       ALL_ONES                   3004c760     LIBCMT:cos_sse2_precise.obj
 0002:00008768       NEG_ZERO                   3004c768     LIBCMT:cos_sse2_precise.obj
 0002:00008770       ONE                        3004c770     LIBCMT:cos_sse2_precise.obj
 0002:00008780       SIGN_MASK                  3004c780     LIBCMT:cos_sse2_precise.obj
 0002:00008790       Ctable                     3004c790     LIBCMT:sin_sse2_precise.obj
 0002:00008f90       SC_1                       3004cf90     LIBCMT:sin_sse2_precise.obj
 0002:00008fa0       SC_2                       3004cfa0     LIBCMT:sin_sse2_precise.obj
 0002:00008fb0       SC_3                       3004cfb0     LIBCMT:sin_sse2_precise.obj
 0002:00008fc0       SC_4                       3004cfc0     LIBCMT:sin_sse2_precise.obj
 0002:00008fd0       PI32INV                    3004cfd0     LIBCMT:sin_sse2_precise.obj
 0002:00008fd8       SHIFTER                    3004cfd8     LIBCMT:sin_sse2_precise.obj
 0002:00008fe0       P_2                        3004cfe0     LIBCMT:sin_sse2_precise.obj
 0002:00008ff0       P_1                        3004cff0     LIBCMT:sin_sse2_precise.obj
 0002:00008ff8       P_3                        3004cff8     LIBCMT:sin_sse2_precise.obj
 0002:00009000       TWO_POW_55                 3004d000     LIBCMT:sin_sse2_precise.obj
 0002:00009008       TWO_POW_M55                3004d008     LIBCMT:sin_sse2_precise.obj
 0002:00009010       ALL_ONES                   3004d010     LIBCMT:sin_sse2_precise.obj
 0002:00009018       NEG_ZERO                   3004d018     LIBCMT:sin_sse2_precise.obj
 0002:00009020       ONE                        3004d020     LIBCMT:sin_sse2_precise.obj
 0002:00009034       _GS_ExceptionPointers      3004d034     LIBCMT:gs_report.obj
 0002:00009040       Shifter                    3004d040     LIBCMT:acos_sse2_precise.obj
 0002:00009050       Tbl_addr                   3004d050     LIBCMT:acos_sse2_precise.obj
 0002:00009f50       T_table                    3004df50     LIBCMT:acos_sse2_precise.obj
 0002:0000a750       PI_BY_2                    3004e750     LIBCMT:acos_sse2_precise.obj
 0002:0000a760       NEG_PI                     3004e760     LIBCMT:acos_sse2_precise.obj
 0002:0000a770       PI                         3004e770     LIBCMT:acos_sse2_precise.obj
 0002:0000a780       SIGNMASK                   3004e780     LIBCMT:acos_sse2_precise.obj
 0002:0000a790       HALFMASK                   3004e790     LIBCMT:acos_sse2_precise.obj
 0002:0000a7a0       HALFMASK2                  3004e7a0     LIBCMT:acos_sse2_precise.obj
 0002:0000a7b0       cv                         3004e7b0     LIBCMT:acos_sse2_precise.obj
 0002:0000a7d0       cv2                        3004e7d0     LIBCMT:acos_sse2_precise.obj
 0002:0000a810       ABSVALMASK                 3004e810     LIBCMT:acos_sse2_precise.obj
 0002:0000a818       TMASK                      3004e818     LIBCMT:acos_sse2_precise.obj
 0002:0000a820       ONEMASK                    3004e820     LIBCMT:acos_sse2_precise.obj
 0002:0000a828       ONE_BY_2                   3004e828     LIBCMT:acos_sse2_precise.obj
 0002:0000a830       EMIN                       3004e830     LIBCMT:acos_sse2_precise.obj
 0002:0000a838       MAX_ARG                    3004e838     LIBCMT:acos_sse2_precise.obj
 0002:0000a840       MIN_ARG                    3004e840     LIBCMT:acos_sse2_precise.obj
 0002:0000a848       INF                        3004e848     LIBCMT:acos_sse2_precise.obj
 0002:0000a850       ZERO                       3004e850     LIBCMT:acos_sse2_precise.obj
 0002:0000a858       ALPHA                      3004e858     LIBCMT:acos_sse2_precise.obj
 0002:0000a860       _One                       3004e860     LIBCMT:floor_pentium4.obj
 0002:0000a870       _Bns                       3004e870     LIBCMT:floor_pentium4.obj
 0002:0000a880       _NegOne                    3004e880     LIBCMT:floor_pentium4.obj
 0002:0000a890       _NegZero                   3004e890     LIBCMT:floor_pentium4.obj
 0002:0000a8a0       _S                         3004e8a0     LIBCMT:floor_pentium4.obj
 0002:0000a8b0       Ctable                     3004e8b0     LIBCMT:tan_sse2_precise.obj
 0002:0000beb0       PI32INV                    3004feb0     LIBCMT:tan_sse2_precise.obj
 0002:0000bec0       SHIFTER                    3004fec0     LIBCMT:tan_sse2_precise.obj
 0002:0000bed0       P_1                        3004fed0     LIBCMT:tan_sse2_precise.obj
 0002:0000bee0       P_2                        3004fee0     LIBCMT:tan_sse2_precise.obj
 0002:0000bef0       P_3                        3004fef0     LIBCMT:tan_sse2_precise.obj
 0002:0000bf00       QQ_2                       3004ff00     LIBCMT:tan_sse2_precise.obj
 0002:0000bf08       ONE                        3004ff08     LIBCMT:tan_sse2_precise.obj
 0002:0000bf10       MASK_35                    3004ff10     LIBCMT:tan_sse2_precise.obj
 0002:0000bf20       sign_mask                  3004ff20     LIBCMT:tan_sse2_precise.obj
 0002:0000bf28       TWO_POW_55                 3004ff28     LIBCMT:tan_sse2_precise.obj
 0002:0000bf30       TWO_POW_M55                3004ff30     LIBCMT:tan_sse2_precise.obj
 0002:0000bf38       TWO_POW_M53                3004ff38     LIBCMT:tan_sse2_precise.obj
 0002:0000bf40       INF                        3004ff40     LIBCMT:tan_sse2_precise.obj
 0002:0000bf60       _INF                       3004ff60     LIBCMT:libm_error.obj
 0002:0000bf70       _BIG                       3004ff70     LIBCMT:libm_error.obj
 0002:0000bf80       _ZERO                      3004ff80     LIBCMT:libm_error.obj
 0002:0000bf90       _INF_32                    3004ff90     LIBCMT:libm_error.obj
 0002:0000bf98       _NAN_32                    3004ff98     LIBCMT:libm_error.obj
 0002:0000bfa0       _ZERO_32                   3004ffa0     LIBCMT:libm_error.obj
 0002:0000bfa8       _libm_largef               3004ffa8     LIBCMT:libm_error.obj
 0002:0000bfb0       _libm_smallf               3004ffb0     LIBCMT:libm_error.obj
 0002:0000bfb8       _libm_small                3004ffb8     LIBCMT:libm_error.obj
 0002:0000c2ac       __mb_locale_names          300502ac     LIBCMT:mbctype.obj
 0002:0000c710       DblMax                     30050710     LIBCMT:87cdisp.obj
 0002:0000c718       DblMin                     30050718     LIBCMT:87cdisp.obj
 0002:0000c720       IeeeAdjO                   30050720     LIBCMT:87cdisp.obj
 0002:0000c728       IeeeAdjU                   30050728     LIBCMT:87cdisp.obj
 0002:0000c730       _infinity                  30050730     LIBCMT:87cdisp.obj
 0002:0000c738       _zero                      30050738     LIBCMT:87cdisp.obj
 0002:0000c740       __first_127char            30050740     LIBCMT:wsetloca.obj
 0002:0000c890       Ctable                     30050890     LIBCMT:cos_pentium4.obj
 0002:0000d090       SC_1                       30051090     LIBCMT:cos_pentium4.obj
 0002:0000d0a0       SC_2                       300510a0     LIBCMT:cos_pentium4.obj
 0002:0000d0b0       SC_3                       300510b0     LIBCMT:cos_pentium4.obj
 0002:0000d0c0       SC_4                       300510c0     LIBCMT:cos_pentium4.obj
 0002:0000d0d0       PI32INV                    300510d0     LIBCMT:cos_pentium4.obj
 0002:0000d0d8       SHIFTER                    300510d8     LIBCMT:cos_pentium4.obj
 0002:0000d0e0       P_2                        300510e0     LIBCMT:cos_pentium4.obj
 0002:0000d0f0       P_1                        300510f0     LIBCMT:cos_pentium4.obj
 0002:0000d0f8       P_3                        300510f8     LIBCMT:cos_pentium4.obj
 0002:0000d100       TWO_POW_55                 30051100     LIBCMT:cos_pentium4.obj
 0002:0000d108       TWO_POW_M55                30051108     LIBCMT:cos_pentium4.obj
 0002:0000d110       ALL_ONES                   30051110     LIBCMT:cos_pentium4.obj
 0002:0000d118       NEG_ZERO                   30051118     LIBCMT:cos_pentium4.obj
 0002:0000d120       ONE                        30051120     LIBCMT:cos_pentium4.obj
 0002:0000d130       SIGN_MASK                  30051130     LIBCMT:cos_pentium4.obj
 0002:0000d154       One                        30051154     LIBCMT:87disp.obj
 0002:0000d15c       XAMtoTagTab                3005115c     LIBCMT:87disp.obj
 0002:0000d170       One                        30051170     LIBCMT:common.obj
 0002:0000d184       DblMax                     30051184     LIBCMT:common.obj
 0002:0000d18c       DblMin                     3005118c     LIBCMT:common.obj
 0002:0000d194       IeeeAdjO                   30051194     LIBCMT:common.obj
 0002:0000d19c       IeeeAdjU                   3005119c     LIBCMT:common.obj
 0002:0000d1a4       _infinity                  300511a4     LIBCMT:common.obj
 0002:0000d1ac       _zero                      300511ac     LIBCMT:common.obj
 0002:0000d1c0       Ctable                     300511c0     LIBCMT:sin_pentium4.obj
 0002:0000d9c0       SC_1                       300519c0     LIBCMT:sin_pentium4.obj
 0002:0000d9d0       SC_2                       300519d0     LIBCMT:sin_pentium4.obj
 0002:0000d9e0       SC_3                       300519e0     LIBCMT:sin_pentium4.obj
 0002:0000d9f0       SC_4                       300519f0     LIBCMT:sin_pentium4.obj
 0002:0000da00       PI32INV                    30051a00     LIBCMT:sin_pentium4.obj
 0002:0000da08       SHIFTER                    30051a08     LIBCMT:sin_pentium4.obj
 0002:0000da10       P_2                        30051a10     LIBCMT:sin_pentium4.obj
 0002:0000da20       P_1                        30051a20     LIBCMT:sin_pentium4.obj
 0002:0000da28       P_3                        30051a28     LIBCMT:sin_pentium4.obj
 0002:0000da30       TWO_POW_55                 30051a30     LIBCMT:sin_pentium4.obj
 0002:0000da38       TWO_POW_M55                30051a38     LIBCMT:sin_pentium4.obj
 0002:0000da40       ALL_ONES                   30051a40     LIBCMT:sin_pentium4.obj
 0002:0000da48       NEG_ZERO                   30051a48     LIBCMT:sin_pentium4.obj
 0002:0000da50       ONE                        30051a50     LIBCMT:sin_pentium4.obj
 0002:0000da60       Shifter                    30051a60     LIBCMT:acos_pentium4.obj
 0002:0000da70       Tbl_addr                   30051a70     LIBCMT:acos_pentium4.obj
 0002:0000e970       T_table                    30052970     LIBCMT:acos_pentium4.obj
 0002:0000f170       PI_BY_2                    30053170     LIBCMT:acos_pentium4.obj
 0002:0000f180       NEG_PI                     30053180     LIBCMT:acos_pentium4.obj
 0002:0000f190       PI                         30053190     LIBCMT:acos_pentium4.obj
 0002:0000f1a0       SIGNMASK                   300531a0     LIBCMT:acos_pentium4.obj
 0002:0000f1b0       HALFMASK                   300531b0     LIBCMT:acos_pentium4.obj
 0002:0000f1c0       HALFMASK2                  300531c0     LIBCMT:acos_pentium4.obj
 0002:0000f1d0       cv                         300531d0     LIBCMT:acos_pentium4.obj
 0002:0000f1f0       cv2                        300531f0     LIBCMT:acos_pentium4.obj
 0002:0000f230       ABSVALMASK                 30053230     LIBCMT:acos_pentium4.obj
 0002:0000f238       TMASK                      30053238     LIBCMT:acos_pentium4.obj
 0002:0000f240       ONEMASK                    30053240     LIBCMT:acos_pentium4.obj
 0002:0000f248       ONE_BY_2                   30053248     LIBCMT:acos_pentium4.obj
 0002:0000f250       EMIN                       30053250     LIBCMT:acos_pentium4.obj
 0002:0000f258       MAX_ARG                    30053258     LIBCMT:acos_pentium4.obj
 0002:0000f260       MIN_ARG                    30053260     LIBCMT:acos_pentium4.obj
 0002:0000f268       INF                        30053268     LIBCMT:acos_pentium4.obj
 0002:0000f270       ZERO                       30053270     LIBCMT:acos_pentium4.obj
 0002:0000f278       ALPHA                      30053278     LIBCMT:acos_pentium4.obj
 0002:0000fb60       Ctable                     30053b60     LIBCMT:tan_pentium4.obj
 0002:00011160       PI32INV                    30055160     LIBCMT:tan_pentium4.obj
 0002:00011170       SHIFTER                    30055170     LIBCMT:tan_pentium4.obj
 0002:00011180       P_1                        30055180     LIBCMT:tan_pentium4.obj
 0002:00011190       P_2                        30055190     LIBCMT:tan_pentium4.obj
 0002:000111a0       P_3                        300551a0     LIBCMT:tan_pentium4.obj
 0002:000111b0       QQ_2                       300551b0     LIBCMT:tan_pentium4.obj
 0002:000111b8       ONE                        300551b8     LIBCMT:tan_pentium4.obj
 0002:000111c0       MASK_35                    300551c0     LIBCMT:tan_pentium4.obj
 0002:000111d0       sign_mask                  300551d0     LIBCMT:tan_pentium4.obj
 0002:000111d8       TWO_POW_55                 300551d8     LIBCMT:tan_pentium4.obj
 0002:000111e0       TWO_POW_M55                300551e0     LIBCMT:tan_pentium4.obj
 0002:000111e8       TWO_POW_M53                300551e8     LIBCMT:tan_pentium4.obj
 0002:000111f0       INF                        300551f0     LIBCMT:tan_pentium4.obj
 0002:00013b08       _rterrs                    30057b08     LIBCMT:crt0msg.obj
 0002:00013df0       __sehtable$__CRT_INIT@12   30057df0     LIBCMT:dllcrt0.obj
 0002:00013e10       __sehtable$___DllMainCRTStartup 30057e10     LIBCMT:dllcrt0.obj
 0002:00013e30       __sehtable$__freefls@4     30057e30     LIBCMT:tidtable.obj
 0002:00013e58       __sehtable$__initptd       30057e58     LIBCMT:tidtable.obj
 0002:00013e80       __sehtable$___updatetlocinfo 30057e80     LIBCMT:localref.obj
 0002:00013ea0       __sehtable$___updatetmbcinfo 30057ea0     LIBCMT:mbctype.obj
 0002:00013ec0       __sehtable$__setmbcp       30057ec0     LIBCMT:mbctype.obj
 0002:00013ee0       __sehtable$__locterm       30057ee0     LIBCMT:wsetloca.obj
 0002:00013f00       __sehtable$_doexit         30057f00     LIBCMT:crt0dat.obj
 0002:00013f20       __sehtable$__ioinit        30057f20     LIBCMT:ioinit.obj
 0002:00013f40       __sehtable$__mtinitlocknum 30057f40     LIBCMT:mlock.obj
 0002:00013f60       __sehtable$__write         30057f60     LIBCMT:write.obj
 0002:00013f80       __sehtable$__lseeki64      30057f80     LIBCMT:lseeki64.obj
 0002:00013fa0       __sehtable$___set_fpsr_sse2 30057fa0     LIBCMT:fpctrl.obj
 0002:00013fc0       __sehtable$__IsNonwritableInCurrentImage 30057fc0     LIBCMT:pesect.obj
 0002:00013fe0       __sehtable$__onexit        30057fe0     LIBCMT:onexit.obj
 0002:00014000       __sehtable$?terminate@@YAXXZ 30058000     LIBCMT:hooks.obj
 0002:00014020       __sehtable$_raise          30058020     LIBCMT:winsig.obj
 0002:00014040       __sehtable$__fcloseall     30058040     LIBCMT:closeall.obj
 0002:00014060       __sehtable$_flsall         30058060     LIBCMT:fflush.obj
 0002:00014088       __sehtable$___lock_fhandle 30058088     LIBCMT:osfinfo.obj
 0002:000140a8       __sehtable$_fclose         300580a8     LIBCMT:fclose.obj
 0002:000140c8       __sehtable$__commit        300580c8     LIBCMT:commit.obj
 0002:000140e8       __sehtable$__close         300580e8     LIBCMT:close.obj
 0002:000146d6       .idata$6                   300586d6     kernel32:KERNEL32.dll
 0002:000146f0       .edata                     300586f0     cgamex86.exp
 0002:00014718       rgpv                       30058718     cgamex86.exp
 0002:00014720       rgszName                   30058720     cgamex86.exp
 0002:00014728       rgwOrd                     30058728     cgamex86.exp
 0002:0001472c       szName                     3005872c     cgamex86.exp
 0002:00014739       $N00001                    30058739     cgamex86.exp
 0002:00014742       $N00002                    30058742     cgamex86.exp
 0003:00000c28       _commands                  30059c28     cg_consolecmds.obj
 0003:00000da0       ?firstTime@?1??CG_DrawScoreboard@@9@9 30059da0     cg_draw.obj
 0003:00000da8       ?red@?1??CG_TeamColor@@9@9 30059da8     cg_drawtools.obj
 0003:00000db8       ?blue@?1??CG_TeamColor@@9@9 30059db8     cg_drawtools.obj
 0003:00000dc8       ?other@?1??CG_TeamColor@@9@9 30059dc8     cg_drawtools.obj
 0003:00000dd8       ?spectator@?1??CG_TeamColor@@9@9 30059dd8     cg_drawtools.obj
 0003:00000de8       _propMap                   30059de8     cg_drawtools.obj
 0003:000013e8       _propMapB                  3005a3e8     cg_drawtools.obj
 0003:00001520       ?seed@?1??CG_SmokePuff@@9@9 3005a520     cg_effects.obj
 0003:0000152c       _cvarTableSize             3005a52c     cg_main.obj
 0003:00001530       _cvarTable                 3005a530     cg_main.obj
 0003:00001b80       ?sb_nums@?1??CG_RegisterGraphics@@9@9 3005ab80     cg_main.obj
 0003:00001bb0       _shaderAnimNames           3005abb0     cg_marks.obj
 0003:00001c30       _shaderAnimCounts          3005ac30     cg_marks.obj
 0003:00001cb0       _shaderAnimSTRatio         3005acb0     cg_marks.obj
 0003:00001db8       ?movementOffsets@?1??CG_PlayerAngles@@9@9 3005adb8     cg_players.obj
 0003:00001dd8       _syscall                   3005add8     cg_syscalls.obj
 0003:00001ddc       ?mins@?1??CG_OffsetThirdPersonView@@9@9 3005addc     cg_view.obj
 0003:00001de8       ?maxs@?1??CG_OffsetThirdPersonView@@9@9 3005ade8     cg_view.obj
 0003:000026e8       _g_bindings                3005b6e8     ui_shared.obj
 0003:00002d34       ?staticNULL@?1??String_Alloc@@9@9 3005bd34     ui_shared.obj
 0003:000031a0       _NAME_                     3005c1a0     LIBCMT:cos.obj
 0003:000031b0       _NAME_                     3005c1b0     LIBCMT:sin.obj
 0003:000031e0       _NAME_                     3005c1e0     LIBCMT:sqrt.obj
 0003:000031ec       ?isPackaged@?1??__crtIsPackagedApp@@9@9 3005c1ec     LIBCMT:winapisupp.obj
 0003:00003200       _NAME_                     3005c200     LIBCMT:acos.obj
 0003:00003208       _errtable                  3005c208     LIBCMT:dosmap.obj
 0003:00003370       _ErrnoNoMem                3005c370     LIBCMT:dosmap.obj
 0003:00003374       _DoserrorNoMem             3005c374     LIBCMT:dosmap.obj
 0003:0000337c       ___rgctypeflag             3005c37c     LIBCMT:mbctype.obj
 0003:00003380       ___rgcode_page_info        3005c380     LIBCMT:mbctype.obj
 0003:00003ad8       _newcw                     3005cad8     LIBCMT:floor.obj
 0003:00003ae0       _NAME_                     3005cae0     LIBCMT:tan.obj
 0003:00003ae8       __ctype_loc_style          3005cae8     LIBCMT:wsetloca.obj
 0003:00003b40       __locktable                3005cb40     LIBCMT:mlock.obj
 0003:00003c60       _DoubleFormat              3005cc60     LIBCMT:intrncvt.obj
 0003:00003c78       _FloatFormat               3005cc78     LIBCMT:intrncvt.obj
 0003:00004238       ?_names@?1??_get_fname@@9@9 3005d238     LIBCMT:fpexcept.obj
 0003:00004348       _over                      3005d348     LIBCMT:fpctrl.obj
 0003:00004354       _under                     3005d354     LIBCMT:fpctrl.obj
 0003:00004360       ?__DAZ_ENABLED@?1??__set_fpsr_sse2@@9@9 3005d360     LIBCMT:fpctrl.obj
 0003:000043a8       ?previousTimes@?1??CG_DrawFPS@@9@9 3005d3a8     cg_draw.obj
 0003:000043b8       ?index@?1??CG_DrawFPS@@9@9 3005d3b8     cg_draw.obj
 0003:000043bc       ?previous@?1??CG_DrawFPS@@9@9 3005d3bc     cg_draw.obj
 0003:000043c0       ?proxTime@?1??CG_DrawProxWarning@@9@9 3005d3c0     cg_draw.obj
 0003:000043c4       ?proxCounter@?1??CG_DrawProxWarning@@9@9 3005d3c4     cg_draw.obj
 0003:000043c8       ?proxTick@?1??CG_DrawProxWarning@@9@9 3005d3c8     cg_draw.obj
 0003:000043cc       ?color@?1??CG_FadeColor@@9@9 3005d3cc     cg_drawtools.obj
 0003:000043dc       ?lastPos@?1??CG_ScorePlum@@9@9 3005d3dc     cg_effects.obj
 0003:000043e8       ?str@?1??CG_PlaceString@@9@9 3005d3e8     cg_event.obj
 0003:00004428       _loadingPlayerIconCount    3005d428     cg_info.obj
 0003:0000442c       _loadingItemIconCount      3005d42c     cg_info.obj
 0003:00004430       _loadingPlayerIcons        3005d430     cg_info.obj
 0003:00004470       _loadingItemIcons          3005d470     cg_info.obj
 0003:000044d8       ?buffer@?1??CG_Argv@@9@9   3005d4d8     cg_main.obj
 0003:000048d8       ?buf@?1??CG_GetMenuBuffer@@9@9 3005d8d8     cg_main.obj
 0003:0000c8d8       ?buf@?1??CG_LoadMenus@@9@9 300658d8     cg_main.obj
 0003:0000d8dc       _roll                      300668dc     cg_marks.obj
 0003:0000d8e0       _markTotal                 300668e0     cg_marks.obj
 0003:0000d8e4       _numShaderAnims            300668e4     cg_marks.obj
 0003:0000d8e8       _shaderAnims               300668e8     cg_marks.obj
 0003:0000f8e8       _cg_pmove                  300688e8     cg_predict.obj
 0003:0000f9d0       _cg_numSolidEntities       300689d0     cg_predict.obj
 0003:0000f9d4       _cg_numTriggerEntities     300689d4     cg_predict.obj
 0003:0000f9d8       _cg_solidEntities          300689d8     cg_predict.obj
 0003:0000fdd8       _cg_triggerEntities        30068dd8     cg_predict.obj
 0003:000101d8       _localClient               300691d8     cg_scoreboard.obj
 0003:000101e8       ?bops_initialized@?1??BoxOnPlaneSide@@9@9 300691e8     q_math.obj
 0003:000101ec       ?Ljmptab@?1??BoxOnPlaneSide@@9@9 300691ec     q_math.obj
 0003:0001020c       ?sr@?1??AngleVectors@@9@9  3006920c     q_math.obj
 0003:00010210       ?sp@?1??AngleVectors@@9@9  30069210     q_math.obj
 0003:00010214       ?sy@?1??AngleVectors@@9@9  30069214     q_math.obj
 0003:00010218       ?cr@?1??AngleVectors@@9@9  30069218     q_math.obj
 0003:0001021c       ?cp@?1??AngleVectors@@9@9  3006921c     q_math.obj
 0003:00010220       ?cy@?1??AngleVectors@@9@9  30069220     q_math.obj
 0003:00010228       ?index@?1??va@@9@9         30069228     q_shared.obj
 0003:0001022c       ?valueindex@?1??Info_ValueForKey@@9@9 3006922c     q_shared.obj
 0003:00010230       _com_token                 30069230     q_shared.obj
 0003:00010630       _com_parsename             30069630     q_shared.obj
 0003:00010a30       _com_lines                 30069a30     q_shared.obj
 0003:00010a38       ?string@?1??COM_ParseError@@9@9 30069a38     q_shared.obj
 0003:00011a38       ?string@?1??COM_ParseWarning@@9@9 3006aa38     q_shared.obj
 0003:00012a38       ?string@?1??va@@9@9        3006ba38     q_shared.obj
 0003:00022438       ?value@?1??Info_ValueForKey@@9@9 3007b438     q_shared.obj
 0003:00026438       _captureFunc               3007f438     ui_shared.obj
 0003:0002643c       _captureData               3007f43c     ui_shared.obj
 0003:00026440       _itemCapture               3007f440     ui_shared.obj
 0003:00026448       _g_waitingForKey           3007f448     ui_shared.obj
 0003:0002644c       _g_editingField            3007f44c     ui_shared.obj
 0003:00026450       _g_bindItem                3007f450     ui_shared.obj
 0003:00026454       _g_editItem                3007f454     ui_shared.obj
 0003:00026460       _debugMode                 3007f460     ui_shared.obj
 0003:00026464       _lastListBoxClickTime      3007f464     ui_shared.obj
 0003:00026468       _strPoolIndex              3007f468     ui_shared.obj
 0003:0002646c       _strHandleCount            3007f46c     ui_shared.obj
 0003:00026470       ?inHandleKey@?9??Menu_HandleKey@@9@9 3007f470     ui_shared.obj
 0003:00026474       _scrollInfo                3007f474     ui_shared.obj
 0003:00026494       _allocPoint                3007f494     ui_shared.obj
 0003:00026498       _memoryPool                3007f498     ui_shared.obj
 0003:00126498       _outOfMemory               3017f498     ui_shared.obj
 0003:001264a0       _strPool                   3017f4a0     ui_shared.obj
 0003:001864a0       _strHandle                 301df4a0     ui_shared.obj
 0003:001884a0       ?string@?1??PC_SourceWarning@@9@9 301e14a0     ui_shared.obj
 0003:001894a0       ?string@?1??PC_SourceError@@9@9 301e24a0     ui_shared.obj
 0003:0018a4a0       ?rect@?1??Item_CorrectedTextRect@@9@9 301e34a0     ui_shared.obj
 0003:0018a4b8       _GS_ExceptionRecord        301e34b8     LIBCMT:gs_report.obj
 0003:0018a508       _GS_ContextRecord          301e3508     LIBCMT:gs_report.obj
 0003:0018a7d4       _DebuggerWasPresent        301e37d4     LIBCMT:gs_report.obj
 0003:0018a7d8       ___proc_attached           301e37d8     LIBCMT:dllcrt0.obj
 0003:0018a7e4       __pmatherr_set             301e37e4     LIBCMT:libm_error.obj
 0003:0018a80c       _fSystemSet                301e380c     LIBCMT:mbctype.obj
 0003:0018a950       ?_pgmname@?1??_setargv@@9@9 301e3950     LIBCMT:stdargv.obj
 0003:0018aa60       _lclcritsects              301e3a60     LIBCMT:mlock.obj
 0003:0018abbc       ___enable_percent_n        301e3bbc     LIBCMT:printf.obj
 0003:0018abc0       ___crtCallProc             301e3bc0     LIBCMT:winapinls.obj
 0003:0018abd0       ?outmsg@?8??_NMSG_WRITE@@9@9 301e3bd0     LIBCMT:crt0msg.obj
 0003:0018b204       _g_pfnRtlGenRandom         301e4204     LIBCMT:rand_s.obj
 0003:0018b208       _ctrlc_action              301e4208     LIBCMT:winsig.obj
 0003:0018b20c       _ctrlbreak_action          301e420c     LIBCMT:winsig.obj
 0003:0018b210       _abort_action              301e4210     LIBCMT:winsig.obj
 0003:0018b214       _term_action               301e4214     LIBCMT:winsig.obj
 0003:0018b218       _ConsoleCtrlHandler_Installed 301e4218     LIBCMT:winsig.obj
 0003:0018b22c       ?pfnMessageBox@?1??__crtMessageBoxW@@9@9 301e422c     LIBCMT:crtmboxw.obj
 0003:0018b230       ?pfnGetActiveWindow@?1??__crtMessageBoxW@@9@9 301e4230     LIBCMT:crtmboxw.obj
 0003:0018b234       ?pfnGetLastActivePopup@?1??__crtMessageBoxW@@9@9 301e4234     LIBCMT:crtmboxw.obj
 0003:0018b238       ?pfnGetProcessWindowStation@?1??__crtMessageBoxW@@9@9 301e4238     LIBCMT:crtmboxw.obj
 0003:0018b23c       ?pfnGetUserObjectInformation@?1??__crtMessageBoxW@@9@9 301e423c     LIBCMT:crtmboxw.obj
 0004:00000060       $R000000                   30588060     * linker generated manifest res *
