 cgamex86

 Timestamp is 51f195d0 (Thu Jul 25 16:17:04 2013)

 Preferred load address is 30000000

 Start         Length     Name                   Class
 0001:00000000 0009cf92H .text                   CODE
 0001:0009cfa0 00000139H .text$x                 CODE
 0002:00000000 00000150H .idata$5                DATA
 0002:00000150 00000004H .CRT$XCA                DATA
 0002:00000154 00000004H .CRT$XCZ                DATA
 0002:00000158 00000004H .CRT$XIA                DATA
 0002:0000015c 00000014H .CRT$XIC                DATA
 0002:00000170 00000004H .CRT$XIZ                DATA
 0002:00000174 00000004H .CRT$XPA                DATA
 0002:00000178 00000008H .CRT$XPX                DATA
 0002:00000180 00000004H .CRT$XPXA               DATA
 0002:00000184 00000004H .CRT$XPZ                DATA
 0002:00000188 00000004H .CRT$XTA                DATA
 0002:0000018c 00000004H .CRT$XTZ                DATA
 0002:00000190 000197b0H .rdata                  DATA
 0002:00019940 00000078H .rdata$debug            DATA
 0002:000199b8 00000388H .rdata$r                DATA
 0002:00019d40 00000030H .rdata$sxdata           DATA
 0002:00019d70 00000004H .rtc$IAA                DATA
 0002:00019d74 00000004H .rtc$IZZ                DATA
 0002:00019d78 00000004H .rtc$TAA                DATA
 0002:00019d7c 00000004H .rtc$TZZ                DATA
 0002:00019d80 00000ac8H .xdata$x                DATA
 0002:0001a848 00000014H .idata$2                DATA
 0002:0001a85c 00000014H .idata$3                DATA
 0002:0001a870 00000150H .idata$4                DATA
 0002:0001a9c0 0000062cH .idata$6                DATA
 0002:0001aff0 00000059H .edata                  DATA
 0003:00000000 00004197H .data                   DATA
 0003:000041a0 0050f100H .bss                    DATA
 0004:00000000 00000058H .rsrc$01                DATA
 0004:00000060 00000180H .rsrc$02                DATA

  Address         Publics by Value              Rva+Base       Lib:Object

 0000:00000000       __except_list              00000000     <absolute>
 0000:0000000c       ___safe_se_handler_count   0000000c     <absolute>
 0000:00000000       ___ImageBase               30000000     <linker-defined>
 0001:00000000       _BG_AddPredictableEventToPlayerstate 30001000 f   bg_misc.obj
 0001:000000d0       _BG_CanItemBeGrabbed       300010d0 f   bg_misc.obj
 0001:00000360       _BG_EvaluateTrajectory     30001360 f   bg_misc.obj
 0001:00000800       _BG_EvaluateTrajectoryDelta 30001800 f   bg_misc.obj
 0001:00000b40       _BG_FindItem               30001b40 f   bg_misc.obj
 0001:00000b90       _BG_FindItemForHoldable    30001b90 f   bg_misc.obj
 0001:00000c00       _BG_FindItemForPowerup     30001c00 f   bg_misc.obj
 0001:00000c80       _BG_FindItemForWeapon      30001c80 f   bg_misc.obj
 0001:00000ce0       _BG_PlayerStateToEntityState 30001ce0 f   bg_misc.obj
 0001:00001150       _BG_PlayerStateToEntityStateExtraPolate 30002150 f   bg_misc.obj
 0001:000015d0       _BG_PlayerTouchesItem      300025d0 f   bg_misc.obj
 0001:00001720       _BG_TouchJumpPad           30002720 f   bg_misc.obj
 0001:000019a0       _PM_AddEvent               300029a0 f   bg_pmove.obj
 0001:000019d0       _PM_AddTouchEnt            300029d0 f   bg_pmove.obj
 0001:000025a0       _PM_ClipVelocity           300035a0 f   bg_pmove.obj
 0001:00004a60       _PM_UpdateViewAngles       30005a60 f   bg_pmove.obj
 0001:00005a30       _Pmove                     30006a30 f   bg_pmove.obj
 0001:00005b20       _PmoveSingle               30006b20 f   bg_pmove.obj
 0001:00006240       _PM_SlideMove              30007240 f   bg_slidemove.obj
 0001:00007160       _PM_StepSlideMove          30008160 f   bg_slidemove.obj
 0001:000078d0       _CG_TargetCommand_f        300088d0 f   cg_consolecmds.obj
 0001:00007d90       _CG_ConsoleCommand         30008d90 f   cg_consolecmds.obj
 0001:00007e00       _CG_InitConsoleCommands    30008e00 f   cg_consolecmds.obj
 0001:00007fa0       _CG_AddLagometerFrameInfo  30008fa0 f   cg_draw.obj
 0001:00007fe0       _CG_AddLagometerSnapshotInfo 30008fe0 f   cg_draw.obj
 0001:00008050       _CG_CenterPrint            30009050 f   cg_draw.obj
 0001:000081d0       _CG_Draw3DModel            300091d0 f   cg_draw.obj
 0001:00008370       _CG_DrawActive             30009370 f   cg_draw.obj
 0001:00009210       _CG_DrawFlagModel          3000a210 f   cg_draw.obj
 0001:000095f0       _CG_DrawHead               3000a5f0 f   cg_draw.obj
 0001:0000be60       _CG_DrawTeamBackground     3000ce60 f   cg_draw.obj
 0001:0000d2b0       _CG_AdjustFrom640          3000e2b0 f   cg_drawtools.obj
 0001:0000d320       _CG_ColorForHealth         3000e320 f   cg_drawtools.obj
 0001:0000d370       _CG_DrawBigString          3000e370 f   cg_drawtools.obj
 0001:0000d410       _CG_DrawBigStringColor     3000e410 f   cg_drawtools.obj
 0001:0000d450       _CG_DrawChar               3000e450 f   cg_drawtools.obj
 0001:0000d580       _CG_DrawPic                3000e580 f   cg_drawtools.obj
 0001:0000d620       _CG_DrawRect               3000e620 f   cg_drawtools.obj
 0001:0000d6d0       _CG_DrawSides              3000e6d0 f   cg_drawtools.obj
 0001:0000d800       _CG_DrawSmallString        3000e800 f   cg_drawtools.obj
 0001:0000d8a0       _CG_DrawSmallStringColor   3000e8a0 f   cg_drawtools.obj
 0001:0000d8e0       _CG_DrawStringExt          3000e8e0 f   cg_drawtools.obj
 0001:0000db30       _CG_DrawStrlen             3000eb30 f   cg_drawtools.obj
 0001:0000dbb0       _CG_DrawTopBottom          3000ebb0 f   cg_drawtools.obj
 0001:0000dce0       _CG_FadeColor              3000ece0 f   cg_drawtools.obj
 0001:0000ddc0       _CG_FillRect               3000edc0 f   cg_drawtools.obj
 0001:0000de80       _CG_GetColorForHealth      3000ee80 f   cg_drawtools.obj
 0001:0000e030       _CG_TeamColor              3000f030 f   cg_drawtools.obj
 0001:0000e080       _CG_TileClear              3000f080 f   cg_drawtools.obj
 0001:0000e260       _UI_DrawBannerString       3000f260 f   cg_drawtools.obj
 0001:0000e5e0       _UI_DrawProportionalString 3000f5e0 f   cg_drawtools.obj
 0001:0000ebd0       _UI_ProportionalSizeScale  3000fbd0 f   cg_drawtools.obj
 0001:0000ec00       _UI_ProportionalStringWidth 3000fc00 f   cg_drawtools.obj
 0001:0000ec80       _CG_BigExplode             3000fc80 f   cg_effects.obj
 0001:0000f2f0       _CG_Bleed                  300102f0 f   cg_effects.obj
 0001:0000f410       _CG_BubbleTrail            30010410 f   cg_effects.obj
 0001:0000f980       _CG_GibPlayer              30010980 f   cg_effects.obj
 0001:00010600       _CG_LaunchExplode          30011600 f   cg_effects.obj
 0001:000107e0       _CG_LaunchGib              300117e0 f   cg_effects.obj
 0001:000109c0       _CG_MakeExplosion          300119c0 f   cg_effects.obj
 0001:00010dc0       _CG_ScorePlum              30011dc0 f   cg_effects.obj
 0001:00011070       _CG_SmokePuff              30012070 f   cg_effects.obj
 0001:00011400       _CG_SpawnEffect            30012400 f   cg_effects.obj
 0001:000116e0       _CG_AddPacketEntities      300126e0 f   cg_ents.obj
 0001:000118d0       _CG_AdjustPositionForMover 300128d0 f   cg_ents.obj
 0001:00011be0       _CG_Beam                   30012be0 f   cg_ents.obj
 0001:00013d10       _CG_PositionEntityOnTag    30014d10 f   cg_ents.obj
 0001:00013ef0       _CG_PositionRotatedEntityOnTag 30014ef0 f   cg_ents.obj
 0001:000140f0       _CG_SetEntitySoundPosition 300150f0 f   cg_ents.obj
 0001:00014570       _CG_CheckEvents            30015570 f   cg_event.obj
 0001:00014660       _CG_EntityEvent            30015660 f   cg_event.obj
 0001:00016330       _CG_PainEvent              30017330 f   cg_event.obj
 0001:000163e0       _CG_PlaceString            300173e0 f   cg_event.obj
 0001:00016650       _CG_DrawInformation        30017650 f   cg_info.obj
 0001:00016cc0       _CG_LoadingClient          30017cc0 f   cg_info.obj
 0001:00016eb0       _CG_LoadingItem            30017eb0 f   cg_info.obj
 0001:00016f20       _CG_LoadingString          30017f20 f   cg_info.obj
 0001:00017090       _CG_AddFadeRGB             30018090 f   cg_localents.obj
 0001:00017360       _CG_AddFragment            30018360 f   cg_localents.obj
 0001:00017660       _CG_AddLocalEntities       30018660 f   cg_localents.obj
 0001:00017b00       _CG_AddScorePlum           30018b00 f   cg_localents.obj
 0001:000184a0       _CG_AllocLocalEntity       300194a0 f   cg_localents.obj
 0001:00018520       _CG_BloodTrail             30019520 f   cg_localents.obj
 0001:00018640       _CG_FragmentBounceMark     30019640 f   cg_localents.obj
 0001:000187b0       _CG_FragmentBounceSound    300197b0 f   cg_localents.obj
 0001:00018830       _CG_FreeLocalEntity        30019830 f   cg_localents.obj
 0001:00018890       _CG_InitLocalEntities      30019890 f   cg_localents.obj
 0001:00018910       _CG_ReflectVelocity        30019910 f   cg_localents.obj
 0001:00018da0       _CG_Argv                   30019da0 f   cg_main.obj
 0001:00018dd0       _CG_BuildSpectatorString   30019dd0 f   cg_main.obj
 0001:00018e90       _CG_ConfigString           30019e90 f   cg_main.obj
 0001:00018ed0       _CG_CrosshairPlayer        30019ed0 f   cg_main.obj
 0001:00018f00       _CG_Error                  30019f00 f   cg_main.obj
 0001:00018f60       _CG_EventHandling          30019f60 f   cg_main.obj
 0001:00018fd0       _CG_Init                   30019fd0 f   cg_main.obj
 0001:00019240       _CG_KeyEvent               3001a240 f   cg_main.obj
 0001:00019250       _CG_LastAttacker           3001a250 f   cg_main.obj
 0001:00019290       _CG_MouseEvent             3001a290 f   cg_main.obj
 0001:000192a0       _CG_Printf                 3001a2a0 f   cg_main.obj
 0001:000193a0       _CG_RegisterCvars          3001a3a0 f   cg_main.obj
 0001:0001a810       _CG_Shutdown               3001b810 f   cg_main.obj
 0001:0001a820       _CG_StartMusic             3001b820 f   cg_main.obj
 0001:0001a8a0       _CG_UpdateCvars            3001b8a0 f   cg_main.obj
 0001:0001a970       _Com_Error                 3001b970 f   cg_main.obj
 0001:0001a9d0       _Com_Printf                3001b9d0 f   cg_main.obj
 0001:0001aa30       _vmMain                    3001ba30 f   cg_main.obj
 0001:0001ab20       _CG_AddMarks               3001bb20 f   cg_marks.obj
 0001:0001ae30       _CG_AddParticleShrapnel    3001be30 f   cg_marks.obj
 0001:0001ae50       _CG_AddParticleToScene     3001be50 f   cg_marks.obj
 0001:00021200       _CG_AddParticles           30022200 f   cg_marks.obj
 0001:00021800       _CG_AllocMark              30022800 f   cg_marks.obj
 0001:000218a0       _CG_BloodPool              300228a0 f   cg_marks.obj
 0001:00021b90       _CG_ClearParticles         30022b90 f   cg_marks.obj
 0001:00021cd0       _CG_FreeMarkPoly           30022cd0 f   cg_marks.obj
 0001:00021d30       _CG_ImpactMark             30022d30 f   cg_marks.obj
 0001:00022530       _CG_InitMarkPolys          30023530 f   cg_marks.obj
 0001:000225b0       _CG_NewParticleArea        300235b0 f   cg_marks.obj
 0001:00022820       _CG_OilSlickRemove         30023820 f   cg_marks.obj
 0001:000228b0       _CG_ParticleBloodCloud     300238b0 f   cg_marks.obj
 0001:00022cd0       _CG_ParticleBubble         30023cd0 f   cg_marks.obj
 0001:00023130       _CG_ParticleBulletDebris   30024130 f   cg_marks.obj
 0001:00023370       _CG_ParticleDust           30024370 f   cg_marks.obj
 0001:000239e0       _CG_ParticleExplosion      300249e0 f   cg_marks.obj
 0001:00023c90       _CG_ParticleImpactSmokePuff 30024c90 f   cg_marks.obj
 0001:00023f10       _CG_ParticleMisc           30024f10 f   cg_marks.obj
 0001:00024090       _CG_ParticleSmoke          30025090 f   cg_marks.obj
 0001:00024340       _CG_ParticleSnow           30025340 f   cg_marks.obj
 0001:00024730       _CG_ParticleSnowFlurry     30025730 f   cg_marks.obj
 0001:00024be0       _CG_ParticleSparks         30025be0 f   cg_marks.obj
 0001:00025050       _CG_Particle_Bleed         30026050 f   cg_marks.obj
 0001:000252a0       _CG_Particle_OilParticle   300262a0 f   cg_marks.obj
 0001:00025560       _CG_Particle_OilSlick      30026560 f   cg_marks.obj
 0001:000258e0       _CG_SnowLink               300268e0 f   cg_marks.obj
 0001:00025b40       _ValidBloodPool            30026b40 f   cg_marks.obj
 0001:000260e0       _CG_AddRefEntityWithPowerups 300270e0 f   cg_players.obj
 0001:000264c0       _CG_CustomSound            300274c0 f   cg_players.obj
 0001:00026c00       _CG_LightVerts             30027c00 f   cg_players.obj
 0001:000271e0       _CG_LoadDeferredPlayers    300281e0 f   cg_players.obj
 0001:00027270       _CG_NewClientInfo          30028270 f   cg_players.obj
 0001:00028300       _CG_Player                 30029300 f   cg_players.obj
 0001:0002ae00       _CG_ResetPlayerEntity      3002be00 f   cg_players.obj
 0001:0002bbe0       _CG_CheckAmmo              3002cbe0 f   cg_playerstate.obj
 0001:0002bcf0       _CG_CheckChangedPredictableEvents 3002ccf0 f   cg_playerstate.obj
 0001:0002bdf0       _CG_CheckLocalSounds       3002cdf0 f   cg_playerstate.obj
 0001:0002c570       _CG_CheckPlayerstateEvents 3002d570 f   cg_playerstate.obj
 0001:0002c6c0       _CG_DamageFeedback         3002d6c0 f   cg_playerstate.obj
 0001:0002cc40       _CG_Respawn                3002dc40 f   cg_playerstate.obj
 0001:0002cc80       _CG_TransitionPlayerState  3002dc80 f   cg_playerstate.obj
 0001:0002cec0       _CG_BuildSolidList         3002dec0 f   cg_predict.obj
 0001:0002d510       _CG_PointContents          3002e510 f   cg_predict.obj
 0001:0002d5d0       _CG_PredictPlayerState     3002e5d0 f   cg_predict.obj
 0001:0002e0a0       _CG_Trace                  3002f0a0 f   cg_predict.obj
 0001:0002ebe0       _CG_DrawOldScoreboard      3002fbe0 f   cg_scoreboard.obj
 0001:0002f3a0       _CG_DrawOldTourneyScoreboard 300303a0 f   cg_scoreboard.obj
 0001:0002f8a0       _CG_AddBufferedVoiceChat   300308a0 f   cg_servercmds.obj
 0001:0002fe10       _CG_ExecuteNewServerCommands 30030e10 f   cg_servercmds.obj
 0001:0002fe60       _CG_GetVoiceChat           30030e60 f   cg_servercmds.obj
 0001:0002ff40       _CG_HeadModelVoiceChats    30030f40 f   cg_servercmds.obj
 0001:000300c0       _CG_LoadVoiceChats         300310c0 f   cg_servercmds.obj
 0001:00030610       _CG_ParseServerinfo        30031610 f   cg_servercmds.obj
 0001:00030910       _CG_ParseVoiceChats        30031910 f   cg_servercmds.obj
 0001:00030e90       _CG_PlayBufferedVoiceChats 30031e90 f   cg_servercmds.obj
 0001:00030ea0       _CG_PlayVoiceChat          30031ea0 f   cg_servercmds.obj
 0001:00031240       _CG_SetConfigValues        30032240 f   cg_servercmds.obj
 0001:00031300       _CG_ShaderStateChanged     30032300 f   cg_servercmds.obj
 0001:00031530       _CG_VoiceChat              30032530 f   cg_servercmds.obj
 0001:00031540       _CG_VoiceChatListForClient 30032540 f   cg_servercmds.obj
 0001:00031910       _CG_VoiceChatLocal         30032910 f   cg_servercmds.obj
 0001:00031920       _CG_ProcessSnapshots       30032920 f   cg_snapshot.obj
 0001:00031c60       _CG_SetInitialSnapshot     30032c60 f   cg_snapshot.obj
 0001:00032140       _PASSFLOAT                 30033140 f   cg_syscalls.obj
 0001:00032160       _dllEntry                  30033160 f   cg_syscalls.obj
 0001:00032180       _testPrintFloat            30033180 f   cg_syscalls.obj
 0001:000321c0       _testPrintInt              300331c0 f   cg_syscalls.obj
 0001:000321f0       _trap_AddCommand           300331f0 f   cg_syscalls.obj
 0001:00032210       _trap_Argc                 30033210 f   cg_syscalls.obj
 0001:00032230       _trap_Args                 30033230 f   cg_syscalls.obj
 0001:00032260       _trap_Argv                 30033260 f   cg_syscalls.obj
 0001:00032290       _trap_CIN_DrawCinematic    30033290 f   cg_syscalls.obj
 0001:000322b0       _trap_CIN_PlayCinematic    300332b0 f   cg_syscalls.obj
 0001:000322f0       _trap_CIN_RunCinematic     300332f0 f   cg_syscalls.obj
 0001:00032310       _trap_CIN_SetExtents       30033310 f   cg_syscalls.obj
 0001:00032340       _trap_CIN_StopCinematic    30033340 f   cg_syscalls.obj
 0001:00032360       _trap_CM_BoxTrace          30033360 f   cg_syscalls.obj
 0001:000323a0       _trap_CM_CapsuleTrace      300333a0 f   cg_syscalls.obj
 0001:000323e0       _trap_CM_InlineModel       300333e0 f   cg_syscalls.obj
 0001:00032400       _trap_CM_LoadMap           30033400 f   cg_syscalls.obj
 0001:00032420       _trap_CM_MarkFragments     30033420 f   cg_syscalls.obj
 0001:00032460       _trap_CM_NumInlineModels   30033460 f   cg_syscalls.obj
 0001:00032480       _trap_CM_PointContents     30033480 f   cg_syscalls.obj
 0001:000324b0       _trap_CM_TempBoxModel      300334b0 f   cg_syscalls.obj
 0001:000324e0       _trap_CM_TempCapsuleModel  300334e0 f   cg_syscalls.obj
 0001:00032510       _trap_CM_TransformedBoxTrace 30033510 f   cg_syscalls.obj
 0001:00032550       _trap_CM_TransformedCapsuleTrace 30033550 f   cg_syscalls.obj
 0001:00032590       _trap_CM_TransformedPointContents 30033590 f   cg_syscalls.obj
 0001:000325c0       _trap_Cvar_Register        300335c0 f   cg_syscalls.obj
 0001:000325f0       _trap_Cvar_Set             300335f0 f   cg_syscalls.obj
 0001:00032620       _trap_Cvar_Update          30033620 f   cg_syscalls.obj
 0001:00032640       _trap_Cvar_VariableStringBuffer 30033640 f   cg_syscalls.obj
 0001:00032670       _trap_Error                30033670 f   cg_syscalls.obj
 0001:00032690       _trap_FS_FCloseFile        30033690 f   cg_syscalls.obj
 0001:000326b0       _trap_FS_FOpenFile         300336b0 f   cg_syscalls.obj
 0001:000326e0       _trap_FS_Read              300336e0 f   cg_syscalls.obj
 0001:00032710       _trap_FS_Seek              30033710 f   cg_syscalls.obj
 0001:00032740       _trap_FS_Write             30033740 f   cg_syscalls.obj
 0001:00032770       _trap_GetCurrentCmdNumber  30033770 f   cg_syscalls.obj
 0001:00032790       _trap_GetCurrentSnapshotNumber 30033790 f   cg_syscalls.obj
 0001:000327c0       _trap_GetEntityToken       300337c0 f   cg_syscalls.obj
 0001:000327f0       _trap_GetGameState         300337f0 f   cg_syscalls.obj
 0001:00032810       _trap_GetGlconfig          30033810 f   cg_syscalls.obj
 0001:00032830       _trap_GetServerCommand     30033830 f   cg_syscalls.obj
 0001:00032850       _trap_GetSnapshot          30033850 f   cg_syscalls.obj
 0001:00032880       _trap_GetUserCmd           30033880 f   cg_syscalls.obj
 0001:000328b0       _trap_Key_GetCatcher       300338b0 f   cg_syscalls.obj
 0001:000328d0       _trap_Key_GetKey           300338d0 f   cg_syscalls.obj
 0001:000328f0       _trap_Key_IsDown           300338f0 f   cg_syscalls.obj
 0001:00032910       _trap_Key_SetCatcher       30033910 f   cg_syscalls.obj
 0001:00032930       _trap_MemoryRemaining      30033930 f   cg_syscalls.obj
 0001:00032950       _trap_Milliseconds         30033950 f   cg_syscalls.obj
 0001:00032970       _trap_PC_AddGlobalDefine   30033970 f   cg_syscalls.obj
 0001:00032990       _trap_PC_FreeSource        30033990 f   cg_syscalls.obj
 0001:000329b0       _trap_PC_LoadSource        300339b0 f   cg_syscalls.obj
 0001:000329d0       _trap_PC_ReadToken         300339d0 f   cg_syscalls.obj
 0001:00032a00       _trap_PC_SourceFileAndLine 30033a00 f   cg_syscalls.obj
 0001:00032a30       _trap_Print                30033a30 f   cg_syscalls.obj
 0001:00032a50       _trap_R_AddAdditiveLightToScene 30033a50 f   cg_syscalls.obj
 0001:00032ac0       _trap_R_AddLightToScene    30033ac0 f   cg_syscalls.obj
 0001:00032b30       _trap_R_AddPolyToScene     30033b30 f   cg_syscalls.obj
 0001:00032b60       _trap_R_AddPolysToScene    30033b60 f   cg_syscalls.obj
 0001:00032b90       _trap_R_AddRefEntityToScene 30033b90 f   cg_syscalls.obj
 0001:00032bb0       _trap_R_ClearScene         30033bb0 f   cg_syscalls.obj
 0001:00032bd0       _trap_R_DrawStretchPic     30033bd0 f   cg_syscalls.obj
 0001:00032c90       _trap_R_LerpTag            30033c90 f   cg_syscalls.obj
 0001:00032ce0       _trap_R_LightForPoint      30033ce0 f   cg_syscalls.obj
 0001:00032d10       _trap_R_LoadWorldMap       30033d10 f   cg_syscalls.obj
 0001:00032d30       _trap_R_ModelBounds        30033d30 f   cg_syscalls.obj
 0001:00032d60       _trap_R_RegisterFont       30033d60 f   cg_syscalls.obj
 0001:00032d90       _trap_R_RegisterModel      30033d90 f   cg_syscalls.obj
 0001:00032db0       _trap_R_RegisterShader     30033db0 f   cg_syscalls.obj
 0001:00032dd0       _trap_R_RegisterShaderNoMip 30033dd0 f   cg_syscalls.obj
 0001:00032df0       _trap_R_RegisterSkin       30033df0 f   cg_syscalls.obj
 0001:00032e10       _trap_R_RemapShader        30033e10 f   cg_syscalls.obj
 0001:00032e40       _trap_R_RenderScene        30033e40 f   cg_syscalls.obj
 0001:00032e60       _trap_R_SetColor           30033e60 f   cg_syscalls.obj
 0001:00032e80       _trap_R_inPVS              30033e80 f   cg_syscalls.obj
 0001:00032eb0       _trap_RealTime             30033eb0 f   cg_syscalls.obj
 0001:00032ed0       _trap_RemoveCommand        30033ed0 f   cg_syscalls.obj
 0001:00032ef0       _trap_S_AddLoopingSound    30033ef0 f   cg_syscalls.obj
 0001:00032f20       _trap_S_AddRealLoopingSound 30033f20 f   cg_syscalls.obj
 0001:00032f50       _trap_S_ClearLoopingSounds 30033f50 f   cg_syscalls.obj
 0001:00032f70       _trap_S_RegisterSound      30033f70 f   cg_syscalls.obj
 0001:00032fa0       _trap_S_Respatialize       30033fa0 f   cg_syscalls.obj
 0001:00032fd0       _trap_S_StartBackgroundTrack 30033fd0 f   cg_syscalls.obj
 0001:00033000       _trap_S_StartLocalSound    30034000 f   cg_syscalls.obj
 0001:00033030       _trap_S_StartSound         30034030 f   cg_syscalls.obj
 0001:00033060       _trap_S_StopBackgroundTrack 30034060 f   cg_syscalls.obj
 0001:00033080       _trap_S_StopLoopingSound   30034080 f   cg_syscalls.obj
 0001:000330a0       _trap_S_UpdateEntityPosition 300340a0 f   cg_syscalls.obj
 0001:000330d0       _trap_SendClientCommand    300340d0 f   cg_syscalls.obj
 0001:000330f0       _trap_SendConsoleCommand   300340f0 f   cg_syscalls.obj
 0001:00033110       _trap_SetUserCmdValue      30034110 f   cg_syscalls.obj
 0001:00033150       _trap_SnapVector           30034150 f   cg_syscalls.obj
 0001:00033170       _trap_UpdateScreen         30034170 f   cg_syscalls.obj
 0001:00033190       _CG_AddBufferedSound       30034190 f   cg_view.obj
 0001:000340c0       _CG_DrawActiveFrame        300350c0 f   cg_view.obj
 0001:000354d0       _CG_TestGun_f              300364d0 f   cg_view.obj
 0001:00035500       _CG_TestModelNextFrame_f   30036500 f   cg_view.obj
 0001:00035530       _CG_TestModelNextSkin_f    30036530 f   cg_view.obj
 0001:00035560       _CG_TestModelPrevFrame_f   30036560 f   cg_view.obj
 0001:000355a0       _CG_TestModelPrevSkin_f    300365a0 f   cg_view.obj
 0001:000355e0       _CG_TestModel_f            300365e0 f   cg_view.obj
 0001:000357e0       _CG_ZoomDown_f             300367e0 f   cg_view.obj
 0001:00035810       _CG_ZoomUp_f               30036810 f   cg_view.obj
 0001:00035840       _CG_AddPlayerWeapon        30036840 f   cg_weapons.obj
 0001:00035ff0       _CG_AddViewWeapon          30036ff0 f   cg_weapons.obj
 0001:00036650       _CG_Bullet                 30037650 f   cg_weapons.obj
 0001:00036e90       _CG_DrawWeaponSelect       30037e90 f   cg_weapons.obj
 0001:00037110       _CG_FireWeapon             30038110 f   cg_weapons.obj
 0001:00037250       _CG_GrappleTrail           30038250 f   cg_weapons.obj
 0001:000386e0       _CG_MissileHitPlayer       300396e0 f   cg_weapons.obj
 0001:00038730       _CG_MissileHitWall         30039730 f   cg_weapons.obj
 0001:00038e60       _CG_NextWeapon_f           30039e60 f   cg_weapons.obj
 0001:00038f10       _CG_OutOfAmmoChange        30039f10 f   cg_weapons.obj
 0001:000398c0       _CG_PrevWeapon_f           3003a8c0 f   cg_weapons.obj
 0001:00039970       _CG_RailTrail              3003a970 f   cg_weapons.obj
 0001:0003a610       _CG_RegisterItemVisuals    3003b610 f   cg_weapons.obj
 0001:0003a740       _CG_RegisterWeapon         3003b740 f   cg_weapons.obj
 0001:0003bda0       _CG_ShotgunFire            3003cda0 f   cg_weapons.obj
 0001:0003c570       _CG_Tracer                 3003d570 f   cg_weapons.obj
 0001:0003d250       _CG_Weapon_f               3003e250 f   cg_weapons.obj
 0001:0003d550       _AddPointToBounds          3003e550 f   q_math.obj
 0001:0003d6d0       _AngleDelta                3003e6d0 f   q_math.obj
 0001:0003d700       _AngleMod                  3003e700 f   q_math.obj
 0001:0003d740       _AngleNormalize180         3003e740 f   q_math.obj
 0001:0003d790       _AngleNormalize360         3003e790 f   q_math.obj
 0001:0003d7d0       _AngleSubtract             3003e7d0 f   q_math.obj
 0001:0003d840       _AngleVectors              3003e840 f   q_math.obj
 0001:0003db40       _AnglesSubtract            3003eb40 f   q_math.obj
 0001:0003dc20       _AnglesToAxis              3003ec20 f   q_math.obj
 0001:0003dd20       _AxisClear                 3003ed20 f   q_math.obj
 0001:0003de50       _AxisCopy                  3003ee50 f   q_math.obj
 0001:0003dfe0       _BoxOnPlaneSide            3003efe0 f   q_math.obj
 0001:0003e220       _ByteToDir                 3003f220 f   q_math.obj
 0001:0003e300       _ClampChar                 3003f300 f   q_math.obj
 0001:0003e330       _ClampShort                3003f330 f   q_math.obj
 0001:0003e370       _ClearBounds               3003f370 f   q_math.obj
 0001:0003e410       _ColorBytes3               3003f410 f   q_math.obj
 0001:0003e480       _ColorBytes4               3003f480 f   q_math.obj
 0001:0003e620       _DirToByte                 3003f620 f   q_math.obj
 0001:0003e720       _LerpAngle                 3003f720 f   q_math.obj
 0001:0003e7a0       _MakeNormalVectors         3003f7a0 f   q_math.obj
 0001:0003e960       _MatrixMultiply            3003f960 f   q_math.obj
 0001:0003ef80       _NormalizeColor            3003ff80 f   q_math.obj
 0001:0003f0d0       _PerpendicularVector       300400d0 f   q_math.obj
 0001:0003f1f0       _PlaneFromPoints           300401f0 f   q_math.obj
 0001:0003f3f0       _ProjectPointOnPlane       300403f0 f   q_math.obj
 0001:0003f650       _Q_crandom                 30040650 f   q_math.obj
 0001:0003f6a0       _Q_fabs                    300406a0 f   q_math.obj
 0001:0003f6d0       _Q_log2                    300406d0 f   q_math.obj
 0001:0003f700       _Q_rand                    30040700 f   q_math.obj
 0001:0003f730       _Q_random                  30040730 f   q_math.obj
 0001:0003f770       _Q_rsqrt                   30040770 f   q_math.obj
 0001:0003f7f0       _RadiusFromBounds          300407f0 f   q_math.obj
 0001:0003f8b0       _RotateAroundDirection     300408b0 f   q_math.obj
 0001:0003f9d0       _RotatePointAroundVector   300409d0 f   q_math.obj
 0001:0003ff50       _SetPlaneSignbits          30040f50 f   q_math.obj
 0001:0003ffb0       _Vector4Scale              30040fb0 f   q_math.obj
 0001:000400f0       _VectorNormalize           300410f0 f   q_math.obj
 0001:00040220       _VectorNormalize2          30041220 f   q_math.obj
 0001:000403a0       _VectorRotate              300413a0 f   q_math.obj
 0001:00040560       __DotProduct               30041560 f   q_math.obj
 0001:000405e0       __VectorAdd                300415e0 f   q_math.obj
 0001:00040680       __VectorCopy               30041680 f   q_math.obj
 0001:000406f0       __VectorMA                 300416f0 f   q_math.obj
 0001:000407a0       __VectorScale              300417a0 f   q_math.obj
 0001:00040820       __VectorSubtract           30041820 f   q_math.obj
 0001:000408c0       _vectoangles               300418c0 f   q_math.obj
 0001:00040b30       _COM_BeginParseSession     30041b30 f   q_shared.obj
 0001:00040b70       _COM_Compress              30041b70 f   q_shared.obj
 0001:00040d90       _COM_DefaultExtension      30041d90 f   q_shared.obj
 0001:00040e30       _COM_GetCurrentParseLine   30041e30 f   q_shared.obj
 0001:00040e50       _COM_MatchToken            30041e50 f   q_shared.obj
 0001:00040ea0       _COM_Parse                 30041ea0 f   q_shared.obj
 0001:00040ec0       _COM_ParseError            30041ec0 f   q_shared.obj
 0001:00040f10       _COM_ParseExt              30041f10 f   q_shared.obj
 0001:000411b0       _COM_ParseWarning          300421b0 f   q_shared.obj
 0001:00041200       _COM_SkipPath              30042200 f   q_shared.obj
 0001:00041250       _COM_StripExtension        30042250 f   q_shared.obj
 0001:000412a0       _Com_Clamp                 300422a0 f   q_shared.obj
 0001:000412e0       _Com_sprintf               300422e0 f   q_shared.obj
 0001:00041380       _FloatNoSwap               30042380 f   q_shared.obj
 0001:000413a0       _FloatSwap                 300423a0 f   q_shared.obj
 0001:000413d0       _Info_NextPair             300423d0 f   q_shared.obj
 0001:000414c0       _Info_RemoveKey            300424c0 f   q_shared.obj
 0001:00041640       _Info_RemoveKey_Big        30042640 f   q_shared.obj
 0001:000417d0       _Info_SetValueForKey       300427d0 f   q_shared.obj
 0001:00041960       _Info_SetValueForKey_Big   30042960 f   q_shared.obj
 0001:00041af0       _Info_Validate             30042af0 f   q_shared.obj
 0001:00041b40       _Info_ValueForKey          30042b40 f   q_shared.obj
 0001:00041ce0       _Long64NoSwap              30042ce0 f   q_shared.obj
 0001:00041d00       _Long64Swap                30042d00 f   q_shared.obj
 0001:00041d50       _LongNoSwap                30042d50 f   q_shared.obj
 0001:00041d70       _LongSwap                  30042d70 f   q_shared.obj
 0001:00041de0       _Parse1DMatrix             30042de0 f   q_shared.obj
 0001:00041e60       _Parse2DMatrix             30042e60 f   q_shared.obj
 0001:00041ed0       _Parse3DMatrix             30042ed0 f   q_shared.obj
 0001:00041f50       _Q_CleanStr                30042f50 f   q_shared.obj
 0001:00041fe0       _Q_PrintStrlen             30042fe0 f   q_shared.obj
 0001:00042060       _Q_isalpha                 30043060 f   q_shared.obj
 0001:000420a0       _Q_islower                 300430a0 f   q_shared.obj
 0001:000420d0       _Q_isprint                 300430d0 f   q_shared.obj
 0001:00042100       _Q_isupper                 30043100 f   q_shared.obj
 0001:00042130       _Q_strcat                  30043130 f   q_shared.obj
 0001:00042180       _Q_stricmp                 30043180 f   q_shared.obj
 0001:000421c0       _Q_stricmpn                300431c0 f   q_shared.obj
 0001:000422a0       _Q_strlwr                  300432a0 f   q_shared.obj
 0001:000422f0       _Q_strncmp                 300432f0 f   q_shared.obj
 0001:00042370       _Q_strncpyz                30043370 f   q_shared.obj
 0001:000423e0       _Q_strrchr                 300433e0 f   q_shared.obj
 0001:00042440       _Q_strupr                  30043440 f   q_shared.obj
 0001:00042490       _ShortNoSwap               30043490 f   q_shared.obj
 0001:000424b0       _ShortSwap                 300434b0 f   q_shared.obj
 0001:000424f0       _SkipBracedSection         300434f0 f   q_shared.obj
 0001:00042580       _SkipRestOfLine            30043580 f   q_shared.obj
 0001:00042640       _va                        30043640 f   q_shared.obj
 0001:000426a0       _ItemParse_wrapped         300436a0 f   ui_shared.obj
 0001:000426d0       _ItemParse_autowrapped     300436d0 f   ui_shared.obj
 0001:00042700       _ItemParse_horizontalscroll 30043700 f   ui_shared.obj
 0001:00042730       _Script_SetTeamColor       30043730 f   ui_shared.obj
 0001:000427a0       _ItemParse_type            300437a0 f   ui_shared.obj
 0001:000427e0       _ItemParse_elementwidth    300437e0 f   ui_shared.obj
 0001:00042830       _Script_SetItemColor       30043830 f   ui_shared.obj
 0001:000429b0       _ItemParse_elementheight   300439b0 f   ui_shared.obj
 0001:00042a00       _ItemParse_feeder          30043a00 f   ui_shared.obj
 0001:00042a40       _ItemParse_elementtype     30043a40 f   ui_shared.obj
 0001:00042aa0       _ItemParse_columns         30043aa0 f   ui_shared.obj
 0001:00042bb0       _ItemParse_border          30043bb0 f   ui_shared.obj
 0001:00042be0       _ItemParse_bordersize      30043be0 f   ui_shared.obj
 0001:00042c10       _ItemParse_visible         30043c10 f   ui_shared.obj
 0001:00042c60       _ItemParse_ownerdraw       30043c60 f   ui_shared.obj
 0001:00042ca0       _ItemParse_align           30043ca0 f   ui_shared.obj
 0001:00042ce0       _ItemParse_textalign       30043ce0 f   ui_shared.obj
 0001:00042d20       _ItemParse_textalignx      30043d20 f   ui_shared.obj
 0001:00042d60       _Script_Show               30043d60 f   ui_shared.obj
 0001:00042da0       _ItemParse_textaligny      30043da0 f   ui_shared.obj
 0001:00042de0       _Script_Hide               30043de0 f   ui_shared.obj
 0001:00042e20       _ItemParse_textscale       30043e20 f   ui_shared.obj
 0001:00042e60       _Script_FadeIn             30043e60 f   ui_shared.obj
 0001:00042ea0       _ItemParse_textstyle       30043ea0 f   ui_shared.obj
 0001:00042ee0       _Script_FadeOut            30043ee0 f   ui_shared.obj
 0001:00042f20       _ItemParse_backcolor       30043f20 f   ui_shared.obj
 0001:00042f80       _Script_Open               30043f80 f   ui_shared.obj
 0001:00042fb0       _ItemParse_forecolor       30043fb0 f   ui_shared.obj
 0001:00043020       _Script_ConditionalOpen    30044020 f   ui_shared.obj
 0001:000430b0       _ItemParse_bordercolor     300440b0 f   ui_shared.obj
 0001:00043110       _Script_Close              30044110 f   ui_shared.obj
 0001:00043140       _ItemParse_outlinecolor    30044140 f   ui_shared.obj
 0001:00043180       _ItemParse_background      30044180 f   ui_shared.obj
 0001:000431d0       _ItemParse_cinematic       300441d0 f   ui_shared.obj
 0001:00043200       _ItemParse_doubleClick     30044200 f   ui_shared.obj
 0001:00043260       _Script_Transition         30044260 f   ui_shared.obj
 0001:00043360       _ItemParse_onFocus         30044360 f   ui_shared.obj
 0001:000433a0       _ItemParse_leaveFocus      300443a0 f   ui_shared.obj
 0001:000433e0       _ItemParse_mouseEnter      300443e0 f   ui_shared.obj
 0001:00043420       _ItemParse_mouseExit       30044420 f   ui_shared.obj
 0001:00043460       _ItemParse_mouseEnterText  30044460 f   ui_shared.obj
 0001:000434a0       _Script_Orbit              300444a0 f   ui_shared.obj
 0001:00043580       _ItemParse_mouseExitText   30044580 f   ui_shared.obj
 0001:000435c0       _ItemParse_action          300445c0 f   ui_shared.obj
 0001:00043600       _Script_SetFocus           30044600 f   ui_shared.obj
 0001:000436d0       _ItemParse_special         300446d0 f   ui_shared.obj
 0001:00043710       _Script_SetPlayerModel     30044710 f   ui_shared.obj
 0001:00043750       _ItemParse_cvarTest        30044750 f   ui_shared.obj
 0001:00043790       _ItemParse_cvar            30044790 f   ui_shared.obj
 0001:00043820       _Script_SetPlayerHead      30044820 f   ui_shared.obj
 0001:00043860       _Script_SetCvar            30044860 f   ui_shared.obj
 0001:000438b0       _ItemParse_maxChars        300448b0 f   ui_shared.obj
 0001:00043910       _Script_Exec               30044910 f   ui_shared.obj
 0001:00043960       _ItemParse_maxPaintChars   30044960 f   ui_shared.obj
 0001:000439c0       _Script_Play               300449c0 f   ui_shared.obj
 0001:00043a10       _ItemParse_cvarFloat       30044a10 f   ui_shared.obj
 0001:00043ab0       _Script_playLooped         30044ab0 f   ui_shared.obj
 0001:00043b00       _ItemParse_cvarStrList     30044b00 f   ui_shared.obj
 0001:00043cf0       _ItemParse_cvarFloatList   30044cf0 f   ui_shared.obj
 0001:00043eb0       _ItemParse_addColorRange   30044eb0 f   ui_shared.obj
 0001:00043f60       _ItemParse_ownerdrawFlag   30044f60 f   ui_shared.obj
 0001:00043fa0       _ItemParse_enableCvar      30044fa0 f   ui_shared.obj
 0001:00043fe0       _ItemParse_disableCvar     30044fe0 f   ui_shared.obj
 0001:00044020       _ItemParse_showCvar        30045020 f   ui_shared.obj
 0001:00044060       _ItemParse_hideCvar        30045060 f   ui_shared.obj
 0001:000440a0       _MenuParse_font            300450a0 f   ui_shared.obj
 0001:00044120       _MenuParse_name            30045120 f   ui_shared.obj
 0001:00044170       _MenuParse_fullscreen      30045170 f   ui_shared.obj
 0001:000441b0       _MenuParse_rect            300451b0 f   ui_shared.obj
 0001:000441f0       _MenuParse_style           300451f0 f   ui_shared.obj
 0001:00044230       _MenuParse_visible         30045230 f   ui_shared.obj
 0001:00044280       _MenuParse_onOpen          30045280 f   ui_shared.obj
 0001:000442c0       _MenuParse_onClose         300452c0 f   ui_shared.obj
 0001:00044300       _MenuParse_onESC           30045300 f   ui_shared.obj
 0001:00044340       _MenuParse_border          30045340 f   ui_shared.obj
 0001:00044380       _MenuParse_borderSize      30045380 f   ui_shared.obj
 0001:000443c0       _MenuParse_backcolor       300453c0 f   ui_shared.obj
 0001:00044430       _MenuParse_forecolor       30045430 f   ui_shared.obj
 0001:000444a0       _MenuParse_bordercolor     300454a0 f   ui_shared.obj
 0001:00044510       _MenuParse_focuscolor      30045510 f   ui_shared.obj
 0001:00044580       _MenuParse_disablecolor    30045580 f   ui_shared.obj
 0001:000445f0       _MenuParse_outlinecolor    300455f0 f   ui_shared.obj
 0001:00044630       _MenuParse_background      30045630 f   ui_shared.obj
 0001:00044680       _MenuParse_cinematic       30045680 f   ui_shared.obj
 0001:000446c0       _MenuParse_ownerdrawFlag   300456c0 f   ui_shared.obj
 0001:00044710       _MenuParse_ownerdraw       30045710 f   ui_shared.obj
 0001:00044750       _MenuParse_popup           30045750 f   ui_shared.obj
 0001:00044780       _MenuParse_outOfBounds     30045780 f   ui_shared.obj
 0001:000447b0       _MenuParse_soundLoop       300457b0 f   ui_shared.obj
 0001:000447f0       _MenuParse_fadeClamp       300457f0 f   ui_shared.obj
 0001:00044830       _MenuParse_fadeAmount      30045830 f   ui_shared.obj
 0001:00044870       _MenuParse_fadeCycle       30045870 f   ui_shared.obj
 0001:000448b0       _MenuParse_itemDef         300458b0 f   ui_shared.obj
 0001:00044990       _ItemParse_name            30045990 f   ui_shared.obj
 0001:000449c0       _ItemParse_focusSound      300459c0 f   ui_shared.obj
 0001:00044a10       _ItemParse_text            30045a10 f   ui_shared.obj
 0001:00044a50       _ItemParse_group           30045a50 f   ui_shared.obj
 0001:00044a80       _ItemParse_asset_model     30045a80 f   ui_shared.obj
 0001:00044b00       _ItemParse_asset_shader    30045b00 f   ui_shared.obj
 0001:00044b50       _ItemParse_model_origin    30045b50 f   ui_shared.obj
 0001:00044be0       _ItemParse_model_fovx      30045be0 f   ui_shared.obj
 0001:00044c30       _ItemParse_model_fovy      30045c30 f   ui_shared.obj
 0001:00044c80       _ItemParse_model_rotation  30045c80 f   ui_shared.obj
 0001:00044cd0       _Script_SetColor           30045cd0 f   ui_shared.obj
 0001:00044dd0       _ItemParse_model_angle     30045dd0 f   ui_shared.obj
 0001:00044e20       _ItemParse_rect            30045e20 f   ui_shared.obj
 0001:00044e50       _ItemParse_style           30045e50 f   ui_shared.obj
 0001:00044e80       _Script_SetAsset           30045e80 f   ui_shared.obj
 0001:00044ea0       _ItemParse_decoration      30045ea0 f   ui_shared.obj
 0001:00044ed0       _Script_SetBackground      30045ed0 f   ui_shared.obj
 0001:00044f10       _ItemParse_notselectable   30045f10 f   ui_shared.obj
 0001:00044f60       _AdjustFrom640             30045f60 f   ui_shared.obj
 0001:00044fe0       _BindingFromName           30045fe0 f   ui_shared.obj
 0001:000450f0       _BindingIDFromName         300460f0 f   ui_shared.obj
 0001:00045150       _Color_Parse               30046150 f   ui_shared.obj
 0001:000451b0       _Controls_GetConfig        300461b0 f   ui_shared.obj
 0001:00045310       _Controls_SetConfig        30046310 f   ui_shared.obj
 0001:000453d0       _Controls_SetDefaults      300463d0 f   ui_shared.obj
 0001:00045430       _Display_CacheAll          30046430 f   ui_shared.obj
 0001:00045480       _Display_CaptureItem       30046480 f   ui_shared.obj
 0001:00045550       _Display_CursorType        30046550 f   ui_shared.obj
 0001:00045620       _Display_GetContext        30046620 f   ui_shared.obj
 0001:00045640       _Display_HandleKey         30046640 f   ui_shared.obj
 0001:00045690       _Display_KeyBindPending    30046690 f   ui_shared.obj
 0001:000456b0       _Display_MouseMove         300466b0 f   ui_shared.obj
 0001:000457a0       _Display_VisibleMenuCount  300467a0 f   ui_shared.obj
 0001:00045800       _Fade                      30046800 f   ui_shared.obj
 0001:000458d0       _Float_Parse               300468d0 f   ui_shared.obj
 0001:00045930       _GradientBar_Paint         30046930 f   ui_shared.obj
 0001:000459c0       _Init_Display              300469c0 f   ui_shared.obj
 0001:000459e0       _Int_Parse                 300469e0 f   ui_shared.obj
 0001:00045a40       _IsVisible                 30046a40 f   ui_shared.obj
 0001:00045a80       _Item_Action               30046a80 f   ui_shared.obj
 0001:00045ab0       _Item_Bind_HandleKey       30046ab0 f   ui_shared.obj
 0001:00045e10       _Item_Bind_Paint           30046e10 f   ui_shared.obj
 0001:00046230       _Item_EnableShowViaCvar    30047230 f   ui_shared.obj
 0001:00046420       _Item_HandleKey            30047420 f   ui_shared.obj
 0001:000465d0       _Item_Image_Paint          300475d0 f   ui_shared.obj
 0001:00046660       _Item_Init                 30047660 f   ui_shared.obj
 0001:000466b0       _Item_InitControls         300476b0 f   ui_shared.obj
 0001:00046720       _Item_ListBox_HandleKey    30047720 f   ui_shared.obj
 0001:00046f50       _Item_ListBox_MaxScroll    30047f50 f   ui_shared.obj
 0001:00047000       _Item_ListBox_MouseEnter   30048000 f   ui_shared.obj
 0001:00047220       _Item_ListBox_OverLB       30048220 f   ui_shared.obj
 0001:00047640       _Item_ListBox_Paint        30048640 f   ui_shared.obj
 0001:00048220       _Item_ListBox_ThumbDrawPosition 30049220 f   ui_shared.obj
 0001:000483e0       _Item_ListBox_ThumbPosition 300493e0 f   ui_shared.obj
 0001:00048560       _Item_Model_Paint          30049560 f   ui_shared.obj
 0001:00048a60       _Item_MouseEnter           30049a60 f   ui_shared.obj
 0001:00048c30       _Item_MouseLeave           30049c30 f   ui_shared.obj
 0001:00048cb0       _Item_Multi_CountSettings  30049cb0 f   ui_shared.obj
 0001:00048ce0       _Item_Multi_FindCvarByValue 30049ce0 f   ui_shared.obj
 0001:00048e30       _Item_Multi_HandleKey      30049e30 f   ui_shared.obj
 0001:00048fe0       _Item_Multi_Paint          30049fe0 f   ui_shared.obj
 0001:00049260       _Item_Multi_Setting        3004a260 f   ui_shared.obj
 0001:000493c0       _Item_OwnerDraw_HandleKey  3004a3c0 f   ui_shared.obj
 0001:00049410       _Item_OwnerDraw_Paint      3004a410 f   ui_shared.obj
 0001:00049ab0       _Item_Paint                3004aab0 f   ui_shared.obj
 0001:0004a230       _Item_Parse                3004b230 f   ui_shared.obj
 0001:0004a370       _Item_RunScript            3004b370 f   ui_shared.obj
 0001:0004a500       _Item_SetFocus             3004b500 f   ui_shared.obj
 0001:0004a760       _Item_SetMouseOver         3004b760 f   ui_shared.obj
 0001:0004a7a0       _Item_SetScreenCoords      3004b7a0 f   ui_shared.obj
 0001:0004a850       _Item_SetTextExtents       3004b850 f   ui_shared.obj
 0001:0004ab10       _Item_SetupKeywordHash     3004bb10 f   ui_shared.obj
 0001:0004ab70       _Item_Slider_HandleKey     3004bb70 f   ui_shared.obj
 0001:0004ada0       _Item_Slider_OverSlider    3004bda0 f   ui_shared.obj
 0001:0004ae50       _Item_Slider_Paint         3004be50 f   ui_shared.obj
 0001:0004b130       _Item_Slider_ThumbPosition 3004c130 f   ui_shared.obj
 0001:0004b250       _Item_StartCapture         3004c250 f   ui_shared.obj
 0001:0004b470       _Item_StopCapture          3004c470 f   ui_shared.obj
 0001:0004b480       _Item_TextColor            3004c480 f   ui_shared.obj
 0001:0004b7f0       _Item_TextField_HandleKey  3004c7f0 f   ui_shared.obj
 0001:0004be60       _Item_TextField_Paint      3004ce60 f   ui_shared.obj
 0001:0004c250       _Item_Text_AutoWrapped_Paint 3004d250 f   ui_shared.obj
 0001:0004c690       _Item_Text_Paint           3004d690 f   ui_shared.obj
 0001:0004c800       _Item_Text_Wrapped_Paint   3004d800 f   ui_shared.obj
 0001:0004cab0       _Item_UpdatePosition       3004dab0 f   ui_shared.obj
 0001:0004cb50       _Item_ValidateTypeData     3004db50 f   ui_shared.obj
 0001:0004cca0       _Item_YesNo_HandleKey      3004dca0 f   ui_shared.obj
 0001:0004cdb0       _Item_YesNo_Paint          3004ddb0 f   ui_shared.obj
 0001:0004d0a0       _KeywordHash_Add           3004e0a0 f   ui_shared.obj
 0001:0004d0e0       _KeywordHash_Find          3004e0e0 f   ui_shared.obj
 0001:0004d140       _KeywordHash_Key           3004e140 f   ui_shared.obj
 0001:0004d1f0       _LerpColor                 3004e1f0 f   ui_shared.obj
 0001:0004d350       _Menu_ClearFocus           3004e350 f   ui_shared.obj
 0001:0004d4d0       _Menu_Count                3004e4d0 f   ui_shared.obj
 0001:0004d4f0       _Menu_FadeItemByName       3004e4f0 f   ui_shared.obj
 0001:0004d590       _Menu_FindItemByName       3004e590 f   ui_shared.obj
 0001:0004d610       _Menu_GetFocused           3004e610 f   ui_shared.obj
 0001:0004d680       _Menu_GetFocusedItem       3004e680 f   ui_shared.obj
 0001:0004d6e0       _Menu_GetMatchingItemByNumber 3004e6e0 f   ui_shared.obj
 0001:0004d7a0       _Menu_HandleKey            3004e7a0 f   ui_shared.obj
 0001:0004ddb0       _Menu_HandleMouseMove      3004edb0 f   ui_shared.obj
 0001:0004e020       _Menu_HitTest              3004f020 f   ui_shared.obj
 0001:0004e0a0       _Menu_Init                 3004f0a0 f   ui_shared.obj
 0001:0004e120       _Menu_ItemsMatchingGroup   3004f120 f   ui_shared.obj
 0001:0004e1c0       _Menu_New                  3004f1c0 f   ui_shared.obj
 0001:0004e230       _Menu_OrbitItemByName      3004f230 f   ui_shared.obj
 0001:0004e440       _Menu_Paint                3004f440 f   ui_shared.obj
 0001:0004e660       _Menu_PaintAll             3004f660 f   ui_shared.obj
 0001:0004e790       _Menu_Parse                3004f790 f   ui_shared.obj
 0001:0004e8e0       _Menu_PostParse            3004f8e0 f   ui_shared.obj
 0001:0004e950       _Menu_Reset                3004f950 f   ui_shared.obj
 0001:0004e9e0       _Menu_ScrollFeeder         3004f9e0 f   ui_shared.obj
 0001:0004ea80       _Menu_SetFeederSelection   3004fa80 f   ui_shared.obj
 0001:0004eba0       _Menu_SetNextCursorItem    3004fba0 f   ui_shared.obj
 0001:0004ed10       _Menu_SetPrevCursorItem    3004fd10 f   ui_shared.obj
 0001:0004ee80       _Menu_SetupKeywordHash     3004fe80 f   ui_shared.obj
 0001:0004eee0       _Menu_ShowItemByName       3004fee0 f   ui_shared.obj
 0001:0004ef90       _Menu_TransitionItemByName 3004ff90 f   ui_shared.obj
 0001:0004f0f0       _Menu_UpdatePosition       300500f0 f   ui_shared.obj
 0001:0004f1a0       _Menus_Activate            300501a0 f   ui_shared.obj
 0001:0004f250       _Menus_ActivateByName      30050250 f   ui_shared.obj
 0001:0004f330       _Menus_AnyFullScreenVisible 30050330 f   ui_shared.obj
 0001:0004f390       _Menus_CloseAll            30050390 f   ui_shared.obj
 0001:0004f400       _Menus_CloseByName         30050400 f   ui_shared.obj
 0001:0004f440       _Menus_FindByName          30050440 f   ui_shared.obj
 0001:0004f4b0       _Menus_HandleOOBClick      300504b0 f   ui_shared.obj
 0001:0004f630       _Menus_OpenByName          30050630 f   ui_shared.obj
 0001:0004f650       _Menus_ShowByName          30050650 f   ui_shared.obj
 0001:0004f690       _PC_Color_Parse            30050690 f   ui_shared.obj
 0001:0004f6f0       _PC_Float_Parse            300506f0 f   ui_shared.obj
 0001:0004f7e0       _PC_Int_Parse              300507e0 f   ui_shared.obj
 0001:0004f8c0       _PC_Rect_Parse             300508c0 f   ui_shared.obj
 0001:0004f940       _PC_Script_Parse           30050940 f   ui_shared.obj
 0001:0004faa0       _PC_SourceError            30050aa0 f   ui_shared.obj
 0001:0004fb60       _PC_SourceWarning          30050b60 f   ui_shared.obj
 0001:0004fc20       _PC_String_Parse           30050c20 f   ui_shared.obj
 0001:0004fc80       _Rect_ContainsPoint        30050c80 f   ui_shared.obj
 0001:0004fcf0       _Rect_Parse                30050cf0 f   ui_shared.obj
 0001:0004fd70       _Rect_ToWindowCoords       30050d70 f   ui_shared.obj
 0001:000502d0       _String_Alloc              300512d0 f   ui_shared.obj
 0001:00050430       _String_Init               30051430 f   ui_shared.obj
 0001:000504c0       _String_Parse              300514c0 f   ui_shared.obj
 0001:00050520       _String_Report             30051520 f   ui_shared.obj
 0001:00050600       _ToWindowCoords            30051600 f   ui_shared.obj
 0001:00050670       _UI_Alloc                  30051670 f   ui_shared.obj
 0001:000506f0       _UI_InitMemory             300516f0 f   ui_shared.obj
 0001:00050720       _UI_OutOfMemory            30051720 f   ui_shared.obj
 0001:00050820       _Window_Init               30051820 f   ui_shared.obj
 0001:000508c0       _Window_Paint              300518c0 f   ui_shared.obj
 0001:000510c0       _cos                       300520c0 f   LIBCMTD:cos.obj
 0001:00051100       __CIcos                    30052100 f   LIBCMTD:cos.obj
 0001:0005113b       __CIcos_default            3005213b f   LIBCMTD:cos.obj
 0001:0005114f       __cos_default              3005214f     LIBCMTD:cos.obj
 0001:000511f0       _fabs                      300521f0 f   LIBCMTD:fabs.obj
 0001:000512f0       _sin                       300522f0 f   LIBCMTD:sin.obj
 0001:00051330       __CIsin                    30052330 f   LIBCMTD:sin.obj
 0001:0005136b       __CIsin_default            3005236b f   LIBCMTD:sin.obj
 0001:0005137f       __sin_default              3005237f     LIBCMTD:sin.obj
 0001:00051420       ??0_LocaleUpdate@@QAE@PAUlocaleinfo_struct@@@Z 30052420 f i LIBCMTD:atof.obj
 0001:00051500       ??1_LocaleUpdate@@QAE@XZ   30052500 f i LIBCMTD:atof.obj
 0001:00051530       ?GetLocaleT@_LocaleUpdate@@QAEPAUlocaleinfo_struct@@XZ 30052530 f i LIBCMTD:atof.obj
 0001:00051540       ___STRINGTOLD              30052540 f   LIBCMTD:atof.obj
 0001:00051590       ___strgtold12              30052590 f   LIBCMTD:atof.obj
 0001:000515e0       __atof_l                   300525e0 f   LIBCMTD:atof.obj
 0001:00051730       _atof                      30052730 f   LIBCMTD:atof.obj
 0001:00051750       @__security_check_cookie@4 30052750 f   LIBCMTD:secchk.obj
 0001:00051760       __fpmath                   30052760 f   LIBCMTD:fpinit.obj
 0001:00051780       ___setfflag                30052780 f   LIBCMTD:fpinit.obj
 0001:000517a0       __cfltcvt_init             300527a0 f   LIBCMTD:fpinit.obj
 0001:00051860       __abs64                    30052860 f   LIBCMTD:abs.obj
 0001:000518a0       _abs                       300528a0 f   LIBCMTD:abs.obj
 0001:000518d0       __CIsqrt                   300528d0 f   LIBCMTD:sqrt.obj
 0001:000518e4       _sqrt                      300528e4     LIBCMTD:sqrt.obj
 0001:00051990       _memset                    30052990 f   LIBCMTD:memset.obj
 0001:00051a20       __atoi64                   30052a20 f   LIBCMTD:atox.obj
 0001:00051a40       __atoi64_l                 30052a40 f   LIBCMTD:atox.obj
 0001:00051a60       __atoi_l                   30052a60 f   LIBCMTD:atox.obj
 0001:00051a80       __atol_l                   30052a80 f   LIBCMTD:atox.obj
 0001:00051aa0       _atoi                      30052aa0 f   LIBCMTD:atox.obj
 0001:00051ac0       _atol                      30052ac0 f   LIBCMTD:atox.obj
 0001:00051ae0       ___raise_securityfailure   30052ae0 f   LIBCMTD:gs_report.obj
 0001:00051b30       ___report_gsfailure        30052b30 f   LIBCMTD:gs_report.obj
 0001:00051c40       ___report_rangecheckfailure 30052c40 f   LIBCMTD:gs_report.obj
 0001:00051c50       ___report_securityfailure  30052c50 f   LIBCMTD:gs_report.obj
 0001:00051d30       ___report_securityfailureEx 30052d30 f   LIBCMTD:gs_report.obj
 0001:00051e60       _strlen                    30052e60 f   LIBCMTD:strlen.obj
 0001:00051ef0       _rand                      30052ef0 f   LIBCMTD:rand.obj
 0001:00051f30       _srand                     30052f30 f   LIBCMTD:rand.obj
 0001:00051f40       _memcpy                    30052f40 f   LIBCMTD:memcpy.obj
 0001:00052590       _strcpy                    30053590 f   LIBCMTD:strcat.obj
 0001:000525a0       _strcat                    300535a0 f   LIBCMTD:strcat.obj
 0001:00052690       __vscprintf                30053690 f   LIBCMTD:vsprintf.obj
 0001:000526b0       __vscprintf_helper         300536b0 f   LIBCMTD:vsprintf.obj
 0001:000527a0       __vscprintf_l              300537a0 f   LIBCMTD:vsprintf.obj
 0001:000527c0       __vscprintf_p              300537c0 f   LIBCMTD:vsprintf.obj
 0001:000527e0       __vscprintf_p_l            300537e0 f   LIBCMTD:vsprintf.obj
 0001:00052800       __vsprintf_l               30053800 f   LIBCMTD:vsprintf.obj
 0001:000529c0       _vsprintf                  300539c0 f   LIBCMTD:vsprintf.obj
 0001:000529e0       _strcmp                    300539e0 f   LIBCMTD:strcmp.obj
 0001:00052a70       _floor                     30053a70 f   LIBCMTD:floor_pentium4.obj
 0001:00052ab0       __floor_pentium4           30053ab0 f   LIBCMTD:floor_pentium4.obj
 0001:00052ba0       __alloca_probe             30053ba0     LIBCMTD:chkstk.obj
 0001:00052ba0       __chkstk                   30053ba0 f   LIBCMTD:chkstk.obj
 0001:00052bd0       __ftol2_sse                30053bd0 f   LIBCMTD:ftol2.obj
 0001:00052bd9       __ftol2_pentium4           30053bd9 f   LIBCMTD:ftol2.obj
 0001:00052bec       __ftol2_sse_excpt          30053bec f   LIBCMTD:ftol2.obj
 0001:00052c06       __ftol2                    30053c06 f   LIBCMTD:ftol2.obj
 0001:00052c80       _acos                      30053c80 f   LIBCMTD:acos.obj
 0001:00052cc0       __CIacos                   30053cc0 f   LIBCMTD:acos.obj
 0001:00052cfb       __CIacos_default           30053cfb f   LIBCMTD:acos.obj
 0001:00052d0f       __acos_default             30053d0f     LIBCMTD:acos.obj
 0001:00052dd0       _strchr                    30053dd0 f   LIBCMTD:strchr.obj
 0001:00052e3e       ___from_strstr_to_strchr   30053e3e     LIBCMTD:strchr.obj
 0001:00052f00       _strncpy                   30053f00 f   LIBCMTD:strncpy.obj
 0001:00053030       _strstr                    30054030 f   LIBCMTD:strstr.obj
 0001:000532a0       _atan2                     300542a0 f   LIBCMTD:87ctriga.obj
 0001:000532aa       __CIatan2                  300542aa f   LIBCMTD:87ctriga.obj
 0001:000532c0       _tan                       300542c0 f   LIBCMTD:tan.obj
 0001:00053300       __CItan                    30054300 f   LIBCMTD:tan.obj
 0001:0005333b       __CItan_default            3005433b f   LIBCMTD:tan.obj
 0001:0005334f       __tan_default              3005434f     LIBCMTD:tan.obj
 0001:000533f0       __invoke_watson_if_error   300543f0 f i LIBCMTD:wassert.obj
 0001:00053420       __wassert                  30054420 f   LIBCMTD:wassert.obj
 0001:00054060       __toupper                  30055060 f   LIBCMTD:toupper.obj
 0001:00054070       __toupper_l                30055070 f   LIBCMTD:toupper.obj
 0001:000542b0       _toupper                   300552b0 f   LIBCMTD:toupper.obj
 0001:00054300       __tolower                  30055300 f   LIBCMTD:tolower.obj
 0001:00054310       __tolower_l                30055310 f   LIBCMTD:tolower.obj
 0001:00054550       _tolower                   30055550 f   LIBCMTD:tolower.obj
 0001:000545a0       _memmove                   300555a0 f   LIBCMTD:memmove.obj
 0001:00054bf0       __CRT_INIT@12              30055bf0 f   LIBCMTD:dllcrt0.obj
 0001:00054e20       __DllMainCRTStartup@12     30055e20 f   LIBCMTD:dllcrt0.obj
 0001:00055010       ___DllXcptFilter           30056010 f   LIBCMTD:dllcrt0.obj
 0001:00055040       __sse2_mathfcns_init       30056040 f   LIBCMTD:mathfcns.obj
 0001:00055060       __set_SSE2_enable          30056060 f   LIBCMTD:mathfcns.obj
 0001:000550b0       __CIcos_pentium4           300560b0 f   LIBCMTD:cos_pentium4.obj
 0001:000550c8       __cos_pentium4             300560c8     LIBCMTD:cos_pentium4.obj
 0001:00055260       __trandisp1                30056260 f   LIBCMTD:87disp.obj
 0001:000552c7       __trandisp2                300562c7 f   LIBCMTD:87disp.obj
 0001:00055353       __rttospopde               30056353     LIBCMTD:87disp.obj
 0001:00055358       __rttospop                 30056358     LIBCMTD:87disp.obj
 0001:0005535a       __rtnospop                 3005635a     LIBCMTD:87disp.obj
 0001:0005535c       __rttosnpop                3005635c     LIBCMTD:87disp.obj
 0001:0005535d       __rtnospopde               3005635d     LIBCMTD:87disp.obj
 0001:00055364       __rtzeropop                30056364     LIBCMTD:87disp.obj
 0001:00055366       __rtzeronpop               30056366     LIBCMTD:87disp.obj
 0001:0005536b       __rtonepop                 3005636b     LIBCMTD:87disp.obj
 0001:0005536d       __rtonenpop                3005636d     LIBCMTD:87disp.obj
 0001:00055372       __tosnan1                  30056372     LIBCMTD:87disp.obj
 0001:0005539d       __nosnan2                  3005639d     LIBCMTD:87disp.obj
 0001:0005539f       __tosnan2                  3005639f     LIBCMTD:87disp.obj
 0001:000553c7       __nan2                     300563c7     LIBCMTD:87disp.obj
 0001:00055406       __rtindfpop                30056406     LIBCMTD:87disp.obj
 0001:00055408       __rtindfnpop               30056408     LIBCMTD:87disp.obj
 0001:00055419       __rttosnpopde              30056419     LIBCMTD:87disp.obj
 0001:00055423       __rtchsifneg               30056423     LIBCMTD:87disp.obj
 0001:00055430       __twoToTOS                 30056430 f   LIBCMTD:common.obj
 0001:00055445       __load_CW                  30056445 f   LIBCMTD:common.obj
 0001:0005545c       __convertTOStoQNaN         3005645c f   LIBCMTD:common.obj
 0001:00055475       __fload_withFB             30056475 f   LIBCMTD:common.obj
 0001:000554b8       __checkTOS_withFB          300564b8 f   LIBCMTD:common.obj
 0001:000554ce       __fast_exit                300564ce f   LIBCMTD:common.obj
 0001:000554db       __math_exit                300564db f   LIBCMTD:common.obj
 0001:00055505       __check_overflow_exit      30056505 f   LIBCMTD:common.obj
 0001:00055519       __check_range_exit         30056519 f   LIBCMTD:common.obj
 0001:000555c0       __startTwoArgErrorHandling 300565c0 f   LIBCMTD:genexcep.obj
 0001:000555d7       __startOneArgErrorHandling 300565d7 f   LIBCMTD:genexcep.obj
 0001:00055620       __errcode                  30056620 f   LIBCMTD:fpexcept.obj
 0001:00055690       __except1                  30056690 f   LIBCMTD:fpexcept.obj
 0001:00055790       __except2                  30056790 f   LIBCMTD:fpexcept.obj
 0001:000558e0       __handle_exc               300568e0 f   LIBCMTD:fpexcept.obj
 0001:00055c00       __handle_qnan1             30056c00 f   LIBCMTD:fpexcept.obj
 0001:00055c60       __handle_qnan2             30056c60 f   LIBCMTD:fpexcept.obj
 0001:00055cd0       __raise_exc                30056cd0 f   LIBCMTD:fpexcept.obj
 0001:00055d00       __raise_exc_ex             30056d00 f   LIBCMTD:fpexcept.obj
 0001:00056270       __raise_excf               30057270 f   LIBCMTD:fpexcept.obj
 0001:000562a0       __set_errno_from_matherr   300572a0 f   LIBCMTD:fpexcept.obj
 0001:000562e0       __umatherr                 300572e0 f   LIBCMTD:fpexcept.obj
 0001:00056380       __add_exp                  30057380 f   LIBCMTD:util.obj
 0001:000563b0       __decomp                   300573b0 f   LIBCMTD:util.obj
 0001:000564d0       __get_exp                  300574d0 f   LIBCMTD:util.obj
 0001:00056500       __set_bexp                 30057500 f   LIBCMTD:util.obj
 0001:00056530       __set_exp                  30057530 f   LIBCMTD:util.obj
 0001:00056570       __sptype                   30057570 f   LIBCMTD:util.obj
 0001:000565f0       ___clrfp_sse2              300575f0 f   LIBCMTD:fpctrl.obj
 0001:00056630       ___ctrlfp_sse2             30057630 f   LIBCMTD:fpctrl.obj
 0001:00056690       ___fclrf_sse2              30057690 f   LIBCMTD:fpctrl.obj
 0001:000566b0       ___get_fpsr_sse2           300576b0 f   LIBCMTD:fpctrl.obj
 0001:000566e0       ___set_fpsr_sse2           300576e0 f   LIBCMTD:fpctrl.obj
 0001:000567c0       ___set_statfp_sse2         300577c0 f   LIBCMTD:fpctrl.obj
 0001:000567f0       ___statfp_sse2             300577f0 f   LIBCMTD:fpctrl.obj
 0001:00056820       __clrfp                    30057820 f   LIBCMTD:fpctrl.obj
 0001:00056840       __ctrlfp                   30057840 f   LIBCMTD:fpctrl.obj
 0001:00056870       __set_statfp               30057870 f   LIBCMTD:fpctrl.obj
 0001:000568e0       __statfp                   300578e0 f   LIBCMTD:fpctrl.obj
 0001:000568f0       __CIsin_pentium4           300578f0 f   LIBCMTD:sin_pentium4.obj
 0001:00056908       __sin_pentium4             30057908     LIBCMTD:sin_pentium4.obj
 0001:00056ac0       ?_invalid_parameter@@YAXPBG00II@Z 30057ac0 f   LIBCMTD:invarg.obj
 0001:00056af0       ?_invoke_watson@@YAXPBG00II@Z 30057af0 f   LIBCMTD:invarg.obj
 0001:00056b10       __call_reportfault         30057b10 f   LIBCMTD:invarg.obj
 0001:00056c70       __get_invalid_parameter_handler 30057c70 f   LIBCMTD:invarg.obj
 0001:00056ca0       __initp_misc_invarg        30057ca0 f   LIBCMTD:invarg.obj
 0001:00056cb0       __invalid_parameter        30057cb0 f   LIBCMTD:invarg.obj
 0001:00056d10       __invoke_watson            30057d10 f   LIBCMTD:invarg.obj
 0001:00056d50       __set_invalid_parameter_handler 30057d50 f   LIBCMTD:invarg.obj
 0001:00056d90       ___doserrno                30057d90 f   LIBCMTD:dosmap.obj
 0001:00056dc0       __dosmaperr                30057dc0 f   LIBCMTD:dosmap.obj
 0001:00056df0       __errno                    30057df0 f   LIBCMTD:dosmap.obj
 0001:00056e20       __get_doserrno             30057e20 f   LIBCMTD:dosmap.obj
 0001:00056eb0       __get_errno                30057eb0 f   LIBCMTD:dosmap.obj
 0001:00056f40       __get_errno_from_oserr     30057f40 f   LIBCMTD:dosmap.obj
 0001:00056fc0       __set_doserrno             30057fc0 f   LIBCMTD:dosmap.obj
 0001:00056ff0       __set_errno                30057ff0 f   LIBCMTD:dosmap.obj
 0001:00057020       __fltin2                   30058020 f   LIBCMTD:cfin.obj
 0001:00057100       ___STRINGTOLD_L            30058100 f   LIBCMTD:strgtold.obj
 0001:00057170       ___addl                    30058170 f i LIBCMTD:strgtold.obj
 0001:000571b0       ___ld12mul                 300581b0 f i LIBCMTD:strgtold.obj
 0001:000575c0       ___multtenpow12            300585c0 f i LIBCMTD:strgtold.obj
 0001:000576a0       ___shl_12                  300586a0 f i LIBCMTD:strgtold.obj
 0001:00057720       ___shr_12                  30058720 f i LIBCMTD:strgtold.obj
 0001:000577a0       ___strgtold12_l            300587a0 f   LIBCMTD:strgtold.obj
 0001:00058270       ___addlocaleref            30059270 f   LIBCMTD:localref.obj
 0001:00058390       ___freetlocinfo            30059390 f   LIBCMTD:localref.obj
 0001:00058680       ___removelocaleref         30059680 f   LIBCMTD:localref.obj
 0001:000587a0       ___updatetlocinfo          300597a0 f   LIBCMTD:localref.obj
 0001:00058870       __updatetlocinfoEx_nolock  30059870 f   LIBCMTD:localref.obj
 0001:000588f0       ___initmbctable            300598f0 f   LIBCMTD:mbctype.obj
 0001:00058f10       ___updatetmbcinfo          30059f10 f   LIBCMTD:mbctype.obj
 0001:00059020       __getmbcp                  3005a020 f   LIBCMTD:mbctype.obj
 0001:00059090       __setmbcp                  3005a090 f   LIBCMTD:mbctype.obj
 0001:00059330       __setmbcp_nolock           3005a330 f   LIBCMTD:mbctype.obj
 0001:000596b0       __chvalidator              3005a6b0 f   LIBCMTD:isctype.obj
 0001:00059700       __chvalidator_l            3005a700 f   LIBCMTD:isctype.obj
 0001:000597c0       __isctype                  3005a7c0 f   LIBCMTD:isctype.obj
 0001:00059800       __isctype_l                3005a800 f   LIBCMTD:isctype.obj
 0001:00059950       ___get_flsindex            3005a950 f   LIBCMTD:tidtable.obj
 0001:00059960       ___threadhandle            3005a960 f   LIBCMTD:tidtable.obj
 0001:00059970       ___threadid                3005a970 f   LIBCMTD:tidtable.obj
 0001:00059980       __freefls@4                3005a980 f   LIBCMTD:tidtable.obj
 0001:00059b80       __freeptd                  3005ab80 f   LIBCMTD:tidtable.obj
 0001:00059bc0       __getptd                   3005abc0 f   LIBCMTD:tidtable.obj
 0001:00059bf0       __getptd_noexit            3005abf0 f   LIBCMTD:tidtable.obj
 0001:00059ca0       __initptd                  3005aca0 f   LIBCMTD:tidtable.obj
 0001:00059de0       __mtinit                   3005ade0 f   LIBCMTD:tidtable.obj
 0001:00059e90       __mtterm                   3005ae90 f   LIBCMTD:tidtable.obj
 0001:00059ec0       ?_CrtDbgReportW@@YAHHPBGH00ZZ 3005aec0 f   LIBCMTD:dbgrptw.obj
 0001:00059f10       __CrtDbgReportW            3005af10 f   LIBCMTD:dbgrptw.obj
 0001:00059f60       __CrtDbgReportWV           3005af60 f i LIBCMTD:dbgrptw.obj
 0001:00059f90       __CrtSetReportHookW2       3005af90 f   LIBCMTD:dbgrptw.obj
 0001:0005a2e0       ___crtMessageWindowW       3005b2e0 f   LIBCMTD:dbgrptw.obj
 0001:0005a790       __invoke_watson_if_oneof   3005b790 f i LIBCMTD:dbgrptw.obj
 0001:0005a7d0       ?strrchr@@YAPADPADH@Z      3005b7d0 f i LIBCMTD:cvt.obj
 0001:0005a7f0       __cfltcvt                  3005b7f0 f   LIBCMTD:cvt.obj
 0001:0005a820       __cfltcvt_l                3005b820 f   LIBCMTD:cvt.obj
 0001:0005a8e0       __cftoa                    3005b8e0 f   LIBCMTD:cvt.obj
 0001:0005a910       __cftoa_l                  3005b910 f   LIBCMTD:cvt.obj
 0001:0005b180       __cftoe                    3005c180 f   LIBCMTD:cvt.obj
 0001:0005b5c0       __cftoe_l                  3005c5c0 f   LIBCMTD:cvt.obj
 0001:0005b7f0       __cftof                    3005c7f0 f   LIBCMTD:cvt.obj
 0001:0005baa0       __cftof_l                  3005caa0 f   LIBCMTD:cvt.obj
 0001:0005bca0       __cftog                    3005cca0 f   LIBCMTD:cvt.obj
 0001:0005bcd0       __cftog_l                  3005ccd0 f   LIBCMTD:cvt.obj
 0001:0005bf60       __cropzeros                3005cf60 f   LIBCMTD:cvt.obj
 0001:0005bf80       __cropzeros_l              3005cf80 f   LIBCMTD:cvt.obj
 0001:0005c0a0       __fassign                  3005d0a0 f   LIBCMTD:cvt.obj
 0001:0005c0c0       __fassign_l                3005d0c0 f   LIBCMTD:cvt.obj
 0001:0005c110       __forcdecpt                3005d110 f   LIBCMTD:cvt.obj
 0001:0005c130       __forcdecpt_l              3005d130 f   LIBCMTD:cvt.obj
 0001:0005c200       __positive                 3005d200 f   LIBCMTD:cvt.obj
 0001:0005c260       __setdefaultprecision      3005d260 f   LIBCMTD:fp8.obj
 0001:0005c2a0       __initp_misc_cfltcvt_tab   3005d2a0 f   LIBCMTD:cmiscdat.obj
 0001:0005c2e0       __VEC_memset               3005d2e0 f   LIBCMTD:p4_memset.obj
 0001:0005c3b0       ___isa_available_init      3005d3b0 f   LIBCMTD:cpu_disp.obj
 0001:0005cae0       __strtoi64                 3005dae0 f   LIBCMTD:strtoq.obj
 0001:0005cb30       __strtoi64_l               3005db30 f   LIBCMTD:strtoq.obj
 0001:0005cb50       __strtoui64                3005db50 f   LIBCMTD:strtoq.obj
 0001:0005cba0       __strtoui64_l              3005dba0 f   LIBCMTD:strtoq.obj
 0001:0005d0c0       __strtol_l                 3005e0c0 f   LIBCMTD:strtol.obj
 0001:0005d0e0       __strtoul_l                3005e0e0 f   LIBCMTD:strtol.obj
 0001:0005d100       _strtol                    3005e100 f   LIBCMTD:strtol.obj
 0001:0005d150       _strtoul                   3005e150 f   LIBCMTD:strtol.obj
 0001:0005d1a0       __CrtDefaultAllocHook      3005e1a0 f   LIBCMTD:dbghook.obj
 0001:0005d1b0       __crt_debugger_hook        3005e1b0 f   LIBCMTD:dbghook.obj
 0001:0005d210       ___crtCloseThreadpoolTimer 3005e210 f   LIBCMTD:winapisupp.obj
 0001:0005d240       ___crtCloseThreadpoolWait  3005e240 f   LIBCMTD:winapisupp.obj
 0001:0005d270       ___crtCreateSemaphoreExW@24 3005e270 f   LIBCMTD:winapisupp.obj
 0001:0005d2d0       ___crtCreateSymbolicLinkW  3005e2d0 f   LIBCMTD:winapisupp.obj
 0001:0005d310       ___crtCreateThreadpoolTimer 3005e310 f   LIBCMTD:winapisupp.obj
 0001:0005d350       ___crtCreateThreadpoolWait 3005e350 f   LIBCMTD:winapisupp.obj
 0001:0005d390       ___crtFlsAlloc             3005e390 f   LIBCMTD:winapisupp.obj
 0001:0005d3c0       ___crtFlsFree              3005e3c0 f   LIBCMTD:winapisupp.obj
 0001:0005d400       ___crtFlsGetValue          3005e400 f   LIBCMTD:winapisupp.obj
 0001:0005d440       ___crtFlsSetValue          3005e440 f   LIBCMTD:winapisupp.obj
 0001:0005d480       ___crtFlushProcessWriteBuffers 3005e480 f   LIBCMTD:winapisupp.obj
 0001:0005d4b0       ___crtFreeLibraryWhenCallbackReturns 3005e4b0 f   LIBCMTD:winapisupp.obj
 0001:0005d4e0       ___crtGetCurrentProcessorNumber 3005e4e0 f   LIBCMTD:winapisupp.obj
 0001:0005d510       ___crtGetLogicalProcessorInformation 3005e510 f   LIBCMTD:winapisupp.obj
 0001:0005d550       ___crtGetShowWindowMode    3005e550 f   LIBCMTD:winapisupp.obj
 0001:0005d580       ___crtInitializeCriticalSectionEx 3005e580 f   LIBCMTD:winapisupp.obj
 0001:0005d5d0       ___crtIsPackagedApp        3005e5d0 f   LIBCMTD:winapisupp.obj
 0001:0005d610       ___crtLoadWinApiPointers   3005e610 f   LIBCMTD:winapisupp.obj
 0001:0005da20       ___crtSetThreadStackGuarantee 3005ea20 f   LIBCMTD:winapisupp.obj
 0001:0005da50       ___crtSetThreadpoolTimer   3005ea50 f   LIBCMTD:winapisupp.obj
 0001:0005da90       ___crtSetThreadpoolWait    3005ea90 f   LIBCMTD:winapisupp.obj
 0001:0005dac0       ___crtSetUnhandledExceptionFilter 3005eac0 f   LIBCMTD:winapisupp.obj
 0001:0005dad0       ___crtTerminateProcess     3005ead0 f   LIBCMTD:winapisupp.obj
 0001:0005daf0       ___crtUnhandledException   3005eaf0 f   LIBCMTD:winapisupp.obj
 0001:0005db10       ___crtWaitForThreadpoolTimerCallbacks 3005eb10 f   LIBCMTD:winapisupp.obj
 0001:0005db40       __flsbuf                   3005eb40 f   LIBCMTD:_flsbuf.obj
 0001:0005de10       __output_l                 3005ee10 f   LIBCMTD:output.obj
 0001:0005f4b0       _get_int64_arg             300604b0 f i LIBCMTD:output.obj
 0001:0005f4d0       _get_int_arg               300604d0 f i LIBCMTD:output.obj
 0001:0005f4f0       _get_short_arg             300604f0 f i LIBCMTD:output.obj
 0001:0005f6b0       __output_p_l               300606b0 f   LIBCMTD:outputp.obj
 0001:000634a0       __validate_param_reuseA    300644a0 f   LIBCMTD:outputp.obj
 0001:00063790       _get_crtdouble_arg         30064790 f i LIBCMTD:outputp.obj
 0001:00063950       ___libm_error_support      30064950 f   LIBCMTD:libm_error.obj
 0001:00064520       ___libm_setusermatherr     30065520 f   LIBCMTD:libm_error.obj
 0001:00064550       __floor_default            30065550 f   LIBCMTD:floor.obj
 0001:00064690       __CIacos_pentium4          30065690 f   LIBCMTD:acos_pentium4.obj
 0001:000646a8       __acos_pentium4            300656a8     LIBCMTD:acos_pentium4.obj
 0001:00064c0c       __fFATN2                   30065c0c     LIBCMTD:87triga.obj
 0001:00064c5c       __rtpiby2                  30065c5c     LIBCMTD:87triga.obj
 0001:00064ca0       __cintrindisp2             30065ca0 f   LIBCMTD:87cdisp.obj
 0001:00064cde       __cintrindisp1             30065cde f   LIBCMTD:87cdisp.obj
 0001:00064d1b       __ctrandisp2               30065d1b f   LIBCMTD:87cdisp.obj
 0001:00064eaa       __ctrandisp1               30065eaa f   LIBCMTD:87cdisp.obj
 0001:00064edd       __fload                    30065edd f   LIBCMTD:87cdisp.obj
 0001:00064f20       __CItan_pentium4           30065f20 f   LIBCMTD:tan_pentium4.obj
 0001:00064f38       __tan_pentium4             30065f38     LIBCMTD:tan_pentium4.obj
 0001:00065180       _memcpy_s                  30066180 f   LIBCMTD:memcpy_s.obj
 0001:00065350       _wcscat_s                  30066350 f   LIBCMTD:wcscat_s.obj
 0001:00065760       _wcscpy_s                  30066760 f   LIBCMTD:wcscpy_s.obj
 0001:00065a70       _wcslen                    30066a70 f   LIBCMTD:wcslen.obj
 0001:00065ab0       _wcsncat_s                 30066ab0 f   LIBCMTD:wcsncat_s.obj
 0001:00065fa0       ___copy_path_to_wide_string 30066fa0 f   LIBCMTD:crt0dat.obj
 0001:00066190       ___crtCorExitProcess       30067190 f   LIBCMTD:crt0dat.obj
 0001:000661d0       ___crtExitProcess          300671d0 f   LIBCMTD:crt0dat.obj
 0001:000661f0       ___freeCrtMemory           300671f0 f   LIBCMTD:crt0dat.obj
 0001:000663c0       __amsg_exit                300673c0 f   LIBCMTD:crt0dat.obj
 0001:000663e0       __c_exit                   300673e0 f   LIBCMTD:crt0dat.obj
 0001:00066400       __cexit                    30067400 f   LIBCMTD:crt0dat.obj
 0001:00066420       __cinit                    30067420 f   LIBCMTD:crt0dat.obj
 0001:000664c0       __exit                     300674c0 f   LIBCMTD:crt0dat.obj
 0001:000664e0       __get_pgmptr               300674e0 f   LIBCMTD:crt0dat.obj
 0001:00066600       __get_wpgmptr              30067600 f   LIBCMTD:crt0dat.obj
 0001:00066720       __init_pointers            30067720 f   LIBCMTD:crt0dat.obj
 0001:000667b0       __initterm_e               300677b0 f   LIBCMTD:crt0dat.obj
 0001:000667f0       __lockexit                 300677f0 f   LIBCMTD:crt0dat.obj
 0001:00066800       __unlockexit               30067800 f   LIBCMTD:crt0dat.obj
 0001:00066a10       _exit                      30067a10 f   LIBCMTD:crt0dat.obj
 0001:00066a30       __set_abort_behavior       30067a30 f   LIBCMTD:abort.obj
 0001:00066a60       _abort                     30067a60 f   LIBCMTD:abort.obj
 0001:00066ad0       ___set_app_type            30067ad0 f   LIBCMTD:errmode.obj
 0001:00066ae0       __set_error_mode           30067ae0 f   LIBCMTD:errmode.obj
 0001:00066fe0       __i64tow_s                 30067fe0 f   LIBCMTD:xtows.obj
 0001:00067030       __itow_s                   30068030 f   LIBCMTD:xtows.obj
 0001:00067090       __ltow_s                   30068090 f   LIBCMTD:xtows.obj
 0001:000670d0       __ui64tow_s                300680d0 f   LIBCMTD:xtows.obj
 0001:000670f0       __ultow_s                  300680f0 f   LIBCMTD:xtows.obj
 0001:00067510       ___initstdio               30068510 f   LIBCMTD:_file.obj
 0001:000675e0       ___endstdio                300685e0 f   LIBCMTD:_file.obj
 0001:00067620       ___iob_func                30068620 f   LIBCMTD:_file.obj
 0001:00067630       __lock_file                30068630 f   LIBCMTD:_file.obj
 0001:00067690       __lock_file2               30068690 f   LIBCMTD:_file.obj
 0001:000676d0       __unlock_file              300686d0 f   LIBCMTD:_file.obj
 0001:00067730       __unlock_file2             30068730 f   LIBCMTD:_file.obj
 0001:00067770       __fflush_nolock            30068770 f   LIBCMTD:fflush.obj
 0001:000677e0       __flush                    300687e0 f   LIBCMTD:fflush.obj
 0001:000678a0       __flushall                 300688a0 f   LIBCMTD:fflush.obj
 0001:000678b0       _fflush                    300688b0 f   LIBCMTD:fflush.obj
 0001:00067af0       _setvbuf                   30068af0 f   LIBCMTD:setvbuf.obj
 0001:00067df0       __fwprintf_l               30068df0 f   LIBCMTD:fwprintf.obj
 0001:00067e20       __fwprintf_p               30068e20 f   LIBCMTD:fwprintf.obj
 0001:00067e50       __fwprintf_p_l             30068e50 f   LIBCMTD:fwprintf.obj
 0001:00067e80       __fwprintf_s_l             30068e80 f   LIBCMTD:fwprintf.obj
 0001:00067eb0       _fwprintf                  30068eb0 f   LIBCMTD:fwprintf.obj
 0001:00068060       _fwprintf_s                30069060 f   LIBCMTD:fwprintf.obj
 0001:00068090       __vsnwprintf_s             30069090 f   LIBCMTD:vswprnc.obj
 0001:000680c0       __vsnwprintf_s_l           300690c0 f   LIBCMTD:vswprnc.obj
 0001:000684a0       __vswprintf_c              300694a0 f   LIBCMTD:vswprnc.obj
 0001:000684f0       __vswprintf_c_l            300694f0 f   LIBCMTD:vswprnc.obj
 0001:00068540       __vswprintf_helper         30069540 f   LIBCMTD:vswprnc.obj
 0001:000687b0       __vswprintf_p              300697b0 f   LIBCMTD:vswprnc.obj
 0001:00068800       __vswprintf_p_l            30069800 f   LIBCMTD:vswprnc.obj
 0001:00068850       __vswprintf_s_l            30069850 f   LIBCMTD:vswprnc.obj
 0001:00068ae0       _vswprintf_s               30069ae0 f   LIBCMTD:vswprnc.obj
 0001:00068b00       ___fpecode                 30069b00 f   LIBCMTD:winsig.obj
 0001:00068b10       ___get_sigabrt             30069b10 f   LIBCMTD:winsig.obj
 0001:00068b30       ___pxcptinfoptrs           30069b30 f   LIBCMTD:winsig.obj
 0001:00068b40       __initp_misc_winsig        30069b40 f   LIBCMTD:winsig.obj
 0001:00068c60       _raise                     30069c60 f   LIBCMTD:winsig.obj
 0001:00068fd0       _signal                    30069fd0 f   LIBCMTD:winsig.obj
 0001:00069380       ___crtMessageBoxW          3006a380 f   LIBCMTD:crtmboxw.obj
 0001:00069690       ___crtMessageBoxWaitThreadW@4 3006a690 f   LIBCMTD:crtmboxw.obj
 0001:000696d0       __FF_MSGBANNER             3006a6d0 f   LIBCMTD:crt0msg.obj
 0001:00069720       __GET_RTERRMSG             3006a720 f   LIBCMTD:crt0msg.obj
 0001:00069760       __NMSG_WRITE               3006a760 f   LIBCMTD:crt0msg.obj
 0001:00069b20       ___iswcsym                 3006ab20 f i LIBCMTD:_wctype.obj
 0001:00069b60       ___iswcsymf                3006ab60 f i LIBCMTD:_wctype.obj
 0001:00069ba0       __isleadbyte_l             3006aba0 f i LIBCMTD:_wctype.obj
 0001:00069bf0       __iswalnum_l               3006abf0 f i LIBCMTD:_wctype.obj
 0001:00069c10       __iswalpha_l               3006ac10 f i LIBCMTD:_wctype.obj
 0001:00069c30       __iswcntrl_l               3006ac30 f i LIBCMTD:_wctype.obj
 0001:00069c50       __iswcsym_l                3006ac50 f i LIBCMTD:_wctype.obj
 0001:00069c90       __iswcsymf_l               3006ac90 f i LIBCMTD:_wctype.obj
 0001:00069cd0       __iswdigit_l               3006acd0 f i LIBCMTD:_wctype.obj
 0001:00069cf0       __iswgraph_l               3006acf0 f i LIBCMTD:_wctype.obj
 0001:00069d10       __iswlower_l               3006ad10 f i LIBCMTD:_wctype.obj
 0001:00069d30       __iswprint_l               3006ad30 f i LIBCMTD:_wctype.obj
 0001:00069d50       __iswpunct_l               3006ad50 f i LIBCMTD:_wctype.obj
 0001:00069d70       __iswspace_l               3006ad70 f i LIBCMTD:_wctype.obj
 0001:00069d90       __iswupper_l               3006ad90 f i LIBCMTD:_wctype.obj
 0001:00069db0       __iswxdigit_l              3006adb0 f i LIBCMTD:_wctype.obj
 0001:00069dd0       _isleadbyte                3006add0 f i LIBCMTD:_wctype.obj
 0001:00069df0       _iswalnum                  3006adf0 f i LIBCMTD:_wctype.obj
 0001:00069e10       _iswalpha                  3006ae10 f i LIBCMTD:_wctype.obj
 0001:00069e30       _iswascii                  3006ae30 f i LIBCMTD:_wctype.obj
 0001:00069e60       _iswcntrl                  3006ae60 f i LIBCMTD:_wctype.obj
 0001:00069e80       _iswdigit                  3006ae80 f i LIBCMTD:_wctype.obj
 0001:00069ea0       _iswgraph                  3006aea0 f i LIBCMTD:_wctype.obj
 0001:00069ec0       _iswlower                  3006aec0 f i LIBCMTD:_wctype.obj
 0001:00069ee0       _iswprint                  3006aee0 f i LIBCMTD:_wctype.obj
 0001:00069f00       _iswpunct                  3006af00 f i LIBCMTD:_wctype.obj
 0001:00069f20       _iswspace                  3006af20 f i LIBCMTD:_wctype.obj
 0001:00069f40       _iswupper                  3006af40 f i LIBCMTD:_wctype.obj
 0001:00069f60       _iswxdigit                 3006af60 f i LIBCMTD:_wctype.obj
 0001:0006a270       __MarkAllocaS              3006b270 f i LIBCMTD:a_map.obj
 0001:0006a290       ___crtLCMapStringA         3006b290 f   LIBCMTD:a_map.obj
 0001:0006a2f0       __freea                    3006b2f0 f i LIBCMTD:a_map.obj
 0001:0006a360       ___init_dummy              3006b360 f   LIBCMTD:wsetloca.obj
 0001:0006a370       __locterm                  3006b370 f   LIBCMTD:wsetloca.obj
 0001:0006a400       ____setlc_active_func      3006b400 f   LIBCMTD:wsetloca.obj
 0001:0006a410       ____unguarded_readlc_active_add_func 3006b410 f   LIBCMTD:wsetloca.obj
 0001:0006a420       ___copy_locale_name        3006b420 f   LIBCMTD:wsetloca.obj
 0001:0006a4c0       ___create_locale           3006b4c0 f   LIBCMTD:wsetloca.obj
 0001:0006a4e0       ___free_locale             3006b4e0 f   LIBCMTD:wsetloca.obj
 0001:0006a500       ___get_current_locale      3006b500 f   LIBCMTD:wsetloca.obj
 0001:0006a510       ___lc_lctowcs              3006b510 f   LIBCMTD:wsetloca.obj
 0001:0006a5c0       ___lc_wcstolc              3006b5c0 f   LIBCMTD:wsetloca.obj
 0001:0006a7e0       __configthreadlocale       3006b7e0 f   LIBCMTD:wsetloca.obj
 0001:0006a940       __create_locale            3006b940 f   LIBCMTD:wsetloca.obj
 0001:0006a9b0       __expandlocale             3006b9b0 f   LIBCMTD:wsetloca.obj
 0001:0006aea0       __free_locale              3006bea0 f   LIBCMTD:wsetloca.obj
 0001:0006afd0       __get_current_locale       3006bfd0 f   LIBCMTD:wsetloca.obj
 0001:0006b0f0       __wcreate_locale           3006c0f0 f   LIBCMTD:wsetloca.obj
 0001:0006b2d0       __wcscats                  3006c2d0 f   LIBCMTD:wsetloca.obj
 0001:0006b350       __wsetlocale               3006c350 f   LIBCMTD:wsetloca.obj
 0001:0006c3e0       __XcptFilter               3006d3e0 f   LIBCMTD:winxfltr.obj
 0001:0006c5e0       ___CppXcptFilter           3006d5e0 f   LIBCMTD:winxfltr.obj
 0001:0006c670       __get_heap_handle          3006d670 f   LIBCMTD:heapinit.obj
 0001:0006c6b0       __heap_init                3006d6b0 f   LIBCMTD:heapinit.obj
 0001:0006c6e0       __heap_term                3006d6e0 f   LIBCMTD:heapinit.obj
 0001:0006c6f0       __ioinit                   3006d6f0 f   LIBCMTD:ioinit.obj
 0001:0006cbd0       __ioterm                   3006dbd0 f   LIBCMTD:ioinit.obj
 0001:0006cc70       __set_pgmptr               3006dc70 f i LIBCMTD:stdargv.obj
 0001:0006cc80       __setargv                  3006dc80 f   LIBCMTD:stdargv.obj
 0001:0006d150       __setenvp                  3006e150 f   LIBCMTD:stdenvp.obj
 0001:0006d780       __CrtCheckMemory           3006e780 f   LIBCMTD:dbgheap.obj
 0001:0006dbe0       __CrtDoForAllClientObjects 3006ebe0 f   LIBCMTD:dbgheap.obj
 0001:0006dd10       __CrtDumpMemoryLeaks       3006ed10 f   LIBCMTD:dbgheap.obj
 0001:0006ddb0       __CrtGetAllocHook          3006edb0 f   LIBCMTD:dbgheap.obj
 0001:0006ddc0       __CrtGetCheckCount         3006edc0 f   LIBCMTD:dbgheap.obj
 0001:0006ddd0       __CrtGetDumpClient         3006edd0 f   LIBCMTD:dbgheap.obj
 0001:0006dde0       __CrtIsMemoryBlock         3006ede0 f   LIBCMTD:dbgheap.obj
 0001:0006df50       __CrtIsValidHeapPointer    3006ef50 f   LIBCMTD:dbgheap.obj
 0001:0006df90       __CrtIsValidPointer        3006ef90 f   LIBCMTD:dbgheap.obj
 0001:0006dfc0       __CrtMemCheckpoint         3006efc0 f   LIBCMTD:dbgheap.obj
 0001:0006e1f0       __CrtMemDifference         3006f1f0 f   LIBCMTD:dbgheap.obj
 0001:0006e450       __CrtMemDumpAllObjectsSince 3006f450 f   LIBCMTD:dbgheap.obj
 0001:0006e490       __CrtMemDumpStatistics     3006f490 f   LIBCMTD:dbgheap.obj
 0001:0006e5b0       __CrtReportBlockType       3006f5b0 f   LIBCMTD:dbgheap.obj
 0001:0006e5e0       __CrtSetAllocHook          3006f5e0 f   LIBCMTD:dbgheap.obj
 0001:0006e600       __CrtSetBreakAlloc         3006f600 f   LIBCMTD:dbgheap.obj
 0001:0006e620       __CrtSetCheckCount         3006f620 f   LIBCMTD:dbgheap.obj
 0001:0006e640       __CrtSetDbgBlockType       3006f640 f   LIBCMTD:dbgheap.obj
 0001:0006e730       __CrtSetDbgFlag            3006f730 f   LIBCMTD:dbgheap.obj
 0001:0006e880       __CrtSetDebugFillThreshold 3006f880 f   LIBCMTD:dbgheap.obj
 0001:0006e8a0       __CrtSetDumpClient         3006f8a0 f   LIBCMTD:dbgheap.obj
 0001:0006e8c0       __aligned_free             3006f8c0 f   LIBCMTD:dbgheap.obj
 0001:0006e8e0       __aligned_free_dbg         3006f8e0 f   LIBCMTD:dbgheap.obj
 0001:0006e990       __aligned_malloc           3006f990 f   LIBCMTD:dbgheap.obj
 0001:0006e9b0       __aligned_malloc_dbg       3006f9b0 f   LIBCMTD:dbgheap.obj
 0001:0006e9d0       __aligned_msize            3006f9d0 f   LIBCMTD:dbgheap.obj
 0001:0006e9f0       __aligned_msize_dbg        3006f9f0 f   LIBCMTD:dbgheap.obj
 0001:0006eb10       __aligned_offset_malloc    3006fb10 f   LIBCMTD:dbgheap.obj
 0001:0006eb30       __aligned_offset_malloc_dbg 3006fb30 f   LIBCMTD:dbgheap.obj
 0001:0006ed10       __aligned_offset_realloc   3006fd10 f   LIBCMTD:dbgheap.obj
 0001:0006ed40       __aligned_offset_realloc_dbg 3006fd40 f   LIBCMTD:dbgheap.obj
 0001:0006f050       __aligned_offset_recalloc  30070050 f   LIBCMTD:dbgheap.obj
 0001:0006f080       __aligned_offset_recalloc_dbg 30070080 f   LIBCMTD:dbgheap.obj
 0001:0006f140       __aligned_realloc          30070140 f   LIBCMTD:dbgheap.obj
 0001:0006f160       __aligned_realloc_dbg      30070160 f   LIBCMTD:dbgheap.obj
 0001:0006f190       __aligned_recalloc         30070190 f   LIBCMTD:dbgheap.obj
 0001:0006f1c0       __aligned_recalloc_dbg     300701c0 f   LIBCMTD:dbgheap.obj
 0001:0006f1f0       __calloc_dbg               300701f0 f   LIBCMTD:dbgheap.obj
 0001:0006f250       __calloc_dbg_impl          30070250 f   LIBCMTD:dbgheap.obj
 0001:0006f2d0       __expand                   300702d0 f   LIBCMTD:dbgheap.obj
 0001:0006f300       __expand_dbg               30070300 f   LIBCMTD:dbgheap.obj
 0001:0006f420       __free_dbg                 30070420 f   LIBCMTD:dbgheap.obj
 0001:0006f4a0       __free_dbg_nolock          300704a0 f   LIBCMTD:dbgheap.obj
 0001:0006f9a0       __free_nolock              300709a0 f   LIBCMTD:dbgheap.obj
 0001:0006f9c0       __heap_alloc               300709c0 f   LIBCMTD:dbgheap.obj
 0001:0006f9e0       __heap_alloc_dbg           300709e0 f   LIBCMTD:dbgheap.obj
 0001:0006fe00       __malloc_dbg               30070e00 f   LIBCMTD:dbgheap.obj
 0001:0006fe30       __msize                    30070e30 f   LIBCMTD:dbgheap.obj
 0001:0006fe50       __msize_dbg                30070e50 f   LIBCMTD:dbgheap.obj
 0001:00070060       __nh_malloc                30071060 f   LIBCMTD:dbgheap.obj
 0001:00070080       __nh_malloc_dbg            30071080 f   LIBCMTD:dbgheap.obj
 0001:00070310       __realloc_dbg              30071310 f   LIBCMTD:dbgheap.obj
 0001:000703a0       __recalloc                 300713a0 f   LIBCMTD:dbgheap.obj
 0001:000703d0       __recalloc_dbg             300713d0 f   LIBCMTD:dbgheap.obj
 0001:00070a90       ___security_init_cookie    30071a90 f   LIBCMTD:gs_support.obj
 0001:00070b70       _DllMain@12                30071b70 f   LIBCMTD:dllmain.obj
 0001:00070b80       ___crtGetEnvironmentStringsA 30071b80 f   LIBCMTD:a_env.obj
 0001:00070c80       __RTC_Initialize           30071c80 f   LIBCMTD:initsect.obj
 0001:00070cb0       __RTC_Terminate            30071cb0 f   LIBCMTD:initsect.obj
 0001:00070d40       __except_handler4          30071d40 f   LIBCMTD:chandler4.obj
 0001:00070f00       __87except                 30071f00 f   LIBCMTD:87except.obj
 0001:00071100       __matherr                  30072100 f   LIBCMTD:matherr.obj
 0001:00071110       __CopyMan                  30072110 f i LIBCMTD:intrncvt.obj
 0001:00071160       __FillZeroMan              30072160 f i LIBCMTD:intrncvt.obj
 0001:00071190       __IncMan                   30072190 f i LIBCMTD:intrncvt.obj
 0001:00071240       __IsZeroMan                30072240 f i LIBCMTD:intrncvt.obj
 0001:00071280       __RoundMan                 30072280 f i LIBCMTD:intrncvt.obj
 0001:00071360       __ShrMan                   30072360 f i LIBCMTD:intrncvt.obj
 0001:00071450       __ZeroTail                 30072450 f i LIBCMTD:intrncvt.obj
 0001:000714e0       __ld12cvt                  300724e0 f i LIBCMTD:intrncvt.obj
 0001:000717a0       __ld12tod                  300727a0 f   LIBCMTD:intrncvt.obj
 0001:000717c0       __ld12tof                  300727c0 f   LIBCMTD:intrncvt.obj
 0001:000717e0       __ld12told                 300727e0 f   LIBCMTD:intrncvt.obj
 0001:000718e0       ___add_12                  300728e0 f i LIBCMTD:mantold.obj
 0001:00071990       ___mtold12                 30072990 f   LIBCMTD:mantold.obj
 0001:00071ae0       __lock                     30072ae0 f   LIBCMTD:mlock.obj
 0001:00071b20       __lockerr_exit             30072b20 f   LIBCMTD:mlock.obj
 0001:00071b50       __mtdeletelocks            30072b50 f   LIBCMTD:mlock.obj
 0001:00071c10       __mtinitlocknum            30072c10 f   LIBCMTD:mlock.obj
 0001:00071d30       __mtinitlocks              30072d30 f   LIBCMTD:mlock.obj
 0001:00071db0       __unlock                   30072db0 f   LIBCMTD:mlock.obj
 0001:00071dd0       ___free_lconv_mon          30072dd0 f   LIBCMTD:initmon.obj
 0001:00071f80       ___init_monetary           30072f80 f   LIBCMTD:initmon.obj
 0001:00072590       ___free_lconv_num          30073590 f   LIBCMTD:initnum.obj
 0001:00072640       ___init_numeric            30073640 f   LIBCMTD:initnum.obj
 0001:00072a10       ___free_lc_time            30073a10 f   LIBCMTD:inittime.obj
 0001:00073340       ___init_time               30074340 f   LIBCMTD:inittime.obj
 0001:00074340       _localeconv                30075340 f   LIBCMTD:lconv.obj
 0001:000744a0       ___crtGetStringTypeA       300754a0 f   LIBCMTD:a_str.obj
 0001:000745f0       ?_CallCatchBlock2@@YAPAXPAUEHRegistrationNode@@PBU_s_FuncInfo@@PAXHK@Z 300755f0 f   LIBCMTD:_trnsctrl_.obj
 0001:00074660       ?_CallMemberFunction0@@YGXPAX0@Z 30075660 f   LIBCMTD:_trnsctrl_.obj
 0001:00074670       ?_CallMemberFunction1@@YGXPAX00@Z 30075670 f   LIBCMTD:_trnsctrl_.obj
 0001:00074680       ?_CallMemberFunction2@@YGXPAX00H@Z 30075680 f   LIBCMTD:_trnsctrl_.obj
 0001:00074690       ?_CallSETranslator@@YAHPAUEHExceptionRecord@@PAUEHRegistrationNode@@PAX2PBU_s_FuncInfo@@H1@Z 30075690 f   LIBCMTD:_trnsctrl_.obj
 0001:00074780       ?_GetRangeOfTrysToCheck@@YAPBU_s_TryBlockMapEntry@@PBU_s_FuncInfo@@HHPAI1@Z 30075780 f   LIBCMTD:_trnsctrl_.obj
 0001:00074810       ?_JumpToContinuation@@YGXPAXPAUEHRegistrationNode@@@Z 30075810 f   LIBCMTD:_trnsctrl_.obj
 0001:00074850       ?_UnwindNestedFrames@@YGXPAUEHRegistrationNode@@PAUEHExceptionRecord@@@Z 30075850 f   LIBCMTD:_trnsctrl_.obj
 0001:000748b0       __CreateFrameInfo          300758b0 f   LIBCMTD:_trnsctrl_.obj
 0001:000748e0       __FindAndUnlinkFrame       300758e0 f   LIBCMTD:_trnsctrl_.obj
 0001:00074940       __IsExceptionObjectToBeDestroyed 30075940 f   LIBCMTD:_trnsctrl_.obj
 0001:00074970       ___CxxFrameHandler         30075970 f   LIBCMTD:_trnsctrl_.obj
 0001:000749b0       ___CxxFrameHandler2        300759b0 f   LIBCMTD:_trnsctrl_.obj
 0001:000749f0       ___CxxFrameHandler3        300759f0 f   LIBCMTD:_trnsctrl_.obj
 0001:00074a30       ___CxxLongjmpUnwind@4      30075a30 f   LIBCMTD:_trnsctrl_.obj
 0001:00074a60       ___swprintf_l              30075a60 f   LIBCMTD:swprintf.obj
 0001:00074a90       __scwprintf                30075a90 f   LIBCMTD:swprintf.obj
 0001:00074ab0       __scwprintf_l              30075ab0 f   LIBCMTD:swprintf.obj
 0001:00074ae0       __scwprintf_p              30075ae0 f   LIBCMTD:swprintf.obj
 0001:00074b00       __scwprintf_p_l            30075b00 f   LIBCMTD:swprintf.obj
 0001:00074b30       __snwprintf_s              30075b30 f   LIBCMTD:swprintf.obj
 0001:00074b60       __snwprintf_s_l            30075b60 f   LIBCMTD:swprintf.obj
 0001:00074b90       __swprintf                 30075b90 f   LIBCMTD:swprintf.obj
 0001:00074db0       __swprintf_p               30075db0 f   LIBCMTD:swprintf.obj
 0001:00074de0       __swprintf_p_l             30075de0 f   LIBCMTD:swprintf.obj
 0001:00074e10       __swprintf_s_l             30075e10 f   LIBCMTD:swprintf.obj
 0001:00074e40       _swprintf_s                30075e40 f   LIBCMTD:swprintf.obj
 0001:00074e70       __CrtDbgBreak              30075e70 f   LIBCMTD:dbgrptt.obj
 0001:00074e80       __CrtGetReportHook         30075e80 f   LIBCMTD:dbgrptt.obj
 0001:00074e90       __CrtSetReportFile         30075e90 f   LIBCMTD:dbgrptt.obj
 0001:00074f90       __CrtSetReportHook         30075f90 f   LIBCMTD:dbgrptt.obj
 0001:00074fb0       __CrtSetReportMode         30075fb0 f   LIBCMTD:dbgrptt.obj
 0001:000750f0       __VCrtDbgReportA           300760f0 f   LIBCMTD:dbgrptt.obj
 0001:00075960       __VCrtDbgReportW           30076960 f   LIBCMTD:dbgrptt.obj
 0001:000762d0       ___pctype_func             300772d0 f   LIBCMTD:ctype.obj
 0001:00076320       ___pwctype_func            30077320 f   LIBCMTD:ctype.obj
 0001:00076330       ___isascii                 30077330 f i LIBCMTD:_ctype.obj
 0001:00076360       ___iscsym                  30077360 f i LIBCMTD:_ctype.obj
 0001:000763a0       ___iscsymf                 300773a0 f i LIBCMTD:_ctype.obj
 0001:000763e0       ___toascii                 300773e0 f i LIBCMTD:_ctype.obj
 0001:000763f0       __isalnum_l                300773f0 f i LIBCMTD:_ctype.obj
 0001:00076470       __isalpha_l                30077470 f i LIBCMTD:_ctype.obj
 0001:000764f0       __iscntrl_l                300774f0 f i LIBCMTD:_ctype.obj
 0001:00076570       __iscsym_l                 30077570 f i LIBCMTD:_ctype.obj
 0001:000765b0       __iscsymf_l                300775b0 f i LIBCMTD:_ctype.obj
 0001:000765f0       __isdigit_l                300775f0 f i LIBCMTD:_ctype.obj
 0001:00076670       __isgraph_l                30077670 f i LIBCMTD:_ctype.obj
 0001:000766f0       __islower_l                300776f0 f i LIBCMTD:_ctype.obj
 0001:00076770       __isprint_l                30077770 f i LIBCMTD:_ctype.obj
 0001:000767f0       __ispunct_l                300777f0 f i LIBCMTD:_ctype.obj
 0001:00076870       __isspace_l                30077870 f i LIBCMTD:_ctype.obj
 0001:000768f0       __isupper_l                300778f0 f i LIBCMTD:_ctype.obj
 0001:00076970       __isxdigit_l               30077970 f i LIBCMTD:_ctype.obj
 0001:000769f0       _isalnum                   300779f0 f i LIBCMTD:_ctype.obj
 0001:00076a30       _isalpha                   30077a30 f i LIBCMTD:_ctype.obj
 0001:00076a70       _iscntrl                   30077a70 f i LIBCMTD:_ctype.obj
 0001:00076aa0       _isdigit                   30077aa0 f i LIBCMTD:_ctype.obj
 0001:00076ad0       _isgraph                   30077ad0 f i LIBCMTD:_ctype.obj
 0001:00076b10       _islower                   30077b10 f i LIBCMTD:_ctype.obj
 0001:00076b40       _isprint                   30077b40 f i LIBCMTD:_ctype.obj
 0001:00076b80       _ispunct                   30077b80 f i LIBCMTD:_ctype.obj
 0001:00076bb0       _isspace                   30077bb0 f i LIBCMTD:_ctype.obj
 0001:00076be0       _isupper                   30077be0 f i LIBCMTD:_ctype.obj
 0001:00076c10       _isxdigit                  30077c10 f i LIBCMTD:_ctype.obj
 0001:00076c50       _strcpy_s                  30077c50 f   LIBCMTD:strcpy_s.obj
 0001:00076f50       _strrchr                   30077f50 f   LIBCMTD:strrchr.obj
 0001:00077090       __fptostr                  30078090 f   LIBCMTD:_fptostr.obj
 0001:000773b0       __atodbl                   300783b0 f   LIBCMTD:atodbl.obj
 0001:000773d0       __atodbl_l                 300783d0 f   LIBCMTD:atodbl.obj
 0001:000774d0       __atoflt                   300784d0 f   LIBCMTD:atodbl.obj
 0001:000774f0       __atoflt_l                 300784f0 f   LIBCMTD:atodbl.obj
 0001:000775f0       __atoldbl                  300785f0 f   LIBCMTD:atodbl.obj
 0001:00077610       __atoldbl_l                30078610 f   LIBCMTD:atodbl.obj
 0001:00077710       ___dtold                   30078710 f   LIBCMTD:cfout.obj
 0001:00077870       __fltout2                  30078870 f   LIBCMTD:cfout.obj
 0001:00077920       __alldiv                   30078920 f   LIBCMTD:lldiv.obj
 0001:000779d0       __allrem                   300789d0 f   LIBCMTD:llrem.obj
 0001:00077a90       __allshl                   30078a90 f   LIBCMTD:llshl.obj
 0001:00077ab0       __aullshr                  30078ab0 f   LIBCMTD:ullshr.obj
 0001:00077ad0       __get_output_format        30078ad0 f   LIBCMTD:outputformat.obj
 0001:00077ae0       __set_output_format        30078ae0 f   LIBCMTD:outputformat.obj
 0001:00077b80       __controlfp_s              30078b80 f   LIBCMTD:contrlfp.obj
 0001:00077c70       __fptrap                   30078c70 f   LIBCMTD:crt0fp.obj
 0001:00077c80       __allmul                   30078c80 f   LIBCMTD:llmul.obj
 0001:00077cc0       __aulldiv                  30078cc0 f   LIBCMTD:ulldiv.obj
 0001:00077d30       __aullrem                  30078d30 f   LIBCMTD:ullrem.obj
 0001:00077db0       __fileno                   30078db0 f   LIBCMTD:fileno.obj
 0001:00077e40       __isatty                   30078e40 f   LIBCMTD:isatty.obj
 0001:00077f00       __write                    30078f00 f   LIBCMTD:write.obj
 0001:00078150       __write_nolock             30079150 f   LIBCMTD:write.obj
 0001:00078ee0       __lseeki64                 30079ee0 f   LIBCMTD:lseeki64.obj
 0001:00079150       __lseeki64_nolock          3007a150 f   LIBCMTD:lseeki64.obj
 0001:00079220       __getbuf                   3007a220 f   LIBCMTD:_getbuf.obj
 0001:000792f0       __get_printf_count_output  3007a2f0 f   LIBCMTD:printf.obj
 0001:00079320       __printf_l                 3007a320 f   LIBCMTD:printf.obj
 0001:00079350       __printf_p                 3007a350 f   LIBCMTD:printf.obj
 0001:00079370       __printf_p_l               3007a370 f   LIBCMTD:printf.obj
 0001:000793a0       __printf_s_l               3007a3a0 f   LIBCMTD:printf.obj
 0001:000793d0       __set_printf_count_output  3007a3d0 f   LIBCMTD:printf.obj
 0001:00079430       _printf                    3007a430 f   LIBCMTD:printf.obj
 0001:000795a0       _printf_s                  3007a5a0 f   LIBCMTD:printf.obj
 0001:000795c0       __wctomb_l                 3007a5c0 f   LIBCMTD:wctomb.obj
 0001:00079640       __wctomb_s_l               3007a640 f   LIBCMTD:wctomb.obj
 0001:00079990       _wctomb                    3007a990 f   LIBCMTD:wctomb.obj
 0001:000799e0       _wctomb_s                  3007a9e0 f   LIBCMTD:wctomb.obj
 0001:00079a00       __output_s_l               3007aa00 f   LIBCMTD:outputs.obj
 0001:0007b3a0       __frnd                     3007c3a0 f   LIBCMTD:frnd.obj
 0001:0007b3c0       __FindPESection            3007c3c0 f   LIBCMTD:pesect.obj
 0001:0007b440       __IsNonwritableInCurrentImage 3007c440 f   LIBCMTD:pesect.obj
 0001:0007b570       __ValidateImageBase        3007c570 f   LIBCMTD:pesect.obj
 0001:0007b5d0       ___onexitinit              3007c5d0 f   LIBCMTD:onexit.obj
 0001:0007b630       __onexit                   3007c630 f   LIBCMTD:onexit.obj
 0001:0007b7f0       _atexit                    3007c7f0 f   LIBCMTD:onexit.obj
 0001:0007b820       ?_inconsistency@@YAXXZ     3007c820 f   LIBCMTD:hooks.obj
 0001:0007b8b0       ?terminate@@YAXXZ          3007c8b0 f   LIBCMTD:hooks.obj
 0001:0007b930       ?unexpected@@YAXXZ         3007c930 f   LIBCMTD:hooks.obj
 0001:0007b960       __initp_eh_hooks           3007c960 f   LIBCMTD:hooks.obj
 0001:0007b980       ?_query_new_handler@@YAP6AHI@ZXZ 3007c980 f   LIBCMTD:handler.obj
 0001:0007b9a0       ?_set_new_handler@@YAP6AHI@ZH@Z 3007c9a0 f   LIBCMTD:handler.obj
 0001:0007b9e0       ?_set_new_handler@@YAP6AHI@ZP6AHI@Z@Z 3007c9e0 f   LIBCMTD:handler.obj
 0001:0007ba20       __callnewh                 3007ca20 f   LIBCMTD:handler.obj
 0001:0007ba60       __initp_heap_handler       3007ca60 f   LIBCMTD:handler.obj
 0001:0007ba70       ___getlocaleinfo           3007ca70 f   LIBCMTD:inithelp.obj
 0001:0007bd70       __initp_misc_purevirt      3007cd70 f   LIBCMTD:inithelp.obj
 0001:0007bd80       __initp_misc_rand_s        3007cd80 f   LIBCMTD:rand_s.obj
 0001:0007bd90       _rand_s                    3007cd90 f   LIBCMTD:rand_s.obj
 0001:0007c000       __ftbuf                    3007d000 f   LIBCMTD:_sftbuf.obj
 0001:0007c090       __stbuf                    3007d090 f   LIBCMTD:_sftbuf.obj
 0001:0007c200       __fcloseall                3007d200 f   LIBCMTD:closeall.obj
 0001:0007c330       __commit                   3007d330 f   LIBCMTD:commit.obj
 0001:0007c570       __freebuf                  3007d570 f   LIBCMTD:_freebuf.obj
 0001:0007c600       __vfwprintf_l              3007d600 f   LIBCMTD:vfwprint.obj
 0001:0007c630       __vfwprintf_p              3007d630 f   LIBCMTD:vfwprint.obj
 0001:0007c650       __vfwprintf_p_l            3007d650 f   LIBCMTD:vfwprint.obj
 0001:0007c680       __vfwprintf_s_l            3007d680 f   LIBCMTD:vfwprint.obj
 0001:0007c6b0       _vfwprintf                 3007d6b0 f   LIBCMTD:vfwprint.obj
 0001:0007c6d0       _vfwprintf_helper          3007d6d0 f   LIBCMTD:vfwprint.obj
 0001:0007c870       _vfwprintf_s               3007d870 f   LIBCMTD:vfwprint.obj
 0001:0007c890       __woutput_l                3007d890 f   LIBCMTD:woutput.obj
 0001:0007de70       __woutput_s_l              3007ee70 f   LIBCMTD:woutputs.obj
 0001:0007f5b0       __validate_param_reuseW    300805b0 f   LIBCMTD:woutputp.obj
 0001:0007f890       __woutput_p_l              30080890 f   LIBCMTD:woutputp.obj
 0001:00083380       _wcsncpy_s                 30084380 f   LIBCMTD:wcsncpy_s.obj
 0001:000837b0       __iswctype_l               300847b0 f   LIBCMTD:iswctype.obj
 0001:000837d0       _is_wctype                 300847d0 f   LIBCMTD:iswctype.obj
 0001:000837f0       _iswctype                  300847f0 f   LIBCMTD:iswctype.obj
 0001:00083850       _free                      30084850 f   LIBCMTD:dbgfree.obj
 0001:00083870       _malloc                    30084870 f   LIBCMTD:dbgmalloc.obj
 0001:000838a0       _GetTableIndexFromLcid     300848a0 f   LIBCMTD:winapinls.obj
 0001:00083910       _GetTableIndexFromLocaleName 30084910 f   LIBCMTD:winapinls.obj
 0001:000839a0       ___crtCompareStringEx      300849a0 f   LIBCMTD:winapinls.obj
 0001:00083a10       ___crtDownlevelLCIDToLocaleName 30084a10 f   LIBCMTD:winapinls.obj
 0001:00083ae0       ___crtDownlevelLocaleNameToLCID 30084ae0 f   LIBCMTD:winapinls.obj
 0001:00083b40       ___crtEnumSystemLocalesEx  30084b40 f   LIBCMTD:winapinls.obj
 0001:00083bb0       ___crtGetDateFormatEx      30084bb0 f   LIBCMTD:winapinls.obj
 0001:00083c20       ___crtGetLocaleInfoEx      30084c20 f   LIBCMTD:winapinls.obj
 0001:00083c80       ___crtGetTimeFormatEx      30084c80 f   LIBCMTD:winapinls.obj
 0001:00083cf0       ___crtGetUserDefaultLocaleName 30084cf0 f   LIBCMTD:winapinls.obj
 0001:00083d40       ___crtIsValidLocaleName    30084d40 f   LIBCMTD:winapinls.obj
 0001:00083d80       ___crtLCMapStringEx        30084d80 f   LIBCMTD:winapinls.obj
 0001:00083df0       ___wcsnicmp_ascii          30084df0 f   LIBCMTD:winapinls.obj
 0001:00083ec0       ___init_collate            30084ec0 f   LIBCMTD:initcoll.obj
 0001:00083ed0       ____lc_codepage_func       30084ed0 f   LIBCMTD:initctyp.obj
 0001:00083f20       ____lc_collate_cp_func     30084f20 f   LIBCMTD:initctyp.obj
 0001:00083f70       ____lc_locale_name_func    30084f70 f   LIBCMTD:initctyp.obj
 0001:00083fc0       ____mb_cur_max_func        30084fc0 f   LIBCMTD:initctyp.obj
 0001:00084010       ____mb_cur_max_l_func      30085010 f   LIBCMTD:initctyp.obj
 0001:00084040       ___init_ctype              30085040 f   LIBCMTD:initctyp.obj
 0001:00084830       _memcmp                    30085830 f   LIBCMTD:memcmp.obj
 0001:00085100       _wcscmp                    30086100 f   LIBCMTD:wcscmp.obj
 0001:00085160       _wcscspn                   30086160 f   LIBCMTD:wcscspn.obj
 0001:000851d0       _wcsnlen                   300861d0 f   LIBCMTD:wcslen_s.obj
 0001:00085210       _wcsncmp                   30086210 f   LIBCMTD:wcsncmp.obj
 0001:00085270       _wcspbrk                   30086270 f   LIBCMTD:wcspbrk.obj
 0001:00085e10       ___get_qualified_locale    30086e10 f   LIBCMTD:getqloc.obj
 0001:00086df0       ___get_qualified_locale_downlevel 30087df0 f   LIBCMTD:getqloc_downlevel.obj
 0001:000870c0       __local_unwind4            300880c0 f   LIBCMTD:exsup4.obj
 0001:00087196       __seh_longjmp_unwind4@4    30088196 f   LIBCMTD:exsup4.obj
 0001:000871b2       @_EH4_CallFilterFunc@8     300881b2 f   LIBCMTD:exsup4.obj
 0001:000871c9       @_EH4_TransferToHandler@8  300881c9 f   LIBCMTD:exsup4.obj
 0001:000871e2       @_EH4_GlobalUnwind2@8      300881e2 f   LIBCMTD:exsup4.obj
 0001:000871fb       @_EH4_LocalUnwind@16       300881fb f   LIBCMTD:exsup4.obj
 0001:000872e0       __ismbbalnum               300882e0 f   LIBCMTD:ismbbyte.obj
 0001:00087300       __ismbbalnum_l             30088300 f   LIBCMTD:ismbbyte.obj
 0001:00087320       __ismbbalpha               30088320 f   LIBCMTD:ismbbyte.obj
 0001:00087340       __ismbbalpha_l             30088340 f   LIBCMTD:ismbbyte.obj
 0001:00087360       __ismbbgraph               30088360 f   LIBCMTD:ismbbyte.obj
 0001:00087380       __ismbbgraph_l             30088380 f   LIBCMTD:ismbbyte.obj
 0001:000873a0       __ismbbkalnum              300883a0 f   LIBCMTD:ismbbyte.obj
 0001:000873c0       __ismbbkalnum_l            300883c0 f   LIBCMTD:ismbbyte.obj
 0001:000873e0       __ismbbkana                300883e0 f   LIBCMTD:ismbbyte.obj
 0001:00087400       __ismbbkana_l              30088400 f   LIBCMTD:ismbbyte.obj
 0001:00087470       __ismbbkprint              30088470 f   LIBCMTD:ismbbyte.obj
 0001:00087490       __ismbbkprint_l            30088490 f   LIBCMTD:ismbbyte.obj
 0001:000874b0       __ismbbkpunct              300884b0 f   LIBCMTD:ismbbyte.obj
 0001:000874d0       __ismbbkpunct_l            300884d0 f   LIBCMTD:ismbbyte.obj
 0001:000874f0       __ismbblead                300884f0 f   LIBCMTD:ismbbyte.obj
 0001:00087510       __ismbblead_l              30088510 f   LIBCMTD:ismbbyte.obj
 0001:00087530       __ismbbprint               30088530 f   LIBCMTD:ismbbyte.obj
 0001:00087550       __ismbbprint_l             30088550 f   LIBCMTD:ismbbyte.obj
 0001:00087570       __ismbbpunct               30088570 f   LIBCMTD:ismbbyte.obj
 0001:00087590       __ismbbpunct_l             30088590 f   LIBCMTD:ismbbyte.obj
 0001:000875b0       __ismbbtrail               300885b0 f   LIBCMTD:ismbbyte.obj
 0001:000875d0       __ismbbtrail_l             300885d0 f   LIBCMTD:ismbbyte.obj
 0001:000875f0       __free_base                300885f0 f   LIBCMTD:free.obj
 0001:00087640       __realloc_base             30088640 f   LIBCMTD:realloc.obj
 0001:00087740       __expand_base              30088740 f   LIBCMTD:expand.obj
 0001:000878b0       __CrtDbgReport             300888b0 f   LIBCMTD:dbgrpt.obj
 0001:00087900       __CrtDbgReportV            30088900 f i LIBCMTD:dbgrpt.obj
 0001:00087930       __CrtSetReportHook2        30088930 f   LIBCMTD:dbgrpt.obj
 0001:00087c80       ___crtMessageWindowA       30088c80 f   LIBCMTD:dbgrpt.obj
 0001:00088120       __heapchk                  30089120 f   LIBCMTD:heapchk.obj
 0001:00088150       __heapset                  30089150 f   LIBCMTD:heapchk.obj
 0001:00088160       __scprintf                 30089160 f   LIBCMTD:sprintf.obj
 0001:00088180       __scprintf_l               30089180 f   LIBCMTD:sprintf.obj
 0001:000881b0       __scprintf_p               300891b0 f   LIBCMTD:sprintf.obj
 0001:000881d0       __scprintf_p_l             300891d0 f   LIBCMTD:sprintf.obj
 0001:00088200       __snprintf_s               30089200 f   LIBCMTD:sprintf.obj
 0001:00088230       __snprintf_s_l             30089230 f   LIBCMTD:sprintf.obj
 0001:00088260       __sprintf_l                30089260 f   LIBCMTD:sprintf.obj
 0001:00088290       __sprintf_p                30089290 f   LIBCMTD:sprintf.obj
 0001:000882c0       __sprintf_p_l              300892c0 f   LIBCMTD:sprintf.obj
 0001:000882f0       __sprintf_s_l              300892f0 f   LIBCMTD:sprintf.obj
 0001:00088320       _sprintf                   30089320 f   LIBCMTD:sprintf.obj
 0001:000884e0       _sprintf_s                 300894e0 f   LIBCMTD:sprintf.obj
 0001:00088510       __heap_alloc_base          30089510 f i LIBCMTD:malloc.obj
 0001:00088570       __malloc_base              30089570 f   LIBCMTD:malloc.obj
 0001:00088600       __CallSettingFrame@12      30089600 f   LIBCMTD:lowhelpr.obj
 0001:00088627       __NLG_Return               30089627     LIBCMTD:lowhelpr.obj
 0001:00088650       ___DestructExceptionObject 30089650 f   LIBCMTD:frame.obj
 0001:00088770       ??0bad_exception@std@@QAE@ABV01@@Z 30089770 f i LIBCMTD:frame.obj
 0001:000887a0       ??0bad_exception@std@@QAE@PBD@Z 300897a0 f i LIBCMTD:frame.obj
 0001:000887d0       ??1bad_exception@std@@UAE@XZ 300897d0 f i LIBCMTD:frame.obj
 0001:000887f0       ??_Gbad_exception@std@@UAEPAXI@Z 300897f0 f i LIBCMTD:frame.obj
 0001:000887f0       ??_Ebad_exception@std@@UAEPAXI@Z 300897f0 f i LIBCMTD:frame.obj
 0001:000893f0       ?__uncaught_exception@@YA_NXZ 3008a3f0 f   LIBCMTD:frame.obj
 0001:00089420       ?_is_exception_typeof@@YAHABVtype_info@@PAU_EXCEPTION_POINTERS@@@Z 3008a420 f   LIBCMTD:frame.obj
 0001:00089500       ___AdjustPointer           3008a500 f   LIBCMTD:frame.obj
 0001:00089550       ___BuildCatchObject        3008a550 f   LIBCMTD:frame.obj
 0001:00089660       ___BuildCatchObjectHelper  3008a660 f   LIBCMTD:frame.obj
 0001:000898e0       ___CxxDetectRethrow        3008a8e0 f   LIBCMTD:frame.obj
 0001:00089960       ___CxxExceptionFilter      3008a960 f   LIBCMTD:frame.obj
 0001:00089b60       ___CxxQueryExceptionSize   3008ab60 f   LIBCMTD:frame.obj
 0001:00089b70       ___CxxRegisterExceptionObject 3008ab70 f   LIBCMTD:frame.obj
 0001:00089cb0       ___CxxUnregisterExceptionObject 3008acb0 f   LIBCMTD:frame.obj
 0001:00089e30       ___FrameUnwindFilter       3008ae30 f   LIBCMTD:frame.obj
 0001:00089eb0       ___FrameUnwindToState      3008aeb0 f   LIBCMTD:frame.obj
 0001:0008a030       ___InternalCxxFrameHandler 3008b030 f   LIBCMTD:frame.obj
 0001:0008a1a0       ___TypeMatch               3008b1a0 f   LIBCMTD:frame.obj
 0001:0008a260       ___vswprintf_l             3008b260 f   LIBCMTD:vswprint.obj
 0001:0008a280       __vscwprintf               3008b280 f   LIBCMTD:vswprint.obj
 0001:0008a2a0       __vscwprintf_helper        3008b2a0 f   LIBCMTD:vswprint.obj
 0001:0008a390       __vscwprintf_l             3008b390 f   LIBCMTD:vswprint.obj
 0001:0008a3b0       __vscwprintf_p             3008b3b0 f   LIBCMTD:vswprint.obj
 0001:0008a3d0       __vscwprintf_p_l           3008b3d0 f   LIBCMTD:vswprint.obj
 0001:0008a3f0       __vswprintf                3008b3f0 f   LIBCMTD:vswprint.obj
 0001:0008a410       __vswprintf_l              3008b410 f   LIBCMTD:vswprint.obj
 0001:0008a630       _strcat_s                  3008b630 f   LIBCMTD:strcat_s.obj
 0001:0008ae60       __i64toa_s                 3008be60 f   LIBCMTD:xtoas.obj
 0001:0008aeb0       __itoa_s                   3008beb0 f   LIBCMTD:xtoas.obj
 0001:0008af10       __ltoa_s                   3008bf10 f   LIBCMTD:xtoas.obj
 0001:0008af50       __ui64toa_s                3008bf50 f   LIBCMTD:xtoas.obj
 0001:0008af70       __ultoa_s                  3008bf70 f   LIBCMTD:xtoas.obj
 0001:0008b370       __mbstowcs_l               3008c370 f   LIBCMTD:mbstowcs.obj
 0001:0008b390       __mbstowcs_l_helper        3008c390 f   LIBCMTD:mbstowcs.obj
 0001:0008b720       __mbstowcs_s_l             3008c720 f   LIBCMTD:mbstowcs.obj
 0001:0008bae0       _mbstowcs                  3008cae0 f   LIBCMTD:mbstowcs.obj
 0001:0008bb30       _mbstowcs_s                3008cb30 f   LIBCMTD:mbstowcs.obj
 0001:0008bbc0       __wcstombs_l               3008cbc0 f   LIBCMTD:wcstombs.obj
 0001:0008bbe0       __wcstombs_l_helper        3008cbe0 f   LIBCMTD:wcstombs.obj
 0001:0008c0f0       __wcstombs_s_l             3008d0f0 f   LIBCMTD:wcstombs.obj
 0001:0008c450       _wcstombs                  3008d450 f   LIBCMTD:wcstombs.obj
 0001:0008c470       _wcstombs_s                3008d470 f   LIBCMTD:wcstombs.obj
 0001:0008c4a0       __vsnprintf_c              3008d4a0 f   LIBCMTD:vsnprnc.obj
 0001:0008c4f0       __vsnprintf_c_l            3008d4f0 f   LIBCMTD:vsnprnc.obj
 0001:0008c540       __vsnprintf_helper         3008d540 f   LIBCMTD:vsnprnc.obj
 0001:0008c740       __vsnprintf_s              3008d740 f   LIBCMTD:vsnprnc.obj
 0001:0008c770       __vsnprintf_s_l            3008d770 f   LIBCMTD:vsnprnc.obj
 0001:0008cb30       __vsprintf_p               3008db30 f   LIBCMTD:vsnprnc.obj
 0001:0008cb80       __vsprintf_p_l             3008db80 f   LIBCMTD:vsnprnc.obj
 0001:0008cbd0       __vsprintf_s_l             3008dbd0 f   LIBCMTD:vsnprnc.obj
 0001:0008ce60       _vsprintf_s                3008de60 f   LIBCMTD:vsnprnc.obj
 0001:0008ce80       _$I10_OUTPUT               3008de80 f   LIBCMTD:x10fout.obj
 0001:0008d690       ___control87_2             3008e690 f   LIBCMTD:ieee87.obj
 0001:0008db30       __clearfp                  3008eb30 f   LIBCMTD:ieee87.obj
 0001:0008db70       __control87                3008eb70 f i LIBCMTD:ieee87.obj
 0001:0008dc20       __controlfp                3008ec20 f   LIBCMTD:ieee87.obj
 0001:0008dc40       __fpreset                  3008ec40 f   LIBCMTD:ieee87.obj
 0001:0008de00       __set_controlfp            3008ee00 f   LIBCMTD:ieee87.obj
 0001:0008de90       __statusfp                 3008ee90 f   LIBCMTD:ieee87.obj
 0001:0008ded0       __statusfp2                3008eed0 f   LIBCMTD:ieee87.obj
 0001:0008df10       ___lock_fhandle            3008ef10 f   LIBCMTD:osfinfo.obj
 0001:0008e000       __alloc_osfhnd             3008f000 f   LIBCMTD:osfinfo.obj
 0001:0008e2a0       __free_osfhnd              3008f2a0 f   LIBCMTD:osfinfo.obj
 0001:0008e390       __get_osfhandle            3008f390 f   LIBCMTD:osfinfo.obj
 0001:0008e510       __open_osfhandle           3008f510 f   LIBCMTD:osfinfo.obj
 0001:0008e740       __set_osfhnd               3008f740 f   LIBCMTD:osfinfo.obj
 0001:0008e810       __unlock_fhandle           3008f810 f   LIBCMTD:osfinfo.obj
 0001:0008e840       __mbtowc_l                 3008f840 f   LIBCMTD:mbtowc.obj
 0001:0008ea80       _mbtowc                    3008fa80 f   LIBCMTD:mbtowc.obj
 0001:0008eaa0       __putwch                   3008faa0 f   LIBCMTD:putwch.obj
 0001:0008eb30       __putwch_nolock            3008fb30 f   LIBCMTD:putwch.obj
 0001:0008eb80       __vprintf_l                3008fb80 f   LIBCMTD:vprintf.obj
 0001:0008eba0       __vprintf_p                3008fba0 f   LIBCMTD:vprintf.obj
 0001:0008ebc0       __vprintf_p_l              3008fbc0 f   LIBCMTD:vprintf.obj
 0001:0008ebe0       __vprintf_s_l              3008fbe0 f   LIBCMTD:vprintf.obj
 0001:0008ec00       _vprintf                   3008fc00 f   LIBCMTD:vprintf.obj
 0001:0008ec20       _vprintf_helper            3008fc20 f   LIBCMTD:vprintf.obj
 0001:0008ed60       _vprintf_s                 3008fd60 f   LIBCMTD:vprintf.obj
 0001:0008ed80       _strncpy_s                 3008fd80 f   LIBCMTD:strncpy_s.obj
 0001:0008f2b0       ___crtGetLocaleInfoA       300902b0 f   LIBCMTD:a_loc.obj
 0001:0008f300       __fclose_nolock            30090300 f   LIBCMTD:fclose.obj
 0001:0008f410       _fclose                    30090410 f   LIBCMTD:fclose.obj
 0001:0008f530       __fputwc_nolock            30090530 f   LIBCMTD:fputwc.obj
 0001:0008f820       _fputwc                    30090820 f   LIBCMTD:fputwc.obj
 0001:0008f930       _putwc                     30090930 f   LIBCMTD:fputwc.obj
 0001:0008fd10       __wcstol_l                 30090d10 f   LIBCMTD:wcstol.obj
 0001:0008fd30       __wcstoul_l                30090d30 f   LIBCMTD:wcstol.obj
 0001:0008fd50       _wcstol                    30090d50 f   LIBCMTD:wcstol.obj
 0001:0008fd70       _wcstoul                   30090d70 f   LIBCMTD:wcstol.obj
 0001:0008fd90       __wtoi                     30090d90 f   LIBCMTD:wtox.obj
 0001:0008fdb0       __wtoi64                   30090db0 f   LIBCMTD:wtox.obj
 0001:0008fdd0       __wtoi64_l                 30090dd0 f   LIBCMTD:wtox.obj
 0001:0008fdf0       __wtoi_l                   30090df0 f   LIBCMTD:wtox.obj
 0001:0008fe10       __wtol                     30090e10 f   LIBCMTD:wtox.obj
 0001:0008fe30       __wtol_l                   30090e30 f   LIBCMTD:wtox.obj
 0001:0008fe50       _wcschr                    30090e50 f   LIBCMTD:wcschr.obj
 0001:0008ffd0       __wcsicmp                  30090fd0 f   LIBCMTD:wcsicmp.obj
 0001:000901a0       __wcsicmp_l                300911a0 f   LIBCMTD:wcsicmp.obj
 0001:00090410       __wcsnicmp                 30091410 f   LIBCMTD:wcsnicmp.obj
 0001:00090600       __wcsnicmp_l               30091600 f   LIBCMTD:wcsnicmp.obj
 0001:00090860       __global_unwind2           30091860 f   LIBCMTD:exsup.obj
 0001:000908c5       __local_unwind2            300918c5 f   LIBCMTD:exsup.obj
 0001:00090949       __abnormal_termination     30091949 f   LIBCMTD:exsup.obj
 0001:0009096c       __NLG_Notify1              3009196c f   LIBCMTD:exsup.obj
 0001:00090975       __NLG_Notify               30091975 f   LIBCMTD:exsup.obj
 0001:0009098c       __NLG_Dispatch2            3009198c     LIBCMTD:exsup.obj
 0001:0009098c       __NLG_Dispatch             3009198c     LIBCMTD:exsup.obj
 0001:00090994       __NLG_Call                 30091994 f   LIBCMTD:exsup.obj
 0001:00090996       __NLG_Return2              30091996     LIBCMTD:exsup.obj
 0001:000909a0       ??3@YAXPAX@Z               300919a0 f   LIBCMTD:dbgdel.obj
 0001:00090a90       ?_ValidateExecute@@YAHP6GHXZ@Z 30091a90 f   LIBCMTD:validate.obj
 0001:00090ab0       ?_ValidateRead@@YAHPBXI@Z  30091ab0 f   LIBCMTD:validate.obj
 0001:00090ad0       ?_ValidateWrite@@YAHPAXI@Z 30091ad0 f   LIBCMTD:validate.obj
 0001:00090af0       ??0type_info@@AAE@ABV0@@Z  30091af0 f   LIBCMTD:typinfo.obj
 0001:00090b10       ??1type_info@@UAE@XZ       30091b10 f   LIBCMTD:typinfo.obj
 0001:00090b30       ??4type_info@@AAEAAV0@ABV0@@Z 30091b30 f   LIBCMTD:typinfo.obj
 0001:00090b40       ??8type_info@@QBE_NABV0@@Z 30091b40 f   LIBCMTD:typinfo.obj
 0001:00090b80       ??9type_info@@QBE_NABV0@@Z 30091b80 f   LIBCMTD:typinfo.obj
 0001:00090bc0       ??_Etype_info@@UAEPAXI@Z   30091bc0 f i LIBCMTD:typinfo.obj
 0001:00090bc0       ??_Gtype_info@@UAEPAXI@Z   30091bc0 f i LIBCMTD:typinfo.obj
 0001:00090bf0       ?_name_internal_method@type_info@@QBEPBDPAU__type_info_node@@@Z 30091bf0 f   LIBCMTD:typinfo.obj
 0001:00090c10       ?_type_info_dtor_internal_method@type_info@@QAEXXZ 30091c10 f   LIBCMTD:typinfo.obj
 0001:00090c30       ?before@type_info@@QBE_NABV1@@Z 30091c30 f   LIBCMTD:typinfo.obj
 0001:00090c70       ?name@type_info@@QBEPBDPAU__type_info_node@@@Z 30091c70 f   LIBCMTD:typinfo.obj
 0001:00090c90       ?raw_name@type_info@@QBEPBDXZ 30091c90 f   LIBCMTD:typinfo.obj
 0001:00090cb0       ??0__non_rtti_object@std@@QAE@ABV01@@Z 30091cb0 f   LIBCMTD:stdexcpt.obj
 0001:00090ce0       ??0__non_rtti_object@std@@QAE@PBD@Z 30091ce0 f   LIBCMTD:stdexcpt.obj
 0001:00090d10       ??0bad_cast@std@@QAE@ABV01@@Z 30091d10 f   LIBCMTD:stdexcpt.obj
 0001:00090d40       ??0bad_cast@std@@QAE@PBD@Z 30091d40 f   LIBCMTD:stdexcpt.obj
 0001:00090d70       ??0bad_typeid@std@@QAE@ABV01@@Z 30091d70 f   LIBCMTD:stdexcpt.obj
 0001:00090da0       ??0bad_typeid@std@@QAE@PBD@Z 30091da0 f   LIBCMTD:stdexcpt.obj
 0001:00090dd0       ??0exception@std@@QAE@ABQBD@Z 30091dd0 f   LIBCMTD:stdexcpt.obj
 0001:00090e10       ??0exception@std@@QAE@ABQBDH@Z 30091e10 f   LIBCMTD:stdexcpt.obj
 0001:00090e40       ??0exception@std@@QAE@ABV01@@Z 30091e40 f   LIBCMTD:stdexcpt.obj
 0001:00090e80       ??0exception@std@@QAE@XZ   30091e80 f   LIBCMTD:stdexcpt.obj
 0001:00090eb0       ??1__non_rtti_object@std@@UAE@XZ 30091eb0 f   LIBCMTD:stdexcpt.obj
 0001:00090ed0       ??1bad_cast@std@@UAE@XZ    30091ed0 f   LIBCMTD:stdexcpt.obj
 0001:00090ef0       ??1bad_typeid@std@@UAE@XZ  30091ef0 f   LIBCMTD:stdexcpt.obj
 0001:00090f10       ??1exception@std@@UAE@XZ   30091f10 f   LIBCMTD:stdexcpt.obj
 0001:00090f30       ??4exception@std@@QAEAAV01@ABV01@@Z 30091f30 f   LIBCMTD:stdexcpt.obj
 0001:00090f80       ??_E__non_rtti_object@std@@UAEPAXI@Z 30091f80 f i LIBCMTD:stdexcpt.obj
 0001:00090f80       ??_G__non_rtti_object@std@@UAEPAXI@Z 30091f80 f i LIBCMTD:stdexcpt.obj
 0001:00090fb0       ??_Ebad_cast@std@@UAEPAXI@Z 30091fb0 f i LIBCMTD:stdexcpt.obj
 0001:00090fb0       ??_Gbad_cast@std@@UAEPAXI@Z 30091fb0 f i LIBCMTD:stdexcpt.obj
 0001:00090fe0       ??_Gbad_typeid@std@@UAEPAXI@Z 30091fe0 f i LIBCMTD:stdexcpt.obj
 0001:00090fe0       ??_Ebad_typeid@std@@UAEPAXI@Z 30091fe0 f i LIBCMTD:stdexcpt.obj
 0001:00091010       ??_Eexception@std@@UAEPAXI@Z 30092010 f i LIBCMTD:stdexcpt.obj
 0001:00091010       ??_Gexception@std@@UAEPAXI@Z 30092010 f i LIBCMTD:stdexcpt.obj
 0001:00091040       ?_Copy_str@exception@std@@AAEXPBD@Z 30092040 f   LIBCMTD:stdexcpt.obj
 0001:000910a0       ?_Tidy@exception@std@@AAEXXZ 300920a0 f   LIBCMTD:stdexcpt.obj
 0001:000910e0       ?what@exception@std@@UBEPBDXZ 300920e0 f   LIBCMTD:stdexcpt.obj
 0001:00091110       __CxxThrowException@8      30092110 f   LIBCMTD:throw.obj
 0001:000911a0       ___termconout              300921a0 f   LIBCMTD:initcon.obj
 0001:000911d0       ___initconout              300921d0 f   LIBCMTD:initcon.obj
 0001:00091200       __close                    30092200 f   LIBCMTD:close.obj
 0001:00091430       __close_nolock             30092430 f   LIBCMTD:close.obj
 0001:00091510       __flswbuf                  30092510 f   LIBCMTD:_flswbuf.obj
 0001:00091800       __wchartodigit             30092800 f   LIBCMTD:wchtodig.obj
 0001:00092070       __wcstoi64                 30093070 f   LIBCMTD:wcstoq.obj
 0001:000920c0       __wcstoi64_l               300930c0 f   LIBCMTD:wcstoq.obj
 0001:000920e0       __wcstoui64                300930e0 f   LIBCMTD:wcstoq.obj
 0001:00092130       __wcstoui64_l              30093130 f   LIBCMTD:wcstoq.obj
 0001:00092150       __towlower_l               30093150 f   LIBCMTD:towlower.obj
 0001:000922a0       _towlower                  300932a0 f   LIBCMTD:towlower.obj
 0001:000922c0       ?_Name_base@type_info@@CAPBDPBV1@PAU__type_info_node@@@Z 300932c0 f   LIBCMTD:typname.obj
 0001:00092470       ?_Name_base_internal@type_info@@CAPBDPBV1@PAU__type_info_node@@@Z 30093470 f   LIBCMTD:typname.obj
 0001:00092630       ?_Type_info_dtor@type_info@@CAXPAV1@@Z 30093630 f   LIBCMTD:typname.obj
 0001:00092740       ?_Type_info_dtor_internal@type_info@@CAXPAV1@@Z 30093740 f   LIBCMTD:typname.obj
 0001:00092850       ___clean_type_info_names_internal 30093850 f   LIBCMTD:typname.obj
 0001:00092900       ___unDNameHelper           30093900 f   LIBCMTD:typname.obj
 0001:00092940       ___crtLCMapStringW         30093940 f   LIBCMTD:w_map.obj
 0001:00092980       ??0Block@_HeapManager@@QAE@XZ 30093980 f i LIBCMTD:undname.obj
 0001:000929a0       ??0DName@@QAE@AAPBDD@Z     300939a0 f   LIBCMTD:undname.obj
 0001:00092c60       ??0DName@@QAE@ABV0@@Z      30093c60 f i LIBCMTD:undname.obj
 0001:00092c80       ??0DName@@QAE@D@Z          30093c80 f   LIBCMTD:undname.obj
 0001:00092d60       ??0DName@@QAE@PAV0@@Z      30093d60 f   LIBCMTD:undname.obj
 0001:00092ea0       ??0DName@@QAE@PBD@Z        30093ea0 f   LIBCMTD:undname.obj
 0001:00092f90       ??0DName@@QAE@W4DNameStatus@@@Z 30093f90 f   LIBCMTD:undname.obj
 0001:000930b0       ??0DName@@QAE@XZ           300940b0 f i LIBCMTD:undname.obj
 0001:00093170       ??0DName@@QAE@_J@Z         30094170 f   LIBCMTD:undname.obj
 0001:000932f0       ??0DName@@QAE@_K@Z         300942f0 f   LIBCMTD:undname.obj
 0001:00093430       ??0DNameNode@@IAE@XZ       30094430 f   LIBCMTD:undname.obj
 0001:00093450       ??0DNameStatusNode@@AAE@W4DNameStatus@@@Z 30094450 f   LIBCMTD:undname.obj
 0001:000934a0       ??0Replicator@@QAE@XZ      300944a0 f i LIBCMTD:undname.obj
 0001:000934c0       ??0UnDecorator@@QAE@PADPBDHP6APADJ@ZK@Z 300944c0 f i LIBCMTD:undname.obj
 0001:00093560       ??0charNode@@QAE@D@Z       30094560 f   LIBCMTD:undname.obj
 0001:00093590       ??0pDNameNode@@QAE@PAVDName@@@Z 30094590 f   LIBCMTD:undname.obj
 0001:000935f0       ??0pairNode@@QAE@PAVDNameNode@@0@Z 300945f0 f   LIBCMTD:undname.obj
 0001:00093630       ??0pcharNode@@QAE@PBDH@Z   30094630 f   LIBCMTD:undname.obj
 0001:000936d0       ??2@YAPAXIAAV_HeapManager@@H@Z 300946d0 f i LIBCMTD:undname.obj
 0001:000936f0       ??4DName@@QAEAAV0@ABV0@@Z  300946f0 f   LIBCMTD:undname.obj
 0001:00093710       ??4DName@@QAEAAV0@D@Z      30094710 f i LIBCMTD:undname.obj
 0001:000937f0       ??4DName@@QAEAAV0@PAV0@@Z  300947f0 f   LIBCMTD:undname.obj
 0001:00093920       ??4DName@@QAEAAV0@PBD@Z    30094920 f   LIBCMTD:undname.obj
 0001:00093a00       ??4DName@@QAEAAV0@W4DNameStatus@@@Z 30094a00 f   LIBCMTD:undname.obj
 0001:00093b00       ??AReplicator@@QBE?AVDName@@H@Z 30094b00 f   LIBCMTD:undname.obj
 0001:00093b70       ??BUnDecorator@@QAEPADXZ   30094b70 f i LIBCMTD:undname.obj
 0001:00093e00       ??H@YA?AVDName@@DABV0@@Z   30094e00 f i LIBCMTD:undname.obj
 0001:00093e30       ??H@YA?AVDName@@PBDABV0@@Z 30094e30 f i LIBCMTD:undname.obj
 0001:00093e60       ??H@YA?AVDName@@W4DNameStatus@@ABV0@@Z 30094e60 f i LIBCMTD:undname.obj
 0001:00093e90       ??HDName@@QBE?AV0@ABV0@@Z  30094e90 f   LIBCMTD:undname.obj
 0001:00093ed0       ??HDName@@QBE?AV0@D@Z      30094ed0 f   LIBCMTD:undname.obj
 0001:00093f10       ??HDName@@QBE?AV0@PAV0@@Z  30094f10 f   LIBCMTD:undname.obj
 0001:00093f50       ??HDName@@QBE?AV0@PBD@Z    30094f50 f   LIBCMTD:undname.obj
 0001:00093f90       ??HDName@@QBE?AV0@W4DNameStatus@@@Z 30094f90 f   LIBCMTD:undname.obj
 0001:00093fd0       ??YDName@@QAEAAV0@ABV0@@Z  30094fd0 f   LIBCMTD:undname.obj
 0001:00094040       ??YDName@@QAEAAV0@D@Z      30095040 f   LIBCMTD:undname.obj
 0001:000940c0       ??YDName@@QAEAAV0@PAV0@@Z  300950c0 f   LIBCMTD:undname.obj
 0001:00094170       ??YDName@@QAEAAV0@PBD@Z    30095170 f   LIBCMTD:undname.obj
 0001:00094210       ??YDName@@QAEAAV0@W4DNameStatus@@@Z 30095210 f   LIBCMTD:undname.obj
 0001:00094270       ??YReplicator@@QAEAAV0@ABVDName@@@Z 30095270 f   LIBCMTD:undname.obj
 0001:00094300       ??_5DName@@QAEAAV0@ABV0@@Z 30095300 f   LIBCMTD:undname.obj
 0001:00094360       ?Constructor@_HeapManager@@QAEXP6APAXI@ZP6AXPAX@Z@Z 30095360 f i LIBCMTD:undname.obj
 0001:000943a0       ?Destructor@_HeapManager@@QAEXXZ 300953a0 f i LIBCMTD:undname.obj
 0001:000943f0       ?UScore@UnDecorator@@SAPBDW4Tokens@@@Z 300953f0 f   LIBCMTD:undname.obj
 0001:00094420       ?append@DName@@AAEXPAVDNameNode@@@Z 30095420 f   LIBCMTD:undname.obj
 0001:000944b0       ?composeDeclaration@UnDecorator@@CA?AVDName@@ABV2@@Z 300954b0 f i LIBCMTD:undname.obj
 0001:00096130       ?dbGetString@DName@@QBEPADXZ 30097130 f   LIBCMTD:undname.obj
 0001:00096150       ?doAccessSpecifiers@UnDecorator@@SAHXZ 30097150 f i LIBCMTD:undname.obj
 0001:00096180       ?doAllocationLanguage@UnDecorator@@SAHXZ 30097180 f i LIBCMTD:undname.obj
 0001:000961b0       ?doAllocationModel@UnDecorator@@SAHXZ 300971b0 f i LIBCMTD:undname.obj
 0001:000961e0       ?doEcsu@UnDecorator@@SAHXZ 300971e0 f i LIBCMTD:undname.obj
 0001:00096210       ?doEllipsis@UnDecorator@@SAHXZ 30097210 f i LIBCMTD:undname.obj
 0001:00096240       ?doFunctionReturns@UnDecorator@@SAHXZ 30097240 f i LIBCMTD:undname.obj
 0001:00096270       ?doMSKeywords@UnDecorator@@SAHXZ 30097270 f i LIBCMTD:undname.obj
 0001:000962a0       ?doMemberTypes@UnDecorator@@SAHXZ 300972a0 f i LIBCMTD:undname.obj
 0001:000962d0       ?doNameOnly@UnDecorator@@SAHXZ 300972d0 f i LIBCMTD:undname.obj
 0001:000962e0       ?doNoIdentCharCheck@UnDecorator@@SAHXZ 300972e0 f i LIBCMTD:undname.obj
 0001:000962f0       ?doPchar@DName@@AAEXPBDH@Z 300972f0 f   LIBCMTD:undname.obj
 0001:00096430       ?doPtr64@UnDecorator@@SAHXZ 30097430 f i LIBCMTD:undname.obj
 0001:00096460       ?doRestrictionSpec@UnDecorator@@SAHXZ 30097460 f i LIBCMTD:undname.obj
 0001:00096490       ?doThisTypes@UnDecorator@@SAHXZ 30097490 f i LIBCMTD:undname.obj
 0001:000964c0       ?doThrowTypes@UnDecorator@@SAHXZ 300974c0 f i LIBCMTD:undname.obj
 0001:000964f0       ?doTypeOnly@UnDecorator@@SAHXZ 300974f0 f i LIBCMTD:undname.obj
 0001:00096500       ?doUnderScore@UnDecorator@@SAHXZ 30097500 f i LIBCMTD:undname.obj
 0001:00096530       ?getArgumentList@UnDecorator@@CA?AVDName@@XZ 30097530 f   LIBCMTD:undname.obj
 0001:00096680       ?getArgumentTypes@UnDecorator@@CA?AVDName@@XZ 30097680 f   LIBCMTD:undname.obj
 0001:000967e0       ?getArrayType@UnDecorator@@CA?AVDName@@ABV2@@Z 300977e0 f i LIBCMTD:undname.obj
 0001:00096a20       ?getBasedType@UnDecorator@@CA?AVDName@@XZ 30097a20 f   LIBCMTD:undname.obj
 0001:00096ae0       ?getBasicDataType@UnDecorator@@CA?AVDName@@ABV2@@Z 30097ae0 f   LIBCMTD:undname.obj
 0001:000970a0       ?getCallIndex@UnDecorator@@CA?AVDName@@XZ 300980a0 f i LIBCMTD:undname.obj
 0001:000970c0       ?getCallingConvention@UnDecorator@@CA?AVDName@@XZ 300980c0 f   LIBCMTD:undname.obj
 0001:00097230       ?getDataIndirectType@UnDecorator@@CA?AVDName@@ABV2@PBD0H@Z 30098230 f   LIBCMTD:undname.obj
 0001:00097940       ?getDataIndirectType@UnDecorator@@CA?AVDName@@XZ 30098940 f i LIBCMTD:undname.obj
 0001:00097980       ?getDataType@UnDecorator@@CA?AVDName@@PAV2@@Z 30098980 f   LIBCMTD:undname.obj
 0001:00097aa0       ?getDecoratedName@UnDecorator@@CA?AVDName@@XZ 30098aa0 f   LIBCMTD:undname.obj
 0001:00097dd0       ?getDimension@UnDecorator@@CA?AVDName@@_N@Z 30098dd0 f   LIBCMTD:undname.obj
 0001:00098080       ?getDispatchTarget@UnDecorator@@CA?AVDName@@XZ 30099080 f   LIBCMTD:undname.obj
 0001:00098120       ?getDisplacement@UnDecorator@@CA?AVDName@@XZ 30099120 f i LIBCMTD:undname.obj
 0001:00098140       ?getECSUDataType@UnDecorator@@CA?AVDName@@XZ 30099140 f   LIBCMTD:undname.obj
 0001:00098310       ?getECSUName@UnDecorator@@CA?AVDName@@XZ 30099310 f i LIBCMTD:undname.obj
 0001:00098330       ?getEnumType@UnDecorator@@CA?AVDName@@XZ 30099330 f i LIBCMTD:undname.obj
 0001:00098480       ?getExtendedDataIndirectType@UnDecorator@@CA?AVDName@@AAPBDAA_NH@Z 30099480 f   LIBCMTD:undname.obj
 0001:000986d0       ?getExternalDataType@UnDecorator@@CA?AVDName@@ABV2@@Z 300996d0 f i LIBCMTD:undname.obj
 0001:00098760       ?getFunctionIndirectType@UnDecorator@@CA?AVDName@@ABV2@@Z 30099760 f   LIBCMTD:undname.obj
 0001:00098bd0       ?getGuardNumber@UnDecorator@@CA?AVDName@@XZ 30099bd0 f i LIBCMTD:undname.obj
 0001:00098bf0       ?getLastChar@DName@@QBEDXZ 30099bf0 f i LIBCMTD:undname.obj
 0001:00098c20       ?getLastChar@DNameStatusNode@@UBEDXZ 30099c20 f i LIBCMTD:undname.obj
 0001:00098c50       ?getLastChar@charNode@@UBEDXZ 30099c50 f i LIBCMTD:undname.obj
 0001:00098c70       ?getLastChar@pDNameNode@@UBEDXZ 30099c70 f i LIBCMTD:undname.obj
 0001:00098ca0       ?getLastChar@pairNode@@UBEDXZ 30099ca0 f i LIBCMTD:undname.obj
 0001:00098cf0       ?getLastChar@pcharNode@@UBEDXZ 30099cf0 f i LIBCMTD:undname.obj
 0001:00098d30       ?getLexicalFrame@UnDecorator@@CA?AVDName@@XZ 30099d30 f i LIBCMTD:undname.obj
 0001:00098d70       ?getMemory@_HeapManager@@QAEPAXIH@Z 30099d70 f   LIBCMTD:undname.obj
 0001:00098e80       ?getNumberOfDimensions@UnDecorator@@CAHXZ 30099e80 f   LIBCMTD:undname.obj
 0001:00098f80       ?getOperatorName@UnDecorator@@CA?AVDName@@_NPA_N@Z 30099f80 f i LIBCMTD:undname.obj
 0001:00099910       ?getPointerType@UnDecorator@@CA?AVDName@@ABV2@0@Z 3009a910 f i LIBCMTD:undname.obj
 0001:00099940       ?getPointerTypeArray@UnDecorator@@CA?AVDName@@ABV2@0@Z 3009a940 f i LIBCMTD:undname.obj
 0001:00099970       ?getPrimaryDataType@UnDecorator@@CA?AVDName@@ABV2@@Z 3009a970 f   LIBCMTD:undname.obj
 0001:00099d10       ?getPtrRefDataType@UnDecorator@@CA?AVDName@@ABV2@H@Z 3009ad10 f i LIBCMTD:undname.obj
 0001:00099e50       ?getPtrRefType@UnDecorator@@CA?AVDName@@ABV2@0PBD@Z 3009ae50 f   LIBCMTD:undname.obj
 0001:00099fc0       ?getReferenceType@UnDecorator@@CA?AVDName@@ABV2@0PBD@Z 3009afc0 f i LIBCMTD:undname.obj
 0001:00099fe0       ?getRestrictionSpec@UnDecorator@@CA?AVDName@@XZ 3009afe0 f   LIBCMTD:undname.obj
 0001:0009a130       ?getReturnType@UnDecorator@@CA?AVDName@@PAV2@@Z 3009b130 f   LIBCMTD:undname.obj
 0001:0009a180       ?getScope@UnDecorator@@CA?AVDName@@XZ 3009b180 f   LIBCMTD:undname.obj
 0001:0009a670       ?getScopedName@UnDecorator@@CA?AVDName@@XZ 3009b670 f   LIBCMTD:undname.obj
 0001:0009a790       ?getSignedDimension@UnDecorator@@CA?AVDName@@XZ 3009b790 f   LIBCMTD:undname.obj
 0001:0009a810       ?getStorageConvention@UnDecorator@@CA?AVDName@@XZ 3009b810 f i LIBCMTD:undname.obj
 0001:0009a830       ?getString@DName@@QBEPADPAD0@Z 3009b830 f i LIBCMTD:undname.obj
 0001:0009a870       ?getString@DName@@QBEPADPADH@Z 3009b870 f i LIBCMTD:undname.obj
 0001:0009a900       ?getString@DNameStatusNode@@UBEPADPAD0@Z 3009b900 f i LIBCMTD:undname.obj
 0001:0009a940       ?getString@charNode@@UBEPADPAD0@Z 3009b940 f i LIBCMTD:undname.obj
 0001:0009a970       ?getString@pDNameNode@@UBEPADPAD0@Z 3009b970 f i LIBCMTD:undname.obj
 0001:0009a9b0       ?getString@pairNode@@UBEPADPAD0@Z 3009b9b0 f i LIBCMTD:undname.obj
 0001:0009aa10       ?getString@pcharNode@@UBEPADPAD0@Z 3009ba10 f i LIBCMTD:undname.obj
 0001:0009aa40       ?getStringEncoding@UnDecorator@@CA?AVDName@@PADH@Z 3009ba40 f   LIBCMTD:undname.obj
 0001:0009ab50       ?getStringHelper@@YAPADPAD00H@Z 3009bb50 f i LIBCMTD:undname.obj
 0001:0009ab90       ?getSymbolName@UnDecorator@@CA?AVDName@@XZ 3009bb90 f i LIBCMTD:undname.obj
 0001:0009ac20       ?getTemplateArgumentList@UnDecorator@@CA?AVDName@@XZ 3009bc20 f   LIBCMTD:undname.obj
 0001:0009aea0       ?getTemplateConstant@UnDecorator@@CA?AVDName@@XZ 3009bea0 f   LIBCMTD:undname.obj
 0001:0009b370       ?getTemplateName@UnDecorator@@CA?AVDName@@_N@Z 3009c370 f   LIBCMTD:undname.obj
 0001:0009b540       ?getThisType@UnDecorator@@CA?AVDName@@XZ 3009c540 f i LIBCMTD:undname.obj
 0001:0009b580       ?getThrowTypes@UnDecorator@@CA?AVDName@@XZ 3009c580 f   LIBCMTD:undname.obj
 0001:0009b630       ?getTypeEncoding@UnDecorator@@CAHXZ 3009c630 f i LIBCMTD:undname.obj
 0001:0009c070       ?getVCallThunkType@UnDecorator@@CA?AVDName@@XZ 3009d070 f i LIBCMTD:undname.obj
 0001:0009c0d0       ?getVbTableType@UnDecorator@@CA?AVDName@@ABV2@@Z 3009d0d0 f i LIBCMTD:undname.obj
 0001:0009c0f0       ?getVdispMapType@UnDecorator@@CA?AVDName@@ABV2@@Z 3009d0f0 f i LIBCMTD:undname.obj
 0001:0009c160       ?getVfTableType@UnDecorator@@CA?AVDName@@ABV2@@Z 3009d160 f i LIBCMTD:undname.obj
 0001:0009c320       ?getZName@UnDecorator@@CA?AVDName@@_N0@Z 3009d320 f   LIBCMTD:undname.obj
 0001:0009c5d0       ?haveTemplateParameters@UnDecorator@@SAHXZ 3009d5d0 f i LIBCMTD:undname.obj
 0001:0009c5e0       ?isArray@DName@@QBEHXZ     3009d5e0 f i LIBCMTD:undname.obj
 0001:0009c600       ?isComArray@DName@@QBEHXZ  3009d600 f i LIBCMTD:undname.obj
 0001:0009c620       ?isEmpty@DName@@QBEHXZ     3009d620 f i LIBCMTD:undname.obj
 0001:0009c650       ?isFull@Replicator@@QBEHXZ 3009d650 f i LIBCMTD:undname.obj
 0001:0009c680       ?isNoTE@DName@@QBEHXZ      3009d680 f i LIBCMTD:undname.obj
 0001:0009c6a0       ?isPinPtr@DName@@QBEHXZ    3009d6a0 f i LIBCMTD:undname.obj
 0001:0009c6c0       ?isPtrRef@DName@@QBEHXZ    3009d6c0 f i LIBCMTD:undname.obj
 0001:0009c6e0       ?isUDC@DName@@QBEHXZ       3009d6e0 f i LIBCMTD:undname.obj
 0001:0009c720       ?isUDTThunk@DName@@QBEHXZ  3009d720 f i LIBCMTD:undname.obj
 0001:0009c760       ?isVCallThunk@DName@@QBEHXZ 3009d760 f i LIBCMTD:undname.obj
 0001:0009c780       ?isValid@DName@@QBEHXZ     3009d780 f i LIBCMTD:undname.obj
 0001:0009c7c0       ?length@DName@@QBEHXZ      3009d7c0 f i LIBCMTD:undname.obj
 0001:0009c7f0       ?length@DNameStatusNode@@UBEHXZ 3009d7f0 f i LIBCMTD:undname.obj
 0001:0009c810       ?length@charNode@@UBEHXZ   3009d810 f i LIBCMTD:undname.obj
 0001:0009c820       ?length@pDNameNode@@UBEHXZ 3009d820 f i LIBCMTD:undname.obj
 0001:0009c850       ?length@pairNode@@UBEHXZ   3009d850 f i LIBCMTD:undname.obj
 0001:0009c8a0       ?length@pcharNode@@UBEHXZ  3009d8a0 f i LIBCMTD:undname.obj
 0001:0009c8c0       ?make@DNameStatusNode@@SAPAV1@W4DNameStatus@@@Z 3009d8c0 f i LIBCMTD:undname.obj
 0001:0009c970       ?setIsArray@DName@@QAEXXZ  3009d970 f i LIBCMTD:undname.obj
 0001:0009c990       ?setIsComArray@DName@@QAEXXZ 3009d990 f i LIBCMTD:undname.obj
 0001:0009c9b0       ?setIsNoTE@DName@@QAEXXZ   3009d9b0 f i LIBCMTD:undname.obj
 0001:0009c9d0       ?setIsPinPtr@DName@@QAEXXZ 3009d9d0 f i LIBCMTD:undname.obj
 0001:0009c9f0       ?setIsUDC@DName@@QAEXXZ    3009d9f0 f i LIBCMTD:undname.obj
 0001:0009ca20       ?setIsVCallThunk@DName@@QAEXXZ 3009da20 f i LIBCMTD:undname.obj
 0001:0009ca40       ?setPtrRef@DName@@QAEAAV1@XZ 3009da40 f i LIBCMTD:undname.obj
 0001:0009ca60       ?status@DName@@QBE?AW4DNameStatus@@XZ 3009da60 f i LIBCMTD:undname.obj
 0001:0009cb60       ___unDName                 3009db60 f   LIBCMTD:undname.obj
 0001:0009cc30       ___unDNameEx               3009dc30 f   LIBCMTD:undname.obj
 0001:0009cd10       __get_purecall_handler     3009dd10 f   LIBCMTD:purevirt.obj
 0001:0009cd30       __purecall                 3009dd30 f   LIBCMTD:purevirt.obj
 0001:0009cd70       __set_purecall_handler     3009dd70 f   LIBCMTD:purevirt.obj
 0001:0009cda0       _IsDebuggerPresent@0       3009dda0 f   kernel32:KERNEL32.dll
 0001:0009cda6       _IsProcessorFeaturePresent@4 3009dda6 f   kernel32:KERNEL32.dll
 0001:0009cdac       _GetStdHandle@4            3009ddac f   kernel32:KERNEL32.dll
 0001:0009cdb2       _GetFileType@4             3009ddb2 f   kernel32:KERNEL32.dll
 0001:0009cdb8       _GetModuleFileNameW@12     3009ddb8 f   kernel32:KERNEL32.dll
 0001:0009cdbe       _GetModuleHandleExW@12     3009ddbe f   kernel32:KERNEL32.dll
 0001:0009cdc4       _WriteConsoleW@20          3009ddc4 f   kernel32:KERNEL32.dll
 0001:0009cdca       _GetCommandLineA@0         3009ddca f   kernel32:KERNEL32.dll
 0001:0009cdd0       _GetCurrentThreadId@0      3009ddd0 f   kernel32:KERNEL32.dll
 0001:0009cdd6       _RaiseException@16         3009ddd6 f   kernel32:KERNEL32.dll
 0001:0009cddc       _EncodePointer@4           3009dddc f   kernel32:KERNEL32.dll
 0001:0009cde2       _DecodePointer@4           3009dde2 f   kernel32:KERNEL32.dll
 0001:0009cde8       _InterlockedIncrement@4    3009dde8 f   kernel32:KERNEL32.dll
 0001:0009cdee       _InterlockedDecrement@4    3009ddee f   kernel32:KERNEL32.dll
 0001:0009cdf4       _IsValidCodePage@4         3009ddf4 f   kernel32:KERNEL32.dll
 0001:0009cdfa       _GetACP@0                  3009ddfa f   kernel32:KERNEL32.dll
 0001:0009ce00       _GetOEMCP@0                3009de00 f   kernel32:KERNEL32.dll
 0001:0009ce06       _GetCPInfo@8               3009de06 f   kernel32:KERNEL32.dll
 0001:0009ce0c       _GetLastError@0            3009de0c f   kernel32:KERNEL32.dll
 0001:0009ce12       _SetLastError@4            3009de12 f   kernel32:KERNEL32.dll
 0001:0009ce18       _GetCurrentThread@0        3009de18 f   kernel32:KERNEL32.dll
 0001:0009ce1e       _UnhandledExceptionFilter@4 3009de1e f   kernel32:KERNEL32.dll
 0001:0009ce24       _SetUnhandledExceptionFilter@4 3009de24 f   kernel32:KERNEL32.dll
 0001:0009ce2a       _InitializeCriticalSectionAndSpinCount@8 3009de2a f   kernel32:KERNEL32.dll
 0001:0009ce30       _GetCurrentProcess@0       3009de30 f   kernel32:KERNEL32.dll
 0001:0009ce36       _TerminateProcess@8        3009de36 f   kernel32:KERNEL32.dll
 0001:0009ce3c       _TlsAlloc@0                3009de3c f   kernel32:KERNEL32.dll
 0001:0009ce42       _TlsGetValue@4             3009de42 f   kernel32:KERNEL32.dll
 0001:0009ce48       _TlsSetValue@8             3009de48 f   kernel32:KERNEL32.dll
 0001:0009ce4e       _TlsFree@4                 3009de4e f   kernel32:KERNEL32.dll
 0001:0009ce54       _GetStartupInfoW@4         3009de54 f   kernel32:KERNEL32.dll
 0001:0009ce5a       _GetModuleHandleW@4        3009de5a f   kernel32:KERNEL32.dll
 0001:0009ce60       _GetProcAddress@8          3009de60 f   kernel32:KERNEL32.dll
 0001:0009ce66       _CreateSemaphoreW@16       3009de66 f   kernel32:KERNEL32.dll
 0001:0009ce6c       _ExitProcess@4             3009de6c f   kernel32:KERNEL32.dll
 0001:0009ce72       _AreFileApisANSI@0         3009de72 f   kernel32:KERNEL32.dll
 0001:0009ce78       _MultiByteToWideChar@24    3009de78 f   kernel32:KERNEL32.dll
 0001:0009ce7e       _EnterCriticalSection@4    3009de7e f   kernel32:KERNEL32.dll
 0001:0009ce84       _LeaveCriticalSection@4    3009de84 f   kernel32:KERNEL32.dll
 0001:0009ce8a       _SetConsoleCtrlHandler@8   3009de8a f   kernel32:KERNEL32.dll
 0001:0009ce90       _OutputDebugStringW@4      3009de90 f   kernel32:KERNEL32.dll
 0001:0009ce96       _WaitForSingleObjectEx@12  3009de96 f   kernel32:KERNEL32.dll
 0001:0009ce9c       _CreateThread@24           3009de9c f   kernel32:KERNEL32.dll
 0001:0009cea2       _LoadLibraryExW@12         3009dea2 f   kernel32:KERNEL32.dll
 0001:0009cea8       _LoadLibraryW@4            3009dea8 f   kernel32:KERNEL32.dll
 0001:0009ceae       _WriteFile@20              3009deae f   kernel32:KERNEL32.dll
 0001:0009ceb4       _WideCharToMultiByte@32    3009deb4 f   kernel32:KERNEL32.dll
 0001:0009ceba       _GetProcessHeap@0          3009deba f   kernel32:KERNEL32.dll
 0001:0009cec0       _DeleteCriticalSection@4   3009dec0 f   kernel32:KERNEL32.dll
 0001:0009cec6       _GetModuleFileNameA@12     3009dec6 f   kernel32:KERNEL32.dll
 0001:0009cecc       _HeapValidate@12           3009decc f   kernel32:KERNEL32.dll
 0001:0009ced2       _GetSystemInfo@4           3009ded2 f   kernel32:KERNEL32.dll
 0001:0009ced8       _QueryPerformanceCounter@4 3009ded8 f   kernel32:KERNEL32.dll
 0001:0009cede       _GetCurrentProcessId@0     3009dede f   kernel32:KERNEL32.dll
 0001:0009cee4       _GetSystemTimeAsFileTime@4 3009dee4 f   kernel32:KERNEL32.dll
 0001:0009ceea       _GetEnvironmentStringsW@0  3009deea f   kernel32:KERNEL32.dll
 0001:0009cef0       _FreeEnvironmentStringsW@4 3009def0 f   kernel32:KERNEL32.dll
 0001:0009cef6       _FatalAppExitA@8           3009def6 f   kernel32:KERNEL32.dll
 0001:0009cefc       _GetStringTypeW@16         3009defc f   kernel32:KERNEL32.dll
 0001:0009cf02       _RtlUnwind@16              3009df02 f   kernel32:KERNEL32.dll
 0001:0009cf08       _OutputDebugStringA@4      3009df08 f   kernel32:KERNEL32.dll
 0001:0009cf0e       _GetConsoleCP@0            3009df0e f   kernel32:KERNEL32.dll
 0001:0009cf14       _GetConsoleMode@8          3009df14 f   kernel32:KERNEL32.dll
 0001:0009cf1a       _SetFilePointerEx@20       3009df1a f   kernel32:KERNEL32.dll
 0001:0009cf20       _InterlockedExchange@8     3009df20 f   kernel32:KERNEL32.dll
 0001:0009cf26       _FreeLibrary@4             3009df26 f   kernel32:KERNEL32.dll
 0001:0009cf2c       _FlushFileBuffers@4        3009df2c f   kernel32:KERNEL32.dll
 0001:0009cf32       _GetDateFormatW@24         3009df32 f   kernel32:KERNEL32.dll
 0001:0009cf38       _GetTimeFormatW@24         3009df38 f   kernel32:KERNEL32.dll
 0001:0009cf3e       _CompareStringW@24         3009df3e f   kernel32:KERNEL32.dll
 0001:0009cf44       _LCMapStringW@24           3009df44 f   kernel32:KERNEL32.dll
 0001:0009cf4a       _GetLocaleInfoW@16         3009df4a f   kernel32:KERNEL32.dll
 0001:0009cf50       _IsValidLocale@8           3009df50 f   kernel32:KERNEL32.dll
 0001:0009cf56       _GetUserDefaultLCID@0      3009df56 f   kernel32:KERNEL32.dll
 0001:0009cf5c       _EnumSystemLocalesW@8      3009df5c f   kernel32:KERNEL32.dll
 0001:0009cf62       _HeapFree@12               3009df62 f   kernel32:KERNEL32.dll
 0001:0009cf68       _HeapReAlloc@16            3009df68 f   kernel32:KERNEL32.dll
 0001:0009cf6e       _HeapSize@12               3009df6e f   kernel32:KERNEL32.dll
 0001:0009cf74       _HeapQueryInformation@20   3009df74 f   kernel32:KERNEL32.dll
 0001:0009cf7a       _HeapAlloc@12              3009df7a f   kernel32:KERNEL32.dll
 0001:0009cf80       _SetStdHandle@8            3009df80 f   kernel32:KERNEL32.dll
 0001:0009cf86       _CreateFileW@28            3009df86 f   kernel32:KERNEL32.dll
 0001:0009cf8c       _CloseHandle@4             3009df8c f   kernel32:KERNEL32.dll
 0002:00000000       __imp__IsDebuggerPresent@0 3009f000     kernel32:KERNEL32.dll
 0002:00000004       __imp__IsProcessorFeaturePresent@4 3009f004     kernel32:KERNEL32.dll
 0002:00000008       __imp__GetStdHandle@4      3009f008     kernel32:KERNEL32.dll
 0002:0000000c       __imp__GetFileType@4       3009f00c     kernel32:KERNEL32.dll
 0002:00000010       __imp__GetModuleFileNameW@12 3009f010     kernel32:KERNEL32.dll
 0002:00000014       __imp__GetModuleHandleExW@12 3009f014     kernel32:KERNEL32.dll
 0002:00000018       __imp__WriteConsoleW@20    3009f018     kernel32:KERNEL32.dll
 0002:0000001c       __imp__GetCommandLineA@0   3009f01c     kernel32:KERNEL32.dll
 0002:00000020       __imp__GetCurrentThreadId@0 3009f020     kernel32:KERNEL32.dll
 0002:00000024       __imp__RaiseException@16   3009f024     kernel32:KERNEL32.dll
 0002:00000028       __imp__EncodePointer@4     3009f028     kernel32:KERNEL32.dll
 0002:0000002c       __imp__DecodePointer@4     3009f02c     kernel32:KERNEL32.dll
 0002:00000030       __imp__InterlockedIncrement@4 3009f030     kernel32:KERNEL32.dll
 0002:00000034       __imp__InterlockedDecrement@4 3009f034     kernel32:KERNEL32.dll
 0002:00000038       __imp__IsValidCodePage@4   3009f038     kernel32:KERNEL32.dll
 0002:0000003c       __imp__GetACP@0            3009f03c     kernel32:KERNEL32.dll
 0002:00000040       __imp__GetOEMCP@0          3009f040     kernel32:KERNEL32.dll
 0002:00000044       __imp__GetCPInfo@8         3009f044     kernel32:KERNEL32.dll
 0002:00000048       __imp__GetLastError@0      3009f048     kernel32:KERNEL32.dll
 0002:0000004c       __imp__SetLastError@4      3009f04c     kernel32:KERNEL32.dll
 0002:00000050       __imp__GetCurrentThread@0  3009f050     kernel32:KERNEL32.dll
 0002:00000054       __imp__UnhandledExceptionFilter@4 3009f054     kernel32:KERNEL32.dll
 0002:00000058       __imp__SetUnhandledExceptionFilter@4 3009f058     kernel32:KERNEL32.dll
 0002:0000005c       __imp__InitializeCriticalSectionAndSpinCount@8 3009f05c     kernel32:KERNEL32.dll
 0002:00000060       __imp__GetCurrentProcess@0 3009f060     kernel32:KERNEL32.dll
 0002:00000064       __imp__TerminateProcess@8  3009f064     kernel32:KERNEL32.dll
 0002:00000068       __imp__TlsAlloc@0          3009f068     kernel32:KERNEL32.dll
 0002:0000006c       __imp__TlsGetValue@4       3009f06c     kernel32:KERNEL32.dll
 0002:00000070       __imp__TlsSetValue@8       3009f070     kernel32:KERNEL32.dll
 0002:00000074       __imp__TlsFree@4           3009f074     kernel32:KERNEL32.dll
 0002:00000078       __imp__GetStartupInfoW@4   3009f078     kernel32:KERNEL32.dll
 0002:0000007c       __imp__GetModuleHandleW@4  3009f07c     kernel32:KERNEL32.dll
 0002:00000080       __imp__GetProcAddress@8    3009f080     kernel32:KERNEL32.dll
 0002:00000084       __imp__CreateSemaphoreW@16 3009f084     kernel32:KERNEL32.dll
 0002:00000088       __imp__ExitProcess@4       3009f088     kernel32:KERNEL32.dll
 0002:0000008c       __imp__AreFileApisANSI@0   3009f08c     kernel32:KERNEL32.dll
 0002:00000090       __imp__MultiByteToWideChar@24 3009f090     kernel32:KERNEL32.dll
 0002:00000094       __imp__EnterCriticalSection@4 3009f094     kernel32:KERNEL32.dll
 0002:00000098       __imp__LeaveCriticalSection@4 3009f098     kernel32:KERNEL32.dll
 0002:0000009c       __imp__SetConsoleCtrlHandler@8 3009f09c     kernel32:KERNEL32.dll
 0002:000000a0       __imp__OutputDebugStringW@4 3009f0a0     kernel32:KERNEL32.dll
 0002:000000a4       __imp__WaitForSingleObjectEx@12 3009f0a4     kernel32:KERNEL32.dll
 0002:000000a8       __imp__CreateThread@24     3009f0a8     kernel32:KERNEL32.dll
 0002:000000ac       __imp__LoadLibraryExW@12   3009f0ac     kernel32:KERNEL32.dll
 0002:000000b0       __imp__LoadLibraryW@4      3009f0b0     kernel32:KERNEL32.dll
 0002:000000b4       __imp__WriteFile@20        3009f0b4     kernel32:KERNEL32.dll
 0002:000000b8       __imp__WideCharToMultiByte@32 3009f0b8     kernel32:KERNEL32.dll
 0002:000000bc       __imp__GetProcessHeap@0    3009f0bc     kernel32:KERNEL32.dll
 0002:000000c0       __imp__DeleteCriticalSection@4 3009f0c0     kernel32:KERNEL32.dll
 0002:000000c4       __imp__GetModuleFileNameA@12 3009f0c4     kernel32:KERNEL32.dll
 0002:000000c8       __imp__HeapValidate@12     3009f0c8     kernel32:KERNEL32.dll
 0002:000000cc       __imp__GetSystemInfo@4     3009f0cc     kernel32:KERNEL32.dll
 0002:000000d0       __imp__QueryPerformanceCounter@4 3009f0d0     kernel32:KERNEL32.dll
 0002:000000d4       __imp__GetCurrentProcessId@0 3009f0d4     kernel32:KERNEL32.dll
 0002:000000d8       __imp__GetSystemTimeAsFileTime@4 3009f0d8     kernel32:KERNEL32.dll
 0002:000000dc       __imp__GetEnvironmentStringsW@0 3009f0dc     kernel32:KERNEL32.dll
 0002:000000e0       __imp__FreeEnvironmentStringsW@4 3009f0e0     kernel32:KERNEL32.dll
 0002:000000e4       __imp__FatalAppExitA@8     3009f0e4     kernel32:KERNEL32.dll
 0002:000000e8       __imp__GetStringTypeW@16   3009f0e8     kernel32:KERNEL32.dll
 0002:000000ec       __imp__RtlUnwind@16        3009f0ec     kernel32:KERNEL32.dll
 0002:000000f0       __imp__OutputDebugStringA@4 3009f0f0     kernel32:KERNEL32.dll
 0002:000000f4       __imp__GetConsoleCP@0      3009f0f4     kernel32:KERNEL32.dll
 0002:000000f8       __imp__GetConsoleMode@8    3009f0f8     kernel32:KERNEL32.dll
 0002:000000fc       __imp__SetFilePointerEx@20 3009f0fc     kernel32:KERNEL32.dll
 0002:00000100       __imp__InterlockedExchange@8 3009f100     kernel32:KERNEL32.dll
 0002:00000104       __imp__FreeLibrary@4       3009f104     kernel32:KERNEL32.dll
 0002:00000108       __imp__FlushFileBuffers@4  3009f108     kernel32:KERNEL32.dll
 0002:0000010c       __imp__GetDateFormatW@24   3009f10c     kernel32:KERNEL32.dll
 0002:00000110       __imp__GetTimeFormatW@24   3009f110     kernel32:KERNEL32.dll
 0002:00000114       __imp__CompareStringW@24   3009f114     kernel32:KERNEL32.dll
 0002:00000118       __imp__LCMapStringW@24     3009f118     kernel32:KERNEL32.dll
 0002:0000011c       __imp__GetLocaleInfoW@16   3009f11c     kernel32:KERNEL32.dll
 0002:00000120       __imp__IsValidLocale@8     3009f120     kernel32:KERNEL32.dll
 0002:00000124       __imp__GetUserDefaultLCID@0 3009f124     kernel32:KERNEL32.dll
 0002:00000128       __imp__EnumSystemLocalesW@8 3009f128     kernel32:KERNEL32.dll
 0002:0000012c       __imp__HeapFree@12         3009f12c     kernel32:KERNEL32.dll
 0002:00000130       __imp__HeapReAlloc@16      3009f130     kernel32:KERNEL32.dll
 0002:00000134       __imp__HeapSize@12         3009f134     kernel32:KERNEL32.dll
 0002:00000138       __imp__HeapQueryInformation@20 3009f138     kernel32:KERNEL32.dll
 0002:0000013c       __imp__HeapAlloc@12        3009f13c     kernel32:KERNEL32.dll
 0002:00000140       __imp__SetStdHandle@8      3009f140     kernel32:KERNEL32.dll
 0002:00000144       __imp__CreateFileW@28      3009f144     kernel32:KERNEL32.dll
 0002:00000148       __imp__CloseHandle@4       3009f148     kernel32:KERNEL32.dll
 0002:0000014c       \177KERNEL32_NULL_THUNK_DATA 3009f14c     kernel32:KERNEL32.dll
 0002:00000150       ___xc_a                    3009f150     LIBCMTD:crt0init.obj
 0002:00000154       ___xc_z                    3009f154     LIBCMTD:crt0init.obj
 0002:00000158       ___xi_a                    3009f158     LIBCMTD:crt0init.obj
 0002:00000170       ___xi_z                    3009f170     LIBCMTD:crt0init.obj
 0002:00000174       ___xp_a                    3009f174     LIBCMTD:crt0init.obj
 0002:00000184       ___xp_z                    3009f184     LIBCMTD:crt0init.obj
 0002:00000188       ___xt_a                    3009f188     LIBCMTD:crt0init.obj
 0002:0000018c       ___xt_z                    3009f18c     LIBCMTD:crt0init.obj
 0002:000001c8       ??_C@_07JFMDDPHJ@EV_NONE?$AA@ 3009f1c8     bg_misc.obj
 0002:000001d0       ??_C@_0M@HLKBOJPO@EV_FOOTSTEP?$AA@ 3009f1d0     bg_misc.obj
 0002:000001dc       ??_C@_0BC@DIJMAMMI@EV_FOOTSTEP_METAL?$AA@ 3009f1dc     bg_misc.obj
 0002:000001f0       ??_C@_0O@HLJHKIDH@EV_FOOTSPLASH?$AA@ 3009f1f0     bg_misc.obj
 0002:00000200       ??_C@_0M@NPJBGELA@EV_FOOTWADE?$AA@ 3009f200     bg_misc.obj
 0002:0000020c       ??_C@_07FFIIIPLH@EV_SWIM?$AA@ 3009f20c     bg_misc.obj
 0002:00000214       ??_C@_09OLFOHJNB@EV_STEP_4?$AA@ 3009f214     bg_misc.obj
 0002:00000220       ??_C@_09EHOLDGNN@EV_STEP_8?$AA@ 3009f220     bg_misc.obj
 0002:0000022c       ??_C@_0L@BKIECKKB@EV_STEP_12?$AA@ 3009f22c     bg_misc.obj
 0002:00000238       ??_C@_0L@HOOIOPKF@EV_STEP_16?$AA@ 3009f238     bg_misc.obj
 0002:00000244       ??_C@_0O@EAFDHAJM@EV_FALL_SHORT?$AA@ 3009f244     bg_misc.obj
 0002:00000254       ??_C@_0P@MGFLMCKC@EV_FALL_MEDIUM?$AA@ 3009f254     bg_misc.obj
 0002:00000264       ??_C@_0M@LKJJNJOM@EV_FALL_FAR?$AA@ 3009f264     bg_misc.obj
 0002:00000270       ??_C@_0M@BPNFGBOJ@EV_JUMP_PAD?$AA@ 3009f270     bg_misc.obj
 0002:0000027c       ??_C@_07GKBEHGAP@EV_JUMP?$AA@ 3009f27c     bg_misc.obj
 0002:00000284       ??_C@_0P@GCDBKPMP@EV_WATER_TOUCH?$AA@ 3009f284     bg_misc.obj
 0002:00000294       ??_C@_0P@LHDMOIIG@EV_WATER_LEAVE?$AA@ 3009f294     bg_misc.obj
 0002:000002a4       ??_C@_0P@MIAIODEJ@EV_WATER_UNDER?$AA@ 3009f2a4     bg_misc.obj
 0002:000002b4       ??_C@_0P@NIPCJOBG@EV_WATER_CLEAR?$AA@ 3009f2b4     bg_misc.obj
 0002:000002c4       ??_C@_0P@BGIOEPCB@EV_ITEM_PICKUP?$AA@ 3009f2c4     bg_misc.obj
 0002:000002d4       ??_C@_0BG@KFILGAMN@EV_GLOBAL_ITEM_PICKUP?$AA@ 3009f2d4     bg_misc.obj
 0002:000002ec       ??_C@_09NMIICG@EV_NOAMMO?$AA@ 3009f2ec     bg_misc.obj
 0002:000002f8       ??_C@_0BB@ENKPHJLP@EV_CHANGE_WEAPON?$AA@ 3009f2f8     bg_misc.obj
 0002:0000030c       ??_C@_0P@PFJPAFGH@EV_FIRE_WEAPON?$AA@ 3009f30c     bg_misc.obj
 0002:0000031c       ??_C@_0N@CGCBJKGD@EV_USE_ITEM0?$AA@ 3009f31c     bg_misc.obj
 0002:0000032c       ??_C@_0N@DPDKKLCC@EV_USE_ITEM1?$AA@ 3009f32c     bg_misc.obj
 0002:0000033c       ??_C@_0N@BEBHPIOB@EV_USE_ITEM2?$AA@ 3009f33c     bg_misc.obj
 0002:0000034c       ??_C@_0N@NAMMJKA@EV_USE_ITEM3?$AA@ 3009f34c     bg_misc.obj
 0002:0000035c       ??_C@_0N@ECENFPGH@EV_USE_ITEM4?$AA@ 3009f35c     bg_misc.obj
 0002:0000036c       ??_C@_0N@FLFGGOCG@EV_USE_ITEM5?$AA@ 3009f36c     bg_misc.obj
 0002:0000037c       ??_C@_0N@HAHLDNOF@EV_USE_ITEM6?$AA@ 3009f37c     bg_misc.obj
 0002:0000038c       ??_C@_0N@GJGAAMKE@EV_USE_ITEM7?$AA@ 3009f38c     bg_misc.obj
 0002:0000039c       ??_C@_0N@OOPIBAGL@EV_USE_ITEM8?$AA@ 3009f39c     bg_misc.obj
 0002:000003ac       ??_C@_0N@PHODCBCK@EV_USE_ITEM9?$AA@ 3009f3ac     bg_misc.obj
 0002:000003bc       ??_C@_0O@KBJENLM@EV_USE_ITEM10?$AA@ 3009f3bc     bg_misc.obj
 0002:000003cc       ??_C@_0O@BDACHMPN@EV_USE_ITEM11?$AA@ 3009f3cc     bg_misc.obj
 0002:000003dc       ??_C@_0O@DICPCPDO@EV_USE_ITEM12?$AA@ 3009f3dc     bg_misc.obj
 0002:000003ec       ??_C@_0O@CBDEBOHP@EV_USE_ITEM13?$AA@ 3009f3ec     bg_misc.obj
 0002:000003fc       ??_C@_0O@GOHFIILI@EV_USE_ITEM14?$AA@ 3009f3fc     bg_misc.obj
 0002:0000040c       ??_C@_0O@HHGOLJPJ@EV_USE_ITEM15?$AA@ 3009f40c     bg_misc.obj
 0002:0000041c       ??_C@_0BA@GJNCODNG@EV_ITEM_RESPAWN?$AA@ 3009f41c     bg_misc.obj
 0002:0000042c       ??_C@_0M@ECGFPIMP@EV_ITEM_POP?$AA@ 3009f42c     bg_misc.obj
 0002:00000438       ??_C@_0BG@HBBJKNDP@EV_PLAYER_TELEPORT_IN?$AA@ 3009f438     bg_misc.obj
 0002:00000450       ??_C@_0BH@FNNILPIN@EV_PLAYER_TELEPORT_OUT?$AA@ 3009f450     bg_misc.obj
 0002:00000468       ??_C@_0BC@ECIIAFLJ@EV_GRENADE_BOUNCE?$AA@ 3009f468     bg_misc.obj
 0002:0000047c       ??_C@_0BB@LJGGMAII@EV_GENERAL_SOUND?$AA@ 3009f47c     bg_misc.obj
 0002:00000490       ??_C@_0BA@JAMKLOPJ@EV_GLOBAL_SOUND?$AA@ 3009f490     bg_misc.obj
 0002:000004a0       ??_C@_0BF@DDOIKLHD@EV_GLOBAL_TEAM_SOUND?$AA@ 3009f4a0     bg_misc.obj
 0002:000004b8       ??_C@_0BE@KBABEJMP@EV_BULLET_HIT_FLESH?$AA@ 3009f4b8     bg_misc.obj
 0002:000004cc       ??_C@_0BD@MFLMCLPN@EV_BULLET_HIT_WALL?$AA@ 3009f4cc     bg_misc.obj
 0002:000004e0       ??_C@_0P@JFMFNBMO@EV_MISSILE_HIT?$AA@ 3009f4e0     bg_misc.obj
 0002:000004f0       ??_C@_0BA@CAHALNAE@EV_MISSILE_MISS?$AA@ 3009f4f0     bg_misc.obj
 0002:00000500       ??_C@_0BG@LPAHEABB@EV_MISSILE_MISS_METAL?$AA@ 3009f500     bg_misc.obj
 0002:00000518       ??_C@_0N@HMLLJFGF@EV_RAILTRAIL?$AA@ 3009f518     bg_misc.obj
 0002:00000528       ??_C@_0L@LHBIHDML@EV_SHOTGUN?$AA@ 3009f528     bg_misc.obj
 0002:00000534       ??_C@_09ICDIPKFJ@EV_BULLET?$AA@ 3009f534     bg_misc.obj
 0002:00000540       ??_C@_07EMHHKOOH@EV_PAIN?$AA@ 3009f540     bg_misc.obj
 0002:00000548       ??_C@_09JPFBHKII@EV_DEATH1?$AA@ 3009f548     bg_misc.obj
 0002:00000554       ??_C@_09LEHMCJEL@EV_DEATH2?$AA@ 3009f554     bg_misc.obj
 0002:00000560       ??_C@_09KNGHBIAK@EV_DEATH3?$AA@ 3009f560     bg_misc.obj
 0002:0000056c       ??_C@_0M@PPLCDPP@EV_OBITUARY?$AA@ 3009f56c     bg_misc.obj
 0002:00000578       ??_C@_0BA@HLHGHIIE@EV_POWERUP_QUAD?$AA@ 3009f578     bg_misc.obj
 0002:00000588       ??_C@_0BG@CHAMNADK@EV_POWERUP_BATTLESUIT?$AA@ 3009f588     bg_misc.obj
 0002:000005a0       ??_C@_0BB@EGIJIDAN@EV_POWERUP_REGEN?$AA@ 3009f5a0     bg_misc.obj
 0002:000005b4       ??_C@_0O@JLGFLKBE@EV_GIB_PLAYER?$AA@ 3009f5b4     bg_misc.obj
 0002:000005c4       ??_C@_0N@GAJBP@EV_SCOREPLUM?$AA@ 3009f5c4     bg_misc.obj
 0002:000005d4       ??_C@_0BI@KNJAKDGK@EV_PROXIMITY_MINE_STICK?$AA@ 3009f5d4     bg_misc.obj
 0002:000005ec       ??_C@_0BK@PIFCIJEJ@EV_PROXIMITY_MINE_TRIGGER?$AA@ 3009f5ec     bg_misc.obj
 0002:00000608       ??_C@_0M@KACLGFEA@EV_KAMIKAZE?$AA@ 3009f608     bg_misc.obj
 0002:00000614       ??_C@_0BC@LMKNBBLF@EV_OBELISKEXPLODE?$AA@ 3009f614     bg_misc.obj
 0002:00000628       ??_C@_0BA@NHKGBGBA@EV_INVUL_IMPACT?$AA@ 3009f628     bg_misc.obj
 0002:00000638       ??_C@_09GLJGDJEJ@EV_JUICED?$AA@ 3009f638     bg_misc.obj
 0002:00000644       ??_C@_0BB@HHACOGHI@EV_LIGHTNINGBOLT?$AA@ 3009f644     bg_misc.obj
 0002:00000658       ??_C@_0O@PBPAKHP@EV_DEBUG_LINE?$AA@ 3009f658     bg_misc.obj
 0002:00000668       ??_C@_0BE@OHJHDFJH@EV_STOPLOOPINGSOUND?$AA@ 3009f668     bg_misc.obj
 0002:0000067c       ??_C@_08GBKLDCBE@EV_TAUNT?$AA@ 3009f67c     bg_misc.obj
 0002:00000685       ??_C@_00CNPNBAHC@?$AA@     3009f685     bg_misc.obj
 0002:00000688       ??_C@_0BB@DDGIAABK@item_armor_shard?$AA@ 3009f688     bg_misc.obj
 0002:0000069c       ??_C@_0BI@DECNCEGL@sound?1misc?1ar1_pkup?4wav?$AA@ 3009f69c     bg_misc.obj
 0002:000006b4       ??_C@_0CA@NOFOCCIK@models?1powerups?1armor?1shard?4md3?$AA@ 3009f6b4     bg_misc.obj
 0002:000006d4       ??_C@_0CH@NEKDLKN@models?1powerups?1armor?1shard_sphe@ 3009f6d4     bg_misc.obj
 0002:000006fc       ??_C@_0BC@LPFHDODA@icons?1iconr_shard?$AA@ 3009f6fc     bg_misc.obj
 0002:00000710       ??_C@_0M@PJIPIDNH@Armor?5Shard?$AA@ 3009f710     bg_misc.obj
 0002:0000071c       ??_C@_0BC@FPPLPJIL@item_armor_combat?$AA@ 3009f71c     bg_misc.obj
 0002:00000730       ??_C@_0BI@KNMPECGK@sound?1misc?1ar2_pkup?4wav?$AA@ 3009f730     bg_misc.obj
 0002:00000748       ??_C@_0CE@PHKMKHKB@models?1powerups?1armor?1armor_yel?4@ 3009f748     bg_misc.obj
 0002:0000076c       ??_C@_0BD@BKPFMPMP@icons?1iconr_yellow?$AA@ 3009f76c     bg_misc.obj
 0002:00000780       ??_C@_05JOOFIMIN@Armor?$AA@ 3009f780     bg_misc.obj
 0002:00000788       ??_C@_0BA@EKKMHIH@item_armor_body?$AA@ 3009f788     bg_misc.obj
 0002:00000798       ??_C@_0CE@EGJFDJJK@models?1powerups?1armor?1armor_red?4@ 3009f798     bg_misc.obj
 0002:000007bc       ??_C@_0BA@CEJNPBJG@icons?1iconr_red?$AA@ 3009f7bc     bg_misc.obj
 0002:000007cc       ??_C@_0M@ICCAHGAD@Heavy?5Armor?$AA@ 3009f7cc     bg_misc.obj
 0002:000007d8       ??_C@_0BC@DOHAFEBI@item_health_small?$AA@ 3009f7d8     bg_misc.obj
 0002:000007ec       ??_C@_0BJ@BIFHONLM@sound?1items?1s_health?4wav?$AA@ 3009f7ec     bg_misc.obj
 0002:00000808       ??_C@_0CH@JKNLMIJB@models?1powerups?1health?1small_cro@ 3009f808     bg_misc.obj
 0002:00000830       ??_C@_0CI@MPAPPIIE@models?1powerups?1health?1small_sph@ 3009f830     bg_misc.obj
 0002:00000858       ??_C@_0BC@IMNPBGFF@icons?1iconh_green?$AA@ 3009f858     bg_misc.obj
 0002:0000086c       ??_C@_08IAIFJOAI@5?5Health?$AA@ 3009f86c     bg_misc.obj
 0002:00000878       ??_C@_0M@KCNAKNNL@item_health?$AA@ 3009f878     bg_misc.obj
 0002:00000884       ??_C@_0BJ@OLHMCLBI@sound?1items?1n_health?4wav?$AA@ 3009f884     bg_misc.obj
 0002:000008a0       ??_C@_0CI@NAEMLIB@models?1powerups?1health?1medium_cr@ 3009f8a0     bg_misc.obj
 0002:000008c8       ??_C@_0CJ@NCCPDHOD@models?1powerups?1health?1medium_sp@ 3009f8c8     bg_misc.obj
 0002:000008f4       ??_C@_0BD@CDBLAHCA@icons?1iconh_yellow?$AA@ 3009f8f4     bg_misc.obj
 0002:00000908       ??_C@_09OJAALANF@25?5Health?$AA@ 3009f908     bg_misc.obj
 0002:00000914       ??_C@_0BC@JGDLKFIO@item_health_large?$AA@ 3009f914     bg_misc.obj
 0002:00000928       ??_C@_0BJ@ILCAJOFD@sound?1items?1l_health?4wav?$AA@ 3009f928     bg_misc.obj
 0002:00000944       ??_C@_0CH@NHFAKEFE@models?1powerups?1health?1large_cro@ 3009f944     bg_misc.obj
 0002:0000096c       ??_C@_0CI@CEEMEFNH@models?1powerups?1health?1large_sph@ 3009f96c     bg_misc.obj
 0002:00000994       ??_C@_0BA@IGNANAGL@icons?1iconh_red?$AA@ 3009f994     bg_misc.obj
 0002:000009a4       ??_C@_09EBELOOOD@50?5Health?$AA@ 3009f9a4     bg_misc.obj
 0002:000009b0       ??_C@_0BB@PBGAONGH@item_health_mega?$AA@ 3009f9b0     bg_misc.obj
 0002:000009c4       ??_C@_0BJ@FGLGEHNG@sound?1items?1m_health?4wav?$AA@ 3009f9c4     bg_misc.obj
 0002:000009e0       ??_C@_0CG@PDJMMGME@models?1powerups?1health?1mega_cros@ 3009f9e0     bg_misc.obj
 0002:00000a08       ??_C@_0CH@NEGHBKPB@models?1powerups?1health?1mega_sphe@ 3009fa08     bg_misc.obj
 0002:00000a30       ??_C@_0BB@EGPGIMOM@icons?1iconh_mega?$AA@ 3009fa30     bg_misc.obj
 0002:00000a44       ??_C@_0M@IOJDMPNO@Mega?5Health?$AA@ 3009fa44     bg_misc.obj
 0002:00000a50       ??_C@_0BA@CLDPODJE@weapon_gauntlet?$AA@ 3009fa50     bg_misc.obj
 0002:00000a60       ??_C@_0BG@BBKFHONL@sound?1misc?1w_pkup?4wav?$AA@ 3009fa60     bg_misc.obj
 0002:00000a78       ??_C@_0CG@PFPPJBAC@models?1weapons2?1gauntlet?1gauntle@ 3009fa78     bg_misc.obj
 0002:00000aa0       ??_C@_0BF@PMEPIOCM@icons?1iconw_gauntlet?$AA@ 3009faa0     bg_misc.obj
 0002:00000ab8       ??_C@_08ELAHAPJB@Gauntlet?$AA@ 3009fab8     bg_misc.obj
 0002:00000ac4       ??_C@_0P@ILAKNOAG@weapon_shotgun?$AA@ 3009fac4     bg_misc.obj
 0002:00000ad4       ??_C@_0CE@CJGCHKCN@models?1weapons2?1shotgun?1shotgun?4@ 3009fad4     bg_misc.obj
 0002:00000af8       ??_C@_0BE@PGLFIIOH@icons?1iconw_shotgun?$AA@ 3009faf8     bg_misc.obj
 0002:00000b0c       ??_C@_07DGIAOJJ@Shotgun?$AA@ 3009fb0c     bg_misc.obj
 0002:00000b14       ??_C@_0BC@HHBNPFPN@weapon_machinegun?$AA@ 3009fb14     bg_misc.obj
 0002:00000b28       ??_C@_0CK@BBPFNIFO@models?1weapons2?1machinegun?1machi@ 3009fb28     bg_misc.obj
 0002:00000b54       ??_C@_0BH@GIACBLNI@icons?1iconw_machinegun?$AA@ 3009fb54     bg_misc.obj
 0002:00000b6c       ??_C@_0L@KDNGMPND@Machinegun?$AA@ 3009fb6c     bg_misc.obj
 0002:00000b78       ??_C@_0BH@DGCCJPLM@weapon_grenadelauncher?$AA@ 3009fb78     bg_misc.obj
 0002:00000b90       ??_C@_0CG@INCGOMDL@models?1weapons2?1grenadel?1grenade@ 3009fb90     bg_misc.obj
 0002:00000bb8       ??_C@_0BE@JNFKJHKD@icons?1iconw_grenade?$AA@ 3009fbb8     bg_misc.obj
 0002:00000bcc       ??_C@_0BB@GIEOMMBO@Grenade?5Launcher?$AA@ 3009fbcc     bg_misc.obj
 0002:00000be0       ??_C@_0EG@LFEMOCGK@sound?1weapons?1grenade?1hgrenb1a?4w@ 3009fbe0     bg_misc.obj
 0002:00000c28       ??_C@_0BG@HJKONAJE@weapon_rocketlauncher?$AA@ 3009fc28     bg_misc.obj
 0002:00000c40       ??_C@_0CE@GGGFLKKE@models?1weapons2?1rocketl?1rocketl?4@ 3009fc40     bg_misc.obj
 0002:00000c64       ??_C@_0BD@MKMDIEGB@icons?1iconw_rocket?$AA@ 3009fc64     bg_misc.obj
 0002:00000c78       ??_C@_0BA@DJIGCIDL@Rocket?5Launcher?$AA@ 3009fc78     bg_misc.obj
 0002:00000c88       ??_C@_0BB@OCCEAFCD@weapon_lightning?$AA@ 3009fc88     bg_misc.obj
 0002:00000c9c       ??_C@_0CI@MNAFJDPO@models?1weapons2?1lightning?1lightn@ 3009fc9c     bg_misc.obj
 0002:00000cc4       ??_C@_0BG@CHEJEOPA@icons?1iconw_lightning?$AA@ 3009fcc4     bg_misc.obj
 0002:00000cdc       ??_C@_0O@HOCKKNKE@Lightning?5Gun?$AA@ 3009fcdc     bg_misc.obj
 0002:00000cec       ??_C@_0P@FEPBKEBF@weapon_railgun?$AA@ 3009fcec     bg_misc.obj
 0002:00000cfc       ??_C@_0CE@JHJFFEBE@models?1weapons2?1railgun?1railgun?4@ 3009fcfc     bg_misc.obj
 0002:00000d20       ??_C@_0BE@CJEOPCPE@icons?1iconw_railgun?$AA@ 3009fd20     bg_misc.obj
 0002:00000d34       ??_C@_07NMJDHEIK@Railgun?$AA@ 3009fd34     bg_misc.obj
 0002:00000d3c       ??_C@_0BB@LBHAKENA@weapon_plasmagun?$AA@ 3009fd3c     bg_misc.obj
 0002:00000d50       ??_C@_0CC@EHGHEDND@models?1weapons2?1plasma?1plasma?4md@ 3009fd50     bg_misc.obj
 0002:00000d74       ??_C@_0BD@NADHMFK@icons?1iconw_plasma?$AA@ 3009fd74     bg_misc.obj
 0002:00000d88       ??_C@_0L@JFFCGJF@Plasma?5Gun?$AA@ 3009fd88     bg_misc.obj
 0002:00000d94       ??_C@_0L@JBGNLNGG@weapon_bfg?$AA@ 3009fd94     bg_misc.obj
 0002:00000da0       ??_C@_0BM@HHDGGOHP@models?1weapons2?1bfg?1bfg?4md3?$AA@ 3009fda0     bg_misc.obj
 0002:00000dbc       ??_C@_0BA@NCCNKCA@icons?1iconw_bfg?$AA@ 3009fdbc     bg_misc.obj
 0002:00000dcc       ??_C@_06PNKEMFGD@BFG10K?$AA@ 3009fdcc     bg_misc.obj
 0002:00000dd4       ??_C@_0BF@MEMGGPGH@weapon_grapplinghook?$AA@ 3009fdd4     bg_misc.obj
 0002:00000dec       ??_C@_0CE@LFAGANA@models?1weapons2?1grapple?1grapple?4@ 3009fdec     bg_misc.obj
 0002:00000e10       ??_C@_0BE@DPKNJNBE@icons?1iconw_grapple?$AA@ 3009fe10     bg_misc.obj
 0002:00000e24       ??_C@_0P@CFJPDDC@Grappling?5Hook?$AA@ 3009fe24     bg_misc.obj
 0002:00000e34       ??_C@_0M@NLICANGB@ammo_shells?$AA@ 3009fe34     bg_misc.obj
 0002:00000e40       ??_C@_0BH@DPAADLFH@sound?1misc?1am_pkup?4wav?$AA@ 3009fe40     bg_misc.obj
 0002:00000e58       ??_C@_0CD@MBAGJHDE@models?1powerups?1ammo?1shotgunam?4m@ 3009fe58     bg_misc.obj
 0002:00000e7c       ??_C@_0BE@NMAFHJEI@icons?1icona_shotgun?$AA@ 3009fe7c     bg_misc.obj
 0002:00000e90       ??_C@_06PBPEPGGL@Shells?$AA@ 3009fe90     bg_misc.obj
 0002:00000e98       ??_C@_0N@NHCMDNIK@ammo_bullets?$AA@ 3009fe98     bg_misc.obj
 0002:00000ea8       ??_C@_0CG@OLENEOKN@models?1powerups?1ammo?1machineguna@ 3009fea8     bg_misc.obj
 0002:00000ed0       ??_C@_0BH@HMOAGCNP@icons?1icona_machinegun?$AA@ 3009fed0     bg_misc.obj
 0002:00000ee8       ??_C@_07DHNDKCGP@Bullets?$AA@ 3009fee8     bg_misc.obj
 0002:00000ef0       ??_C@_0O@CMJIOKCF@ammo_grenades?$AA@ 3009fef0     bg_misc.obj
 0002:00000f00       ??_C@_0CD@HNOBKKLC@models?1powerups?1ammo?1grenadeam?4m@ 3009ff00     bg_misc.obj
 0002:00000f24       ??_C@_0BE@LHOKGGAM@icons?1icona_grenade?$AA@ 3009ff24     bg_misc.obj
 0002:00000f38       ??_C@_08PMBIADEN@Grenades?$AA@ 3009ff38     bg_misc.obj
 0002:00000f44       ??_C@_0L@LLNMBAJC@ammo_cells?$AA@ 3009ff44     bg_misc.obj
 0002:00000f50       ??_C@_0CC@FGLALJGN@models?1powerups?1ammo?1plasmaam?4md@ 3009ff50     bg_misc.obj
 0002:00000f74       ??_C@_0BD@NCNJEHKB@icons?1icona_plasma?$AA@ 3009ff74     bg_misc.obj
 0002:00000f88       ??_C@_05KCAMIOGJ@Cells?$AA@ 3009ff88     bg_misc.obj
 0002:00000f90       ??_C@_0P@NBJHKAMD@ammo_lightning?$AA@ 3009ff90     bg_misc.obj
 0002:00000fa0       ??_C@_0CF@HDAADIIL@models?1powerups?1ammo?1lightningam@ 3009ffa0     bg_misc.obj
 0002:00000fc8       ??_C@_0BG@MEGMAGOM@icons?1icona_lightning?$AA@ 3009ffc8     bg_misc.obj
 0002:00000fe0       ??_C@_09JCCOMJEA@Lightning?$AA@ 3009ffe0     bg_misc.obj
 0002:00000fec       ??_C@_0N@CLEPKBOE@ammo_rockets?$AA@ 3009ffec     bg_misc.obj
 0002:00000ffc       ??_C@_0CC@KCOEDLFM@models?1powerups?1ammo?1rocketam?4md@ 3009fffc     bg_misc.obj
 0002:00001020       ??_C@_0BD@BFBJLPJK@icons?1icona_rocket?$AA@ 300a0020     bg_misc.obj
 0002:00001034       ??_C@_07MLLADOAB@Rockets?$AA@ 300a0034     bg_misc.obj
 0002:0000103c       ??_C@_0L@JEFOIHIM@ammo_slugs?$AA@ 300a003c     bg_misc.obj
 0002:00001048       ??_C@_0CD@CAJEPMME@models?1powerups?1ammo?1railgunam?4m@ 300a0048     bg_misc.obj
 0002:0000106c       ??_C@_0BE@DPOADFL@icons?1icona_railgun?$AA@ 300a006c     bg_misc.obj
 0002:00001080       ??_C@_05INIOBJHH@Slugs?$AA@ 300a0080     bg_misc.obj
 0002:00001088       ??_C@_08EHEJHGBG@ammo_bfg?$AA@ 300a0088     bg_misc.obj
 0002:00001094       ??_C@_0BP@BOBKFIKJ@models?1powerups?1ammo?1bfgam?4md3?$AA@ 300a0094     bg_misc.obj
 0002:000010b4       ??_C@_0BA@NIKNDLKG@icons?1icona_bfg?$AA@ 300a00b4     bg_misc.obj
 0002:000010c4       ??_C@_08LIBOGPIN@Bfg?5Ammo?$AA@ 300a00c4     bg_misc.obj
 0002:000010d0       ??_C@_0BE@GNEKBMLB@holdable_teleporter?$AA@ 300a00d0     bg_misc.obj
 0002:000010e4       ??_C@_0BJ@PNIOAJDI@sound?1items?1holdable?4wav?$AA@ 300a00e4     bg_misc.obj
 0002:00001100       ??_C@_0CI@FHEOFFOB@models?1powerups?1holdable?1telepor@ 300a0100     bg_misc.obj
 0002:00001128       ??_C@_0BB@HCFICFKF@icons?1teleporter?$AA@ 300a0128     bg_misc.obj
 0002:0000113c       ??_C@_0BE@PCKJDFFA@Personal?5Teleporter?$AA@ 300a013c     bg_misc.obj
 0002:00001150       ??_C@_0BA@PDDMBOCP@holdable_medkit?$AA@ 300a0150     bg_misc.obj
 0002:00001160       ??_C@_0CE@NKMJILL@models?1powerups?1holdable?1medkit?4@ 300a0160     bg_misc.obj
 0002:00001184       ??_C@_0CL@LOBKLABC@models?1powerups?1holdable?1medkit_@ 300a0184     bg_misc.obj
 0002:000011b0       ??_C@_0N@PNMDFAPK@icons?1medkit?$AA@ 300a01b0     bg_misc.obj
 0002:000011c0       ??_C@_06JDLGEHAD@Medkit?$AA@ 300a01c0     bg_misc.obj
 0002:000011c8       ??_C@_0BL@GLIFPGGG@sound?1items?1use_medkit?4wav?$AA@ 300a01c8     bg_misc.obj
 0002:000011e4       ??_C@_09MDKNIFFH@item_quad?$AA@ 300a01e4     bg_misc.obj
 0002:000011f0       ??_C@_0BL@GLEJLOCA@sound?1items?1quaddamage?4wav?$AA@ 300a01f0     bg_misc.obj
 0002:0000120c       ??_C@_0CB@HIFGFDGN@models?1powerups?1instant?1quad?4md3@ 300a020c     bg_misc.obj
 0002:00001230       ??_C@_0CG@JNMBMLHJ@models?1powerups?1instant?1quad_rin@ 300a0230     bg_misc.obj
 0002:00001258       ??_C@_0L@DICHEOBB@icons?1quad?$AA@ 300a0258     bg_misc.obj
 0002:00001264       ??_C@_0M@KOJLOALK@Quad?5Damage?$AA@ 300a0264     bg_misc.obj
 0002:00001270       ??_C@_0DA@PPPPKFJI@sound?1items?1damage2?4wav?5sound?1it@ 300a0270     bg_misc.obj
 0002:000012a0       ??_C@_0M@HBCGNAN@item_enviro?$AA@ 300a02a0     bg_misc.obj
 0002:000012ac       ??_C@_0BI@DEKBIKDD@sound?1items?1protect?4wav?$AA@ 300a02ac     bg_misc.obj
 0002:000012c4       ??_C@_0CD@JLGNIGLA@models?1powerups?1instant?1enviro?4m@ 300a02c4     bg_misc.obj
 0002:000012e8       ??_C@_0CI@KAEDJDGE@models?1powerups?1instant?1enviro_r@ 300a02e8     bg_misc.obj
 0002:00001310       ??_C@_0BB@MGICBJOH@icons?1envirosuit?$AA@ 300a0310     bg_misc.obj
 0002:00001324       ??_C@_0M@ONKEJEFE@Battle?5Suit?$AA@ 300a0324     bg_misc.obj
 0002:00001330       ??_C@_0DA@OCPACKGN@sound?1items?1airout?4wav?5sound?1ite@ 300a0330     bg_misc.obj
 0002:00001360       ??_C@_0L@LKMJKIEF@item_haste?$AA@ 300a0360     bg_misc.obj
 0002:0000136c       ??_C@_0BG@IJMEPCOI@sound?1items?1haste?4wav?$AA@ 300a036c     bg_misc.obj
 0002:00001384       ??_C@_0CC@NKPAJCMI@models?1powerups?1instant?1haste?4md@ 300a0384     bg_misc.obj
 0002:000013a8       ??_C@_0CH@KKDDKNEF@models?1powerups?1instant?1haste_ri@ 300a03a8     bg_misc.obj
 0002:000013d0       ??_C@_0M@CFINMGCL@icons?1haste?$AA@ 300a03d0     bg_misc.obj
 0002:000013dc       ??_C@_05HOIAGEJD@Speed?$AA@ 300a03dc     bg_misc.obj
 0002:000013e4       ??_C@_0L@MMHNJJPH@item_invis?$AA@ 300a03e4     bg_misc.obj
 0002:000013f0       ??_C@_0BN@OJBEBLGB@sound?1items?1invisibility?4wav?$AA@ 300a03f0     bg_misc.obj
 0002:00001410       ??_C@_0CC@HBONCEML@models?1powerups?1instant?1invis?4md@ 300a0410     bg_misc.obj
 0002:00001434       ??_C@_0CH@IMIHJDNC@models?1powerups?1instant?1invis_ri@ 300a0434     bg_misc.obj
 0002:0000145c       ??_C@_0M@FDDJPHJJ@icons?1invis?$AA@ 300a045c     bg_misc.obj
 0002:00001468       ??_C@_0N@LCCEENAK@Invisibility?$AA@ 300a0468     bg_misc.obj
 0002:00001478       ??_C@_0L@MMGPPPDM@item_regen?$AA@ 300a0478     bg_misc.obj
 0002:00001484       ??_C@_0BN@OBGKHNFF@sound?1items?1regeneration?4wav?$AA@ 300a0484     bg_misc.obj
 0002:000014a4       ??_C@_0CC@OEAPIKIN@models?1powerups?1instant?1regen?4md@ 300a04a4     bg_misc.obj
 0002:000014c8       ??_C@_0CH@FANACKJM@models?1powerups?1instant?1regen_ri@ 300a04c8     bg_misc.obj
 0002:000014f0       ??_C@_0M@FDCLJBFC@icons?1regen?$AA@ 300a04f0     bg_misc.obj
 0002:000014fc       ??_C@_0N@CBPBLBHG@Regeneration?$AA@ 300a04fc     bg_misc.obj
 0002:0000150c       ??_C@_0BG@LHDLOKKN@sound?1items?1regen?4wav?$AA@ 300a050c     bg_misc.obj
 0002:00001524       ??_C@_0M@MBNKEMMH@item_flight?$AA@ 300a0524     bg_misc.obj
 0002:00001530       ??_C@_0BH@COLFHEAE@sound?1items?1flight?4wav?$AA@ 300a0530     bg_misc.obj
 0002:00001548       ??_C@_0CD@MKDGJOMG@models?1powerups?1instant?1flight?4m@ 300a0548     bg_misc.obj
 0002:0000156c       ??_C@_0CI@IADFFEDP@models?1powerups?1instant?1flight_r@ 300a056c     bg_misc.obj
 0002:00001594       ??_C@_0N@GLEPEEPG@icons?1flight?$AA@ 300a0594     bg_misc.obj
 0002:000015a4       ??_C@_06FDKFDAP@Flight?$AA@ 300a05a4     bg_misc.obj
 0002:000015ac       ??_C@_0BB@JNMMCIHG@team_CTF_redflag?$AA@ 300a05ac     bg_misc.obj
 0002:000015c0       ??_C@_0BI@PEHEOJEO@models?1flags?1r_flag?4md3?$AA@ 300a05c0     bg_misc.obj
 0002:000015d8       ??_C@_0BB@EMIEBEOP@icons?1iconf_red1?$AA@ 300a05d8     bg_misc.obj
 0002:000015ec       ??_C@_08GAOGPIJL@Red?5Flag?$AA@ 300a05ec     bg_misc.obj
 0002:000015f8       ??_C@_0BC@NLKCOFAB@team_CTF_blueflag?$AA@ 300a05f8     bg_misc.obj
 0002:0000160c       ??_C@_0BI@FKICCNIF@models?1flags?1b_flag?4md3?$AA@ 300a060c     bg_misc.obj
 0002:00001624       ??_C@_0BB@EMIIAFKA@icons?1iconf_blu1?$AA@ 300a0624     bg_misc.obj
 0002:00001638       ??_C@_09MDBFHCAB@Blue?5Flag?$AA@ 300a0638     bg_misc.obj
 0002:00001644       ??_C@_0BH@MFGKJDLM@HoldableItem?5not?5found?$AA@ 300a0644     bg_misc.obj
 0002:0000165c       ??_C@_0CB@DEACFJO@Couldn?8t?5find?5item?5for?5weapon?5?$CFi@ 300a065c     bg_misc.obj
 0002:00001680       ??_C@_0CI@MFONMA@BG_CanItemBeGrabbed?3?5index?5out?5o@ 300a0680     bg_misc.obj
 0002:000016a8       ??_C@_0BM@NECGLAIF@BG_CanItemBeGrabbed?3?5IT_BAD?$AA@ 300a06a8     bg_misc.obj
 0002:000016c4       ??_C@_0CG@HNLFCMEK@BG_CanItemBeGrabbed?3?5unknown?5enu@ 300a06c4     bg_misc.obj
 0002:000016ec       ??_C@_0CK@DNBGNAED@BG_EvaluateTrajectory?3?5unknown?5t@ 300a06ec     bg_misc.obj
 0002:00001718       ??_C@_0CP@MCFPOIMF@BG_EvaluateTrajectoryDelta?3?5unkn@ 300a0718     bg_misc.obj
 0002:00001748       ??_C@_0L@MNPDPHLD@showevents?$AA@ 300a0748     bg_misc.obj
 0002:00001754       ??_C@_0DA@KOPJLGJF@Cgame?5event?5svt?5?$CF5d?5?9?$DO?5?$CF5d?3?5num?5@ 300a0754     bg_misc.obj
 0002:00001784       __real@00000000            300a0784     bg_misc.obj
 0002:00001788       __real@0000000000000000    300a0788     bg_misc.obj
 0002:00001790       __real@3f50624dd2f1a9fc    300a0790     bg_misc.obj
 0002:00001798       __real@3fe0000000000000    300a0798     bg_misc.obj
 0002:000017a0       __real@40000000            300a07a0     bg_misc.obj
 0002:000017a4       __real@40490fdb            300a07a4     bg_misc.obj
 0002:000017a8       __real@4079000000000000    300a07a8     bg_misc.obj
 0002:000017b0       __real@42100000            300a07b0     bg_misc.obj
 0002:000017b4       __real@42300000            300a07b4     bg_misc.obj
 0002:000017b8       __real@42340000            300a07b8     bg_misc.obj
 0002:000017bc       __real@44480000            300a07bc     bg_misc.obj
 0002:000017c0       __real@c2100000            300a07c0     bg_misc.obj
 0002:000017c4       __real@c2480000            300a07c4     bg_misc.obj
 0002:000017c8       ??_C@_0N@KJCNHCBK@?$CFi?3allsolid?6?$AA@ 300a07c8     bg_pmove.obj
 0002:000017d8       ??_C@_08EOGJDHPF@?$CFi?3lift?6?$AA@ 300a07d8     bg_pmove.obj
 0002:000017e4       ??_C@_0M@CKJFDFGH@?$CFi?3kickoff?6?$AA@ 300a07e4     bg_pmove.obj
 0002:000017f0       ??_C@_09OPMLNNOA@?$CFi?3steep?6?$AA@ 300a07f0     bg_pmove.obj
 0002:000017fc       ??_C@_08KACHPCJN@?$CFi?3Land?6?$AA@ 300a07fc     bg_pmove.obj
 0002:00001808       __real@3e99999a            300a0808     bg_pmove.obj
 0002:0000180c       __real@3ecccccd            300a080c     bg_pmove.obj
 0002:00001810       __real@3f000000            300a0810     bg_pmove.obj
 0002:00001818       __real@3f1a36e2eb1c432d    300a0818     bg_pmove.obj
 0002:00001820       __real@3f333333            300a0820     bg_pmove.obj
 0002:00001828       __real@3f76800000000000    300a0828     bg_pmove.obj
 0002:00001830       __real@3f800000            300a0830     bg_pmove.obj
 0002:00001834       __real@3f8020c5            300a0834     bg_pmove.obj
 0002:00001838       __real@3fd0000000000000    300a0838     bg_pmove.obj
 0002:00001840       __real@3ff0000000000000    300a0840     bg_pmove.obj
 0002:00001848       __real@3ff4cccccccccccd    300a0848     bg_pmove.obj
 0002:00001850       __real@3ff8000000000000    300a0850     bg_pmove.obj
 0002:00001858       __real@4008000000000000    300a0858     bg_pmove.obj
 0002:00001860       __real@405fc00000000000    300a0860     bg_pmove.obj
 0002:00001868       __real@40800000            300a0868     bg_pmove.obj
 0002:0000186c       __real@40a00000            300a086c     bg_pmove.obj
 0002:00001870       __real@40e00000            300a0870     bg_pmove.obj
 0002:00001874       __real@41200000            300a0874     bg_pmove.obj
 0002:00001878       __real@41700000            300a0878     bg_pmove.obj
 0002:0000187c       __real@41800000            300a087c     bg_pmove.obj
 0002:00001880       __real@41a00000            300a0880     bg_pmove.obj
 0002:00001884       __real@41f00000            300a0884     bg_pmove.obj
 0002:00001888       __real@42000000            300a0888     bg_pmove.obj
 0002:0000188c       __real@42200000            300a088c     bg_pmove.obj
 0002:00001890       __real@42280000            300a0890     bg_pmove.obj
 0002:00001894       __real@42700000            300a0894     bg_pmove.obj
 0002:00001898       __real@42800000            300a0898     bg_pmove.obj
 0002:0000189c       __real@42c80000            300a089c     bg_pmove.obj
 0002:000018a0       __real@43480000            300a08a0     bg_pmove.obj
 0002:000018a4       __real@43870000            300a08a4     bg_pmove.obj
 0002:000018a8       __real@43af0000            300a08a8     bg_pmove.obj
 0002:000018ac       __real@c1000000            300a08ac     bg_pmove.obj
 0002:000018b0       __real@c1700000            300a08b0     bg_pmove.obj
 0002:000018b4       __real@c1800000            300a08b4     bg_pmove.obj
 0002:000018b8       __real@c1c00000            300a08b8     bg_pmove.obj
 0002:000018bc       __real@c2280000            300a08bc     bg_pmove.obj
 0002:000018c0       __real@c2700000            300a08c0     bg_pmove.obj
 0002:000018c4       __real@c3480000            300a08c4     bg_pmove.obj
 0002:000018d0       __xmm@80000000800000008000000080000000 300a08d0     bg_pmove.obj
 0002:000018e0       ??_C@_0BE@FLPNHHPN@?$CFi?3bend?5can?8t?5step?6?$AA@ 300a08e0     bg_slidemove.obj
 0002:000018f4       ??_C@_0M@CDHDENEF@?$CFi?3stepped?6?$AA@ 300a08f4     bg_slidemove.obj
 0002:00001900       __real@3fb999999999999a    300a0900     bg_slidemove.obj
 0002:00001908       __real@3fe6666666666666    300a0908     bg_slidemove.obj
 0002:00001910       __real@3fefae147ae147ae    300a0910     bg_slidemove.obj
 0002:00001918       __real@41300000            300a0918     bg_slidemove.obj
 0002:0000191c       __real@41900000            300a091c     bg_slidemove.obj
 0002:00001920       ??_C@_07OFBIMGPG@testgun?$AA@ 300a0920     cg_consolecmds.obj
 0002:00001928       ??_C@_09FDMDKFOH@testmodel?$AA@ 300a0928     cg_consolecmds.obj
 0002:00001934       ??_C@_09CEJNBBKD@nextframe?$AA@ 300a0934     cg_consolecmds.obj
 0002:00001940       ??_C@_09KFHKLKJD@prevframe?$AA@ 300a0940     cg_consolecmds.obj
 0002:0000194c       ??_C@_08LEEFJCLI@nextskin?$AA@ 300a094c     cg_consolecmds.obj
 0002:00001958       ??_C@_08ONPIGPGM@prevskin?$AA@ 300a0958     cg_consolecmds.obj
 0002:00001964       ??_C@_07NBKBBFDF@viewpos?$AA@ 300a0964     cg_consolecmds.obj
 0002:0000196c       ??_C@_07PNHLECKB@?$CLscores?$AA@ 300a096c     cg_consolecmds.obj
 0002:00001974       ??_C@_07DLBEELCG@?9scores?$AA@ 300a0974     cg_consolecmds.obj
 0002:0000197c       ??_C@_05GAKJCNGF@?$CLzoom?$AA@ 300a097c     cg_consolecmds.obj
 0002:00001984       ??_C@_05LGPAMOHI@?9zoom?$AA@ 300a0984     cg_consolecmds.obj
 0002:0000198c       ??_C@_06FCHHJILH@sizeup?$AA@ 300a098c     cg_consolecmds.obj
 0002:00001994       ??_C@_08KKGKLAHJ@sizedown?$AA@ 300a0994     cg_consolecmds.obj
 0002:000019a0       ??_C@_08IJHOKAF@weapnext?$AA@ 300a09a0     cg_consolecmds.obj
 0002:000019ac       ??_C@_08DMEBPOGB@weapprev?$AA@ 300a09ac     cg_consolecmds.obj
 0002:000019b8       ??_C@_06GEPNGEJI@weapon?$AA@ 300a09b8     cg_consolecmds.obj
 0002:000019c0       ??_C@_0M@IEEMCPKO@tell_target?$AA@ 300a09c0     cg_consolecmds.obj
 0002:000019cc       ??_C@_0O@CIPPGGPC@tell_attacker?$AA@ 300a09cc     cg_consolecmds.obj
 0002:000019dc       ??_C@_0N@OKPMAMBK@vtell_target?$AA@ 300a09dc     cg_consolecmds.obj
 0002:000019ec       ??_C@_0P@KDBBCIM@vtell_attacker?$AA@ 300a09ec     cg_consolecmds.obj
 0002:000019fc       ??_C@_04FNICOANA@tcmd?$AA@ 300a09fc     cg_consolecmds.obj
 0002:00001a04       ??_C@_0L@FBDGNAPC@startOrbit?$AA@ 300a0a04     cg_consolecmds.obj
 0002:00001a10       ??_C@_0N@FDCACBMC@loaddeferred?$AA@ 300a0a10     cg_consolecmds.obj
 0002:00001a20       ??_C@_08FJOFODJK@gc?5?$CFi?5?$CFi?$AA@ 300a0a20     cg_consolecmds.obj
 0002:00001a2c       ??_C@_02IKAHHCAI@?$CFi?$AA@ 300a0a2c     cg_consolecmds.obj
 0002:00001a30       ??_C@_0M@NABCNGBA@cg_viewsize?$AA@ 300a0a30     cg_consolecmds.obj
 0002:00001a3c       ??_C@_0BB@MJMOCNNN@?$CI?$CFi?5?$CFi?5?$CFi?$CJ?5?3?5?$CFi?6?$AA@ 300a0a3c     cg_consolecmds.obj
 0002:00001a50       ??_C@_05DBKDOICH@score?$AA@ 300a0a50     cg_consolecmds.obj
 0002:00001a58       ??_C@_0L@EGAGNODH@tell?5?$CFi?5?$CFs?$AA@ 300a0a58     cg_consolecmds.obj
 0002:00001a64       ??_C@_0M@JNCDINKA@vtell?5?$CFi?5?$CFs?$AA@ 300a0a64     cg_consolecmds.obj
 0002:00001a70       ??_C@_09DNECJBKD@developer?$AA@ 300a0a70     cg_consolecmds.obj
 0002:00001a7c       ??_C@_01GBGANLPD@0?$AA@    300a0a7c     cg_consolecmds.obj
 0002:00001a80       ??_C@_0P@GDCMABHL@cg_cameraOrbit?$AA@ 300a0a80     cg_consolecmds.obj
 0002:00001a90       ??_C@_0P@OPFJLCMG@cg_thirdPerson?$AA@ 300a0a90     cg_consolecmds.obj
 0002:00001aa0       ??_C@_01BMBHCPLG@5?$AA@    300a0aa0     cg_consolecmds.obj
 0002:00001aa4       ??_C@_01HIHLOKLC@1?$AA@    300a0aa4     cg_consolecmds.obj
 0002:00001aa8       ??_C@_0BE@HGBFBDIP@cg_thirdPersonAngle?$AA@ 300a0aa8     cg_consolecmds.obj
 0002:00001abc       ??_C@_03GNABGMEE@100?$AA@  300a0abc     cg_consolecmds.obj
 0002:00001ac0       ??_C@_0BE@FKFEAA@cg_thirdPersonRange?$AA@ 300a0ac0     cg_consolecmds.obj
 0002:00001ad4       ??_C@_04BJJEOANI@kill?$AA@ 300a0ad4     cg_consolecmds.obj
 0002:00001adc       ??_C@_03BANJEMDJ@say?$AA@  300a0adc     cg_consolecmds.obj
 0002:00001ae0       ??_C@_08NBFNGOHN@say_team?$AA@ 300a0ae0     cg_consolecmds.obj
 0002:00001aec       ??_C@_04LBPCFPDD@tell?$AA@ 300a0aec     cg_consolecmds.obj
 0002:00001af4       ??_C@_04IBCNHBFH@vsay?$AA@ 300a0af4     cg_consolecmds.obj
 0002:00001afc       ??_C@_09CPIJOHHK@vsay_team?$AA@ 300a0afc     cg_consolecmds.obj
 0002:00001b08       ??_C@_05BLGJOHFB@vtell?$AA@ 300a0b08     cg_consolecmds.obj
 0002:00001b10       ??_C@_06IMDBNOMM@vtaunt?$AA@ 300a0b10     cg_consolecmds.obj
 0002:00001b18       ??_C@_05EGEGDMMG@vosay?$AA@ 300a0b18     cg_consolecmds.obj
 0002:00001b20       ??_C@_0L@GKKIAMHC@vosay_team?$AA@ 300a0b20     cg_consolecmds.obj
 0002:00001b2c       ??_C@_06JMKGCPMO@votell?$AA@ 300a0b2c     cg_consolecmds.obj
 0002:00001b34       ??_C@_04BMBHJADG@give?$AA@ 300a0b34     cg_consolecmds.obj
 0002:00001b3c       ??_C@_03DKFAMNOH@god?$AA@  300a0b3c     cg_consolecmds.obj
 0002:00001b40       ??_C@_08HPLPOCJL@notarget?$AA@ 300a0b40     cg_consolecmds.obj
 0002:00001b4c       ??_C@_06IHODGGMJ@noclip?$AA@ 300a0b4c     cg_consolecmds.obj
 0002:00001b54       ??_C@_04KADBPNCB@team?$AA@ 300a0b54     cg_consolecmds.obj
 0002:00001b5c       ??_C@_06HNJAFFAK@follow?$AA@ 300a0b5c     cg_consolecmds.obj
 0002:00001b64       ??_C@_09EFOFPGPE@levelshot?$AA@ 300a0b64     cg_consolecmds.obj
 0002:00001b70       ??_C@_06CJHCPEHG@addbot?$AA@ 300a0b70     cg_consolecmds.obj
 0002:00001b78       ??_C@_0L@CCEFBCKP@setviewpos?$AA@ 300a0b78     cg_consolecmds.obj
 0002:00001b84       ??_C@_08NNMLCPB@callvote?$AA@ 300a0b84     cg_consolecmds.obj
 0002:00001b90       ??_C@_04GHHIKFLG@vote?$AA@ 300a0b90     cg_consolecmds.obj
 0002:00001b98       ??_C@_0N@JDBKAFAM@callteamvote?$AA@ 300a0b98     cg_consolecmds.obj
 0002:00001ba8       ??_C@_08OLLMCBNG@teamvote?$AA@ 300a0ba8     cg_consolecmds.obj
 0002:00001bb4       ??_C@_05BLKJBNOD@stats?$AA@ 300a0bb4     cg_consolecmds.obj
 0002:00001bbc       ??_C@_08OKGPDOIO@teamtask?$AA@ 300a0bbc     cg_consolecmds.obj
 0002:00001bc8       ??_C@_0M@NJBPNDAH@loaddefered?$AA@ 300a0bc8     cg_consolecmds.obj
 0002:00001bd4       ??_C@_01EFFIKLCJ@n?$AA@    300a0bd4     cg_draw.obj
 0002:00001bd8       ??_C@_0BH@OGHHEKME@time?3?$CFi?5snap?3?$CFi?5cmd?3?$CFi?$AA@ 300a0bd8     cg_draw.obj
 0002:00001bf0       ??_C@_05MDNADFFP@?$CFifps?$AA@ 300a0bf0     cg_draw.obj
 0002:00001bf8       ??_C@_07FFDCCNEB@?$CFi?3?$CFi?$CFi?$AA@ 300a0bf8     cg_draw.obj
 0002:00001c00       ??_C@_07CIFAGBMG@unknown?$AA@ 300a0c00     cg_draw.obj
 0002:00001c08       ??_C@_07FJAEFGNG@?$CF3i?5?$CF3i?$AA@ 300a0c08     cg_draw.obj
 0002:00001c10       ??_C@_03NKIHJOPP@?$CF2i?$AA@ 300a0c10     cg_draw.obj
 0002:00001c14       ??_C@_02DPKJAMEF@?$CFd?$AA@ 300a0c14     cg_draw.obj
 0002:00001c18       ??_C@_0BH@HFDDJIMF@Connection?5Interrupted?$AA@ 300a0c18     cg_draw.obj
 0002:00001c30       ??_C@_0P@NNJCDNEK@gfx?12d?1net?4tga?$AA@ 300a0c30     cg_draw.obj
 0002:00001c40       ??_C@_03KLKIPBNP@snc?$AA@  300a0c40     cg_draw.obj
 0002:00001c44       ??_C@_09GNDCBOBP@SPECTATOR?$AA@ 300a0c44     cg_draw.obj
 0002:00001c50       ??_C@_0BA@PJMJBMDH@waiting?5to?5play?$AA@ 300a0c50     cg_draw.obj
 0002:00001c60       ??_C@_0CI@GGHFPFB@press?5ESC?5and?5use?5the?5JOIN?5menu?5@ 300a0c60     cg_draw.obj
 0002:00001c88       ??_C@_0BJ@JAENOHOK@VOTE?$CI?$CFi?$CJ?3?$CFs?5yes?3?$CFi?5no?3?$CFi?$AA@ 300a0c88     cg_draw.obj
 0002:00001ca4       ??_C@_0BN@CPIJHJOL@TEAMVOTE?$CI?$CFi?$CJ?3?$CFs?5yes?3?$CFi?5no?3?$CFi?$AA@ 300a0ca4     cg_draw.obj
 0002:00001cc4       ??_C@_09BEIPBMDN@following?$AA@ 300a0cc4     cg_draw.obj
 0002:00001cd0       ??_C@_0M@COLOONJC@OUT?5OF?5AMMO?$AA@ 300a0cd0     cg_draw.obj
 0002:00001cdc       ??_C@_0BB@IAFHNAPI@LOW?5AMMO?5WARNING?$AA@ 300a0cdc     cg_draw.obj
 0002:00001cf0       ??_C@_0BE@JNOOFOAO@Waiting?5for?5players?$AA@ 300a0cf0     cg_draw.obj
 0002:00001d04       ??_C@_08MFFNPGJB@?$CFs?5vs?5?$CFs?$AA@ 300a0d04     cg_draw.obj
 0002:00001d10       ??_C@_0N@PCEMCJC@Free?5For?5All?$AA@ 300a0d10     cg_draw.obj
 0002:00001d20       ??_C@_0BA@KHHNIIJE@Team?5Deathmatch?$AA@ 300a0d20     cg_draw.obj
 0002:00001d30       ??_C@_0BB@OOIHNFAG@Capture?5the?5Flag?$AA@ 300a0d30     cg_draw.obj
 0002:00001d44       ??_C@_0O@DIOKDBHN@Starts?5in?3?5?$CFi?$AA@ 300a0d44     cg_draw.obj
 0002:00001d54       ??_C@_0CE@GNKHIBFA@CG_DrawActive?3?5Undefined?5stereoV@ 300a0d54     cg_draw.obj
 0002:00001d78       __real@3ea8f5c3            300a0d78     cg_draw.obj
 0002:00001d7c       __real@3ee66666            300a0d7c     cg_draw.obj
 0002:00001d80       __real@3ef5c28f            300a0d80     cg_draw.obj
 0002:00001d84       __real@3f028f5c            300a0d84     cg_draw.obj
 0002:00001d88       __real@3f0a3d71            300a0d88     cg_draw.obj
 0002:00001d8c       __real@3f8ccccd            300a0d8c     cg_draw.obj
 0002:00001d90       __real@3fc00000            300a0d90     cg_draw.obj
 0002:00001d98       __real@3fd126e978d4fdf4    300a0d98     cg_draw.obj
 0002:00001da0       __real@4000000000000000    300a0da0     cg_draw.obj
 0002:00001da8       __real@400921fb60000000    300a0da8     cg_draw.obj
 0002:00001db0       __real@4014000000000000    300a0db0     cg_draw.obj
 0002:00001db8       __real@4034000000000000    300a0db8     cg_draw.obj
 0002:00001dc0       __real@40400000            300a0dc0     cg_draw.obj
 0002:00001dc8       __real@4048000000000000    300a0dc8     cg_draw.obj
 0002:00001dd0       __real@404e000000000000    300a0dd0     cg_draw.obj
 0002:00001dd8       __real@4056800000000000    300a0dd8     cg_draw.obj
 0002:00001de0       __real@4066800000000000    300a0de0     cg_draw.obj
 0002:00001de8       __real@408f400000000000    300a0de8     cg_draw.obj
 0002:00001df0       __real@409f400000000000    300a0df0     cg_draw.obj
 0002:00001df8       __real@40a0000000000000    300a0df8     cg_draw.obj
 0002:00001e00       __real@41000000            300a0e00     cg_draw.obj
 0002:00001e04       __real@41c00000            300a0e04     cg_draw.obj
 0002:00001e08       __real@42400000            300a0e08     cg_draw.obj
 0002:00001e0c       __real@42600000            300a0e0c     cg_draw.obj
 0002:00001e10       __real@428c0000            300a0e10     cg_draw.obj
 0002:00001e14       __real@42b40000            300a0e14     cg_draw.obj
 0002:00001e18       __real@43340000            300a0e18     cg_draw.obj
 0002:00001e1c       __real@43580000            300a0e1c     cg_draw.obj
 0002:00001e20       __real@438e8000            300a0e20     cg_draw.obj
 0002:00001e24       __real@43940000            300a0e24     cg_draw.obj
 0002:00001e28       __real@43960000            300a0e28     cg_draw.obj
 0002:00001e2c       __real@43a00000            300a0e2c     cg_draw.obj
 0002:00001e30       __real@43a68000            300a0e30     cg_draw.obj
 0002:00001e34       __real@43d80000            300a0e34     cg_draw.obj
 0002:00001e38       __real@43eb0000            300a0e38     cg_draw.obj
 0002:00001e3c       __real@43f00000            300a0e3c     cg_draw.obj
 0002:00001e40       __real@43fa0000            300a0e40     cg_draw.obj
 0002:00001e44       __real@44140000            300a0e44     cg_draw.obj
 0002:00001e48       __real@44200000            300a0e48     cg_draw.obj
 0002:00001e4c       __real@44610000            300a0e4c     cg_draw.obj
 0002:00001e50       __real@447a0000            300a0e50     cg_draw.obj
 0002:00001e54       __real@44fa0000            300a0e54     cg_draw.obj
 0002:00001e58       __real@46fffe00            300a0e58     cg_draw.obj
 0002:00001e5c       __real@48000000            300a0e5c     cg_draw.obj
 0002:00001e60       __real@bfe0000000000000    300a0e60     cg_draw.obj
 0002:00001e68       __real@c1200000            300a0e68     cg_draw.obj
 0002:00001e6c       __real@3d800000            300a0e6c     cg_drawtools.obj
 0002:00001e70       __real@3dd80000            300a0e70     cg_drawtools.obj
 0002:00001e74       __real@3e100000            300a0e74     cg_drawtools.obj
 0002:00001e78       __real@3f400000            300a0e78     cg_drawtools.obj
 0002:00001e80       __real@3fb0000000000000    300a0e80     cg_drawtools.obj
 0002:00001e88       __real@3fd5c28f5c28f5c2    300a0e88     cg_drawtools.obj
 0002:00001e90       __real@3fe51eb851eb851f    300a0e90     cg_drawtools.obj
 0002:00001e98       __real@3fe999999999999a    300a0e98     cg_drawtools.obj
 0002:00001ea0       __real@403e000000000000    300a0ea0     cg_drawtools.obj
 0002:00001ea8       __real@4040800000000000    300a0ea8     cg_drawtools.obj
 0002:00001eb0       __real@4050000000000000    300a0eb0     cg_drawtools.obj
 0002:00001eb8       __real@4069000000000000    300a0eb8     cg_drawtools.obj
 0002:00001ec0       __real@41d80000            300a0ec0     cg_drawtools.obj
 0002:00001ec4       __real@43800000            300a0ec4     cg_drawtools.obj
 0002:00001ec8       ??_C@_0BM@FJKGAFKH@CG_MakeExplosion?3?5msec?5?$DN?5?$CFi?$AA@ 300a0ec8     cg_effects.obj
 0002:00001ee4       __real@3dcccccd            300a0ee4     cg_effects.obj
 0002:00001ee8       __real@3f19999a            300a0ee8     cg_effects.obj
 0002:00001ef0       __real@4004000000000000    300a0ef0     cg_effects.obj
 0002:00001ef8       __real@4018000000000000    300a0ef8     cg_effects.obj
 0002:00001f00       __real@4059000000000000    300a0f00     cg_effects.obj
 0002:00001f08       __real@4062c00000000000    300a0f08     cg_effects.obj
 0002:00001f10       __real@406f400000000000    300a0f10     cg_effects.obj
 0002:00001f18       __real@437a0000            300a0f18     cg_effects.obj
 0002:00001f1c       __real@437f0000            300a0f1c     cg_effects.obj
 0002:00001f20       __real@43b40000            300a0f20     cg_effects.obj
 0002:00001f24       __real@453b8000            300a0f24     cg_effects.obj
 0002:00001f28       __real@45bb8000            300a0f28     cg_effects.obj
 0002:00001f2c       ??_C@_0BM@DFPOGHOF@Bad?5item?5index?5?$CFi?5on?5entity?$AA@ 300a0f2c     cg_ents.obj
 0002:00001f48       ??_C@_0DB@OLDIELNC@CG_InterpoateEntityPosition?3?5cg?4@ 300a0f48     cg_ents.obj
 0002:00001f7c       ??_C@_0BF@NGFHFBLN@Bad?5entity?5type?3?5?$CFi?6?$AA@ 300a0f7c     cg_ents.obj
 0002:00001f98       __real@3ee4f8b588e368f1    300a0f98     cg_ents.obj
 0002:00001fa0       __real@3f747ae147ae147b    300a0fa0     cg_ents.obj
 0002:00001fa8       __real@4010000000000000    300a0fa8     cg_ents.obj
 0002:00001fb0       __real@4070000000000000    300a0fb0     cg_ents.obj
 0002:00001fb8       __real@4076800000000000    300a0fb8     cg_ents.obj
 0002:00001fc0       __real@41400000            300a0fc0     cg_ents.obj
 0002:00001fc4       __real@41600000            300a0fc4     cg_ents.obj
 0002:00001fc8       __real@44800000            300a0fc8     cg_ents.obj
 0002:00001fcc       __real@c4800000            300a0fcc     cg_ents.obj
 0002:00001fd0       ??_C@_09LNCLIHP@Tied?5for?5?$AA@ 300a0fd0     cg_event.obj
 0002:00001fdc       ??_C@_07OFHBJKHB@?$FO41st?$FO7?$AA@ 300a0fdc     cg_event.obj
 0002:00001fe4       ??_C@_07PJLEMDNE@?$FO12nd?$FO7?$AA@ 300a0fe4     cg_event.obj
 0002:00001fec       ??_C@_07GHHLNL@?$FO33rd?$FO7?$AA@ 300a0fec     cg_event.obj
 0002:00001ff4       ??_C@_04BDNHCHDD@11th?$AA@ 300a0ff4     cg_event.obj
 0002:00001ffc       ??_C@_04BGCIINN@12th?$AA@  300a0ffc     cg_event.obj
 0002:00002004       ??_C@_04LJNOOPLI@13th?$AA@ 300a1004     cg_event.obj
 0002:0000200c       ??_C@_04GLDGHKOE@?$CFist?$AA@ 300a100c     cg_event.obj
 0002:00002014       ??_C@_04DFAKFIJG@?$CFind?$AA@ 300a1014     cg_event.obj
 0002:0000201c       ??_C@_04CADGACIC@?$CFird?$AA@ 300a101c     cg_event.obj
 0002:00002024       ??_C@_04IIAODBDM@?$CFith?$AA@ 300a1024     cg_event.obj
 0002:0000202c       ??_C@_04HDOCAJNK@?$CFs?$CFs?$AA@ 300a102c     cg_event.obj
 0002:00002034       ??_C@_0CB@LLKCBBGA@CG_Obituary?3?5target?5out?5of?5range@ 300a1034     cg_event.obj
 0002:00002058       ??_C@_02PGJLIFGD@?$FO7?$AA@ 300a1058     cg_event.obj
 0002:0000205c       ??_C@_08MOEOKJOB@suicides?$AA@ 300a105c     cg_event.obj
 0002:00002068       ??_C@_08PAHGPPBJ@cratered?$AA@ 300a1068     cg_event.obj
 0002:00002074       ??_C@_0N@JLHEPJHP@was?5squished?$AA@ 300a1074     cg_event.obj
 0002:00002084       ??_C@_0BB@IPCHCEIC@sank?5like?5a?5rock?$AA@ 300a1084     cg_event.obj
 0002:00002098       ??_C@_06CHNJJJKC@melted?$AA@ 300a1098     cg_event.obj
 0002:000020a0       ??_C@_0BP@NAHBLPBA@does?5a?5back?5flip?5into?5the?5lava?$AA@ 300a10a0     cg_event.obj
 0002:000020c0       ??_C@_0O@LCLMFGAB@saw?5the?5light?$AA@ 300a10c0     cg_event.obj
 0002:000020d0       ??_C@_0BH@GICEGFFN@was?5in?5the?5wrong?5place?$AA@ 300a10d0     cg_event.obj
 0002:000020e8       ??_C@_0BL@MBMIHDKJ@tripped?5on?5her?5own?5grenade?$AA@ 300a10e8     cg_event.obj
 0002:00002104       ??_C@_0BL@PDGEHOJ@tripped?5on?5its?5own?5grenade?$AA@ 300a1104     cg_event.obj
 0002:00002120       ??_C@_0BL@BJDCDLDL@tripped?5on?5his?5own?5grenade?$AA@ 300a1120     cg_event.obj
 0002:0000213c       ??_C@_0BA@DBAICHLN@blew?5herself?5up?$AA@ 300a113c     cg_event.obj
 0002:0000214c       ??_C@_0P@GOLBOBGC@blew?5itself?5up?$AA@ 300a114c     cg_event.obj
 0002:0000215c       ??_C@_0BA@FIENEKJD@blew?5himself?5up?$AA@ 300a115c     cg_event.obj
 0002:0000216c       ??_C@_0P@KJDPIID@melted?5herself?$AA@ 300a116c     cg_event.obj
 0002:0000217c       ??_C@_0O@OEFGEIJP@melted?5itself?$AA@ 300a117c     cg_event.obj
 0002:0000218c       ??_C@_0P@DPLDCCLJ@melted?5himself?$AA@ 300a118c     cg_event.obj
 0002:0000219c       ??_C@_0BP@DBEBPALD@should?5have?5used?5a?5smaller?5gun?$AA@ 300a119c     cg_event.obj
 0002:000021bc       ??_C@_0P@IIICGFO@killed?5herself?$AA@ 300a11bc     cg_event.obj
 0002:000021cc       ??_C@_0O@JCBLJPFM@killed?5itself?$AA@ 300a11cc     cg_event.obj
 0002:000021dc       ??_C@_0P@DNKIPMGE@killed?5himself?$AA@ 300a11dc     cg_event.obj
 0002:000021ec       ??_C@_07EJPAKPEC@?$CFs?5?$CFs?4?6?$AA@ 300a11ec     cg_event.obj
 0002:000021f4       ??_C@_0CA@EJEIBOAF@You?5fragged?5?$CFs?6?$CFs?5place?5with?5?$CFi?$AA@ 300a11f4     cg_event.obj
 0002:00002214       ??_C@_0P@IOLDCJGB@You?5fragged?5?$CFs?$AA@ 300a1214     cg_event.obj
 0002:00002224       ??_C@_06LNKFDEGN@noname?$AA@ 300a1224     cg_event.obj
 0002:0000222c       ??_C@_0O@IBMLDOEJ@was?5caught?5by?$AA@ 300a122c     cg_event.obj
 0002:0000223c       ??_C@_0BA@DIGOJPDF@was?5pummeled?5by?$AA@ 300a123c     cg_event.obj
 0002:0000224c       ??_C@_0BF@PGKPLAEB@was?5machinegunned?5by?$AA@ 300a124c     cg_event.obj
 0002:00002264       ??_C@_0BD@MKJCHKPL@was?5gunned?5down?5by?$AA@ 300a1264     cg_event.obj
 0002:00002278       ??_C@_03BGFDOPOL@ate?$AA@  300a1278     cg_event.obj
 0002:0000227c       ??_C@_0L@KPHMDLGC@?8s?5grenade?$AA@ 300a127c     cg_event.obj
 0002:00002288       ??_C@_0BA@LIKKPCIN@was?5shredded?5by?$AA@ 300a1288     cg_event.obj
 0002:00002298       ??_C@_0M@BHBOCILJ@?8s?5shrapnel?$AA@ 300a1298     cg_event.obj
 0002:000022a4       ??_C@_09DEADKGEN@?8s?5rocket?$AA@ 300a12a4     cg_event.obj
 0002:000022b0       ??_C@_0O@JENMCGOI@almost?5dodged?$AA@ 300a12b0     cg_event.obj
 0002:000022c0       ??_C@_0O@CLFCHHPJ@was?5melted?5by?$AA@ 300a12c0     cg_event.obj
 0002:000022d0       ??_C@_0N@HJJMNEOJ@?8s?5plasmagun?$AA@ 300a12d0     cg_event.obj
 0002:000022e0       ??_C@_0O@LMMKCAFN@was?5railed?5by?$AA@ 300a12e0     cg_event.obj
 0002:000022f0       ??_C@_0BE@IJJLPGGN@was?5electrocuted?5by?$AA@ 300a12f0     cg_event.obj
 0002:00002304       ??_C@_0P@CIDIINED@was?5blasted?5by?$AA@ 300a1304     cg_event.obj
 0002:00002314       ??_C@_06NOMMMPPO@?8s?5BFG?$AA@ 300a1314     cg_event.obj
 0002:0000231c       ??_C@_0BA@CBNEPGEH@tried?5to?5invade?$AA@ 300a131c     cg_event.obj
 0002:0000232c       ??_C@_0BC@CJMFGHKA@?8s?5personal?5space?$AA@ 300a132c     cg_event.obj
 0002:00002340       ??_C@_0O@JEEJCGAD@was?5killed?5by?$AA@ 300a1340     cg_event.obj
 0002:00002350       ??_C@_0M@NLIGKFEM@?$CFs?5?$CFs?5?$CFs?$CFs?6?$AA@ 300a1350     cg_event.obj
 0002:0000235c       ??_C@_09PIPBOPDG@?$CFs?5died?4?6?$AA@ 300a135c     cg_event.obj
 0002:00002368       ??_C@_0P@MMJPCMLF@No?5item?5to?5use?$AA@ 300a1368     cg_event.obj
 0002:00002378       ??_C@_06FFLMGAMD@Use?5?$CFs?$AA@ 300a1378     cg_event.obj
 0002:00002380       ??_C@_0O@LDJLGKNK@?$CKpain25_1?4wav?$AA@ 300a1380     cg_event.obj
 0002:00002390       ??_C@_0O@JPBKAJHH@?$CKpain50_1?4wav?$AA@ 300a1390     cg_event.obj
 0002:000023a0       ??_C@_0O@PJAMCPJF@?$CKpain75_1?4wav?$AA@ 300a13a0     cg_event.obj
 0002:000023b0       ??_C@_0P@MHKKKFHB@?$CKpain100_1?4wav?$AA@ 300a13b0     cg_event.obj
 0002:000023c0       ??_C@_0BE@HGIJDIOP@ent?3?$CF3i?5?5event?3?$CF3i?5?$AA@ 300a13c0     cg_event.obj
 0002:000023d4       ??_C@_0L@GMIFJJAD@ZEROEVENT?6?$AA@ 300a13d4     cg_event.obj
 0002:000023e0       ??_C@_0N@KAJBJGHI@EV_FOOTSTEP?6?$AA@ 300a13e0     cg_event.obj
 0002:000023f0       ??_C@_0BD@GPGIDOAE@EV_FOOTSTEP_METAL?6?$AA@ 300a13f0     cg_event.obj
 0002:00002404       ??_C@_0P@ECCJNKCN@EV_FOOTSPLASH?6?$AA@ 300a1404     cg_event.obj
 0002:00002414       ??_C@_0N@DBFBMKGC@EV_FOOTWADE?6?$AA@ 300a1414     cg_event.obj
 0002:00002424       ??_C@_08KPLPEGCK@EV_SWIM?6?$AA@ 300a1424     cg_event.obj
 0002:00002430       ??_C@_0P@DBGGEJF@EV_FALL_SHORT?6?$AA@ 300a1430     cg_event.obj
 0002:00002440       ??_C@_0BA@MCPBHBIM@EV_FALL_MEDIUM?6?$AA@ 300a1440     cg_event.obj
 0002:00002450       ??_C@_0N@FDOJNPAA@EV_FALL_FAR?6?$AA@ 300a1450     cg_event.obj
 0002:00002460       ??_C@_0L@NLLHEJNK@?$CKfall1?4wav?$AA@ 300a1460     cg_event.obj
 0002:0000246c       ??_C@_08LGDHLDGB@EV_STEP?6?$AA@ 300a146c     cg_event.obj
 0002:00002478       ??_C@_0N@CDCGGHDH@EV_JUMP_PAD?6?$AA@ 300a1478     cg_event.obj
 0002:00002488       ??_C@_0L@FMHDEMAN@?$CKjump1?4wav?$AA@ 300a1488     cg_event.obj
 0002:00002494       ??_C@_08GKDKOBGN@EV_JUMP?6?$AA@ 300a1494     cg_event.obj
 0002:000024a0       ??_C@_09OAFEJHMF@EV_TAUNT?6?$AA@ 300a14a0     cg_event.obj
 0002:000024ac       ??_C@_0L@FDBCLIPJ@?$CKtaunt?4wav?$AA@ 300a14ac     cg_event.obj
 0002:000024b8       ??_C@_0BA@PBFGAGAE@EV_WATER_TOUCH?6?$AA@ 300a14b8     cg_event.obj
 0002:000024c8       ??_C@_0BA@POIDPCHH@EV_WATER_LEAVE?6?$AA@ 300a14c8     cg_event.obj
 0002:000024d8       ??_C@_0BA@PFCHBJFN@EV_WATER_UNDER?6?$AA@ 300a14d8     cg_event.obj
 0002:000024e8       ??_C@_0BA@OODKPEF@EV_WATER_CLEAR?6?$AA@ 300a14e8     cg_event.obj
 0002:000024f8       ??_C@_09OICPJII@?$CKgasp?4wav?$AA@ 300a14f8     cg_event.obj
 0002:00002504       ??_C@_0BA@LGJAHGJL@EV_ITEM_PICKUP?6?$AA@ 300a1504     cg_event.obj
 0002:00002514       ??_C@_0BH@BPJPNNOH@EV_GLOBAL_ITEM_PICKUP?6?$AA@ 300a1514     cg_event.obj
 0002:0000252c       ??_C@_0L@CIOCLBPP@EV_NOAMMO?6?$AA@ 300a152c     cg_event.obj
 0002:00002538       ??_C@_0BC@KBHMOJOO@EV_CHANGE_WEAPON?6?$AA@ 300a1538     cg_event.obj
 0002:0000254c       ??_C@_0BA@CJMMIDHE@EV_FIRE_WEAPON?6?$AA@ 300a154c     cg_event.obj
 0002:0000255c       ??_C@_0O@COHCPJPC@EV_USE_ITEM0?6?$AA@ 300a155c     cg_event.obj
 0002:0000256c       ??_C@_0O@CPLAJDMF@EV_USE_ITEM1?6?$AA@ 300a156c     cg_event.obj
 0002:0000257c       ??_C@_0O@CNPGCNJM@EV_USE_ITEM2?6?$AA@ 300a157c     cg_event.obj
 0002:0000258c       ??_C@_0O@CMDEEHKL@EV_USE_ITEM3?6?$AA@ 300a158c     cg_event.obj
 0002:0000259c       ??_C@_0O@CJHLFBCO@EV_USE_ITEM4?6?$AA@ 300a159c     cg_event.obj
 0002:000025ac       ??_C@_0O@CILJDLBJ@EV_USE_ITEM5?6?$AA@ 300a15ac     cg_event.obj
 0002:000025bc       ??_C@_0O@CKPPIFEA@EV_USE_ITEM6?6?$AA@ 300a15bc     cg_event.obj
 0002:000025cc       ??_C@_0O@CLDNOPHH@EV_USE_ITEM7?6?$AA@ 300a15cc     cg_event.obj
 0002:000025dc       ??_C@_0O@CAGBKIEK@EV_USE_ITEM8?6?$AA@ 300a15dc     cg_event.obj
 0002:000025ec       ??_C@_0O@CBKDMCHN@EV_USE_ITEM9?6?$AA@ 300a15ec     cg_event.obj
 0002:000025fc       ??_C@_0P@DIDCAOGA@EV_USE_ITEM10?6?$AA@ 300a15fc     cg_event.obj
 0002:0000260c       ??_C@_0P@DJPAGEFH@EV_USE_ITEM11?6?$AA@ 300a160c     cg_event.obj
 0002:0000261c       ??_C@_0P@DLLGNKAO@EV_USE_ITEM12?6?$AA@ 300a161c     cg_event.obj
 0002:0000262c       ??_C@_0P@DKHELADJ@EV_USE_ITEM13?6?$AA@ 300a162c     cg_event.obj
 0002:0000263c       ??_C@_0P@DPDLKGLM@EV_USE_ITEM14?6?$AA@ 300a163c     cg_event.obj
 0002:0000264c       ??_C@_0BH@EMPINMBK@EV_PLAYER_TELEPORT_IN?6?$AA@ 300a164c     cg_event.obj
 0002:00002664       ??_C@_0BI@GJLLMPKI@EV_PLAYER_TELEPORT_OUT?6?$AA@ 300a1664     cg_event.obj
 0002:0000267c       ??_C@_0N@PBHGFCFD@EV_ITEM_POP?6?$AA@ 300a167c     cg_event.obj
 0002:0000268c       ??_C@_0BB@JFDGENII@EV_ITEM_RESPAWN?6?$AA@ 300a168c     cg_event.obj
 0002:000026a0       ??_C@_0BD@EIBAGLKH@EV_GRENADE_BOUNCE?6?$AA@ 300a16a0     cg_event.obj
 0002:000026b4       ??_C@_0O@HHOHODHG@EV_SCOREPLUM?6?$AA@ 300a16b4     cg_event.obj
 0002:000026c4       ??_C@_0BA@IGKGMCOM@EV_MISSILE_HIT?6?$AA@ 300a16c4     cg_event.obj
 0002:000026d4       ??_C@_0BB@PNKCFMCO@EV_MISSILE_MISS?6?$AA@ 300a16d4     cg_event.obj
 0002:000026e8       ??_C@_0BH@JAOAMPDI@EV_MISSILE_MISS_METAL?6?$AA@ 300a16e8     cg_event.obj
 0002:00002700       ??_C@_0O@MHELMGMI@EV_RAILTRAIL?6?$AA@ 300a1700     cg_event.obj
 0002:00002710       ??_C@_0BE@DJCGNKAA@EV_BULLET_HIT_WALL?6?$AA@ 300a1710     cg_event.obj
 0002:00002724       ??_C@_0BF@PBJFDGOC@EV_BULLET_HIT_FLESH?6?$AA@ 300a1724     cg_event.obj
 0002:0000273c       ??_C@_0M@PGOOOLMB@EV_SHOTGUN?6?$AA@ 300a173c     cg_event.obj
 0002:00002748       ??_C@_0BC@BJDFIFFI@EV_GENERAL_SOUND?6?$AA@ 300a1748     cg_event.obj
 0002:0000275c       ??_C@_0BB@DOBOGIIM@EV_GLOBAL_SOUND?6?$AA@ 300a175c     cg_event.obj
 0002:00002770       ??_C@_0BG@DDNACAKH@EV_GLOBAL_TEAM_SOUND?6?$AA@ 300a1770     cg_event.obj
 0002:00002788       ??_C@_08MEMNOIPP@EV_PAIN?6?$AA@ 300a1788     cg_event.obj
 0002:00002794       ??_C@_0L@GGFIAEKN@EV_DEATHx?6?$AA@ 300a1794     cg_event.obj
 0002:000027a0       ??_C@_0N@OJAOIBLE@?$CKdeath?$CFi?4wav?$AA@ 300a17a0     cg_event.obj
 0002:000027b0       ??_C@_0N@NHOCPMCE@EV_OBITUARY?6?$AA@ 300a17b0     cg_event.obj
 0002:000027c0       ??_C@_0BB@BAEBNJML@EV_POWERUP_QUAD?6?$AA@ 300a17c0     cg_event.obj
 0002:000027d4       ??_C@_0BH@DMMEDNOI@EV_POWERUP_BATTLESUIT?6?$AA@ 300a17d4     cg_event.obj
 0002:000027ec       ??_C@_0BC@IEBIBNLE@EV_POWERUP_REGEN?6?$AA@ 300a17ec     cg_event.obj
 0002:00002800       ??_C@_0P@OAKOFJEN@EV_GIB_PLAYER?6?$AA@ 300a1800     cg_event.obj
 0002:00002810       ??_C@_0BF@JEGDHJFI@EV_STOPLOOPINGSOUND?6?$AA@ 300a1810     cg_event.obj
 0002:00002828       ??_C@_0P@DKFKJLCN@EV_DEBUG_LINE?6?$AA@ 300a1828     cg_event.obj
 0002:00002838       ??_C@_08GCOIMFOL@UNKNOWN?6?$AA@ 300a1838     cg_event.obj
 0002:00002844       ??_C@_0BC@OKELKAPM@Unknown?5event?3?5?$CFi?$AA@ 300a1844     cg_event.obj
 0002:00002858       ??_C@_05NCCFOPHA@model?$AA@ 300a1858     cg_info.obj
 0002:00002860       ??_C@_07DLHCIBDH@default?$AA@ 300a1860     cg_info.obj
 0002:00002868       ??_C@_0BO@BHADLJEM@models?1players?1?$CFs?1icon_?$CFs?4tga?$AA@ 300a1868     cg_info.obj
 0002:00002888       ??_C@_0CJ@KFDGMKIH@models?1players?1characters?1?$CFs?1ico@ 300a1888     cg_info.obj
 0002:000028b4       ??_C@_05PDPNFFJO@sarge?$AA@ 300a18b4     cg_info.obj
 0002:000028bc       ??_C@_0BN@PBJAICBL@sound?1player?1announce?1?$CFs?4wav?$AA@ 300a18bc     cg_info.obj
 0002:000028dc       ??_C@_07KMNEBLH@mapname?$AA@ 300a18dc     cg_info.obj
 0002:000028e4       ??_C@_0BC@PIIMIPAI@levelshots?1?$CFs?4tga?$AA@ 300a18e4     cg_info.obj
 0002:000028f8       ??_C@_0BE@JCMNICLJ@menu?1art?1unknownmap?$AA@ 300a18f8     cg_info.obj
 0002:0000290c       ??_C@_0BA@LBOAECOK@levelShotDetail?$AA@ 300a190c     cg_info.obj
 0002:0000291c       ??_C@_0O@BKHPEAJO@Loading?4?4?4?5?$CFs?$AA@ 300a191c     cg_info.obj
 0002:0000292c       ??_C@_0BF@NHPKANBN@Awaiting?5snapshot?4?4?4?$AA@ 300a192c     cg_info.obj
 0002:00002944       ??_C@_0L@MPAGGMDN@sv_running?$AA@ 300a1944     cg_info.obj
 0002:00002950       ??_C@_0M@NHCIKFPA@sv_hostname?$AA@ 300a1950     cg_info.obj
 0002:0000295c       ??_C@_07CAKOHKGL@sv_pure?$AA@ 300a195c     cg_info.obj
 0002:00002964       ??_C@_0M@POENFNKG@Pure?5Server?$AA@ 300a1964     cg_info.obj
 0002:00002970       ??_C@_09NFOPKLIK@sv_cheats?$AA@ 300a1970     cg_info.obj
 0002:0000297c       ??_C@_0BD@HCPEKLFD@CHEATS?5ARE?5ENABLED?$AA@ 300a197c     cg_info.obj
 0002:00002990       ??_C@_0O@NNAOEDOE@Single?5Player?$AA@ 300a1990     cg_info.obj
 0002:000029a0       ??_C@_0L@FENDKKGN@Tournament?$AA@ 300a19a0     cg_info.obj
 0002:000029ac       ??_C@_0BB@GMHGFHKF@Capture?5The?5Flag?$AA@ 300a19ac     cg_info.obj
 0002:000029c0       ??_C@_0BB@DMLMKGKN@Unknown?5Gametype?$AA@ 300a19c0     cg_info.obj
 0002:000029d4       ??_C@_09KPHKOKCC@timelimit?$AA@ 300a19d4     cg_info.obj
 0002:000029e0       ??_C@_0N@FADOKLO@timelimit?5?$CFi?$AA@ 300a19e0     cg_info.obj
 0002:000029f0       ??_C@_09GCIEGDDN@fraglimit?$AA@ 300a19f0     cg_info.obj
 0002:000029fc       ??_C@_0N@KCDNPCCH@fraglimit?5?$CFi?$AA@ 300a19fc     cg_info.obj
 0002:00002a0c       ??_C@_0N@FCAHJCDA@capturelimit?$AA@ 300a1a0c     cg_info.obj
 0002:00002a1c       ??_C@_0BA@NDPDGDCC@capturelimit?5?$CFi?$AA@ 300a1a1c     cg_info.obj
 0002:00002a2c       __real@40200000            300a1a2c     cg_info.obj
 0002:00002a30       ??_C@_0BP@HOJADAKE@CG_FreeLocalEntity?3?5not?5active?$AA@ 300a1a30     cg_localents.obj
 0002:00002a50       ??_C@_0P@JBCHHKP@Bad?5leType?3?5?$CFi?$AA@ 300a1a50     cg_localents.obj
 0002:00002a60       __real@3fd51eb851eb851f    300a1a60     cg_localents.obj
 0002:00002a68       __real@4020000000000000    300a1a68     cg_localents.obj
 0002:00002a70       __real@4030000000000000    300a1a70     cg_localents.obj
 0002:00002a78       __real@4045000000000000    300a1a78     cg_localents.obj
 0002:00002a80       __real@42dc0000            300a1a80     cg_localents.obj
 0002:00002a84       __real@447f0000            300a1a84     cg_localents.obj
 0002:00002a88       __real@c0000000            300a1a88     cg_localents.obj
 0002:00002a90       __real@c024000000000000    300a1a90     cg_localents.obj
 0002:00002a98       ??_C@_09JDMGBOIM@cg_ignore?$AA@ 300a1a98     cg_main.obj
 0002:00002aa4       ??_C@_0O@JKEEFDLF@cg_autoswitch?$AA@ 300a1aa4     cg_main.obj
 0002:00002ab4       ??_C@_0L@MLBFCMPB@cg_drawGun?$AA@ 300a1ab4     cg_main.obj
 0002:00002ac0       ??_C@_0L@DPFDGKBB@cg_zoomfov?$AA@ 300a1ac0     cg_main.obj
 0002:00002acc       ??_C@_04CIPMHKHC@22?45?$AA@ 300a1acc     cg_main.obj
 0002:00002ad4       ??_C@_06FDNMOLLD@cg_fov?$AA@ 300a1ad4     cg_main.obj
 0002:00002adc       ??_C@_02PEECMOAB@90?$AA@   300a1adc     cg_main.obj
 0002:00002ae0       ??_C@_0BE@EMBJACLB@cg_stereoSeparation?$AA@ 300a1ae0     cg_main.obj
 0002:00002af4       ??_C@_03KHGJEAFP@0?44?$AA@ 300a1af4     cg_main.obj
 0002:00002af8       ??_C@_0L@MAOLAFLC@cg_shadows?$AA@ 300a1af8     cg_main.obj
 0002:00002b04       ??_C@_07FFANGJCI@cg_gibs?$AA@ 300a1b04     cg_main.obj
 0002:00002b0c       ??_C@_09EKPCJMOG@cg_draw2D?$AA@ 300a1b0c     cg_main.obj
 0002:00002b18       ??_C@_0O@IIACNNIF@cg_drawStatus?$AA@ 300a1b18     cg_main.obj
 0002:00002b28       ??_C@_0N@FOINMAON@cg_drawTimer?$AA@ 300a1b28     cg_main.obj
 0002:00002b38       ??_C@_0L@CHMHIHCB@cg_drawFPS?$AA@ 300a1b38     cg_main.obj
 0002:00002b44       ??_C@_0BA@MIPMDAEB@cg_drawSnapshot?$AA@ 300a1b44     cg_main.obj
 0002:00002b54       ??_C@_0P@DMBICICD@cg_draw3dIcons?$AA@ 300a1b54     cg_main.obj
 0002:00002b64       ??_C@_0N@BEDCNPCC@cg_drawIcons?$AA@ 300a1b64     cg_main.obj
 0002:00002b74       ??_C@_0BD@FJPGADGN@cg_drawAmmoWarning?$AA@ 300a1b74     cg_main.obj
 0002:00002b88       ??_C@_0BA@HDEFAPDO@cg_drawAttacker?$AA@ 300a1b88     cg_main.obj
 0002:00002b98       ??_C@_0BB@KBADOJHA@cg_drawCrosshair?$AA@ 300a1b98     cg_main.obj
 0002:00002bac       ??_C@_01FAMBOPH@4?$AA@     300a1bac     cg_main.obj
 0002:00002bb0       ??_C@_0BG@PFLNOEEN@cg_drawCrosshairNames?$AA@ 300a1bb0     cg_main.obj
 0002:00002bc8       ??_C@_0P@GNHKLMJL@cg_drawRewards?$AA@ 300a1bc8     cg_main.obj
 0002:00002bd8       ??_C@_0BB@NJOFJDCL@cg_crosshairSize?$AA@ 300a1bd8     cg_main.obj
 0002:00002bec       ??_C@_02JMHLOEOE@24?$AA@   300a1bec     cg_main.obj
 0002:00002bf0       ??_C@_0BD@JJIJCGAH@cg_crosshairHealth?$AA@ 300a1bf0     cg_main.obj
 0002:00002c04       ??_C@_0O@IHFEICLM@cg_crosshairX?$AA@ 300a1c04     cg_main.obj
 0002:00002c14       ??_C@_0O@JOEPLDPN@cg_crosshairY?$AA@ 300a1c14     cg_main.obj
 0002:00002c24       ??_C@_0N@GADGJPHJ@cg_brassTime?$AA@ 300a1c24     cg_main.obj
 0002:00002c34       ??_C@_04NOOEDIPE@2500?$AA@ 300a1c34     cg_main.obj
 0002:00002c3c       ??_C@_0P@CCFIBNOJ@cg_simpleItems?$AA@ 300a1c3c     cg_main.obj
 0002:00002c4c       ??_C@_08OCDFECFG@cg_marks?$AA@ 300a1c4c     cg_main.obj
 0002:00002c58       ??_C@_0N@IBNNIGPC@cg_lagometer?$AA@ 300a1c58     cg_main.obj
 0002:00002c68       ??_C@_0BB@PPFMMLIA@cg_railTrailTime?$AA@ 300a1c68     cg_main.obj
 0002:00002c7c       ??_C@_03FKNPJMHG@400?$AA@  300a1c7c     cg_main.obj
 0002:00002c80       ??_C@_07DAKIIFAC@cg_gunX?$AA@ 300a1c80     cg_main.obj
 0002:00002c88       ??_C@_07CJLDLEED@cg_gunY?$AA@ 300a1c88     cg_main.obj
 0002:00002c90       ??_C@_07CJOOHIA@cg_gunZ?$AA@ 300a1c90     cg_main.obj
 0002:00002c98       ??_C@_0O@CMEJDJHP@cg_centertime?$AA@ 300a1c98     cg_main.obj
 0002:00002ca8       ??_C@_01EKENIIDA@3?$AA@    300a1ca8     cg_main.obj
 0002:00002cac       ??_C@_0M@JHJCCBOJ@cg_runpitch?$AA@ 300a1cac     cg_main.obj
 0002:00002cb8       ??_C@_05NIGIBNE@0?4002?$AA@ 300a1cb8     cg_main.obj
 0002:00002cc0       ??_C@_0L@MJJHGKNK@cg_runroll?$AA@ 300a1cc0     cg_main.obj
 0002:00002ccc       ??_C@_05ECMHBHBD@0?4005?$AA@ 300a1ccc     cg_main.obj
 0002:00002cd4       ??_C@_08MBNPMEME@cg_bobup?$AA@ 300a1cd4     cg_main.obj
 0002:00002ce0       ??_C@_0M@BBIJCEAP@cg_bobpitch?$AA@ 300a1ce0     cg_main.obj
 0002:00002cec       ??_C@_0L@BEAFIAK@cg_bobroll?$AA@ 300a1cec     cg_main.obj
 0002:00002cf8       ??_C@_0O@NLMPFCHA@cg_swingSpeed?$AA@ 300a1cf8     cg_main.obj
 0002:00002d08       ??_C@_03OICINGJI@0?43?$AA@ 300a1d08     cg_main.obj
 0002:00002d0c       ??_C@_0N@EMGODPLM@cg_animspeed?$AA@ 300a1d0c     cg_main.obj
 0002:00002d1c       ??_C@_0N@OLFHJPEJ@cg_debuganim?$AA@ 300a1d1c     cg_main.obj
 0002:00002d2c       ??_C@_0BB@PNGPLJB@cg_debugposition?$AA@ 300a1d2c     cg_main.obj
 0002:00002d40       ??_C@_0P@NKGOJNHN@cg_debugevents?$AA@ 300a1d40     cg_main.obj
 0002:00002d50       ??_C@_0O@MAANEMBM@cg_errordecay?$AA@ 300a1d50     cg_main.obj
 0002:00002d60       ??_C@_0N@BMAKLHMK@cg_nopredict?$AA@ 300a1d60     cg_main.obj
 0002:00002d70       ??_C@_0BB@HOMHKKFN@cg_noplayeranims?$AA@ 300a1d70     cg_main.obj
 0002:00002d84       ??_C@_0M@DOMGGLDE@cg_showmiss?$AA@ 300a1d84     cg_main.obj
 0002:00002d90       ??_C@_0N@GHAOKDNB@cg_footsteps?$AA@ 300a1d90     cg_main.obj
 0002:00002da0       ??_C@_0BA@DJBDPKKA@cg_tracerchance?$AA@ 300a1da0     cg_main.obj
 0002:00002db0       ??_C@_0P@ENCNJBFG@cg_tracerwidth?$AA@ 300a1db0     cg_main.obj
 0002:00002dc0       ??_C@_0BA@CAFKIKHE@cg_tracerlength?$AA@ 300a1dc0     cg_main.obj
 0002:00002dd0       ??_C@_02PMJKFNFC@40?$AA@   300a1dd0     cg_main.obj
 0002:00002dd4       ??_C@_0BA@FOMJOJCG@cg_teamChatTime?$AA@ 300a1dd4     cg_main.obj
 0002:00002de4       ??_C@_04NEFKOBHG@3000?$AA@ 300a1de4     cg_main.obj
 0002:00002dec       ??_C@_0BC@JPKKPJNB@cg_teamChatHeight?$AA@ 300a1dec     cg_main.obj
 0002:00002e00       ??_C@_0O@LJBBKNGE@cg_forceModel?$AA@ 300a1e00     cg_main.obj
 0002:00002e10       ??_C@_0BA@PKAEEJJB@cg_predictItems?$AA@ 300a1e10     cg_main.obj
 0002:00002e20       ??_C@_0BA@PFOJHBKN@cg_deferPlayers?$AA@ 300a1e20     cg_main.obj
 0002:00002e30       ??_C@_0BD@BNGDPIGC@cg_drawTeamOverlay?$AA@ 300a1e30     cg_main.obj
 0002:00002e44       ??_C@_0M@IKKMOBIP@teamoverlay?$AA@ 300a1e44     cg_main.obj
 0002:00002e50       ??_C@_08CGDPCFHD@cg_stats?$AA@ 300a1e50     cg_main.obj
 0002:00002e5c       ??_C@_0O@KGJIDOMN@cg_drawFriend?$AA@ 300a1e5c     cg_main.obj
 0002:00002e6c       ??_C@_0BB@GFOCPFOA@cg_teamChatsOnly?$AA@ 300a1e6c     cg_main.obj
 0002:00002e80       ??_C@_0BA@DGINBIDE@cg_noVoiceChats?$AA@ 300a1e80     cg_main.obj
 0002:00002e90       ??_C@_0P@HEADOJJM@cg_noVoiceText?$AA@ 300a1e90     cg_main.obj
 0002:00002ea0       ??_C@_0BA@MOHNLIKA@com_buildScript?$AA@ 300a1ea0     cg_main.obj
 0002:00002eb0       ??_C@_09DIABHAFB@cl_paused?$AA@ 300a1eb0     cg_main.obj
 0002:00002ebc       ??_C@_09DKNLLEN@com_blood?$AA@ 300a1ebc     cg_main.obj
 0002:00002ec8       ??_C@_0BF@LICFCALK@g_synchronousClients?$AA@ 300a1ec8     cg_main.obj
 0002:00002ee0       ??_C@_0BE@EKDKKKAP@cg_cameraOrbitDelay?$AA@ 300a1ee0     cg_main.obj
 0002:00002ef4       ??_C@_02PNFIDHGF@50?$AA@   300a1ef4     cg_main.obj
 0002:00002ef8       ??_C@_0BE@INLNOCBP@cg_timescaleFadeEnd?$AA@ 300a1ef8     cg_main.obj
 0002:00002f0c       ??_C@_0BG@HODAAIBP@cg_timescaleFadeSpeed?$AA@ 300a1f0c     cg_main.obj
 0002:00002f24       ??_C@_09IIOBMIO@timescale?$AA@ 300a1f24     cg_main.obj
 0002:00002f30       ??_C@_0O@ECBGLFLJ@cg_scorePlums?$AA@ 300a1f30     cg_main.obj
 0002:00002f40       ??_C@_0BB@EPNKMEEL@cg_smoothClients?$AA@ 300a1f40     cg_main.obj
 0002:00002f54       ??_C@_0P@EIAPFKBF@com_cameraMode?$AA@ 300a1f54     cg_main.obj
 0002:00002f64       ??_C@_0M@HOGKGHBI@pmove_fixed?$AA@ 300a1f64     cg_main.obj
 0002:00002f70       ??_C@_0L@JLBEBBAD@pmove_msec?$AA@ 300a1f70     cg_main.obj
 0002:00002f7c       ??_C@_01KJLJFBPL@8?$AA@    300a1f7c     cg_main.obj
 0002:00002f80       ??_C@_0L@BNLHLPGL@cg_noTaunt?$AA@ 300a1f80     cg_main.obj
 0002:00002f8c       ??_C@_0BF@IHAIMPIG@cg_noProjectileTrail?$AA@ 300a1f8c     cg_main.obj
 0002:00002fa4       ??_C@_0N@CLDCAIAI@ui_smallFont?$AA@ 300a1fa4     cg_main.obj
 0002:00002fb4       ??_C@_04FNMPJLCB@0?425?$AA@ 300a1fb4     cg_main.obj
 0002:00002fbc       ??_C@_0L@LPOJJAMJ@ui_bigFont?$AA@ 300a1fbc     cg_main.obj
 0002:00002fc8       ??_C@_0L@FKCBCOIH@cg_oldRail?$AA@ 300a1fc8     cg_main.obj
 0002:00002fd4       ??_C@_0N@EADGKNDD@cg_oldRocket?$AA@ 300a1fd4     cg_main.obj
 0002:00002fe4       ??_C@_0N@IHPGFFAI@cg_oldPlasma?$AA@ 300a1fe4     cg_main.obj
 0002:00002ff4       ??_C@_0BB@DCJMDHFD@cg_trueLightning?$AA@ 300a1ff4     cg_main.obj
 0002:00003008       ??_C@_03MDAFIFFL@0?40?$AA@ 300a2008     cg_main.obj
 0002:0000300c       ??_C@_0BI@NODEBLMA@gfx?12d?1numbers?1zero_32b?$AA@ 300a200c     cg_main.obj
 0002:00003024       ??_C@_0BH@GPBOJLFB@gfx?12d?1numbers?1one_32b?$AA@ 300a2024     cg_main.obj
 0002:0000303c       ??_C@_0BH@BNBCEMFH@gfx?12d?1numbers?1two_32b?$AA@ 300a203c     cg_main.obj
 0002:00003054       ??_C@_0BJ@KKKEIAHG@gfx?12d?1numbers?1three_32b?$AA@ 300a2054     cg_main.obj
 0002:00003070       ??_C@_0BI@HPOPJJKG@gfx?12d?1numbers?1four_32b?$AA@ 300a2070     cg_main.obj
 0002:00003088       ??_C@_0BI@JGLLLIJP@gfx?12d?1numbers?1five_32b?$AA@ 300a2088     cg_main.obj
 0002:000030a0       ??_C@_0BH@DOOFJAPO@gfx?12d?1numbers?1six_32b?$AA@ 300a20a0     cg_main.obj
 0002:000030b8       ??_C@_0BJ@FHLKICGB@gfx?12d?1numbers?1seven_32b?$AA@ 300a20b8     cg_main.obj
 0002:000030d4       ??_C@_0BJ@OILFPBFC@gfx?12d?1numbers?1eight_32b?$AA@ 300a20d4     cg_main.obj
 0002:000030f0       ??_C@_0BI@HJFCMICO@gfx?12d?1numbers?1nine_32b?$AA@ 300a20f0     cg_main.obj
 0002:00003108       ??_C@_0BJ@PPCBGHDL@gfx?12d?1numbers?1minus_32b?$AA@ 300a2108     cg_main.obj
 0002:00003124       ??_C@_0BL@MDCOCEP@vmMain?3?5unknown?5command?5?$CFi?$AA@ 300a2124     cg_main.obj
 0002:00003140       ??_C@_09DHBBGOBJ@headmodel?$AA@ 300a2140     cg_main.obj
 0002:0000314c       ??_C@_0L@KEDOKIKJ@team_model?$AA@ 300a214c     cg_main.obj
 0002:00003158       ??_C@_0P@JMIBMNM@team_headmodel?$AA@ 300a2158     cg_main.obj
 0002:00003168       ??_C@_02DKCKIIND@?$CFs?$AA@ 300a2168     cg_main.obj
 0002:0000316c       ??_C@_0CJ@CMOPAMCG@PrecacheItem?3?5?$CFs?5has?5bad?5precach@ 300a216c     cg_main.obj
 0002:00003198       ??_C@_03BICDMHKB@wav?$AA@  300a2198     cg_main.obj
 0002:0000319c       ??_C@_0BM@GFEGEKEP@sound?1feedback?11_minute?4wav?$AA@ 300a219c     cg_main.obj
 0002:000031b8       ??_C@_0BM@KFPPCANJ@sound?1feedback?15_minute?4wav?$AA@ 300a21b8     cg_main.obj
 0002:000031d4       ??_C@_0CA@MIDPIFA@sound?1feedback?1sudden_death?4wav?$AA@ 300a21d4     cg_main.obj
 0002:000031f4       ??_C@_0BK@OBKGIBHG@sound?1feedback?11_frag?4wav?$AA@ 300a21f4     cg_main.obj
 0002:00003210       ??_C@_0BL@FOHEHFCN@sound?1feedback?12_frags?4wav?$AA@ 300a2210     cg_main.obj
 0002:0000322c       ??_C@_0BL@MFNBDJEC@sound?1feedback?13_frags?4wav?$AA@ 300a222c     cg_main.obj
 0002:00003248       ??_C@_0BJ@BMGLCFHO@sound?1feedback?1three?4wav?$AA@ 300a2248     cg_main.obj
 0002:00003264       ??_C@_0BH@IKFNOJCO@sound?1feedback?1two?4wav?$AA@ 300a2264     cg_main.obj
 0002:0000327c       ??_C@_0BH@PIFBDOCI@sound?1feedback?1one?4wav?$AA@ 300a227c     cg_main.obj
 0002:00003294       ??_C@_0BJ@LFENOPFJ@sound?1feedback?1fight?4wav?$AA@ 300a2294     cg_main.obj
 0002:000032b0       ??_C@_0BL@OKIMFPPI@sound?1feedback?1prepare?4wav?$AA@ 300a22b0     cg_main.obj
 0002:000032cc       ??_C@_0CI@PGKAABCI@sound?1teamplay?1flagcapture_yourt@ 300a22cc     cg_main.obj
 0002:000032f4       ??_C@_0BM@MOIOEAMK@sound?1feedback?1redleads?4wav?$AA@ 300a22f4     cg_main.obj
 0002:00003310       ??_C@_0BN@KNKFAPML@sound?1feedback?1blueleads?4wav?$AA@ 300a2310     cg_main.obj
 0002:00003330       ??_C@_0BN@HMCOLEK@sound?1feedback?1teamstied?4wav?$AA@ 300a2330     cg_main.obj
 0002:00003350       ??_C@_0CA@NGJNFJDA@sound?1feedback?1hit_teammate?4wav?$AA@ 300a2350     cg_main.obj
 0002:00003370       ??_C@_0CC@JMEMACMF@sound?1teamplay?1voc_red_scores?4wa@ 300a2370     cg_main.obj
 0002:00003394       ??_C@_0CD@KLDPFGFG@sound?1teamplay?1voc_blue_scores?4w@ 300a2394     cg_main.obj
 0002:000033b8       ??_C@_0CI@NELGEHON@sound?1teamplay?1flagcapture_oppon@ 300a23b8     cg_main.obj
 0002:000033e0       ??_C@_0CH@GPMKLIFJ@sound?1teamplay?1flagreturn_yourte@ 300a23e0     cg_main.obj
 0002:00003408       ??_C@_0CH@ENNMPOJM@sound?1teamplay?1flagreturn_oppone@ 300a2408     cg_main.obj
 0002:00003430       ??_C@_0CG@PPKEHJCF@sound?1teamplay?1flagtaken_yourtea@ 300a2430     cg_main.obj
 0002:00003458       ??_C@_0CG@NNLCDPOA@sound?1teamplay?1flagtaken_opponen@ 300a2458     cg_main.obj
 0002:00003480       ??_C@_0CE@LLBNHHJG@sound?1teamplay?1voc_red_returned?4@ 300a2480     cg_main.obj
 0002:000034a4       ??_C@_0CF@INHHAMNB@sound?1teamplay?1voc_blue_returned@ 300a24a4     cg_main.obj
 0002:000034cc       ??_C@_0CC@BAGJBDIN@sound?1teamplay?1voc_enemy_flag?4wa@ 300a24cc     cg_main.obj
 0002:000034f0       ??_C@_0CB@NCMOABK@sound?1teamplay?1voc_team_flag?4wav@ 300a24f0     cg_main.obj
 0002:00003514       ??_C@_0CA@HNMMFEAI@sound?1teamplay?1voc_you_flag?4wav?$AA@ 300a2514     cg_main.obj
 0002:00003534       ??_C@_0CA@JIIPPEEH@sound?1feedback?1voc_holyshit?4wav?$AA@ 300a2534     cg_main.obj
 0002:00003554       ??_C@_0CC@MDHGHHAG@sound?1teamplay?1voc_team_1flag?4wa@ 300a2554     cg_main.obj
 0002:00003578       ??_C@_0CD@KNAADEBC@sound?1teamplay?1voc_enemy_1flag?4w@ 300a2578     cg_main.obj
 0002:0000359c       ??_C@_0CG@FIPFLECJ@sound?1weapons?1machinegun?1buletby@ 300a259c     cg_main.obj
 0002:000035c4       ??_C@_0BJ@EFMFEOAN@sound?1weapons?1change?4wav?$AA@ 300a25c4     cg_main.obj
 0002:000035e0       ??_C@_0BI@CHMBGLDC@sound?1items?1wearoff?4wav?$AA@ 300a25e0     cg_main.obj
 0002:000035f8       ??_C@_0BM@OECMCAJK@sound?1items?1use_nothing?4wav?$AA@ 300a25f8     cg_main.obj
 0002:00003614       ??_C@_0BK@DOOOBPFM@sound?1player?1gibsplt1?4wav?$AA@ 300a2614     cg_main.obj
 0002:00003630       ??_C@_0BJ@FBCIMJLB@sound?1player?1gibimp1?4wav?$AA@ 300a2630     cg_main.obj
 0002:0000364c       ??_C@_0BJ@NHLMLLBP@sound?1player?1gibimp2?4wav?$AA@ 300a264c     cg_main.obj
 0002:00003668       ??_C@_0BJ@BMOAGILK@sound?1player?1gibimp3?4wav?$AA@ 300a2668     cg_main.obj
 0002:00003684       ??_C@_0BH@EJCDOPNG@sound?1world?1telein?4wav?$AA@ 300a2684     cg_main.obj
 0002:0000369c       ??_C@_0BI@EBCHHAFA@sound?1world?1teleout?4wav?$AA@ 300a269c     cg_main.obj
 0002:000036b4       ??_C@_0BJ@LOHBFELN@sound?1items?1respawn1?4wav?$AA@ 300a26b4     cg_main.obj
 0002:000036d0       ??_C@_0BJ@OHOJGDLI@sound?1weapons?1noammo?4wav?$AA@ 300a26d0     cg_main.obj
 0002:000036ec       ??_C@_0BG@MOPKJEGA@sound?1player?1talk?4wav?$AA@ 300a26ec     cg_main.obj
 0002:00003704       ??_C@_0BH@BPJFFDHG@sound?1player?1land1?4wav?$AA@ 300a2704     cg_main.obj
 0002:0000371c       ??_C@_0BH@PPLJNIIB@sound?1feedback?1hit?4wav?$AA@ 300a271c     cg_main.obj
 0002:00003734       ??_C@_0BO@HFFLOFKH@sound?1feedback?1impressive?4wav?$AA@ 300a2734     cg_main.obj
 0002:00003754       ??_C@_0BN@MOGPPGAM@sound?1feedback?1excellent?4wav?$AA@ 300a2754     cg_main.obj
 0002:00003774       ??_C@_0BK@HPEMDLDJ@sound?1feedback?1denied?4wav?$AA@ 300a2774     cg_main.obj
 0002:00003790       ??_C@_0BP@GOCIBAEN@sound?1feedback?1humiliation?4wav?$AA@ 300a2790     cg_main.obj
 0002:000037b0       ??_C@_0BK@HOPMGIJN@sound?1feedback?1assist?4wav?$AA@ 300a27b0     cg_main.obj
 0002:000037cc       ??_C@_0BL@BAGIPNBG@sound?1feedback?1defense?4wav?$AA@ 300a27cc     cg_main.obj
 0002:000037e8       ??_C@_0BN@PBCHFDJF@sound?1feedback?1takenlead?4wav?$AA@ 300a27e8     cg_main.obj
 0002:00003808       ??_C@_0BM@NNDKOIIH@sound?1feedback?1tiedlead?4wav?$AA@ 300a2808     cg_main.obj
 0002:00003824       ??_C@_0BM@LNOOLHLA@sound?1feedback?1lostlead?4wav?$AA@ 300a2824     cg_main.obj
 0002:00003840       ??_C@_0BJ@CLKANPDE@sound?1player?1watr_in?4wav?$AA@ 300a2840     cg_main.obj
 0002:0000385c       ??_C@_0BK@PEBHADE@sound?1player?1watr_out?4wav?$AA@ 300a285c     cg_main.obj
 0002:00003878       ??_C@_0BJ@ILNOCJIO@sound?1player?1watr_un?4wav?$AA@ 300a2878     cg_main.obj
 0002:00003894       ??_C@_0BI@DGLBHPLI@sound?1world?1jumppad?4wav?$AA@ 300a2894     cg_main.obj
 0002:000038ac       ??_C@_0CC@LNDAOHOB@sound?1player?1footsteps?1step?$CFi?4wa@ 300a28ac     cg_main.obj
 0002:000038d0       ??_C@_0CC@BMGCACJB@sound?1player?1footsteps?1boot?$CFi?4wa@ 300a28d0     cg_main.obj
 0002:000038f4       ??_C@_0CD@GNKAFNDH@sound?1player?1footsteps?1flesh?$CFi?4w@ 300a28f4     cg_main.obj
 0002:00003918       ??_C@_0CC@FFJILBOO@sound?1player?1footsteps?1mech?$CFi?4wa@ 300a2918     cg_main.obj
 0002:0000393c       ??_C@_0CE@GKFIFOMA@sound?1player?1footsteps?1energy?$CFi?4@ 300a293c     cg_main.obj
 0002:00003960       ??_C@_0CE@GNHKDPID@sound?1player?1footsteps?1splash?$CFi?4@ 300a2960     cg_main.obj
 0002:00003984       ??_C@_0CD@CPOICIJI@sound?1player?1footsteps?1clank?$CFi?4w@ 300a2984     cg_main.obj
 0002:000039a8       ??_C@_0BI@NNKBCBOK@sound?1items?1damage3?4wav?$AA@ 300a29a8     cg_main.obj
 0002:000039c0       ??_C@_0CC@FENOCDBN@sound?1weapons?1machinegun?1ric1?4wa@ 300a29c0     cg_main.obj
 0002:000039e4       ??_C@_0CC@NCEKFBLD@sound?1weapons?1machinegun?1ric2?4wa@ 300a29e4     cg_main.obj
 0002:00003a08       ??_C@_0CC@BJBGICBG@sound?1weapons?1machinegun?1ric3?4wa@ 300a2a08     cg_main.obj
 0002:00003a2c       ??_C@_0CD@BFPOBJCL@sound?1weapons?1railgun?1railgf1a?4w@ 300a2a2c     cg_main.obj
 0002:00003a50       ??_C@_0CC@GHLEALEG@sound?1weapons?1rocket?1rocklx1a?4wa@ 300a2a50     cg_main.obj
 0002:00003a74       ??_C@_0CC@JCODPDKN@sound?1weapons?1plasma?1plasmx1a?4wa@ 300a2a74     cg_main.obj
 0002:00003a98       ??_C@_0BJ@CANBBPKF@sound?1items?1protect3?4wav?$AA@ 300a2a98     cg_main.obj
 0002:00003ab4       ??_C@_0CD@HAIKBKOI@sound?1weapons?1grenade?1hgrenb1a?4w@ 300a2ab4     cg_main.obj
 0002:00003ad8       ??_C@_0CD@EBGCAAHF@sound?1weapons?1grenade?1hgrenb2a?4w@ 300a2ad8     cg_main.obj
 0002:00003afc       ??_C@_0L@EDDEHNPC@game?5media?$AA@ 300a2afc     cg_main.obj
 0002:00003b08       ??_C@_0BE@DKNNEAFH@menu?1art?1skill1?4tga?$AA@ 300a2b08     cg_main.obj
 0002:00003b1c       ??_C@_0BE@LMEJDCPJ@menu?1art?1skill2?4tga?$AA@ 300a2b1c     cg_main.obj
 0002:00003b30       ??_C@_0BE@HHBFOBFM@menu?1art?1skill3?4tga?$AA@ 300a2b30     cg_main.obj
 0002:00003b44       ??_C@_0BE@GKBANBOE@menu?1art?1skill4?4tga?$AA@ 300a2b44     cg_main.obj
 0002:00003b58       ??_C@_0BE@KBEMACEB@menu?1art?1skill5?4tga?$AA@ 300a2b58     cg_main.obj
 0002:00003b6c       ??_C@_0P@IMGKCNMO@viewBloodBlend?$AA@ 300a2b6c     cg_main.obj
 0002:00003b7c       ??_C@_0BB@OIENEINL@gfx?12d?1defer?4tga?$AA@ 300a2b7c     cg_main.obj
 0002:00003b90       ??_C@_0BC@FCBJHGEN@menu?1tab?1name?4tga?$AA@ 300a2b90     cg_main.obj
 0002:00003ba4       ??_C@_0BC@JJNOEPIN@menu?1tab?1ping?4tga?$AA@ 300a2ba4     cg_main.obj
 0002:00003bb8       ??_C@_0BD@DJDOFAFI@menu?1tab?1score?4tga?$AA@ 300a2bb8     cg_main.obj
 0002:00003bcc       ??_C@_0BC@LIBCKFBH@menu?1tab?1time?4tga?$AA@ 300a2bcc     cg_main.obj
 0002:00003be0       ??_C@_09GPGLBPNG@smokePuff?$AA@ 300a2be0     cg_main.obj
 0002:00003bec       ??_C@_0BB@LHMIJHPJ@smokePuffRagePro?$AA@ 300a2bec     cg_main.obj
 0002:00003c00       ??_C@_0BB@FPJBCPAO@shotgunSmokePuff?$AA@ 300a2c00     cg_main.obj
 0002:00003c14       ??_C@_0BA@PMLAEFDB@sprites?1plasma1?$AA@ 300a2c14     cg_main.obj
 0002:00003c24       ??_C@_0L@LLCKKMKM@bloodTrail?$AA@ 300a2c24     cg_main.obj
 0002:00003c30       ??_C@_09GJJGLCPD@lagometer?$AA@ 300a2c30     cg_main.obj
 0002:00003c3c       ??_C@_0N@GGGDBMDO@disconnected?$AA@ 300a2c3c     cg_main.obj
 0002:00003c4c       ??_C@_0M@OBGACBNG@waterBubble?$AA@ 300a2c4c     cg_main.obj
 0002:00003c58       ??_C@_0BA@LPLLBJPM@gfx?1misc?1tracer?$AA@ 300a2c58     cg_main.obj
 0002:00003c68       ??_C@_0O@MHPONILH@gfx?12d?1select?$AA@ 300a2c68     cg_main.obj
 0002:00003c78       ??_C@_0BD@PPPBDMEH@gfx?12d?1crosshair?$CFc?$AA@ 300a2c78     cg_main.obj
 0002:00003c8c       ??_C@_0BA@PJMLIFEA@gfx?12d?1backtile?$AA@ 300a2c8c     cg_main.obj
 0002:00003c9c       ??_C@_0N@COAENKOL@icons?1noammo?$AA@ 300a2c9c     cg_main.obj
 0002:00003cac       ??_C@_0O@IDIMMBII@powerups?1quad?$AA@ 300a2cac     cg_main.obj
 0002:00003cbc       ??_C@_0BE@KLLJIGAB@powerups?1quadWeapon?$AA@ 300a2cbc     cg_main.obj
 0002:00003cd0       ??_C@_0BE@NKPPFPFJ@powerups?1battleSuit?$AA@ 300a2cd0     cg_main.obj
 0002:00003ce4       ??_C@_0BG@GANDEAKN@powerups?1battleWeapon?$AA@ 300a2ce4     cg_main.obj
 0002:00003cfc       ??_C@_0BG@BGIMBFCE@powerups?1invisibility?$AA@ 300a2cfc     cg_main.obj
 0002:00003d14       ??_C@_0P@NKEDBBDN@powerups?1regen?$AA@ 300a2d14     cg_main.obj
 0002:00003d24       ??_C@_0P@IJPLAABH@hasteSmokePuff?$AA@ 300a2d24     cg_main.obj
 0002:00003d34       ??_C@_0BO@LDKNFLC@models?1powerups?1orb?1r_orb?4md3?$AA@ 300a2d34     cg_main.obj
 0002:00003d54       ??_C@_0BO@CMJEFEFK@models?1powerups?1orb?1b_orb?4md3?$AA@ 300a2d54     cg_main.obj
 0002:00003d74       ??_C@_0BA@OMPBBNIO@icons?1skull_red?$AA@ 300a2d74     cg_main.obj
 0002:00003d84       ??_C@_0BB@BCGKNBJH@icons?1skull_blue?$AA@ 300a2d84     cg_main.obj
 0002:00003d98       ??_C@_0BB@GHKJEHCM@icons?1iconf_red2?$AA@ 300a2d98     cg_main.obj
 0002:00003dac       ??_C@_0BB@HOLCHGGN@icons?1iconf_red3?$AA@ 300a2dac     cg_main.obj
 0002:00003dc0       ??_C@_0BB@GHKFFGGD@icons?1iconf_blu2?$AA@ 300a2dc0     cg_main.obj
 0002:00003dd4       ??_C@_0BB@HOLOGHCC@icons?1iconf_blu3?$AA@ 300a2dd4     cg_main.obj
 0002:00003de8       ??_C@_0M@FBFPNKIP@sprites?1foe?$AA@ 300a2de8     cg_main.obj
 0002:00003df4       ??_C@_0BC@PBFIMOJD@powerups?1blueflag?$AA@ 300a2df4     cg_main.obj
 0002:00003e08       ??_C@_0BE@MEJHIMJO@gfx?12d?1colorbar?4tga?$AA@ 300a2e08     cg_main.obj
 0002:00003e1c       ??_C@_0CD@LDBBEFLC@models?1weapons2?1shells?1m_shell?4m@ 300a2e1c     cg_main.obj
 0002:00003e40       ??_C@_0CD@FGDIHLFA@models?1weapons2?1shells?1s_shell?4m@ 300a2e40     cg_main.obj
 0002:00003e64       ??_C@_0BI@KACGLCGL@models?1gibs?1abdomen?4md3?$AA@ 300a2e64     cg_main.obj
 0002:00003e7c       ??_C@_0BE@GJNHALAL@models?1gibs?1arm?4md3?$AA@ 300a2e7c     cg_main.obj
 0002:00003e90       ??_C@_0BG@HOCHIPGC@models?1gibs?1chest?4md3?$AA@ 300a2e90     cg_main.obj
 0002:00003ea8       ??_C@_0BF@LHDMLCCD@models?1gibs?1fist?4md3?$AA@ 300a2ea8     cg_main.obj
 0002:00003ec0       ??_C@_0BF@NBCNENBO@models?1gibs?1foot?4md3?$AA@ 300a2ec0     cg_main.obj
 0002:00003ed8       ??_C@_0BI@NDPGKIHD@models?1gibs?1forearm?4md3?$AA@ 300a2ed8     cg_main.obj
 0002:00003ef0       ??_C@_0BK@EGFHPFIO@models?1gibs?1intestine?4md3?$AA@ 300a2ef0     cg_main.obj
 0002:00003f0c       ??_C@_0BE@PBDAJPPM@models?1gibs?1leg?4md3?$AA@ 300a2f0c     cg_main.obj
 0002:00003f20       ??_C@_0BG@GCKMGPLF@models?1gibs?1skull?4md3?$AA@ 300a2f20     cg_main.obj
 0002:00003f38       ??_C@_0BG@ENKCMADE@models?1gibs?1brain?4md3?$AA@ 300a2f38     cg_main.obj
 0002:00003f50       ??_C@_0BB@NCNCDGDJ@sprites?1balloon3?$AA@ 300a2f50     cg_main.obj
 0002:00003f64       ??_C@_0P@JNFBEAMD@bloodExplosion?$AA@ 300a2f64     cg_main.obj
 0002:00003f74       ??_C@_0BL@KJKOFMEH@models?1weaphits?1bullet?4md3?$AA@ 300a2f74     cg_main.obj
 0002:00003f90       ??_C@_0BL@OBLKOCFL@models?1weaphits?1ring02?4md3?$AA@ 300a2f90     cg_main.obj
 0002:00003fac       ??_C@_0BL@ECHNCMPC@models?1weaphits?1boom01?4md3?$AA@ 300a2fac     cg_main.obj
 0002:00003fc8       ??_C@_0BG@MIEMONNI@models?1misc?1telep?4md3?$AA@ 300a2fc8     cg_main.obj
 0002:00003fe0       ??_C@_0P@HDJNFJNH@teleportEffect?$AA@ 300a2fe0     cg_main.obj
 0002:00003ff0       ??_C@_0CC@ICGGEAGG@models?1powerups?1shield?1shield?4md@ 300a2ff0     cg_main.obj
 0002:00004014       ??_C@_0BB@OCKBIFDG@medal_impressive?$AA@ 300a3014     cg_main.obj
 0002:00004028       ??_C@_0BA@PLFOJPJ@medal_excellent?$AA@ 300a3028     cg_main.obj
 0002:00004038       ??_C@_0P@CBAOAFEF@medal_gauntlet?$AA@ 300a3038     cg_main.obj
 0002:00004048       ??_C@_0N@JPEODKCB@medal_defend?$AA@ 300a3048     cg_main.obj
 0002:00004058       ??_C@_0N@KEBDHBDI@medal_assist?$AA@ 300a3058     cg_main.obj
 0002:00004068       ??_C@_0O@LNEKLMGE@medal_capture?$AA@ 300a3068     cg_main.obj
 0002:00004078       ??_C@_0BG@FPMKOIGF@gfx?1damage?1bullet_mrk?$AA@ 300a3078     cg_main.obj
 0002:00004090       ??_C@_0BI@HAJPOEDB@gfx?1damage?1burn_med_mrk?$AA@ 300a3090     cg_main.obj
 0002:000040a8       ??_C@_0BH@NJDKADCK@gfx?1damage?1hole_lg_mrk?$AA@ 300a30a8     cg_main.obj
 0002:000040c0       ??_C@_0BG@EGMLCGNC@gfx?1damage?1plasma_mrk?$AA@ 300a30c0     cg_main.obj
 0002:000040d8       ??_C@_0L@KHLAIOEE@markShadow?$AA@ 300a30d8     cg_main.obj
 0002:000040e4       ??_C@_04KNLNBPHI@wake?$AA@ 300a30e4     cg_main.obj
 0002:000040ec       ??_C@_09GGOFPAOP@bloodMark?$AA@ 300a30ec     cg_main.obj
 0002:000040f8       ??_C@_03JLINDLFM@?$CK?$CFi?$AA@ 300a30f8     cg_main.obj
 0002:000040fc       ??_C@_07DNFNGBFM@?$CFs?5?5?5?5?5?$AA@ 300a30fc     cg_main.obj
 0002:00004104       ??_C@_0BP@KAAOENNK@CG_ConfigString?3?5bad?5index?3?5?$CFi?$AA@ 300a3104     cg_main.obj
 0002:00004124       ??_C@_0BA@FILGFBEK@gfx?12d?1bigchars?$AA@ 300a3124     cg_main.obj
 0002:00004134       ??_C@_05PMAELIEO@white?$AA@ 300a3134     cg_main.obj
 0002:0000413c       ??_C@_0BI@JNLIGCIJ@menu?1art?1font1_prop?4tga?$AA@ 300a313c     cg_main.obj
 0002:00004154       ??_C@_0BM@PPJDNIIP@menu?1art?1font1_prop_glo?4tga?$AA@ 300a3154     cg_main.obj
 0002:00004170       ??_C@_0BI@EFKAEII@menu?1art?1font2_prop?4tga?$AA@ 300a3170     cg_main.obj
 0002:00004188       ??_C@_08CCHPPKDI@baseq3?91?$AA@ 300a3188     cg_main.obj
 0002:00004194       ??_C@_0CD@GOCPBDLD@Client?1Server?5game?5mismatch?3?5?$CFs?1@ 300a3194     cg_main.obj
 0002:000041b8       ??_C@_0O@IKDCOHPA@collision?5map?$AA@ 300a31b8     cg_main.obj
 0002:000041c8       ??_C@_06OHLGPBPO@sounds?$AA@ 300a31c8     cg_main.obj
 0002:000041d0       ??_C@_08EIINAAAI@graphics?$AA@ 300a31d0     cg_main.obj
 0002:000041dc       ??_C@_07HKJFGNHJ@clients?$AA@ 300a31dc     cg_main.obj
 0002:000041e8       __real@407e000000000000    300a31e8     cg_main.obj
 0002:000041f0       __real@4084000000000000    300a31f0     cg_main.obj
 0002:000041f8       __real@bf800000            300a31f8     cg_main.obj
 0002:000041fc       ??_C@_08MEIODECE@explode1?$AA@ 300a31fc     cg_marks.obj
 0002:00004208       ??_C@_0CG@NBPMFGF@CG_ImpactMark?5called?5with?5?$DM?$DN?50?5r@ 300a3208     cg_marks.obj
 0002:00004230       ??_C@_04MDMPPDAB@?$CFs?$CFi?$AA@ 300a3230     cg_marks.obj
 0002:00004238       ??_C@_0CI@CKGHJCDF@CG_ParticleSnowFlurry?5pshader?5?$DN?$DN@ 300a3238     cg_marks.obj
 0002:00004260       ??_C@_0CC@DIFPPKPM@CG_ParticleSnow?5pshader?5?$DN?$DN?5ZERO?$CB@ 300a3260     cg_marks.obj
 0002:00004284       ??_C@_0BL@MLDGCJII@CG_ParticleSmoke?5?$DN?$DN?5ZERO?$CB?6?$AA@ 300a3284     cg_marks.obj
 0002:000042a0       ??_C@_0EI@EKMNKCC@CG_ParticleExplosion?3?5animStr?5is@ 300a32a0     cg_marks.obj
 0002:000042e8       ??_C@_0DE@LHPJKLJP@CG_ParticleExplosion?3?5unknown?5an@ 300a32e8     cg_marks.obj
 0002:0000431c       ??_C@_0CN@HAOPCKBM@CG_ParticleImpactSmokePuff?5pshad@ 300a331c     cg_marks.obj
 0002:0000434c       ??_C@_0CE@FDMOADGI@CG_Particle_Bleed?5pshader?5?$DN?$DN?5ZER@ 300a334c     cg_marks.obj
 0002:00004370       ??_C@_0CC@KJEJNONH@CG_Particle_OilParticle?5?$DN?$DN?5ZERO?$CB@ 300a3370     cg_marks.obj
 0002:00004394       ??_C@_0BP@LFCJGJJN@CG_Particle_OilSlick?5?$DN?$DN?5ZERO?$CB?6?$AA@ 300a3394     cg_marks.obj
 0002:000043b4       ??_C@_0BL@DDKPPMGF@CG_OilSlickRevove?5NULL?5id?6?$AA@ 300a33b4     cg_marks.obj
 0002:000043d0       ??_C@_0BP@PNDEBGI@CG_BloodPool?5pshader?5?$DN?$DN?5ZERO?$CB?6?$AA@ 300a33d0     cg_marks.obj
 0002:000043f0       __real@3e4ccccd            300a33f0     cg_marks.obj
 0002:000043f4       __real@3e6147ae            300a33f4     cg_marks.obj
 0002:000043f8       __real@3e800000            300a33f8     cg_marks.obj
 0002:000043fc       __real@3f666666            300a33fc     cg_marks.obj
 0002:00004400       __real@3f7ff972            300a3400     cg_marks.obj
 0002:00004408       __real@3fd999999999999a    300a3408     cg_marks.obj
 0002:00004410       __real@3fe199999999999a    300a3410     cg_marks.obj
 0002:00004418       __real@3fe3333333333333    300a3418     cg_marks.obj
 0002:00004420       __real@3feccccccccccccd    300a3420     cg_marks.obj
 0002:00004428       __real@4024000000000000    300a3428     cg_marks.obj
 0002:00004430       __real@4049000000000000    300a3430     cg_marks.obj
 0002:00004438       __real@4066600000000000    300a3438     cg_marks.obj
 0002:00004440       __real@407c200000000000    300a3440     cg_marks.obj
 0002:00004448       __real@407f400000000000    300a3448     cg_marks.obj
 0002:00004450       __real@40a7700000000000    300a3450     cg_marks.obj
 0002:00004458       __real@40ab580000000000    300a3458     cg_marks.obj
 0002:00004460       __real@42820000            300a3460     cg_marks.obj
 0002:00004464       __real@42c00000            300a3464     cg_marks.obj
 0002:00004468       __real@43000000            300a3468     cg_marks.obj
 0002:0000446c       __real@44bb8000            300a346c     cg_marks.obj
 0002:00004470       __real@45800000            300a3470     cg_marks.obj
 0002:00004478       __real@bff0000000000000    300a3478     cg_marks.obj
 0002:00004480       __real@c1a00000            300a3480     cg_marks.obj
 0002:00004484       __real@c2820000            300a3484     cg_marks.obj
 0002:00004488       ??_C@_0M@NPLIKKH@?$CKdeath1?4wav?$AA@ 300a3488     cg_players.obj
 0002:00004494       ??_C@_0M@ILGPPIAJ@?$CKdeath2?4wav?$AA@ 300a3494     cg_players.obj
 0002:000044a0       ??_C@_0M@EADDCLKM@?$CKdeath3?4wav?$AA@ 300a34a0     cg_players.obj
 0002:000044ac       ??_C@_0O@LBBMLEKM@?$CKfalling1?4wav?$AA@ 300a34ac     cg_players.obj
 0002:000044bc       ??_C@_0L@FMIBJCKG@?$CKdrown?4wav?$AA@ 300a34bc     cg_players.obj
 0002:000044c8       ??_C@_0BJ@HBJEEGKP@Unknown?5custom?5sound?3?5?$CFs?$AA@ 300a34c8     cg_players.obj
 0002:000044e4       ??_C@_0BC@NFDFKMPA@File?5?$CFs?5too?5long?6?$AA@ 300a34e4     cg_players.obj
 0002:000044f8       ??_C@_09IPEFJHNA@footsteps?$AA@ 300a34f8     cg_players.obj
 0002:00004504       ??_C@_06IKLLLDHL@normal?$AA@ 300a3504     cg_players.obj
 0002:0000450c       ??_C@_04LBLCPLHF@boot?$AA@ 300a350c     cg_players.obj
 0002:00004514       ??_C@_05DLDJBIMA@flesh?$AA@ 300a3514     cg_players.obj
 0002:0000451c       ??_C@_04LDDCCIPJ@mech?$AA@ 300a351c     cg_players.obj
 0002:00004524       ??_C@_06KKGCKCNJ@energy?$AA@ 300a3524     cg_players.obj
 0002:0000452c       ??_C@_0BO@KPCLPKFJ@Bad?5footsteps?5parm?5in?5?$CFs?3?5?$CFs?6?$AA@ 300a352c     cg_players.obj
 0002:0000454c       ??_C@_0L@JPPMCFBB@headoffset?$AA@ 300a354c     cg_players.obj
 0002:00004558       ??_C@_03OMLNFKE@sex?$AA@   300a3558     cg_players.obj
 0002:0000455c       ??_C@_09BMKCBKIH@fixedlegs?$AA@ 300a355c     cg_players.obj
 0002:00004568       ??_C@_0L@FDFHPMAL@fixedtorso?$AA@ 300a3568     cg_players.obj
 0002:00004574       ??_C@_0BK@CGODILEM@unknown?5token?5?8?$CFs?8?5is?5?$CFs?6?$AA@ 300a3574     cg_players.obj
 0002:00004590       ??_C@_0CB@CMKGLJDL@Error?5parsing?5animation?5file?3?5?$CFs@ 300a3590     cg_players.obj
 0002:000045b4       ??_C@_04OBGPFBCN@blue?$AA@ 300a35b4     cg_players.obj
 0002:000045bc       ??_C@_03FAAAOPJM@red?$AA@  300a35bc     cg_players.obj
 0002:000045c0       ??_C@_0CC@DEGJNDKJ@models?1players?1?$CFs?$CFs?1?$CFs?$CFs_?$CFs_?$CFs?4?$CF@ 300a35c0     cg_players.obj
 0002:000045e4       ??_C@_0CA@EELEKOBE@models?1players?1?$CFs?$CFs?1?$CFs_?$CFs_?$CFs?4?$CFs?$AA@ 300a35e4     cg_players.obj
 0002:00004604       ??_C@_0BP@EDGPHBII@models?1players?1?$CFs?$CFs?1?$CFs?$CFs_?$CFs?4?$CFs?$AA@ 300a3604     cg_players.obj
 0002:00004624       ??_C@_0BN@EDIIPDOB@models?1players?1?$CFs?$CFs?1?$CFs_?$CFs?4?$CFs?$AA@ 300a3624     cg_players.obj
 0002:00004644       ??_C@_0M@DDGCLDMM@characters?1?$AA@ 300a3644     cg_players.obj
 0002:00004650       ??_C@_06NGEOGMCH@heads?1?$AA@ 300a3650     cg_players.obj
 0002:00004658       ??_C@_0CC@BLDEMPPB@models?1players?1?$CFs?$CFs?1?$CFs?1?$CFs?$CFs_?$CFs?4?$CF@ 300a3658     cg_players.obj
 0002:0000467c       ??_C@_0CA@LCPNCLIM@models?1players?1?$CFs?$CFs?1?$CFs?1?$CFs_?$CFs?4?$CFs?$AA@ 300a367c     cg_players.obj
 0002:0000469c       ??_C@_04NHPAFEHJ@skin?$AA@ 300a369c     cg_players.obj
 0002:000046a4       ??_C@_05IPJEPLHL@lower?$AA@ 300a36a4     cg_players.obj
 0002:000046ac       ??_C@_0BL@NBGPNFJF@Leg?5skin?5load?5failure?3?5?$CFs?6?$AA@ 300a36ac     cg_players.obj
 0002:000046c8       ??_C@_05NECKJAMC@upper?$AA@ 300a36c8     cg_players.obj
 0002:000046d0       ??_C@_0BN@BAPBAPJE@Torso?5skin?5load?5failure?3?5?$CFs?6?$AA@ 300a36d0     cg_players.obj
 0002:000046f0       ??_C@_04NEODDMOL@head?$AA@ 300a36f0     cg_players.obj
 0002:000046f8       ??_C@_0BM@CECLOEIL@Head?5skin?5load?5failure?3?5?$CFs?6?$AA@ 300a36f8     cg_players.obj
 0002:00004714       ??_C@_0BM@MMDCMNND@models?1players?1?$CFs?1lower?4md3?$AA@ 300a3714     cg_players.obj
 0002:00004730       ??_C@_0CH@LMILJCAL@models?1players?1characters?1?$CFs?1low@ 300a3730     cg_players.obj
 0002:00004758       ??_C@_0BO@KKNKOPB@Failed?5to?5load?5model?5file?5?$CFs?6?$AA@ 300a3758     cg_players.obj
 0002:00004778       ??_C@_0BM@GODFODEI@models?1players?1?$CFs?1upper?4md3?$AA@ 300a3778     cg_players.obj
 0002:00004794       ??_C@_0CH@BOIMLMJA@models?1players?1characters?1?$CFs?1upp@ 300a3794     cg_players.obj
 0002:000047bc       ??_C@_0BP@KFHLABFJ@models?1players?1heads?1?$CFs?1?$CFs?4md3?$AA@ 300a37bc     cg_players.obj
 0002:000047dc       ??_C@_0BL@MHNDFDC@models?1players?1?$CFs?1head?4md3?$AA@ 300a37dc     cg_players.obj
 0002:000047f8       ??_C@_0DB@JFHOKPOB@Failed?5to?5load?5skin?5file?3?5?$CFs?5?3?5?$CF@ 300a37f8     cg_players.obj
 0002:0000482c       ??_C@_06GMDNOCON@Pagans?$AA@ 300a382c     cg_players.obj
 0002:00004834       ??_C@_03NPMJBIL@?$CFs?1?$AA@ 300a3834     cg_players.obj
 0002:00004838       ??_C@_07OLKAFEPH@Stroggs?$AA@ 300a3838     cg_players.obj
 0002:00004840       ??_C@_0CM@NJHANNLM@Failed?5to?5load?5skin?5file?3?5?$CFs?5?3?5?$CF@ 300a3840     cg_players.obj
 0002:0000486c       ??_C@_0CA@MLIOIMKH@models?1players?1?$CFs?1animation?4cfg?$AA@ 300a386c     cg_players.obj
 0002:0000488c       ??_C@_0CL@CKIMBAJB@models?1players?1characters?1?$CFs?1ani@ 300a388c     cg_players.obj
 0002:000048b8       ??_C@_0CC@BDJGDBLP@Failed?5to?5load?5animation?5file?5?$CFs@ 300a38b8     cg_players.obj
 0002:000048dc       ??_C@_04DMJJIPAH@icon?$AA@ 300a38dc     cg_players.obj
 0002:000048e4       ??_C@_03LJIJAGL@tga?$AA@   300a38e4     cg_players.obj
 0002:000048e8       ??_C@_0DH@DLIOIGIN@CG_RegisterClientModelname?$CI?5?$CFs?0?5@ 300a38e8     cg_players.obj
 0002:00004920       ??_C@_0DF@GJHBNGJF@DEFAULT_TEAM_MODEL?5?1?5skin?5?$CI?$CFs?1?$CFs@ 300a3920     cg_players.obj
 0002:00004958       ??_C@_0CG@NFMPGJHJ@DEFAULT_MODEL?5?$CI?$CFs?$CJ?5failed?5to?5reg@ 300a3958     cg_players.obj
 0002:00004980       ??_C@_08BPBKIHMF@tag_flag?$AA@ 300a3980     cg_players.obj
 0002:0000498c       ??_C@_0BD@NDLIHGFC@sound?1player?1?$CFs?1?$CFs?$AA@ 300a398c     cg_players.obj
 0002:000049a0       ??_C@_0CN@PBDGFPPP@CG_SetDeferredClientInfo?3?5no?5val@ 300a39a0     cg_players.obj
 0002:000049d0       ??_C@_02IMHCFECG@c1?$AA@   300a39d0     cg_players.obj
 0002:000049d4       ??_C@_02KHFPAHOF@c2?$AA@   300a39d4     cg_players.obj
 0002:000049d8       ??_C@_05ODMCMJAJ@skill?$AA@ 300a39d8     cg_players.obj
 0002:000049e0       ??_C@_02IKKIEBB@hc?$AA@    300a39e0     cg_players.obj
 0002:000049e4       ??_C@_01NOFIACDB@w?$AA@    300a39e4     cg_players.obj
 0002:000049e8       ??_C@_01HHGOMJKL@l?$AA@    300a39e8     cg_players.obj
 0002:000049ec       ??_C@_01PFHFFBPC@t?$AA@    300a39ec     cg_players.obj
 0002:000049f0       ??_C@_02BIBFFKJD@tt?$AA@   300a39f0     cg_players.obj
 0002:000049f4       ??_C@_02JKAOMCMK@tl?$AA@   300a39f4     cg_players.obj
 0002:000049f8       ??_C@_09LPNHELAH@g_redteam?$AA@ 300a39f8     cg_players.obj
 0002:00004a04       ??_C@_0L@CPNMJIBN@g_blueteam?$AA@ 300a3a04     cg_players.obj
 0002:00004a10       ??_C@_06EGNCJDCP@hmodel?$AA@ 300a3a10     cg_players.obj
 0002:00004a18       ??_C@_0CH@OIHGELEA@Memory?5is?5low?4?5?5Using?5deferred?5m@ 300a3a18     cg_players.obj
 0002:00004a40       ??_C@_0BJ@OHDPKGG@Bad?5animation?5number?3?5?$CFi?$AA@ 300a3a40     cg_players.obj
 0002:00004a5c       ??_C@_09JCEMHLHC@Anim?3?5?$CFi?6?$AA@ 300a3a5c     cg_players.obj
 0002:00004a68       ??_C@_0BF@IBAKKNBL@Clamp?5lf?9?$DOframeTime?6?$AA@ 300a3a68     cg_players.obj
 0002:00004a80       ??_C@_0BK@GAIDHALI@Bad?5player?5movement?5angle?$AA@ 300a3a80     cg_players.obj
 0002:00004a9c       ??_C@_0BP@EEHJJPLA@Bad?5clientNum?5on?5player?5entity?$AA@ 300a3a9c     cg_players.obj
 0002:00004abc       ??_C@_09FJEJHBEN@tag_torso?$AA@ 300a3abc     cg_players.obj
 0002:00004ac8       ??_C@_08PGAPCFON@tag_head?$AA@ 300a3ac8     cg_players.obj
 0002:00004ad4       ??_C@_0BN@FKDGBGEH@?$CFi?5ResetPlayerEntity?5yaw?$DN?$CFi?6?$AA@ 300a3ad4     cg_players.obj
 0002:00004af4       __real@3d4ccccd            300a3af4     cg_players.obj
 0002:00004af8       __real@3e19999a            300a3af8     cg_players.obj
 0002:00004afc       __real@41c80000            300a3afc     cg_players.obj
 0002:00004b00       __real@c3b40000            300a3b00     cg_players.obj
 0002:00004b04       ??_C@_0CC@NIDOAJN@WARNING?3?5changed?5predicted?5event@ 300a3b04     cg_playerstate.obj
 0002:00004b28       __real@4044000000000000    300a3b28     cg_playerstate.obj
 0002:00004b30       __real@406fe00000000000    300a3b30     cg_playerstate.obj
 0002:00004b38       ??_C@_0CE@JCAHPAJ@exceeded?5PACKET_BACKUP?5on?5comman@ 300a3b38     cg_predict.obj
 0002:00004b5c       ??_C@_02NCPIBIBE@33?$AA@   300a3b5c     cg_predict.obj
 0002:00004b60       ??_C@_0BE@DPKKIGLP@PredictionTeleport?6?$AA@ 300a3b60     cg_predict.obj
 0002:00004b74       ??_C@_0BC@GIKLPGML@prediction?5error?6?$AA@ 300a3b74     cg_predict.obj
 0002:00004b88       ??_C@_0BF@BBGFLFIG@Prediction?5miss?3?5?$CFf?6?$AA@ 300a3b88     cg_predict.obj
 0002:00004ba0       ??_C@_0BN@HNLMAFPF@Double?5prediction?5decay?3?5?$CFf?6?$AA@ 300a3ba0     cg_predict.obj
 0002:00004bc0       ??_C@_0L@NKHFPHNI@?$FL?$CFi?5?3?5?$CFi?$FN?5?$AA@ 300a3bc0     cg_predict.obj
 0002:00004bcc       ??_C@_0L@DOJHFFNN@not?5moved?6?$AA@ 300a3bcc     cg_predict.obj
 0002:00004bd8       ??_C@_0BI@ELMKHMCD@WARNING?3?5dropped?5event?6?$AA@ 300a3bd8     cg_predict.obj
 0002:00004bf0       ??_C@_0BH@JOJLKMBP@WARNING?3?5double?5event?6?$AA@ 300a3bf0     cg_predict.obj
 0002:00004c08       ??_C@_0BH@DLHNHBEG@Bad?5score?9?$DOclient?3?5?$CFi?6?$AA@ 300a3c08     cg_scoreboard.obj
 0002:00004c20       ??_C@_05PPJGDEGI@?$CFi?1?$CFi?$AA@ 300a3c20     cg_scoreboard.obj
 0002:00004c28       ??_C@_0BC@EIJNNBMO@?5connecting?5?5?5?5?$CFs?$AA@ 300a3c28     cg_scoreboard.obj
 0002:00004c3c       ??_C@_0BC@HAIDHOJD@?5SPECT?5?$CF3i?5?$CF4i?5?$CFs?$AA@ 300a3c3c     cg_scoreboard.obj
 0002:00004c50       ??_C@_0P@LOMDEOFI@?$CF5i?5?$CF4i?5?$CF4i?5?$CFs?$AA@ 300a3c50     cg_scoreboard.obj
 0002:00004c60       ??_C@_05KACKNMMA@READY?$AA@ 300a3c60     cg_scoreboard.obj
 0002:00004c68       ??_C@_0O@BCAEDBLM@Fragged?5by?5?$CFs?$AA@ 300a3c68     cg_scoreboard.obj
 0002:00004c78       ??_C@_0BB@IIGPLNFH@?$CFs?5place?5with?5?$CFi?$AA@ 300a3c78     cg_scoreboard.obj
 0002:00004c8c       ??_C@_0BF@GPCPNFAF@Teams?5are?5tied?5at?5?$CFi?$AA@ 300a3c8c     cg_scoreboard.obj
 0002:00004ca4       ??_C@_0BD@KNNGDKPF@Red?5leads?5?$CFi?5to?5?$CFi?$AA@ 300a3ca4     cg_scoreboard.obj
 0002:00004cb8       ??_C@_0BE@IPIDHCFO@Blue?5leads?5?$CFi?5to?5?$CFi?$AA@ 300a3cb8     cg_scoreboard.obj
 0002:00004ccc       ??_C@_0L@HAPFDNKJ@Scoreboard?$AA@ 300a3ccc     cg_scoreboard.obj
 0002:00004cd8       ??_C@_08PNCBJLHJ@Red?5Team?$AA@ 300a3cd8     cg_scoreboard.obj
 0002:00004ce4       ??_C@_09FONCBBOD@Blue?5Team?$AA@ 300a3ce4     cg_scoreboard.obj
 0002:00004cf0       __real@41880000            300a3cf0     cg_scoreboard.obj
 0002:00004cf4       __real@43300000            300a3cf4     cg_scoreboard.obj
 0002:00004cf8       __real@43840000            300a3cf8     cg_scoreboard.obj
 0002:00004cfc       __real@43ac0000            300a3cfc     cg_scoreboard.obj
 0002:00004d00       __real@43d00000            300a3d00     cg_scoreboard.obj
 0002:00004d04       __real@44000000            300a3d04     cg_scoreboard.obj
 0002:00004d54       ??_C@_07NOFDDIA@getflag?$AA@ 300a3d54     cg_servercmds.obj
 0002:00004d5c       ??_C@_07GBMLDGPP@offense?$AA@ 300a3d5c     cg_servercmds.obj
 0002:00004d64       ??_C@_06BMABBLML@defend?$AA@ 300a3d64     cg_servercmds.obj
 0002:00004d6c       ??_C@_0L@LIAONOLJ@defendflag?$AA@ 300a3d6c     cg_servercmds.obj
 0002:00004d78       ??_C@_06KPEKKPL@patrol?$AA@ 300a3d78     cg_servercmds.obj
 0002:00004d80       ??_C@_04LOFLEJM@camp?$AA@  300a3d80     cg_servercmds.obj
 0002:00004d88       ??_C@_08LJGLPHPA@followme?$AA@ 300a3d88     cg_servercmds.obj
 0002:00004d94       ??_C@_0L@BCFFODB@returnflag?$AA@ 300a3d94     cg_servercmds.obj
 0002:00004da0       ??_C@_0BC@HILCMIJJ@followflagcarrier?$AA@ 300a3da0     cg_servercmds.obj
 0002:00004db4       ??_C@_0L@GFINLBEC@g_gametype?$AA@ 300a3db4     cg_servercmds.obj
 0002:00004dc0       ??_C@_07GMGCLCAP@dmflags?$AA@ 300a3dc0     cg_servercmds.obj
 0002:00004dc8       ??_C@_09ELHMOKHN@teamflags?$AA@ 300a3dc8     cg_servercmds.obj
 0002:00004dd4       ??_C@_0O@OCOCOONB@sv_maxclients?$AA@ 300a3dd4     cg_servercmds.obj
 0002:00004de4       ??_C@_0M@DKNJHPLK@maps?1?$CFs?4bsp?$AA@ 300a3de4     cg_servercmds.obj
 0002:00004df0       ??_C@_09HOBGGEAD@g_redTeam?$AA@ 300a3df0     cg_servercmds.obj
 0002:00004dfc       ??_C@_0L@OOBNLHBJ@g_blueTeam?$AA@ 300a3dfc     cg_servercmds.obj
 0002:00004e08       ??_C@_01NEMOKFLO@?$DN?$AA@ 300a3e08     cg_servercmds.obj
 0002:00004e0c       ??_C@_01JLIPDDHJ@?3?$AA@   300a3e0c     cg_servercmds.obj
 0002:00004e10       ??_C@_01EOFPKCAF@?$EA?$AA@ 300a3e10     cg_servercmds.obj
 0002:00004e14       ??_C@_0P@HFBEHELF@CG_MapRestart?6?$AA@ 300a3e14     cg_servercmds.obj
 0002:00004e24       ??_C@_06DOEGFMGC@FIGHT?$CB?$AA@ 300a3e24     cg_servercmds.obj
 0002:00004e2c       ??_C@_0CB@LCNFPPPE@?$FO1voice?5chat?5file?5not?5found?3?5?$CFs?6@ 300a3e2c     cg_servercmds.obj
 0002:00004e50       ??_C@_0DJ@DIHCICBL@?$FO1voice?5chat?5file?5too?5large?3?5?$CFs?5@ 300a3e50     cg_servercmds.obj
 0002:00004e8c       ??_C@_06GJLDEJIL@female?$AA@ 300a3e8c     cg_servercmds.obj
 0002:00004e94       ??_C@_04ICKCIGNO@male?$AA@ 300a3e94     cg_servercmds.obj
 0002:00004e9c       ??_C@_06GHFJMDBL@neuter?$AA@ 300a3e9c     cg_servercmds.obj
 0002:00004ea4       ??_C@_0DE@LFCGMCMO@?$FO1expected?5gender?5not?5found?5in?5v@ 300a3ea4     cg_servercmds.obj
 0002:00004ed8       ??_C@_01HCONENDN@?$HL?$AA@ 300a3ed8     cg_servercmds.obj
 0002:00004edc       ??_C@_0CO@OOFJHLNN@?$FO1expected?5?$HL?5found?5?$CFs?5in?5voice?5c@ 300a3edc     cg_servercmds.obj
 0002:00004f0c       ??_C@_01CELHOKLL@?$HN?$AA@ 300a3f0c     cg_servercmds.obj
 0002:00004f10       ??_C@_0BG@EAMJLLDA@scripts?1female1?4voice?$AA@ 300a3f10     cg_servercmds.obj
 0002:00004f28       ??_C@_0BG@MOEGLMND@scripts?1female2?4voice?$AA@ 300a3f28     cg_servercmds.obj
 0002:00004f40       ??_C@_0BG@COMLMEN@scripts?1female3?4voice?$AA@ 300a3f40     cg_servercmds.obj
 0002:00004f58       ??_C@_0BE@CJHDAPPO@scripts?1male1?4voice?$AA@ 300a3f58     cg_servercmds.obj
 0002:00004f6c       ??_C@_0BE@KHPMAIBN@scripts?1male2?4voice?$AA@ 300a3f6c     cg_servercmds.obj
 0002:00004f80       ??_C@_0BE@GLFGAIID@scripts?1male3?4voice?$AA@ 300a3f80     cg_servercmds.obj
 0002:00004f94       ??_C@_0BE@GBJDABJK@scripts?1male4?4voice?$AA@ 300a3f94     cg_servercmds.obj
 0002:00004fa8       ??_C@_0BE@KNDJABAE@scripts?1male5?4voice?$AA@ 300a3fa8     cg_servercmds.obj
 0002:00004fbc       ??_C@_0BN@NIPMNCMN@voice?5chat?5memory?5size?5?$DN?5?$CFd?6?$AA@ 300a3fbc     cg_servercmds.obj
 0002:00004fdc       ??_C@_05GFOLEBJA@?$CFs?1?$CFs?$AA@ 300a3fdc     cg_servercmds.obj
 0002:00004fe4       ??_C@_0O@BPOFCDLG@scripts?1?$CFs?4vc?$AA@ 300a3fe4     cg_servercmds.obj
 0002:00004ff4       ??_C@_02GFBACKGC@cp?$AA@   300a3ff4     cg_servercmds.obj
 0002:00004ff8       ??_C@_02EODNHJKB@cs?$AA@   300a3ff8     cg_servercmds.obj
 0002:00004ffc       ??_C@_05IJDJACGD@print?$AA@ 300a3ffc     cg_servercmds.obj
 0002:00005004       ??_C@_04BLJLMHHG@chat?$AA@ 300a4004     cg_servercmds.obj
 0002:0000500c       ??_C@_03OFAPEBGM@?$CFs?6?$AA@ 300a400c     cg_servercmds.obj
 0002:00005010       ??_C@_05PMMINOBP@tchat?$AA@ 300a4010     cg_servercmds.obj
 0002:00005018       ??_C@_05LBAAHPBE@vchat?$AA@ 300a4018     cg_servercmds.obj
 0002:00005020       ??_C@_06FPNOEFND@vtchat?$AA@ 300a4020     cg_servercmds.obj
 0002:00005028       ??_C@_06KBCJDMLG@scores?$AA@ 300a4028     cg_servercmds.obj
 0002:00005030       ??_C@_05DPGKEEHN@tinfo?$AA@ 300a4030     cg_servercmds.obj
 0002:00005038       ??_C@_0M@NBIMEKNE@map_restart?$AA@ 300a4038     cg_servercmds.obj
 0002:00005044       ??_C@_0M@BLBAMFDN@remapShader?$AA@ 300a4044     cg_servercmds.obj
 0002:00005050       ??_C@_0BA@GNMFKLDC@clientLevelShot?$AA@ 300a4050     cg_servercmds.obj
 0002:00005060       ??_C@_0CB@KPHIIGNM@Unknown?5client?5game?5command?3?5?$CFs?6@ 300a4060     cg_servercmds.obj
 0002:00005084       ??_C@_0CE@BCLPNDDL@CG_TransitionSnapshot?3?5NULL?5cg?4s@ 300a4084     cg_snapshot.obj
 0002:000050a8       ??_C@_0CI@JDFDPIEH@CG_TransitionSnapshot?3?5NULL?5cg?4n@ 300a40a8     cg_snapshot.obj
 0002:000050d0       ??_C@_0DI@DABDJKNL@WARNING?3?5CG_ReadNextSnapshot?3?5wa@ 300a40d0     cg_snapshot.obj
 0002:00005108       ??_C@_0CO@FFJEMNFE@CG_ProcessSnapshots?3?5n?5?$DM?5cg?4late@ 300a4108     cg_snapshot.obj
 0002:00005138       ??_C@_0DA@GODLLJKJ@CG_ProcessSnapshots?3?5Server?5time@ 300a4138     cg_snapshot.obj
 0002:00005168       ??_C@_0CF@EPBFNJFD@CG_ProcessSnapshots?3?5cg?4snap?5?$DN?$DN?5@ 300a4168     cg_snapshot.obj
 0002:00005190       ??_C@_0DI@NCDIEGIG@CG_ProcessSnapshots?3?5cg?4nextSnap@ 300a4190     cg_snapshot.obj
 0002:000051c8       ??_C@_0BG@GCFGCMGP@Can?8t?5register?5model?6?$AA@ 300a41c8     cg_view.obj
 0002:000051e0       ??_C@_09FLAEHDCJ@frame?5?$CFi?6?$AA@ 300a41e0     cg_view.obj
 0002:000051ec       ??_C@_08JKENKHJN@skin?5?$CFi?6?$AA@ 300a41ec     cg_view.obj
 0002:000051f8       ??_C@_02PJNFELNH@30?$AA@   300a41f8     cg_view.obj
 0002:000051fc       ??_C@_02NJPGOMH@?$CFf?$AA@ 300a41fc     cg_view.obj
 0002:00005200       ??_C@_0BD@PLOBIDP@cg?4clientFrame?3?$CFi?6?$AA@ 300a4200     cg_view.obj
 0002:00005218       __real@4040000000000000    300a4218     cg_view.obj
 0002:00005220       __real@4052c00000000000    300a4220     cg_view.obj
 0002:00005228       __real@40c00000            300a4228     cg_view.obj
 0002:0000522c       __real@43160000            300a422c     cg_view.obj
 0002:00005230       __real@43200000            300a4230     cg_view.obj
 0002:00005234       __real@43c80000            300a4234     cg_view.obj
 0002:00005238       __real@43e10000            300a4238     cg_view.obj
 0002:00005240       __real@c04ca5dc00000000    300a4240     cg_view.obj
 0002:00005248       ??_C@_0BI@JJFMDMDC@Couldn?8t?5find?5weapon?5?$CFi?$AA@ 300a4248     cg_weapons.obj
 0002:00005260       ??_C@_0L@DAPODOKF@_flash?4md3?$AA@ 300a4260     cg_weapons.obj
 0002:0000526c       ??_C@_0M@GGMINFPA@_barrel?4md3?$AA@ 300a426c     cg_weapons.obj
 0002:00005278       ??_C@_09OLHEALFG@_hand?4md3?$AA@ 300a4278     cg_weapons.obj
 0002:00005284       ??_C@_0CJ@PEFFPDCJ@models?1weapons2?1shotgun?1shotgun_@ 300a4284     cg_weapons.obj
 0002:000052b0       ??_C@_0BP@BOHFALII@sound?1weapons?1melee?1fstrun?4wav?$AA@ 300a42b0     cg_weapons.obj
 0002:000052d0       ??_C@_0CA@KEKFDEFA@sound?1weapons?1melee?1fstatck?4wav?$AA@ 300a42d0     cg_weapons.obj
 0002:000052f0       ??_C@_0BP@HFJKFEMF@sound?1weapons?1melee?1fsthum?4wav?$AA@ 300a42f0     cg_weapons.obj
 0002:00005310       ??_C@_0CD@IOHDBJGJ@sound?1weapons?1lightning?1lg_hum?4w@ 300a4310     cg_weapons.obj
 0002:00005334       ??_C@_0CE@DECINOH@sound?1weapons?1lightning?1lg_fire?4@ 300a4334     cg_weapons.obj
 0002:00005358       ??_C@_0BB@FHMAJPD@lightningBoltNew?$AA@ 300a4358     cg_weapons.obj
 0002:0000536c       ??_C@_0BM@KLCPGNMA@models?1weaphits?1crackle?4md3?$AA@ 300a436c     cg_weapons.obj
 0002:00005388       ??_C@_0CD@KNELMIA@sound?1weapons?1lightning?1lg_hit?4w@ 300a4388     cg_weapons.obj
 0002:000053ac       ??_C@_0CE@LJNLFLAA@sound?1weapons?1lightning?1lg_hit2?4@ 300a43ac     cg_weapons.obj
 0002:000053d0       ??_C@_0CE@HCIHIIKF@sound?1weapons?1lightning?1lg_hit3?4@ 300a43d0     cg_weapons.obj
 0002:000053f4       ??_C@_0BO@BLENFKPL@models?1ammo?1rocket?1rocket?4md3?$AA@ 300a43f4     cg_weapons.obj
 0002:00005414       ??_C@_0CG@PKGEPJOA@sound?1weapons?1machinegun?1machgf1@ 300a4414     cg_weapons.obj
 0002:0000543c       ??_C@_0CG@MLIMODHN@sound?1weapons?1machinegun?1machgf2@ 300a443c     cg_weapons.obj
 0002:00005464       ??_C@_0CG@GNPLOIMJ@sound?1weapons?1machinegun?1machgf3@ 300a4464     cg_weapons.obj
 0002:0000548c       ??_C@_0CG@KIFMNGEH@sound?1weapons?1machinegun?1machgf4@ 300a448c     cg_weapons.obj
 0002:000054b4       ??_C@_0BA@DOLAHAKE@bulletExplosion?$AA@ 300a44b4     cg_weapons.obj
 0002:000054c4       ??_C@_0CD@NCGDEMHJ@sound?1weapons?1shotgun?1sshotf1b?4w@ 300a44c4     cg_weapons.obj
 0002:000054e8       ??_C@_0CB@EAPDKGGC@sound?1weapons?1rocket?1rockfly?4wav@ 300a44e8     cg_weapons.obj
 0002:0000550c       ??_C@_0CC@OIFCIFP@sound?1weapons?1rocket?1rocklf1a?4wa@ 300a450c     cg_weapons.obj
 0002:00005530       ??_C@_0BA@NABNBOMN@rocketExplosion?$AA@ 300a4530     cg_weapons.obj
 0002:00005540       ??_C@_0BJ@IPKCPFEO@models?1ammo?1grenade1?4md3?$AA@ 300a4540     cg_weapons.obj
 0002:0000555c       ??_C@_0CD@BGNAFJPC@sound?1weapons?1grenade?1grenlf1a?4w@ 300a455c     cg_weapons.obj
 0002:00005580       ??_C@_0BB@LIEJLDGP@grenadeExplosion?$AA@ 300a4580     cg_weapons.obj
 0002:00005594       ??_C@_0CA@FGEGNBKP@sound?1weapons?1plasma?1lasfly?4wav?$AA@ 300a4594     cg_weapons.obj
 0002:000055b4       ??_C@_0CC@NOGOIAAL@sound?1weapons?1plasma?1hyprbf1a?4wa@ 300a45b4     cg_weapons.obj
 0002:000055d8       ??_C@_0BA@JAAHPOLK@plasmaExplosion?$AA@ 300a45d8     cg_weapons.obj
 0002:000055e8       ??_C@_08EJMAMOFN@railDisc?$AA@ 300a45e8     cg_weapons.obj
 0002:000055f4       ??_C@_0CB@BJCODCG@sound?1weapons?1railgun?1rg_hum?4wav@ 300a45f4     cg_weapons.obj
 0002:00005618       ??_C@_0O@HDLAOPGI@railExplosion?$AA@ 300a4618     cg_weapons.obj
 0002:00005628       ??_C@_08IJBDIACA@railCore?$AA@ 300a4628     cg_weapons.obj
 0002:00005634       ??_C@_0BO@DKJAPIPN@sound?1weapons?1bfg?1bfg_hum?4wav?$AA@ 300a4634     cg_weapons.obj
 0002:00005654       ??_C@_0BP@PEJEDJFL@sound?1weapons?1bfg?1bfg_fire?4wav?$AA@ 300a4654     cg_weapons.obj
 0002:00005674       ??_C@_0N@EKABNDDO@bfgExplosion?$AA@ 300a4674     cg_weapons.obj
 0002:00005684       ??_C@_0BI@CJNPJIJG@models?1weaphits?1bfg?4md3?$AA@ 300a4684     cg_weapons.obj
 0002:0000569c       ??_C@_0DH@ECKDIILO@CG_RegisterItemVisuals?3?5itemNum?5@ 300a469c     cg_weapons.obj
 0002:000056d4       ??_C@_0L@FGMMEJDC@tag_weapon?$AA@ 300a46d4     cg_weapons.obj
 0002:000056e0       ??_C@_0L@EKFDHKMA@tag_barrel?$AA@ 300a46e0     cg_weapons.obj
 0002:000056ec       ??_C@_09FNBKMGLL@tag_flash?$AA@ 300a46ec     cg_weapons.obj
 0002:000056f8       ??_C@_0CN@NBNBAPF@CG_FireWeapon?3?5ent?9?$DOweapon?5?$DO?$DN?5WP@ 300a46f8     cg_weapons.obj
 0002:00005728       __real@3f847ae147ae147b    300a4728     cg_weapons.obj
 0002:00005730       __real@3fc999999999999a    300a4730     cg_weapons.obj
 0002:00005738       __real@3fe8000000000000    300a4738     cg_weapons.obj
 0002:00005740       __real@4054000000000000    300a4740     cg_weapons.obj
 0002:00005748       __real@405e000000000000    300a4748     cg_weapons.obj
 0002:00005750       __real@4072c00000000000    300a4750     cg_weapons.obj
 0002:00005758       __real@41d00000            300a4758     cg_weapons.obj
 0002:0000575c       __real@42480000            300a475c     cg_weapons.obj
 0002:00005760       __real@427c0000            300a4760     cg_weapons.obj
 0002:00005764       __real@442f0000            300a4764     cg_weapons.obj
 0002:00005768       __real@44400000            300a4768     cg_weapons.obj
 0002:00005770       __real@bfc999999999999a    300a4770     cg_weapons.obj
 0002:00005778       __real@c044000000000000    300a4778     cg_weapons.obj
 0002:00005780       __real@c049000000000000    300a4780     cg_weapons.obj
 0002:00005788       __real@c0800000            300a4788     cg_weapons.obj
 0002:0000578c       __real@c0c00000            300a478c     cg_weapons.obj
 0002:00005790       __real@c3340000            300a4790     cg_weapons.obj
 0002:00005798       ??_C@_1IE@CGOOEJBB@?$AAc?$AA?3?$AA?2?$AAu?$AAs?$AAe?$AAr?$AAs?$AA?2?$AAa?$AAn?$AAd?$AAy?$AA?2?$AAd?$AAo?$AAc?$AAu?$AAm?$AAe?$AAn?$AAt?$AAs?$AA?2?$AAg?$AAi?$AAt?$AAh?$AAu?$AAb?$AA?2?$AAq@ 300a4798     q_math.obj
 0002:0000581c       ??_C@_1DE@EJPCDGJI@?$AAQ?$AA_?$AAf?$AAa?$AAb?$AAs?$AA?$CI?$AAi?$AAn?$AAv?$AA_?$AAd?$AAe?$AAn?$AAo?$AAm?$AA?$CJ?$AA?5?$AA?$CB?$AA?$DN?$AA?5?$AA0?$AA?4?$AA0?$AAf?$AA?$AA@ 300a481c     q_math.obj
 0002:00005850       __real@3c8efa35            300a4850     q_math.obj
 0002:00005858       __real@4066c16c16c16c17    300a4858     q_math.obj
 0002:00005860       __real@47800000            300a4860     q_math.obj
 0002:00005864       __real@47c34f80            300a4864     q_math.obj
 0002:00005868       __real@c7c34f80            300a4868     q_math.obj
 0002:00005870       __xmm@80000000000000008000000000000000 300a4870     q_math.obj
 0002:00005880       ??_C@_0BI@KPLEBEJF@ERROR?3?5?$CFs?0?5line?5?$CFd?3?5?$CFs?6?$AA@ 300a4880     q_shared.obj
 0002:00005898       ??_C@_0BK@DJMKDJBL@WARNING?3?5?$CFs?0?5line?5?$CFd?3?5?$CFs?6?$AA@ 300a4898     q_shared.obj
 0002:000058b4       ??_C@_0BF@BFEJCABG@MatchToken?3?5?$CFs?5?$CB?$DN?5?$CFs?$AA@ 300a48b4     q_shared.obj
 0002:000058cc       ??_C@_01ODHLEDKK@?$CI?$AA@ 300a48cc     q_shared.obj
 0002:000058d0       ??_C@_01PKGAHCOL@?$CJ?$AA@ 300a48d0     q_shared.obj
 0002:000058d4       ??_C@_0BG@EKAPNPCH@Q_strncpyz?3?5NULL?5dest?$AA@ 300a48d4     q_shared.obj
 0002:000058ec       ??_C@_0BF@BJHHBLMD@Q_strncpyz?3?5NULL?5src?$AA@ 300a48ec     q_shared.obj
 0002:00005904       ??_C@_0BJ@OLBOPICM@Q_strncpyz?3?5destsize?5?$DM?51?$AA@ 300a4904     q_shared.obj
 0002:00005920       ??_C@_0BN@EFOOAHFL@Q_strcat?3?5already?5overflowed?$AA@ 300a4920     q_shared.obj
 0002:00005940       ??_C@_0CC@GMEFDOKA@Com_sprintf?3?5overflowed?5bigbuffe@ 300a4940     q_shared.obj
 0002:00005964       ??_C@_0CD@GIPJKOOD@Com_sprintf?3?5overflow?5of?5?$CFi?5in?5?$CF@ 300a4964     q_shared.obj
 0002:00005988       ??_C@_0CG@FLHABLN@Info_ValueForKey?3?5oversize?5infos@ 300a4988     q_shared.obj
 0002:000059b0       ??_C@_0CE@HMPLGKDK@Info_RemoveKey?3?5oversize?5infostr@ 300a49b0     q_shared.obj
 0002:000059d4       ??_C@_0CI@CPIEPBLO@Info_RemoveKey_Big?3?5oversize?5inf@ 300a49d4     q_shared.obj
 0002:000059fc       ??_C@_0CJ@CEEBDGNA@Info_SetValueForKey?3?5oversize?5in@ 300a49fc     q_shared.obj
 0002:00005a28       ??_C@_0CD@JIDDAEOO@Can?8t?5use?5keys?5or?5values?5with?5a?5@ 300a4a28     q_shared.obj
 0002:00005a4c       ??_C@_0CL@JCFAGLFD@Can?8t?5use?5keys?5or?5values?5with?5a?5@ 300a4a4c     q_shared.obj
 0002:00005a78       ??_C@_0CD@MGFMEBLE@Can?8t?5use?5keys?5or?5values?5with?5a?5@ 300a4a78     q_shared.obj
 0002:00005a9c       ??_C@_06NELKLDPM@?2?$CFs?2?$CFs?$AA@ 300a4a9c     q_shared.obj
 0002:00005aa4       ??_C@_0BN@CAOBGKLE@Info?5string?5length?5exceeded?6?$AA@ 300a4aa4     q_shared.obj
 0002:00005ac4       ??_C@_0CB@EMDOOGBI@BIG?5Info?5string?5length?5exceeded?6@ 300a4ac4     q_shared.obj
 0002:00005ae8       ??_C@_08GFFBPDLD@?$CLbutton2?$AA@ 300a4ae8     ui_shared.obj
 0002:00005af4       ??_C@_06JIDIHCBO@?$CLspeed?$AA@ 300a4af4     ui_shared.obj
 0002:00005afc       ??_C@_08KKEOHAPB@?$CLforward?$AA@ 300a4afc     ui_shared.obj
 0002:00005b08       ??_C@_05IPKGNIPH@?$CLback?$AA@ 300a4b08     ui_shared.obj
 0002:00005b10       ??_C@_09IPJNFGKP@?$CLmoveleft?$AA@ 300a4b10     ui_shared.obj
 0002:00005b1c       ??_C@_0L@FMBJCMEG@?$CLmoveright?$AA@ 300a4b1c     ui_shared.obj
 0002:00005b28       ??_C@_07CKGNAPCP@?$CLmoveup?$AA@ 300a4b28     ui_shared.obj
 0002:00005b30       ??_C@_09HNJJMOJG@?$CLmovedown?$AA@ 300a4b30     ui_shared.obj
 0002:00005b3c       ??_C@_05HEGFDNLE@?$CLleft?$AA@ 300a4b3c     ui_shared.obj
 0002:00005b44       ??_C@_06NGIHBNMB@?$CLright?$AA@ 300a4b44     ui_shared.obj
 0002:00005b4c       ??_C@_07CHKKNAEO@?$CLstrafe?$AA@ 300a4b4c     ui_shared.obj
 0002:00005b54       ??_C@_07BDFIGFL@?$CLlookup?$AA@ 300a4b54     ui_shared.obj
 0002:00005b5c       ??_C@_09KCKOGCLI@?$CLlookdown?$AA@ 300a4b5c     ui_shared.obj
 0002:00005b68       ??_C@_06OBEGBCAL@?$CLmlook?$AA@ 300a4b68     ui_shared.obj
 0002:00005b70       ??_C@_0L@FHIBDANG@centerview?$AA@ 300a4b70     ui_shared.obj
 0002:00005b7c       ??_C@_08NFHIAPM@weapon?51?$AA@ 300a4b7c     ui_shared.obj
 0002:00005b88       ??_C@_08CGHKNDDP@weapon?52?$AA@ 300a4b88     ui_shared.obj
 0002:00005b94       ??_C@_08DPGBOCHO@weapon?53?$AA@ 300a4b94     ui_shared.obj
 0002:00005ba0       ??_C@_08HACAHELJ@weapon?54?$AA@ 300a4ba0     ui_shared.obj
 0002:00005bac       ??_C@_08GJDLEFPI@weapon?55?$AA@ 300a4bac     ui_shared.obj
 0002:00005bb8       ??_C@_08ECBGBGDL@weapon?56?$AA@ 300a4bb8     ui_shared.obj
 0002:00005bc4       ??_C@_08FLANCHHK@weapon?57?$AA@ 300a4bc4     ui_shared.obj
 0002:00005bd0       ??_C@_08NMJFDLLF@weapon?58?$AA@ 300a4bd0     ui_shared.obj
 0002:00005bdc       ??_C@_08MFIOAKPE@weapon?59?$AA@ 300a4bdc     ui_shared.obj
 0002:00005be8       ??_C@_09GLEANPEE@weapon?510?$AA@ 300a4be8     ui_shared.obj
 0002:00005bf4       ??_C@_09HCFLOOAF@weapon?511?$AA@ 300a4bf4     ui_shared.obj
 0002:00005c00       ??_C@_09FJHGLNMG@weapon?512?$AA@ 300a4c00     ui_shared.obj
 0002:00005c0c       ??_C@_09EAGNIMIH@weapon?513?$AA@ 300a4c0c     ui_shared.obj
 0002:00005c18       ??_C@_07MAODEHGM@?$CLattack?$AA@ 300a4c18     ui_shared.obj
 0002:00005c20       ??_C@_08HMEKMCPC@?$CLbutton3?$AA@ 300a4c20     ui_shared.obj
 0002:00005c2c       ??_C@_08DDALFEDF@?$CLbutton4?$AA@ 300a4c2c     ui_shared.obj
 0002:00005c38       ??_C@_0P@NMPIEJIB@prevTeamMember?$AA@ 300a4c38     ui_shared.obj
 0002:00005c48       ??_C@_06JFGPOFJL@fadein?$AA@ 300a4c48     ui_shared.obj
 0002:00005c50       ??_C@_0P@GJIGAACM@nextTeamMember?$AA@ 300a4c50     ui_shared.obj
 0002:00005c60       ??_C@_07BJADIKJG@fadeout?$AA@ 300a4c60     ui_shared.obj
 0002:00005c68       ??_C@_09DIHAGAEB@nextOrder?$AA@ 300a4c68     ui_shared.obj
 0002:00005c74       ??_C@_04FKMICODN@show?$AA@ 300a4c74     ui_shared.obj
 0002:00005c7c       ??_C@_0N@KJLGMAFH@confirmOrder?$AA@ 300a4c7c     ui_shared.obj
 0002:00005c8c       ??_C@_04IBOFHAPJ@hide?$AA@ 300a4c8c     ui_shared.obj
 0002:00005c94       ??_C@_09PEFBKJOE@denyOrder?$AA@ 300a4c94     ui_shared.obj
 0002:00005ca0       ??_C@_08OKIEAMBM@setcolor?$AA@ 300a4ca0     ui_shared.obj
 0002:00005cac       ??_C@_0M@PDBEJPDO@taskOffense?$AA@ 300a4cac     ui_shared.obj
 0002:00005cb8       ??_C@_04PMOCAHAA@open?$AA@ 300a4cb8     ui_shared.obj
 0002:00005cc0       ??_C@_0M@JPJGJJPF@taskDefense?$AA@ 300a4cc0     ui_shared.obj
 0002:00005ccc       ??_C@_0BA@JLPGECPM@conditionalopen?$AA@ 300a4ccc     ui_shared.obj
 0002:00005cdc       ??_C@_0L@HNDPADH@taskPatrol?$AA@ 300a4cdc     ui_shared.obj
 0002:00005ce8       ??_C@_05LBOHBHFK@close?$AA@ 300a4ce8     ui_shared.obj
 0002:00005cf0       ??_C@_08OELCHPPI@taskCamp?$AA@ 300a4cf0     ui_shared.obj
 0002:00005cfc       ??_C@_08FBOLLCAN@setasset?$AA@ 300a4cfc     ui_shared.obj
 0002:00005d08       ??_C@_0L@HALHAPMG@taskFollow?$AA@ 300a4d08     ui_shared.obj
 0002:00005d14       ??_C@_0O@FOIIKEEB@setbackground?$AA@ 300a4d14     ui_shared.obj
 0002:00005d24       ??_C@_0N@DNLIECKN@taskRetrieve?$AA@ 300a4d24     ui_shared.obj
 0002:00005d34       ??_C@_0N@EBBIOPHN@setitemcolor?$AA@ 300a4d34     ui_shared.obj
 0002:00005d44       ??_C@_0L@JKHNIMGE@taskEscort?$AA@ 300a4d44     ui_shared.obj
 0002:00005d50       ??_C@_0N@KMLJLNON@setteamcolor?$AA@ 300a4d50     ui_shared.obj
 0002:00005d60       ??_C@_0M@NPBCACOK@taskOwnFlag?$AA@ 300a4d60     ui_shared.obj
 0002:00005d6c       ??_C@_08OKIAJKBO@setfocus?$AA@ 300a4d6c     ui_shared.obj
 0002:00005d78       ??_C@_0M@HEJOPHDA@taskSuicide?$AA@ 300a4d78     ui_shared.obj
 0002:00005d84       ??_C@_0P@COHLPKKB@setplayermodel?$AA@ 300a4d84     ui_shared.obj
 0002:00005d94       ??_C@_0BA@LAKLAIKA@tauntKillInsult?$AA@ 300a4d94     ui_shared.obj
 0002:00005da4       ??_C@_0O@DDHOJBLA@setplayerhead?$AA@ 300a4da4     ui_shared.obj
 0002:00005db4       ??_C@_0M@FHJJKLIB@tauntPraise?$AA@ 300a4db4     ui_shared.obj
 0002:00005dc0       ??_C@_0L@KGLELNDP@transition?$AA@ 300a4dc0     ui_shared.obj
 0002:00005dcc       ??_C@_0L@OFGCNOGN@tauntTaunt?$AA@ 300a4dcc     ui_shared.obj
 0002:00005dd8       ??_C@_07DFOFNCMO@setcvar?$AA@ 300a4dd8     ui_shared.obj
 0002:00005de0       ??_C@_0BB@DHLHLJJP@tauntDeathInsult?$AA@ 300a4de0     ui_shared.obj
 0002:00005df4       ??_C@_04MGEIEJAD@exec?$AA@ 300a4df4     ui_shared.obj
 0002:00005dfc       ??_C@_0O@BNPKDDEF@tauntGauntlet?$AA@ 300a4dfc     ui_shared.obj
 0002:00005e0c       ??_C@_04GBHMDDO@play?$AA@  300a4e0c     ui_shared.obj
 0002:00005e14       ??_C@_08NILIEBDN@scoresUp?$AA@ 300a4e14     ui_shared.obj
 0002:00005e20       ??_C@_0L@NDOCJLDE@playlooped?$AA@ 300a4e20     ui_shared.obj
 0002:00005e2c       ??_C@_0L@JEAJCAAH@scoresDown?$AA@ 300a4e2c     ui_shared.obj
 0002:00005e38       ??_C@_05KJPHCDKJ@orbit?$AA@ 300a4e38     ui_shared.obj
 0002:00005e40       ??_C@_0M@JINOELJH@messagemode?$AA@ 300a4e40     ui_shared.obj
 0002:00005e4c       ??_C@_0N@IDIDIMNN@messagemode2?$AA@ 300a4e4c     ui_shared.obj
 0002:00005e5c       ??_C@_0N@JKJILNJM@messagemode3?$AA@ 300a4e5c     ui_shared.obj
 0002:00005e6c       ??_C@_0N@NFNJCLFL@messagemode4?$AA@ 300a4e6c     ui_shared.obj
 0002:00005e80       ??_C@_06HFMKGFEH@cl_run?$AA@ 300a4e80     ui_shared.obj
 0002:00005e88       ??_C@_07JIEGLHEC@m_pitch?$AA@ 300a4e88     ui_shared.obj
 0002:00005e90       ??_C@_0M@JFLMCFNC@sensitivity?$AA@ 300a4e90     ui_shared.obj
 0002:00005e9c       ??_C@_0M@MJEIGFNL@in_joystick?$AA@ 300a4e9c     ui_shared.obj
 0002:00005ea8       ??_C@_0O@CDIHIFMG@joy_threshold?$AA@ 300a4ea8     ui_shared.obj
 0002:00005eb8       ??_C@_08BEMLPELN@m_filter?$AA@ 300a4eb8     ui_shared.obj
 0002:00005ec4       ??_C@_0M@HDIJIOFC@cl_freelook?$AA@ 300a4ec4     ui_shared.obj
 0002:00005ed0       ??_C@_04MEMAJGDJ@name?$AA@ 300a4ed0     ui_shared.obj
 0002:00005ed8       ??_C@_04CIMGMMMG@text?$AA@ 300a4ed8     ui_shared.obj
 0002:00005ee0       ??_C@_05MGJOOGAJ@group?$AA@ 300a4ee0     ui_shared.obj
 0002:00005ee8       ??_C@_0M@DKAIGAGN@asset_model?$AA@ 300a4ee8     ui_shared.obj
 0002:00005ef4       ??_C@_0N@HLFJAKEA@asset_shader?$AA@ 300a4ef4     ui_shared.obj
 0002:00005f04       ??_C@_0N@LHLPLFLG@model_origin?$AA@ 300a4f04     ui_shared.obj
 0002:00005f14       ??_C@_0L@MFDDKKLB@model_fovx?$AA@ 300a4f14     ui_shared.obj
 0002:00005f20       ??_C@_0L@NMCIJLPA@model_fovy?$AA@ 300a4f20     ui_shared.obj
 0002:00005f2c       ??_C@_0P@NOKHMHPD@model_rotation?$AA@ 300a4f2c     ui_shared.obj
 0002:00005f3c       ??_C@_0M@HHMGANAM@model_angle?$AA@ 300a4f3c     ui_shared.obj
 0002:00005f48       ??_C@_04LHPFHFPH@rect?$AA@ 300a4f48     ui_shared.obj
 0002:00005f50       ??_C@_05IAKJCFIM@style?$AA@ 300a4f50     ui_shared.obj
 0002:00005f58       ??_C@_0L@GFEIECKE@decoration?$AA@ 300a4f58     ui_shared.obj
 0002:00005f64       ??_C@_0O@FDEIBLKE@notselectable?$AA@ 300a4f64     ui_shared.obj
 0002:00005f74       ??_C@_07FJHHECNJ@wrapped?$AA@ 300a4f74     ui_shared.obj
 0002:00005f7c       ??_C@_0M@HHKOOJO@autowrapped?$AA@ 300a4f7c     ui_shared.obj
 0002:00005f88       ??_C@_0BB@EIBMEDHI@horizontalscroll?$AA@ 300a4f88     ui_shared.obj
 0002:00005f9c       ??_C@_04GPMDFGEJ@type?$AA@ 300a4f9c     ui_shared.obj
 0002:00005fa4       ??_C@_0N@MILKKPGL@elementwidth?$AA@ 300a4fa4     ui_shared.obj
 0002:00005fb4       ??_C@_0O@MNJDKOBB@elementheight?$AA@ 300a4fb4     ui_shared.obj
 0002:00005fc4       ??_C@_06GEEPENGB@feeder?$AA@ 300a4fc4     ui_shared.obj
 0002:00005fcc       ??_C@_0M@HBNIAHKL@elementtype?$AA@ 300a4fcc     ui_shared.obj
 0002:00005fd8       ??_C@_07HIFEPIJN@columns?$AA@ 300a4fd8     ui_shared.obj
 0002:00005fe0       ??_C@_06ODFLABIG@border?$AA@ 300a4fe0     ui_shared.obj
 0002:00005fe8       ??_C@_0L@BAAMOEHP@bordersize?$AA@ 300a4fe8     ui_shared.obj
 0002:00005ff4       ??_C@_07DPDAEJMK@visible?$AA@ 300a4ff4     ui_shared.obj
 0002:00005ffc       ??_C@_09HGLBOMNF@ownerdraw?$AA@ 300a4ffc     ui_shared.obj
 0002:00006008       ??_C@_05CBJPDLOK@align?$AA@ 300a5008     ui_shared.obj
 0002:00006010       ??_C@_09PNBDGNCL@textalign?$AA@ 300a5010     ui_shared.obj
 0002:0000601c       ??_C@_0L@ELKHBJND@textalignx?$AA@ 300a501c     ui_shared.obj
 0002:00006028       ??_C@_0L@FCLMCIJC@textaligny?$AA@ 300a5028     ui_shared.obj
 0002:00006034       ??_C@_09BLEIEHKP@textscale?$AA@ 300a5034     ui_shared.obj
 0002:00006040       ??_C@_09FMCFHDEN@textstyle?$AA@ 300a5040     ui_shared.obj
 0002:0000604c       ??_C@_0N@LGJOCBPD@outlinecolor?$AA@ 300a504c     ui_shared.obj
 0002:0000605c       ??_C@_0L@EGCKCJDC@background?$AA@ 300a505c     ui_shared.obj
 0002:00006068       ??_C@_07PFEHHELH@onFocus?$AA@ 300a5068     ui_shared.obj
 0002:00006070       ??_C@_0L@LMAJDKOE@leaveFocus?$AA@ 300a5070     ui_shared.obj
 0002:0000607c       ??_C@_0L@KAGOMOPN@mouseEnter?$AA@ 300a507c     ui_shared.obj
 0002:00006088       ??_C@_09OIHCIOIA@mouseExit?$AA@ 300a5088     ui_shared.obj
 0002:00006094       ??_C@_0P@BCEPHLNB@mouseEnterText?$AA@ 300a5094     ui_shared.obj
 0002:000060a4       ??_C@_0O@GFPABKKP@mouseExitText?$AA@ 300a50a4     ui_shared.obj
 0002:000060b4       ??_C@_06DDLLCOJG@action?$AA@ 300a50b4     ui_shared.obj
 0002:000060bc       ??_C@_07BELCMIIP@special?$AA@ 300a50bc     ui_shared.obj
 0002:000060c4       ??_C@_04PNAHEAFM@cvar?$AA@ 300a50c4     ui_shared.obj
 0002:000060cc       ??_C@_08IHGPPBOI@maxChars?$AA@ 300a50cc     ui_shared.obj
 0002:000060d8       ??_C@_0O@HPCOAMJM@maxPaintChars?$AA@ 300a50d8     ui_shared.obj
 0002:000060e8       ??_C@_0L@NOGKCHFE@focusSound?$AA@ 300a50e8     ui_shared.obj
 0002:000060f4       ??_C@_09CGGKHKAP@cvarFloat?$AA@ 300a50f4     ui_shared.obj
 0002:00006100       ??_C@_0M@GOKMFACI@cvarStrList?$AA@ 300a5100     ui_shared.obj
 0002:0000610c       ??_C@_0O@IKNDJMDK@cvarFloatList?$AA@ 300a510c     ui_shared.obj
 0002:0000611c       ??_C@_0O@BGFKBLBI@addColorRange?$AA@ 300a511c     ui_shared.obj
 0002:0000612c       ??_C@_0O@DACAJCLK@ownerdrawFlag?$AA@ 300a512c     ui_shared.obj
 0002:0000613c       ??_C@_0L@LCDHKNEJ@enableCvar?$AA@ 300a513c     ui_shared.obj
 0002:00006148       ??_C@_08KBIDCBHN@cvarTest?$AA@ 300a5148     ui_shared.obj
 0002:00006154       ??_C@_0M@FBHLBFCC@disableCvar?$AA@ 300a5154     ui_shared.obj
 0002:00006160       ??_C@_08LNBEMJIA@showCvar?$AA@ 300a5160     ui_shared.obj
 0002:0000616c       ??_C@_08BDDCOCNI@hideCvar?$AA@ 300a516c     ui_shared.obj
 0002:00006178       ??_C@_09DHDJHDLH@cinematic?$AA@ 300a5178     ui_shared.obj
 0002:00006184       ??_C@_0M@IHJKFHF@doubleclick?$AA@ 300a5184     ui_shared.obj
 0002:00006190       ??_C@_04EFPADHIC@font?$AA@ 300a5190     ui_shared.obj
 0002:00006198       ??_C@_0L@GIACNHMO@fullscreen?$AA@ 300a5198     ui_shared.obj
 0002:000061a4       ??_C@_06CJGNFCEB@onOpen?$AA@ 300a51a4     ui_shared.obj
 0002:000061ac       ??_C@_07LAOJOJAJ@onClose?$AA@ 300a51ac     ui_shared.obj
 0002:000061b4       ??_C@_05IIPJAONP@onESC?$AA@ 300a51b4     ui_shared.obj
 0002:000061bc       ??_C@_0L@NBMNMLHL@borderSize?$AA@ 300a51bc     ui_shared.obj
 0002:000061c8       ??_C@_0L@OKFLOHAM@focuscolor?$AA@ 300a51c8     ui_shared.obj
 0002:000061d4       ??_C@_0N@EEPADJLO@disablecolor?$AA@ 300a51d4     ui_shared.obj
 0002:000061e4       ??_C@_0BB@FOHPFLED@outOfBoundsClick?$AA@ 300a51e4     ui_shared.obj
 0002:000061f8       ??_C@_09LMHPKFJB@soundLoop?$AA@ 300a51f8     ui_shared.obj
 0002:00006204       ??_C@_07BNAIEIKL@itemDef?$AA@ 300a5204     ui_shared.obj
 0002:0000620c       ??_C@_05EIEHMANA@popup?$AA@ 300a520c     ui_shared.obj
 0002:00006214       ??_C@_09DPBPOIDH@fadeClamp?$AA@ 300a5214     ui_shared.obj
 0002:00006220       ??_C@_09LGBLEGN@fadeCycle?$AA@ 300a5220     ui_shared.obj
 0002:0000622c       ??_C@_0L@JDDHILPC@fadeAmount?$AA@ 300a522c     ui_shared.obj
 0002:00006238       ??_C@_09OPNKCLNO@backcolor?$AA@ 300a5238     ui_shared.obj
 0002:00006244       ??_C@_09MONNBKNO@forecolor?$AA@ 300a5244     ui_shared.obj
 0002:00006250       ??_C@_0M@CJNAABJD@bordercolor?$AA@ 300a5250     ui_shared.obj
 0002:0000625c       ??_C@_0CD@LBKPCJLM@UI_Alloc?3?5Failure?4?5Out?5of?5memory@ 300a525c     ui_shared.obj
 0002:00006280       ??_C@_0BJ@GAPDFKFM@Memory?1String?5Pool?5Info?6?$AA@ 300a5280     ui_shared.obj
 0002:0000629c       ??_C@_0BC@DKLFONDB@?9?9?9?9?9?9?9?9?9?9?9?9?9?9?9?9?6?$AA@ 300a529c     ui_shared.obj
 0002:000062b0       ??_C@_0DG@MABFDHIF@String?5Pool?5is?5?$CF?41f?$CF?$CF?5full?0?5?$CFi?5b@ 300a52b0     ui_shared.obj
 0002:000062e8       ??_C@_0DG@OMGKABNP@Memory?5Pool?5is?5?$CF?41f?$CF?$CF?5full?0?5?$CFi?5b@ 300a52e8     ui_shared.obj
 0002:00006320       ??_C@_0BM@DJGMFAMK@?$FO3WARNING?3?5?$CFs?0?5line?5?$CFd?3?5?$CFs?6?$AA@ 300a5320     ui_shared.obj
 0002:0000633c       ??_C@_0BK@OKFEFFGN@?$FO1ERROR?3?5?$CFs?0?5line?5?$CFd?3?5?$CFs?6?$AA@ 300a533c     ui_shared.obj
 0002:00006358       ??_C@_0BN@CKJPOGNB@expected?5float?5but?5found?5?$CFs?6?$AA@ 300a5358     ui_shared.obj
 0002:00006378       ??_C@_0BP@FLADEANJ@expected?5integer?5but?5found?5?$CFs?6?$AA@ 300a5378     ui_shared.obj
 0002:00006398       ??_C@_04OEDFLLKD@?$CC?$CFs?$CC?$AA@ 300a5398     ui_shared.obj
 0002:000063a0       ??_C@_01CLKCMJKC@?5?$AA@   300a53a0     ui_shared.obj
 0002:000063a4       ??_C@_05LKKGNBCL@?$CFs?5?$DL?5?$AA@ 300a53a4     ui_shared.obj
 0002:000063ac       ??_C@_0BI@MLGEDDNA@slider?5handle?5key?5exit?6?$AA@ 300a53ac     ui_shared.obj
 0002:000063c4       ??_C@_0M@FHKEBODE@screenshot?6?$AA@ 300a53c4     ui_shared.obj
 0002:000063d0       ??_C@_03CCLAEDDF@Yes?$AA@  300a53d0     ui_shared.obj
 0002:000063d4       ??_C@_02JINPPBEP@No?$AA@   300a53d4     ui_shared.obj
 0002:000063d8       ??_C@_0M@LMHCNBPD@in_restart?6?$AA@ 300a53d8     ui_shared.obj
 0002:000063e4       ??_C@_04FJKIFICP@?5or?5?$AA@ 300a53e4     ui_shared.obj
 0002:000063ec       ??_C@_03BBKEAIF@?$DP?$DP?$DP?$AA@ 300a53ec     ui_shared.obj
 0002:000063f0       ??_C@_05DJCKAPIL@FIXME?$AA@ 300a53f0     ui_shared.obj
 0002:000063f8       ??_C@_0BO@GKGLOPGG@end?5of?5file?5inside?5menu?5item?6?$AA@ 300a53f8     ui_shared.obj
 0002:00006418       ??_C@_0BN@JHFMAPJL@unknown?5menu?5item?5keyword?5?$CFs?$AA@ 300a5418     ui_shared.obj
 0002:00006438       ??_C@_0CE@OIGKMGKE@couldn?8t?5parse?5menu?5item?5keyword@ 300a5438     ui_shared.obj
 0002:0000645c       ??_C@_04GHJNJNPO@main?$AA@ 300a545c     ui_shared.obj
 0002:00006464       ??_C@_0BJ@MPIMCBOA@end?5of?5file?5inside?5menu?6?$AA@ 300a5464     ui_shared.obj
 0002:00006480       ??_C@_0BI@PALCAEGK@unknown?5menu?5keyword?5?$CFs?$AA@ 300a5480     ui_shared.obj
 0002:00006498       ??_C@_0BP@HJCDHJDP@couldn?8t?5parse?5menu?5keyword?5?$CFs?$AA@ 300a5498     ui_shared.obj
 0002:000064b8       ??_C@_07KLAFGBNN@fps?3?5?$CFf?$AA@ 300a54b8     ui_shared.obj
 0002:000064c0       __real@3d567750            300a54c0     ui_shared.obj
 0002:000064c4       __real@3f0ccccd            300a54c4     ui_shared.obj
 0002:000064c8       __real@3f4ccccd            300a54c8     ui_shared.obj
 0002:000064d0       __real@402e000000000000    300a54d0     ui_shared.obj
 0002:000064d8       __real@4058000000000000    300a54d8     ui_shared.obj
 0002:000064e0       __real@42cc0000            300a54e0     ui_shared.obj
 0002:000064e4       __real@48c00000            300a54e4     ui_shared.obj
 0002:000064e8       __real@49800000            300a54e8     ui_shared.obj
 0002:000064ec       ?ProcessDetach@NativeDll@<CrtImplementationDetails>@@0IB 300a54ec     LIBCMTD:atof.obj
 0002:000064f0       ?ProcessAttach@NativeDll@<CrtImplementationDetails>@@0IB 300a54f0     LIBCMTD:atof.obj
 0002:000064f4       ?ThreadAttach@NativeDll@<CrtImplementationDetails>@@0IB 300a54f4     LIBCMTD:atof.obj
 0002:000064f8       ?ThreadDetach@NativeDll@<CrtImplementationDetails>@@0IB 300a54f8     LIBCMTD:atof.obj
 0002:000064fc       ?ProcessVerifier@NativeDll@<CrtImplementationDetails>@@0IB 300a54fc     LIBCMTD:atof.obj
 0002:00006500       ??_C@_1BK@LAOAACLJ@?$AAn?$AAp?$AAt?$AAr?$AA?5?$AA?$CB?$AA?$DN?$AA?5?$AAN?$AAU?$AAL?$AAL?$AA?$AA@ 300a5500     LIBCMTD:atof.obj
 0002:0000651c       ??_C@_15GANGMFKL@?$AA?$CF?$AAs?$AA?$AA@ 300a551c     LIBCMTD:atof.obj
 0002:00006528       ??_C@_1FM@HAAJIFE@?$AAf?$AA?3?$AA?2?$AAd?$AAd?$AA?2?$AAv?$AAc?$AAt?$AAo?$AAo?$AAl?$AAs?$AA?2?$AAc?$AAr?$AAt?$AA_?$AAb?$AAl?$AAd?$AA?2?$AAs?$AAe?$AAl?$AAf?$AA_?$AAx?$AA8?$AA6?$AA?2?$AAc@ 300a5528     LIBCMTD:atof.obj
 0002:00006584       ??_C@_1BA@NJCJMLHI@?$AA_?$AAa?$AAt?$AAo?$AAf?$AA_?$AAl?$AA?$AA@ 300a5584     LIBCMTD:atof.obj
 0002:00006594       __FPinit                   300a5594     LIBCMTD:fpinit.obj
 0002:000065a0       ??_C@_1CC@MGIEJOME@?$AA?$CI?$AAf?$AAo?$AAr?$AAm?$AAa?$AAt?$AA?5?$AA?$CB?$AA?$DN?$AA?5?$AAN?$AAU?$AAL?$AAL?$AA?$CJ?$AA?$AA@ 300a55a0     LIBCMTD:vsprintf.obj
 0002:000065c8       ??_C@_1GE@DPADKNCG@?$AAf?$AA?3?$AA?2?$AAd?$AAd?$AA?2?$AAv?$AAc?$AAt?$AAo?$AAo?$AAl?$AAs?$AA?2?$AAc?$AAr?$AAt?$AA_?$AAb?$AAl?$AAd?$AA?2?$AAs?$AAe?$AAl?$AAf?$AA_?$AAx?$AA8?$AA6?$AA?2?$AAc@ 300a55c8     LIBCMTD:vsprintf.obj
 0002:0000662c       ??_C@_1BI@IGILPKD@?$AA_?$AAv?$AAs?$AAp?$AAr?$AAi?$AAn?$AAt?$AAf?$AA_?$AAl?$AA?$AA@ 300a562c     LIBCMTD:vsprintf.obj
 0002:00006644       ??_C@_1CC@OLIJCKA@?$AA?$CI?$AAs?$AAt?$AAr?$AAi?$AAn?$AAg?$AA?5?$AA?$CB?$AA?$DN?$AA?5?$AAN?$AAU?$AAL?$AAL?$AA?$CJ?$AA?$AA@ 300a5644     LIBCMTD:vsprintf.obj
 0002:00006668       ??_C@_1CE@HMKDJHB@?$AA_?$AAv?$AAs?$AAc?$AAp?$AAr?$AAi?$AAn?$AAt?$AAf?$AA_?$AAh?$AAe?$AAl?$AAp?$AAe?$AAr?$AA?$AA@ 300a5668     LIBCMTD:vsprintf.obj
 0002:000066e0       ??_C@_17LGKOMLJ@?$AA?4?$AA?4?$AA?4?$AA?$AA@ 300a56e0     LIBCMTD:wassert.obj
 0002:000066e8       ??_C@_13LBAGMAIH@?$AA?6?$AA?$AA@ 300a56e8     LIBCMTD:wassert.obj
 0002:000066ec       ??_C@_15IABLJNFO@?$AA?6?$AA?6?$AA?$AA@ 300a56ec     LIBCMTD:wassert.obj
 0002:000066f8       ??_C@_1GA@COEIABIF@?$AAf?$AA?3?$AA?2?$AAd?$AAd?$AA?2?$AAv?$AAc?$AAt?$AAo?$AAo?$AAl?$AAs?$AA?2?$AAc?$AAr?$AAt?$AA_?$AAb?$AAl?$AAd?$AA?2?$AAs?$AAe?$AAl?$AAf?$AA_?$AAx?$AA8?$AA6?$AA?2?$AAc@ 300a56f8     LIBCMTD:wassert.obj
 0002:00006758       ??_C@_1BC@LNOOMFNA@?$AA_?$AAw?$AAa?$AAs?$AAs?$AAe?$AAr?$AAt?$AA?$AA@ 300a5758     LIBCMTD:wassert.obj
 0002:00006770       ??_C@_1GM@PANFFKAD@?$AAw?$AAc?$AAs?$AAc?$AAp?$AAy?$AA_?$AAs?$AA?$CI?$AA?5?$AAa?$AAs?$AAs?$AAe?$AAr?$AAt?$AAb?$AAu?$AAf?$AA?0?$AA?5?$AA?$CI?$AA6?$AA4?$AA?5?$AA?$CK?$AA?5?$AA9?$AA?$CJ?$AA?0?$AA?5?$AAL@ 300a5770     LIBCMTD:wassert.obj
 0002:000067dc       ??_C@_1CE@OJBNHDMO@?$AAA?$AAs?$AAs?$AAe?$AAr?$AAt?$AAi?$AAo?$AAn?$AA?5?$AAf?$AAa?$AAi?$AAl?$AAe?$AAd?$AA?$CB?$AA?$AA@ 300a57dc     LIBCMTD:wassert.obj
 0002:00006800       ??_C@_1FI@OJONHFCN@?$AAw?$AAc?$AAs?$AAc?$AAa?$AAt?$AA_?$AAs?$AA?$CI?$AA?5?$AAa?$AAs?$AAs?$AAe?$AAr?$AAt?$AAb?$AAu?$AAf?$AA?0?$AA?5?$AA?$CI?$AA6?$AA4?$AA?5?$AA?$CK?$AA?5?$AA9?$AA?$CJ?$AA?0?$AA?5?$AAd@ 300a5800     LIBCMTD:wassert.obj
 0002:00006858       ??_C@_1FM@JONFCKBO@?$AAw?$AAc?$AAs?$AAc?$AAa?$AAt?$AA_?$AAs?$AA?$CI?$AA?5?$AAa?$AAs?$AAs?$AAe?$AAr?$AAt?$AAb?$AAu?$AAf?$AA?0?$AA?5?$AA?$CI?$AA6?$AA4?$AA?5?$AA?$CK?$AA?5?$AA9?$AA?$CJ?$AA?0?$AA?5?$AAL@ 300a5858     LIBCMTD:wassert.obj
 0002:000068b4       ??_C@_1BE@PHKBBGE@?$AAP?$AAr?$AAo?$AAg?$AAr?$AAa?$AAm?$AA?3?$AA?5?$AA?$AA@ 300a58b4     LIBCMTD:wassert.obj
 0002:000068c8       ??_C@_1HA@EPFCONEE@?$AAw?$AAc?$AAs?$AAc?$AAp?$AAy?$AA_?$AAs?$AA?$CI?$AA?5?$AAp?$AAr?$AAo?$AAg?$AAn?$AAa?$AAm?$AAe?$AA?0?$AA?5?$AA2?$AA6?$AA0?$AA?5?$AA?$CL?$AA?5?$AA1?$AA?0?$AA?5?$AAL?$AA?$CC?$AA?$DM@ 300a58c8     LIBCMTD:wassert.obj
 0002:00006938       ??_C@_1CO@EAEJAADC@?$AA?$DM?$AAp?$AAr?$AAo?$AAg?$AAr?$AAa?$AAm?$AA?5?$AAn?$AAa?$AAm?$AAe?$AA?5?$AAu?$AAn?$AAk?$AAn?$AAo?$AAw?$AAn?$AA?$DO?$AA?$AA@ 300a5938     LIBCMTD:wassert.obj
 0002:00006968       ??_C@_1LK@LGFOFOMH@?$AAm?$AAe?$AAm?$AAc?$AAp?$AAy?$AA_?$AAs?$AA?$CI?$AAp?$AAc?$AAh?$AA?0?$AA?5?$AAs?$AAi?$AAz?$AAe?$AAo?$AAf?$AA?$CI?$AAT?$AAC?$AAH?$AAA?$AAR?$AA?$CJ?$AA?5?$AA?$CK?$AA?5?$AA?$CI?$AA?$CI@ 300a5968     LIBCMTD:wassert.obj
 0002:00006a28       ??_C@_1EK@BFAHOLDO@?$AAw?$AAc?$AAs?$AAc?$AAa?$AAt?$AA_?$AAs?$AA?$CI?$AA?5?$AAa?$AAs?$AAs?$AAe?$AAr?$AAt?$AAb?$AAu?$AAf?$AA?0?$AA?5?$AA?$CI?$AA6?$AA4?$AA?5?$AA?$CK?$AA?5?$AA9?$AA?$CJ?$AA?0?$AA?5?$AAp@ 300a5a28     LIBCMTD:wassert.obj
 0002:00006a78       ??_C@_1FC@GNPGDADJ@?$AAw?$AAc?$AAs?$AAc?$AAa?$AAt?$AA_?$AAs?$AA?$CI?$AA?5?$AAa?$AAs?$AAs?$AAe?$AAr?$AAt?$AAb?$AAu?$AAf?$AA?0?$AA?5?$AA?$CI?$AA6?$AA4?$AA?5?$AA?$CK?$AA?5?$AA9?$AA?$CJ?$AA?0?$AA?5?$AAn@ 300a5a78     LIBCMTD:wassert.obj
 0002:00006ad0       ??_C@_1FG@NHACFNEK@?$AAw?$AAc?$AAs?$AAc?$AAa?$AAt?$AA_?$AAs?$AA?$CI?$AA?5?$AAa?$AAs?$AAs?$AAe?$AAr?$AAt?$AAb?$AAu?$AAf?$AA?0?$AA?5?$AA?$CI?$AA6?$AA4?$AA?5?$AA?$CK?$AA?5?$AA9?$AA?$CJ?$AA?0?$AA?5?$AAL@ 300a5ad0     LIBCMTD:wassert.obj
 0002:00006b28       ??_C@_1O@HEMHKNDC@?$AAF?$AAi?$AAl?$AAe?$AA?3?$AA?5?$AA?$AA@ 300a5b28     LIBCMTD:wassert.obj
 0002:00006b38       ??_C@_1GG@PKOIFPHI@?$AAw?$AAc?$AAs?$AAn?$AAc?$AAa?$AAt?$AA_?$AAs?$AA?$CI?$AA?5?$AAa?$AAs?$AAs?$AAe?$AAr?$AAt?$AAb?$AAu?$AAf?$AA?0?$AA?5?$AA?$CI?$AA6?$AA4?$AA?5?$AA?$CK?$AA?5?$AA9?$AA?$CJ?$AA?0?$AA?5@ 300a5b38     LIBCMTD:wassert.obj
 0002:00006ba0       ??_C@_1FG@PLMFGJFG@?$AAw?$AAc?$AAs?$AAc?$AAa?$AAt?$AA_?$AAs?$AA?$CI?$AA?5?$AAa?$AAs?$AAs?$AAe?$AAr?$AAt?$AAb?$AAu?$AAf?$AA?0?$AA?5?$AA?$CI?$AA6?$AA4?$AA?5?$AA?$CK?$AA?5?$AA9?$AA?$CJ?$AA?0?$AA?5?$AAd@ 300a5ba0     LIBCMTD:wassert.obj
 0002:00006bf8       ??_C@_1FO@HPHMICDB@?$AAw?$AAc?$AAs?$AAc?$AAa?$AAt?$AA_?$AAs?$AA?$CI?$AA?5?$AAa?$AAs?$AAs?$AAe?$AAr?$AAt?$AAb?$AAu?$AAf?$AA?0?$AA?5?$AA?$CI?$AA6?$AA4?$AA?5?$AA?$CK?$AA?5?$AA9?$AA?$CJ?$AA?0?$AA?5?$AAp@ 300a5bf8     LIBCMTD:wassert.obj
 0002:00006c58       ??_C@_1GO@KNIHEHNA@?$AAw?$AAc?$AAs?$AAn?$AAc?$AAa?$AAt?$AA_?$AAs?$AA?$CI?$AA?5?$AAa?$AAs?$AAs?$AAe?$AAr?$AAt?$AAb?$AAu?$AAf?$AA?0?$AA?5?$AA?$CI?$AA6?$AA4?$AA?5?$AA?$CK?$AA?5?$AA9?$AA?$CJ?$AA?0?$AA?5@ 300a5c58     LIBCMTD:wassert.obj
 0002:00006cc8       ??_C@_1HG@FHHFPPED@?$AAw?$AAc?$AAs?$AAn?$AAc?$AAa?$AAt?$AA_?$AAs?$AA?$CI?$AA?5?$AAa?$AAs?$AAs?$AAe?$AAr?$AAt?$AAb?$AAu?$AAf?$AA?0?$AA?5?$AA?$CI?$AA6?$AA4?$AA?5?$AA?$CK?$AA?5?$AA9?$AA?$CJ?$AA?0?$AA?5@ 300a5cc8     LIBCMTD:wassert.obj
 0002:00006d40       ??_C@_1IC@JGCGJJHO@?$AAw?$AAc?$AAs?$AAc?$AAa?$AAt?$AA_?$AAs?$AA?$CI?$AA?5?$AAa?$AAs?$AAs?$AAe?$AAr?$AAt?$AAb?$AAu?$AAf?$AA?0?$AA?5?$AA?$CI?$AA6?$AA4?$AA?5?$AA?$CK?$AA?5?$AA9?$AA?$CJ?$AA?0?$AA?5?$AAp@ 300a5d40     LIBCMTD:wassert.obj
 0002:00006dc8       ??_C@_1FE@NDOBOCBD@?$AAw?$AAc?$AAs?$AAc?$AAa?$AAt?$AA_?$AAs?$AA?$CI?$AA?5?$AAa?$AAs?$AAs?$AAe?$AAr?$AAt?$AAb?$AAu?$AAf?$AA?0?$AA?5?$AA?$CI?$AA6?$AA4?$AA?5?$AA?$CK?$AA?5?$AA9?$AA?$CJ?$AA?0?$AA?5?$AAf@ 300a5dc8     LIBCMTD:wassert.obj
 0002:00006e20       ??_C@_1FG@HLHNIBH@?$AAw?$AAc?$AAs?$AAc?$AAa?$AAt?$AA_?$AAs?$AA?$CI?$AA?5?$AAa?$AAs?$AAs?$AAe?$AAr?$AAt?$AAb?$AAu?$AAf?$AA?0?$AA?5?$AA?$CI?$AA6?$AA4?$AA?5?$AA?$CK?$AA?5?$AA9?$AA?$CJ?$AA?0?$AA?5?$AAL@ 300a5e20     LIBCMTD:wassert.obj
 0002:00006e78       ??_C@_1O@KCAFKHJE@?$AAL?$AAi?$AAn?$AAe?$AA?3?$AA?5?$AA?$AA@ 300a5e78     LIBCMTD:wassert.obj
 0002:00006e88       ??_C@_1KG@NJJPHNOK@?$AA_?$AAi?$AAt?$AAo?$AAw?$AA_?$AAs?$AA?$CI?$AA?5?$AAl?$AAi?$AAn?$AAe?$AAn?$AAo?$AA?0?$AA?5?$AAa?$AAs?$AAs?$AAe?$AAr?$AAt?$AAb?$AAu?$AAf?$AA?5?$AA?$CL?$AA?5?$AAw?$AAc?$AAs@ 300a5e88     LIBCMTD:wassert.obj
 0002:00006f30       ??_C@_1GC@CFDADAM@?$AAw?$AAc?$AAs?$AAc?$AAa?$AAt?$AA_?$AAs?$AA?$CI?$AA?5?$AAa?$AAs?$AAs?$AAe?$AAr?$AAt?$AAb?$AAu?$AAf?$AA?0?$AA?5?$AA?$CI?$AA6?$AA4?$AA?5?$AA?$CK?$AA?5?$AA9?$AA?$CJ?$AA?0?$AA?5?$AAL@ 300a5f30     LIBCMTD:wassert.obj
 0002:00006f94       ??_C@_1BK@PEDCIPMA@?$AAE?$AAx?$AAp?$AAr?$AAe?$AAs?$AAs?$AAi?$AAo?$AAn?$AA?3?$AA?5?$AA?$AA@ 300a5f94     LIBCMTD:wassert.obj
 0002:00006fb0       ??_C@_1CHM@HIHGOMKE@?$AAw?$AAc?$AAs?$AAn?$AAc?$AAa?$AAt?$AA_?$AAs?$AA?$CI?$AA?5?$AAa?$AAs?$AAs?$AAe?$AAr?$AAt?$AAb?$AAu?$AAf?$AA?0?$AA?5?$AA?$CI?$AA6?$AA4?$AA?5?$AA?$CK?$AA?5?$AA9?$AA?$CJ?$AA?0?$AA?5@ 300a5fb0     LIBCMTD:wassert.obj
 0002:00007230       ??_C@_1EM@DAMJKKKC@?$AAw?$AAc?$AAs?$AAc?$AAa?$AAt?$AA_?$AAs?$AA?$CI?$AA?5?$AAa?$AAs?$AAs?$AAe?$AAr?$AAt?$AAb?$AAu?$AAf?$AA?0?$AA?5?$AA?$CI?$AA6?$AA4?$AA?5?$AA?$CK?$AA?5?$AA9?$AA?$CJ?$AA?0?$AA?5?$AAe@ 300a6230     LIBCMTD:wassert.obj
 0002:00007280       ??_C@_1BCO@GAGHDLIF@?$AAw?$AAc?$AAs?$AAc?$AAa?$AAt?$AA_?$AAs?$AA?$CI?$AAa?$AAs?$AAs?$AAe?$AAr?$AAt?$AAb?$AAu?$AAf?$AA?0?$AA?5?$AA?$CI?$AA6?$AA4?$AA?5?$AA?$CK?$AA?5?$AA9?$AA?$CJ?$AA?0?$AA?5?$AAL?$AA?$CC@ 300a6280     LIBCMTD:wassert.obj
 0002:000073b0       ??_C@_1OA@EGMLFBHJ@?$AAF?$AAo?$AAr?$AA?5?$AAi?$AAn?$AAf?$AAo?$AAr?$AAm?$AAa?$AAt?$AAi?$AAo?$AAn?$AA?5?$AAo?$AAn?$AA?5?$AAh?$AAo?$AAw?$AA?5?$AAy?$AAo?$AAu?$AAr?$AA?5?$AAp?$AAr?$AAo?$AAg@ 300a63b0     LIBCMTD:wassert.obj
 0002:00007490       ??_C@_1FG@IFIHHMNM@?$AAw?$AAc?$AAs?$AAc?$AAa?$AAt?$AA_?$AAs?$AA?$CI?$AAa?$AAs?$AAs?$AAe?$AAr?$AAt?$AAb?$AAu?$AAf?$AA?0?$AA?5?$AA?$CI?$AA6?$AA4?$AA?5?$AA?$CK?$AA?5?$AA9?$AA?$CJ?$AA?0?$AA?5?$AAd?$AAb@ 300a6490     LIBCMTD:wassert.obj
 0002:000074e8       ??_C@_1LO@CHAFGADE@?$AAw?$AAc?$AAs?$AAc?$AAa?$AAt?$AA_?$AAs?$AA?$CI?$AAa?$AAs?$AAs?$AAe?$AAr?$AAt?$AAb?$AAu?$AAf?$AA?0?$AA?5?$AA?$CI?$AA6?$AA4?$AA?5?$AA?$CK?$AA?5?$AA9?$AA?$CJ?$AA?0?$AA?5?$AAL?$AA?$CC@ 300a64e8     LIBCMTD:wassert.obj
 0002:000075a8       ??_C@_1HK@POCJMFGK@?$AA?$CI?$AAP?$AAr?$AAe?$AAs?$AAs?$AA?5?$AAR?$AAe?$AAt?$AAr?$AAy?$AA?5?$AAt?$AAo?$AA?5?$AAd?$AAe?$AAb?$AAu?$AAg?$AA?5?$AAt?$AAh?$AAe?$AA?5?$AAa?$AAp?$AAp?$AAl?$AAi?$AAc@ 300a65a8     LIBCMTD:wassert.obj
 0002:00007628       ??_C@_1EK@MBDPDCGA@?$AAM?$AAi?$AAc?$AAr?$AAo?$AAs?$AAo?$AAf?$AAt?$AA?5?$AAV?$AAi?$AAs?$AAu?$AAa?$AAl?$AA?5?$AAC?$AA?$CL?$AA?$CL?$AA?5?$AAR?$AAu?$AAn?$AAt?$AAi?$AAm?$AAe?$AA?5?$AAL?$AAi?$AAb@ 300a6628     LIBCMTD:wassert.obj
 0002:00007674       __pRawDllMain              300a6674     LIBCMTD:dllcrt0.obj
 0002:00007674       __pDefaultRawDllMain       300a6674     LIBCMTD:dllcrt0.obj
 0002:00007678       ??_C@_0DB@OLNOAEGF@f?3?2dd?2vctools?2crt_bld?2self_x86?2c@ 300a6678     LIBCMTD:dllcrt0.obj
 0002:00007f60       __indefinite               300a6f60     LIBCMTD:87disp.obj
 0002:00007f6a       __piby2                    300a6f6a     LIBCMTD:87disp.obj
 0002:00007f98       __DEFAULT_CW_in_mem        300a6f98     LIBCMTD:common.obj
 0002:00007f9a       __pi_by_2_to_61            300a6f9a     LIBCMTD:common.obj
 0002:00007fd4       ??_C@_03KHJOGHMM@exp?$AA@  300a6fd4     LIBCMTD:fpexcept.obj
 0002:00007fd8       ??_C@_03JGHBODFD@pow?$AA@  300a6fd8     LIBCMTD:fpexcept.obj
 0002:00007fdc       ??_C@_03MGHMBJCF@log?$AA@  300a6fdc     LIBCMTD:fpexcept.obj
 0002:00007fe0       ??_C@_05HGHHAHAP@log10?$AA@ 300a6fe0     LIBCMTD:fpexcept.obj
 0002:00007fe8       ??_C@_04COOMCNPB@sinh?$AA@ 300a6fe8     LIBCMTD:fpexcept.obj
 0002:00007ff0       ??_C@_04HPJJNFIM@cosh?$AA@ 300a6ff0     LIBCMTD:fpexcept.obj
 0002:00007ff8       ??_C@_04FJHINJAO@tanh?$AA@ 300a6ff8     LIBCMTD:fpexcept.obj
 0002:00008000       ??_C@_04FIHNOPOL@asin?$AA@ 300a7000     LIBCMTD:fpexcept.obj
 0002:00008008       ??_C@_04PDIFKINK@acos?$AA@ 300a7008     LIBCMTD:fpexcept.obj
 0002:00008010       ??_C@_04MLLJIGOK@atan?$AA@ 300a7010     LIBCMTD:fpexcept.obj
 0002:00008018       ??_C@_05KNGEOGJB@atan2?$AA@ 300a7018     LIBCMTD:fpexcept.obj
 0002:00008020       ??_C@_04EIAKFFMI@sqrt?$AA@ 300a7020     LIBCMTD:fpexcept.obj
 0002:00008028       ??_C@_03BLEJJJBH@sin?$AA@  300a7028     LIBCMTD:fpexcept.obj
 0002:0000802c       ??_C@_03LALBNOCG@cos?$AA@  300a702c     LIBCMTD:fpexcept.obj
 0002:00008030       ??_C@_03IIINPABG@tan?$AA@  300a7030     LIBCMTD:fpexcept.obj
 0002:00008034       ??_C@_04GFPJNGEK@ceil?$AA@ 300a7034     LIBCMTD:fpexcept.obj
 0002:0000803c       ??_C@_05PBJFFIGL@floor?$AA@ 300a703c     LIBCMTD:fpexcept.obj
 0002:00008044       ??_C@_04ODHECPBC@fabs?$AA@ 300a7044     LIBCMTD:fpexcept.obj
 0002:0000804c       ??_C@_04EHEDPDJG@modf?$AA@ 300a704c     LIBCMTD:fpexcept.obj
 0002:00008054       ??_C@_05CEJMAHNP@ldexp?$AA@ 300a7054     LIBCMTD:fpexcept.obj
 0002:0000805c       ??_C@_05KBKMEMPO@_cabs?$AA@ 300a705c     LIBCMTD:fpexcept.obj
 0002:00008064       ??_C@_06MEIMCGCF@_hypot?$AA@ 300a7064     LIBCMTD:fpexcept.obj
 0002:0000806c       ??_C@_04KEPJIHGP@fmod?$AA@ 300a706c     LIBCMTD:fpexcept.obj
 0002:00008074       ??_C@_05GKKHEGJL@frexp?$AA@ 300a7074     LIBCMTD:fpexcept.obj
 0002:0000807c       ??_C@_03MJLDFKDL@_y0?$AA@  300a707c     LIBCMTD:fpexcept.obj
 0002:00008080       ??_C@_03NAKIGLHK@_y1?$AA@  300a7080     LIBCMTD:fpexcept.obj
 0002:00008084       ??_C@_03ONILCKOB@_yn?$AA@  300a7084     LIBCMTD:fpexcept.obj
 0002:00008088       ??_C@_05JGDBENOH@_logb?$AA@ 300a7088     LIBCMTD:fpexcept.obj
 0002:00008090       ??_C@_0L@KDOEJCKC@_nextafter?$AA@ 300a7090     LIBCMTD:fpexcept.obj
 0002:00008940       ??_C@_1BO@LKEBEKJP@?$AAp?$AAV?$AAa?$AAl?$AAu?$AAe?$AA?5?$AA?$CB?$AA?$DN?$AA?5?$AAN?$AAU?$AAL?$AAL?$AA?$AA@ 300a7940     LIBCMTD:dosmap.obj
 0002:00008960       ??_C@_1GA@MFGIMPNL@?$AAf?$AA?3?$AA?2?$AAd?$AAd?$AA?2?$AAv?$AAc?$AAt?$AAo?$AAo?$AAl?$AAs?$AA?2?$AAc?$AAr?$AAt?$AA_?$AAb?$AAl?$AAd?$AA?2?$AAs?$AAe?$AAl?$AAf?$AA_?$AAx?$AA8?$AA6?$AA?2?$AAc@ 300a7960     LIBCMTD:dosmap.obj
 0002:000089c0       ??_C@_1BG@KCMPBBDK@?$AA_?$AAg?$AAe?$AAt?$AA_?$AAe?$AAr?$AAr?$AAn?$AAo?$AA?$AA@ 300a79c0     LIBCMTD:dosmap.obj
 0002:000089d8       ??_C@_1BM@INIPHHDD@?$AA_?$AAg?$AAe?$AAt?$AA_?$AAd?$AAo?$AAs?$AAe?$AAr?$AAr?$AAn?$AAo?$AA?$AA@ 300a79d8     LIBCMTD:dosmap.obj
 0002:000089f4       ??_C@_1CA@MBDBOHIB@?$AA_?$AAL?$AAo?$AAc?$AAa?$AAl?$AAe?$AA?5?$AA?$CB?$AA?$DN?$AA?5?$AAN?$AAU?$AAL?$AAL?$AA?$AA@ 300a79f4     LIBCMTD:strgtold.obj
 0002:00008a18       ??_C@_1IG@IGKPPFIM@?$AAf?$AA?3?$AA?2?$AAd?$AAd?$AA?2?$AAv?$AAc?$AAt?$AAo?$AAo?$AAl?$AAs?$AA?2?$AAc?$AAr?$AAt?$AA_?$AAb?$AAl?$AAd?$AA?2?$AAs?$AAe?$AAl?$AAf?$AA_?$AAx?$AA8?$AA6?$AA?2?$AAc@ 300a7a18     LIBCMTD:strgtold.obj
 0002:00008aa0       ??_C@_1BO@IHLJHOPI@?$AA_?$AA_?$AAs?$AAt?$AAr?$AAg?$AAt?$AAo?$AAl?$AAd?$AA1?$AA2?$AA_?$AAl?$AA?$AA@ 300a7aa0     LIBCMTD:strgtold.obj
 0002:00008ac0       ??_C@_1BJK@FEBNHLFF@?$AA?$CI?$AA?$CI?$AAp?$AAt?$AAl?$AAo?$AAc?$AAi?$AA?9?$AA?$DO?$AAl?$AAc?$AA_?$AAc?$AAa?$AAt?$AAe?$AAg?$AAo?$AAr?$AAy?$AA?$FL?$AAc?$AAa?$AAt?$AAe?$AAg?$AAo?$AAr?$AAy?$AA?$FN?$AA?4@ 300a7ac0     LIBCMTD:localref.obj
 0002:00008c60       ??_C@_1GE@HMAALBPJ@?$AAf?$AA?3?$AA?2?$AAd?$AAd?$AA?2?$AAv?$AAc?$AAt?$AAo?$AAo?$AAl?$AAs?$AA?2?$AAc?$AAr?$AAt?$AA_?$AAb?$AAl?$AAd?$AA?2?$AAs?$AAe?$AAl?$AAf?$AA_?$AAx?$AA8?$AA6?$AA?2?$AAc@ 300a7c60     LIBCMTD:localref.obj
 0002:00008cd4       ??_C@_1M@HPNHIDJI@?$AAj?$AAa?$AA?9?$AAJ?$AAP?$AA?$AA@ 300a7cd4     LIBCMTD:mbctype.obj
 0002:00008ce0       ??_C@_1M@BIBDDEMK@?$AAz?$AAh?$AA?9?$AAC?$AAN?$AA?$AA@ 300a7ce0     LIBCMTD:mbctype.obj
 0002:00008cec       ??_C@_1M@JLOOOEGK@?$AAk?$AAo?$AA?9?$AAK?$AAR?$AA?$AA@ 300a7cec     LIBCMTD:mbctype.obj
 0002:00008cf8       ??_C@_1M@CLNBBOPM@?$AAz?$AAh?$AA?9?$AAT?$AAW?$AA?$AA@ 300a7cf8     LIBCMTD:mbctype.obj
 0002:00008d04       ??_C@_0DB@MHMEONEC@f?3?2dd?2vctools?2crt_bld?2self_x86?2c@ 300a7d04     LIBCMTD:mbctype.obj
 0002:00008d38       ??_C@_1CI@JELMFMDH@?$AAc?$AA?5?$AA?$DO?$AA?$DN?$AA?5?$AA?9?$AA1?$AA?5?$AA?$CG?$AA?$CG?$AA?5?$AAc?$AA?5?$AA?$DM?$AA?$DN?$AA?5?$AA2?$AA5?$AA5?$AA?$AA@ 300a7d38     LIBCMTD:isctype.obj
 0002:00008d60       ??_C@_1GC@CHGJNMHG@?$AAf?$AA?3?$AA?2?$AAd?$AAd?$AA?2?$AAv?$AAc?$AAt?$AAo?$AAo?$AAl?$AAs?$AA?2?$AAc?$AAr?$AAt?$AA_?$AAb?$AAl?$AAd?$AA?2?$AAs?$AAe?$AAl?$AAf?$AA_?$AAx?$AA8?$AA6?$AA?2?$AAc@ 300a7d60     LIBCMTD:isctype.obj
 0002:00008dc4       ??_C@_0DC@LMJHGCKC@f?3?2dd?2vctools?2crt_bld?2self_x86?2c@ 300a7dc4     LIBCMTD:tidtable.obj
 0002:00008e04       ??_C@_1BA@GLMCNLEM@?$AAW?$AAa?$AAr?$AAn?$AAi?$AAn?$AAg?$AA?$AA@ 300a7e04     LIBCMTD:dbgrptw.obj
 0002:00008e14       ??_C@_1M@ILHOPKA@?$AAE?$AAr?$AAr?$AAo?$AAr?$AA?$AA@ 300a7e14     LIBCMTD:dbgrptw.obj
 0002:00008e20       ??_C@_1CC@CGHMNGDG@?$AAA?$AAs?$AAs?$AAe?$AAr?$AAt?$AAi?$AAo?$AAn?$AA?5?$AAF?$AAa?$AAi?$AAl?$AAe?$AAd?$AA?$AA@ 300a7e20     LIBCMTD:dbgrptw.obj
 0002:00008e48       ??_C@_1HI@OFEHGPPC@?$AAm?$AAo?$AAd?$AAe?$AA?5?$AA?$DN?$AA?$DN?$AA?5?$AA_?$AAC?$AAR?$AAT?$AA_?$AAR?$AAP?$AAT?$AAH?$AAO?$AAO?$AAK?$AA_?$AAI?$AAN?$AAS?$AAT?$AAA?$AAL?$AAL?$AA?5?$AA?$HM?$AA?$HM?$AA?5@ 300a7e48     LIBCMTD:dbgrptw.obj
 0002:00008ec0       ??_C@_1GA@IBJGKIFE@?$AAf?$AA?3?$AA?2?$AAd?$AAd?$AA?2?$AAv?$AAc?$AAt?$AAo?$AAo?$AAl?$AAs?$AA?2?$AAc?$AAr?$AAt?$AA_?$AAb?$AAl?$AAd?$AA?2?$AAs?$AAe?$AAl?$AAf?$AA_?$AAx?$AA8?$AA6?$AA?2?$AAc@ 300a7ec0     LIBCMTD:dbgrptw.obj
 0002:00008f20       ??_C@_1CI@IIHEAKEI@?$AA_?$AAC?$AAr?$AAt?$AAS?$AAe?$AAt?$AAR?$AAe?$AAp?$AAo?$AAr?$AAt?$AAH?$AAo?$AAo?$AAk?$AAW?$AA2?$AA?$AA@ 300a7f20     LIBCMTD:dbgrptw.obj
 0002:00008f48       ??_C@_1CG@JBJEFOCM@?$AAp?$AAf?$AAn?$AAN?$AAe?$AAw?$AAH?$AAo?$AAo?$AAk?$AA?5?$AA?$CB?$AA?$DN?$AA?5?$AAN?$AAU?$AAL?$AAL?$AA?$AA@ 300a7f48     LIBCMTD:dbgrptw.obj
 0002:00008f70       ??_C@_1FI@PHIAFFHM@?$AA?$CI?$AA?$CC?$AAT?$AAh?$AAe?$AA?5?$AAh?$AAo?$AAo?$AAk?$AA?5?$AAf?$AAu?$AAn?$AAc?$AAt?$AAi?$AAo?$AAn?$AA?5?$AAi?$AAs?$AA?5?$AAn?$AAo?$AAt?$AA?5?$AAi?$AAn?$AA?5?$AAt?$AAh@ 300a7f70     LIBCMTD:dbgrptw.obj
 0002:00008fc8       ??_C@_0DA@PCCBBBID@f?3?2dd?2vctools?2crt_bld?2self_x86?2c@ 300a7fc8     LIBCMTD:dbgrptw.obj
 0002:00008ff8       ??_C@_1CI@PGJIFDEK@?$AA_?$AA_?$AAc?$AAr?$AAt?$AAM?$AAe?$AAs?$AAs?$AAa?$AAg?$AAe?$AAW?$AAi?$AAn?$AAd?$AAo?$AAw?$AAW?$AA?$AA@ 300a7ff8     LIBCMTD:dbgrptw.obj
 0002:00009020       ??_C@_1GI@DEDNNLCI@?$AAw?$AAc?$AAs?$AAc?$AAp?$AAy?$AA_?$AAs?$AA?$CI?$AAs?$AAz?$AAE?$AAx?$AAe?$AAN?$AAa?$AAm?$AAe?$AA?0?$AA?5?$AA2?$AA6?$AA0?$AA?0?$AA?5?$AAL?$AA?$CC?$AA?$DM?$AAp?$AAr?$AAo?$AAg@ 300a8020     LIBCMTD:dbgrptw.obj
 0002:00009088       ??_C@_1NO@LECLLHOL@?$AAm?$AAe?$AAm?$AAc?$AAp?$AAy?$AA_?$AAs?$AA?$CI?$AAs?$AAz?$AAS?$AAh?$AAo?$AAr?$AAt?$AAP?$AAr?$AAo?$AAg?$AAN?$AAa?$AAm?$AAe?$AA?0?$AA?5?$AAs?$AAi?$AAz?$AAe?$AAo?$AAf@ 300a8088     LIBCMTD:dbgrptw.obj
 0002:00009168       ??_C@_1OG@PMPPFHAF@?$AA?6?$AA?6?$AAF?$AAo?$AAr?$AA?5?$AAi?$AAn?$AAf?$AAo?$AAr?$AAm?$AAa?$AAt?$AAi?$AAo?$AAn?$AA?5?$AAo?$AAn?$AA?5?$AAh?$AAo?$AAw?$AA?5?$AAy?$AAo?$AAu?$AAr?$AA?5?$AAp?$AAr@ 300a8168     LIBCMTD:dbgrptw.obj
 0002:00009250       ??_C@_11LOCGONAA@?$AA?$AA@ 300a8250     LIBCMTD:dbgrptw.obj
 0002:00009254       ??_C@_1BA@GLLGCPCK@?$AA?6?$AAL?$AAi?$AAn?$AAe?$AA?3?$AA?5?$AA?$AA@ 300a8254     LIBCMTD:dbgrptw.obj
 0002:00009264       ??_C@_1BA@LNHECFIM@?$AA?6?$AAF?$AAi?$AAl?$AAe?$AA?3?$AA?5?$AA?$AA@ 300a8264     LIBCMTD:dbgrptw.obj
 0002:00009274       ??_C@_1BE@CGCJKGHI@?$AA?6?$AAM?$AAo?$AAd?$AAu?$AAl?$AAe?$AA?3?$AA?5?$AA?$AA@ 300a8274     LIBCMTD:dbgrptw.obj
 0002:00009288       ??_C@_1KM@HNMIBKJH@?$AAD?$AAe?$AAb?$AAu?$AAg?$AA?5?$AA?$CF?$AAs?$AA?$CB?$AA?6?$AA?6?$AAP?$AAr?$AAo?$AAg?$AAr?$AAa?$AAm?$AA?3?$AA?5?$AA?$CF?$AAs?$AA?$CF?$AAs?$AA?$CF?$AAs?$AA?$CF?$AAs?$AA?$CF?$AAs?$AA?$CF?$AAs@ 300a8288     LIBCMTD:dbgrptw.obj
 0002:00009334       ??_C@_1BI@KALLJECN@?$AA?$CI?$AA?$CK?$AA_?$AAe?$AAr?$AAr?$AAn?$AAo?$AA?$CI?$AA?$CJ?$AA?$CJ?$AA?$AA@ 300a8334     LIBCMTD:dbgrptw.obj
 0002:00009350       ??_C@_1JI@EACPGHID@?$AAw?$AAc?$AAs?$AAc?$AAp?$AAy?$AA_?$AAs?$AA?$CI?$AAs?$AAz?$AAO?$AAu?$AAt?$AAM?$AAe?$AAs?$AAs?$AAa?$AAg?$AAe?$AA?0?$AA?5?$AA4?$AA0?$AA9?$AA6?$AA?0?$AA?5?$AAL?$AA?$CC?$AA_@ 300a8350     LIBCMTD:dbgrptw.obj
 0002:000093e8       ??_C@_1FG@BBOLDHGF@?$AA_?$AAC?$AAr?$AAt?$AAD?$AAb?$AAg?$AAR?$AAe?$AAp?$AAo?$AAr?$AAt?$AA?3?$AA?5?$AAS?$AAt?$AAr?$AAi?$AAn?$AAg?$AA?5?$AAt?$AAo?$AAo?$AA?5?$AAl?$AAo?$AAn?$AAg?$AA?5?$AAo@ 300a83e8     LIBCMTD:dbgrptw.obj
 0002:00009440       ??_C@_03KOEHGMDN@Sun?$AA@  300a8440     LIBCMTD:nlsdata.obj
 0002:00009444       ??_C@_03PDAGKDH@Mon?$AA@   300a8444     LIBCMTD:nlsdata.obj
 0002:00009448       ??_C@_03NAGEINEP@Tue?$AA@  300a8448     LIBCMTD:nlsdata.obj
 0002:0000944c       ??_C@_03MHOMLAJA@Wed?$AA@  300a844c     LIBCMTD:nlsdata.obj
 0002:00009450       ??_C@_03IOFIKPDN@Thu?$AA@  300a8450     LIBCMTD:nlsdata.obj
 0002:00009454       ??_C@_03IDIOELNC@Fri?$AA@  300a8454     LIBCMTD:nlsdata.obj
 0002:00009458       ??_C@_03FEFJNEK@Sat?$AA@   300a8458     LIBCMTD:nlsdata.obj
 0002:0000945c       ??_C@_06OOPIFAJ@Sunday?$AA@ 300a845c     LIBCMTD:nlsdata.obj
 0002:00009464       ??_C@_06JLEDEDGH@Monday?$AA@ 300a8464     LIBCMTD:nlsdata.obj
 0002:0000946c       ??_C@_07BAAGCFCM@Tuesday?$AA@ 300a846c     LIBCMTD:nlsdata.obj
 0002:00009474       ??_C@_09DLIGFAKA@Wednesday?$AA@ 300a8474     LIBCMTD:nlsdata.obj
 0002:00009480       ??_C@_08HACCIKIA@Thursday?$AA@ 300a8480     LIBCMTD:nlsdata.obj
 0002:0000948c       ??_C@_06JECMNKMI@Friday?$AA@ 300a848c     LIBCMTD:nlsdata.obj
 0002:00009494       ??_C@_08INBOOONO@Saturday?$AA@ 300a8494     LIBCMTD:nlsdata.obj
 0002:000094a0       ??_C@_03JIHJHPIE@Jan?$AA@  300a84a0     LIBCMTD:nlsdata.obj
 0002:000094a4       ??_C@_03HJBDCHOM@Feb?$AA@  300a84a4     LIBCMTD:nlsdata.obj
 0002:000094a8       ??_C@_03ODNJBKGA@Mar?$AA@  300a84a8     LIBCMTD:nlsdata.obj
 0002:000094ac       ??_C@_03LEOLGMJP@Apr?$AA@  300a84ac     LIBCMTD:nlsdata.obj
 0002:000094b0       ??_C@_03CNMDKL@May?$AA@    300a84b0     LIBCMTD:nlsdata.obj
 0002:000094b4       ??_C@_03IDFGHECI@Jun?$AA@  300a84b4     LIBCMTD:nlsdata.obj
 0002:000094b8       ??_C@_03LBGABGKK@Jul?$AA@  300a84b8     LIBCMTD:nlsdata.obj
 0002:000094bc       ??_C@_03IFJFEIGA@Aug?$AA@  300a84bc     LIBCMTD:nlsdata.obj
 0002:000094c0       ??_C@_03GGCAPAJC@Sep?$AA@  300a84c0     LIBCMTD:nlsdata.obj
 0002:000094c4       ??_C@_03BMAOKBAD@Oct?$AA@  300a84c4     LIBCMTD:nlsdata.obj
 0002:000094c8       ??_C@_03JPJOFNIA@Nov?$AA@  300a84c8     LIBCMTD:nlsdata.obj
 0002:000094cc       ??_C@_03MKABNOCG@Dec?$AA@  300a84cc     LIBCMTD:nlsdata.obj
 0002:000094d0       ??_C@_07CGJPFGJA@January?$AA@ 300a84d0     LIBCMTD:nlsdata.obj
 0002:000094d8       ??_C@_08GNJGEPFN@February?$AA@ 300a84d8     LIBCMTD:nlsdata.obj
 0002:000094e4       ??_C@_05HPCKOFNC@March?$AA@ 300a84e4     LIBCMTD:nlsdata.obj
 0002:000094ec       ??_C@_05DMJDNLEJ@April?$AA@ 300a84ec     LIBCMTD:nlsdata.obj
 0002:000094f4       ??_C@_04CNLMGBGM@June?$AA@ 300a84f4     LIBCMTD:nlsdata.obj
 0002:000094fc       ??_C@_04MIEPOIFP@July?$AA@ 300a84fc     LIBCMTD:nlsdata.obj
 0002:00009504       ??_C@_06LBBHFDDG@August?$AA@ 300a8504     LIBCMTD:nlsdata.obj
 0002:0000950c       ??_C@_09BHHEALKD@September?$AA@ 300a850c     LIBCMTD:nlsdata.obj
 0002:00009518       ??_C@_07JJNFCEND@October?$AA@ 300a8518     LIBCMTD:nlsdata.obj
 0002:00009520       ??_C@_08HCHEGEOA@November?$AA@ 300a8520     LIBCMTD:nlsdata.obj
 0002:0000952c       ??_C@_08EDHMEBNP@December?$AA@ 300a852c     LIBCMTD:nlsdata.obj
 0002:00009538       ??_C@_02DEDBPAFC@AM?$AA@   300a8538     LIBCMTD:nlsdata.obj
 0002:0000953c       ??_C@_02CJNFDJBF@PM?$AA@   300a853c     LIBCMTD:nlsdata.obj
 0002:00009540       ??_C@_08BPBNCDIB@MM?1dd?1yy?$AA@ 300a8540     LIBCMTD:nlsdata.obj
 0002:0000954c       ??_C@_0BE@CKGJFCPC@dddd?0?5MMMM?5dd?0?5yyyy?$AA@ 300a854c     LIBCMTD:nlsdata.obj
 0002:00009560       ??_C@_08JCCMCCIL@HH?3mm?3ss?$AA@ 300a8560     LIBCMTD:nlsdata.obj
 0002:0000956c       ??_C@_17MBGCMIPB@?$AAS?$AAu?$AAn?$AA?$AA@ 300a856c     LIBCMTD:nlsdata.obj
 0002:00009574       ??_C@_17KBOMKBF@?$AAM?$AAo?$AAn?$AA?$AA@ 300a8574     LIBCMTD:nlsdata.obj
 0002:0000957c       ??_C@_17BMKGEGOJ@?$AAT?$AAu?$AAe?$AA?$AA@ 300a857c     LIBCMTD:nlsdata.obj
 0002:00009584       ??_C@_17CJEDCEPE@?$AAW?$AAe?$AAd?$AA?$AA@ 300a8584     LIBCMTD:nlsdata.obj
 0002:0000958c       ??_C@_17PDPHAADD@?$AAT?$AAh?$AAu?$AA?$AA@ 300a858c     LIBCMTD:nlsdata.obj
 0002:00009594       ??_C@_17HFOLPPLP@?$AAF?$AAr?$AAi?$AA?$AA@ 300a8594     LIBCMTD:nlsdata.obj
 0002:0000959c       ??_C@_17GGIBDPIH@?$AAS?$AAa?$AAt?$AA?$AA@ 300a859c     LIBCMTD:nlsdata.obj
 0002:000095a4       ??_C@_1O@IHNHDHPB@?$AAS?$AAu?$AAn?$AAd?$AAa?$AAy?$AA?$AA@ 300a85a4     LIBCMTD:nlsdata.obj
 0002:000095b4       ??_C@_1O@MMNBFLIA@?$AAM?$AAo?$AAn?$AAd?$AAa?$AAy?$AA?$AA@ 300a85b4     LIBCMTD:nlsdata.obj
 0002:000095c4       ??_C@_1BA@ENFBFFEK@?$AAT?$AAu?$AAe?$AAs?$AAd?$AAa?$AAy?$AA?$AA@ 300a85c4     LIBCMTD:nlsdata.obj
 0002:000095d4       ??_C@_1BE@EBOGMDOH@?$AAW?$AAe?$AAd?$AAn?$AAe?$AAs?$AAd?$AAa?$AAy?$AA?$AA@ 300a85d4     LIBCMTD:nlsdata.obj
 0002:000095e8       ??_C@_1BC@HHMNLIHE@?$AAT?$AAh?$AAu?$AAr?$AAs?$AAd?$AAa?$AAy?$AA?$AA@ 300a85e8     LIBCMTD:nlsdata.obj
 0002:000095fc       ??_C@_1O@PDICJHAG@?$AAF?$AAr?$AAi?$AAd?$AAa?$AAy?$AA?$AA@ 300a85fc     LIBCMTD:nlsdata.obj
 0002:0000960c       ??_C@_1BC@ENMNNPAJ@?$AAS?$AAa?$AAt?$AAu?$AAr?$AAd?$AAa?$AAy?$AA?$AA@ 300a860c     LIBCMTD:nlsdata.obj
 0002:00009620       ??_C@_17DKNBKCHM@?$AAJ?$AAa?$AAn?$AA?$AA@ 300a8620     LIBCMTD:nlsdata.obj
 0002:00009628       ??_C@_17LMDJEKJN@?$AAF?$AAe?$AAb?$AA?$AA@ 300a8628     LIBCMTD:nlsdata.obj
 0002:00009630       ??_C@_17CKNLEDEC@?$AAM?$AAa?$AAr?$AA?$AA@ 300a8630     LIBCMTD:nlsdata.obj
 0002:00009638       ??_C@_17LFPOIHDD@?$AAA?$AAp?$AAr?$AA?$AA@ 300a8638     LIBCMTD:nlsdata.obj
 0002:00009640       ??_C@_17PNNKMEED@?$AAM?$AAa?$AAy?$AA?$AA@ 300a8640     LIBCMTD:nlsdata.obj
 0002:00009648       ??_C@_17KCJGOCPB@?$AAJ?$AAu?$AAn?$AA?$AA@ 300a8648     LIBCMTD:nlsdata.obj
 0002:00009650       ??_C@_17IJPCKHK@?$AAJ?$AAu?$AAl?$AA?$AA@ 300a8650     LIBCMTD:nlsdata.obj
 0002:00009658       ??_C@_17ICPELBCN@?$AAA?$AAu?$AAg?$AA?$AA@ 300a8658     LIBCMTD:nlsdata.obj
 0002:00009660       ??_C@_17HCHCOKMG@?$AAS?$AAe?$AAp?$AA?$AA@ 300a8660     LIBCMTD:nlsdata.obj
 0002:00009668       ??_C@_17FNLKOI@?$AAO?$AAc?$AAt?$AA?$AA@ 300a8668     LIBCMTD:nlsdata.obj
 0002:00009670       ??_C@_17BBDMLCIG@?$AAN?$AAo?$AAv?$AA?$AA@ 300a8670     LIBCMTD:nlsdata.obj
 0002:00009678       ??_C@_17EGKACKIF@?$AAD?$AAe?$AAc?$AA?$AA@ 300a8678     LIBCMTD:nlsdata.obj
 0002:00009680       ??_C@_1BA@EFMEIEBA@?$AAJ?$AAa?$AAn?$AAu?$AAa?$AAr?$AAy?$AA?$AA@ 300a8680     LIBCMTD:nlsdata.obj
 0002:00009690       ??_C@_1BC@JGDDFFAM@?$AAF?$AAe?$AAb?$AAr?$AAu?$AAa?$AAr?$AAy?$AA?$AA@ 300a8690     LIBCMTD:nlsdata.obj
 0002:000096a4       ??_C@_1M@IKEENEDF@?$AAM?$AAa?$AAr?$AAc?$AAh?$AA?$AA@ 300a86a4     LIBCMTD:nlsdata.obj
 0002:000096b0       ??_C@_1M@GJNLMHFD@?$AAA?$AAp?$AAr?$AAi?$AAl?$AA?$AA@ 300a86b0     LIBCMTD:nlsdata.obj
 0002:000096bc       ??_C@_19EPFLPGAP@?$AAJ?$AAu?$AAn?$AAe?$AA?$AA@ 300a86bc     LIBCMTD:nlsdata.obj
 0002:000096c8       ??_C@_19BIFMLPCD@?$AAJ?$AAu?$AAl?$AAy?$AA?$AA@ 300a86c8     LIBCMTD:nlsdata.obj
 0002:000096d4       ??_C@_1O@PAHLKOAC@?$AAA?$AAu?$AAg?$AAu?$AAs?$AAt?$AA?$AA@ 300a86d4     LIBCMTD:nlsdata.obj
 0002:000096e4       ??_C@_1BE@DKAAMBJL@?$AAS?$AAe?$AAp?$AAt?$AAe?$AAm?$AAb?$AAe?$AAr?$AA?$AA@ 300a86e4     LIBCMTD:nlsdata.obj
 0002:000096f8       ??_C@_1BA@EPANDLNG@?$AAO?$AAc?$AAt?$AAo?$AAb?$AAe?$AAr?$AA?$AA@ 300a86f8     LIBCMTD:nlsdata.obj
 0002:00009708       ??_C@_1BC@BGLIFPF@?$AAN?$AAo?$AAv?$AAe?$AAm?$AAb?$AAe?$AAr?$AA?$AA@ 300a8708     LIBCMTD:nlsdata.obj
 0002:0000971c       ??_C@_1BC@FEMKIFH@?$AAD?$AAe?$AAc?$AAe?$AAm?$AAb?$AAe?$AAr?$AA?$AA@ 300a871c     LIBCMTD:nlsdata.obj
 0002:00009730       ??_C@_15ODEHAHHF@?$AAA?$AAM?$AA?$AA@ 300a8730     LIBCMTD:nlsdata.obj
 0002:00009738       ??_C@_15CLMNNGEL@?$AAP?$AAM?$AA?$AA@ 300a8738     LIBCMTD:nlsdata.obj
 0002:00009740       ??_C@_1BC@IEBCMHCM@?$AAM?$AAM?$AA?1?$AAd?$AAd?$AA?1?$AAy?$AAy?$AA?$AA@ 300a8740     LIBCMTD:nlsdata.obj
 0002:00009754       ??_C@_1CI@KNAKOEBC@?$AAd?$AAd?$AAd?$AAd?$AA?0?$AA?5?$AAM?$AAM?$AAM?$AAM?$AA?5?$AAd?$AAd?$AA?0?$AA?5?$AAy?$AAy?$AAy?$AAy?$AA?$AA@ 300a8754     LIBCMTD:nlsdata.obj
 0002:0000977c       ??_C@_1BC@GDGBMEMK@?$AAH?$AAH?$AA?3?$AAm?$AAm?$AA?3?$AAs?$AAs?$AA?$AA@ 300a877c     LIBCMTD:nlsdata.obj
 0002:00009790       ??_C@_1M@BMHNFIME@?$AAe?$AAn?$AA?9?$AAU?$AAS?$AA?$AA@ 300a8790     LIBCMTD:nlsdata.obj
 0002:0000979c       ??_C@_1BI@ICGGMGLK@?$AAb?$AAu?$AAf?$AA?5?$AA?$CB?$AA?$DN?$AA?5?$AAN?$AAU?$AAL?$AAL?$AA?$AA@ 300a879c     LIBCMTD:cvt.obj
 0002:000097b8       ??_C@_1GO@NCCGBNKI@?$AAf?$AA?3?$AA?2?$AAd?$AAd?$AA?2?$AAv?$AAc?$AAt?$AAo?$AAo?$AAl?$AAs?$AA?2?$AAc?$AAr?$AAt?$AA_?$AAb?$AAl?$AAd?$AA?2?$AAs?$AAe?$AAl?$AAf?$AA_?$AAx?$AA8?$AA6?$AA?2?$AAc@ 300a87b8     LIBCMTD:cvt.obj
 0002:00009828       ??_C@_1BE@OLBNEILL@?$AA_?$AAc?$AAf?$AAt?$AAo?$AAe?$AA2?$AA_?$AAl?$AA?$AA@ 300a8828     LIBCMTD:cvt.obj
 0002:0000983c       ??_C@_1CA@CBMNPEO@?$AAs?$AAi?$AAz?$AAe?$AAI?$AAn?$AAB?$AAy?$AAt?$AAe?$AAs?$AA?5?$AA?$DO?$AA?5?$AA0?$AA?$AA@ 300a883c     LIBCMTD:cvt.obj
 0002:00009860       ??_C@_1HE@NACBNDPP@?$AAs?$AAi?$AAz?$AAe?$AAI?$AAn?$AAB?$AAy?$AAt?$AAe?$AAs?$AA?5?$AA?$DO?$AA?5?$AA?$CI?$AAs?$AAi?$AAz?$AAe?$AA_?$AAt?$AA?$CJ?$AA?$CI?$AA3?$AA?5?$AA?$CL?$AA?5?$AA?$CI?$AAn?$AAd?$AAe?$AAc@ 300a8860     LIBCMTD:cvt.obj
 0002:000098d8       ??_C@_1LE@EOIFGNCJ@?$AAs?$AAt?$AAr?$AAc?$AAp?$AAy?$AA_?$AAs?$AA?$CI?$AAp?$AA?0?$AA?5?$AA?$CI?$AAs?$AAi?$AAz?$AAe?$AAI?$AAn?$AAB?$AAy?$AAt?$AAe?$AAs?$AA?5?$AA?$DN?$AA?$DN?$AA?5?$AA?$CI?$AAs?$AAi?$AAz@ 300a88d8     LIBCMTD:cvt.obj
 0002:0000998c       ??_C@_05KLBDPFGC@e?$CL000?$AA@ 300a898c     LIBCMTD:cvt.obj
 0002:00009994       ??_C@_1BC@INKAPMHI@?$AA_?$AAc?$AAf?$AAt?$AAo?$AAe?$AA_?$AAl?$AA?$AA@ 300a8994     LIBCMTD:cvt.obj
 0002:000099a8       ??_C@_1BC@JOKPCIC@?$AA_?$AAc?$AAf?$AAt?$AAo?$AAa?$AA_?$AAl?$AA?$AA@ 300a89a8     LIBCMTD:cvt.obj
 0002:000099c0       ??_C@_1FC@IKIMAMJB@?$AAs?$AAi?$AAz?$AAe?$AAI?$AAn?$AAB?$AAy?$AAt?$AAe?$AAs?$AA?5?$AA?$DO?$AA?5?$AA?$CI?$AAs?$AAi?$AAz?$AAe?$AA_?$AAt?$AA?$CJ?$AA?$CI?$AA1?$AA?5?$AA?$CL?$AA?5?$AA4?$AA?5?$AA?$CL?$AA?5?$AAn@ 300a89c0     LIBCMTD:cvt.obj
 0002:00009a14       ??_C@_1BE@CKPDLI@?$AA_?$AAc?$AAf?$AAt?$AAo?$AAf?$AA2?$AA_?$AAl?$AA?$AA@ 300a8a14     LIBCMTD:cvt.obj
 0002:00009a28       ??_C@_1BC@DCPPLJL@?$AA_?$AAc?$AAf?$AAt?$AAo?$AAf?$AA_?$AAl?$AA?$AA@ 300a8a28     LIBCMTD:cvt.obj
 0002:00009a3c       ??_C@_1BC@MPIFPLAF@?$AA_?$AAc?$AAf?$AAt?$AAo?$AAg?$AA_?$AAl?$AA?$AA@ 300a8a3c     LIBCMTD:cvt.obj
 0002:00009a50       ??_C@_1GG@PHGJJHBC@?$AAf?$AA?3?$AA?2?$AAd?$AAd?$AA?2?$AAv?$AAc?$AAt?$AAo?$AAo?$AAl?$AAs?$AA?2?$AAc?$AAr?$AAt?$AA_?$AAb?$AAl?$AAd?$AA?2?$AAs?$AAe?$AAl?$AAf?$AA_?$AAx?$AA8?$AA6?$AA?2?$AAc@ 300a8a50     LIBCMTD:fp8.obj
 0002:00009ab8       ??_C@_1CK@JMKHCBEI@?$AA_?$AAs?$AAe?$AAt?$AAd?$AAe?$AAf?$AAa?$AAu?$AAl?$AAt?$AAp?$AAr?$AAe?$AAc?$AAi?$AAs?$AAi?$AAo?$AAn?$AA?$AA@ 300a8ab8     LIBCMTD:fp8.obj
 0002:00009ae8       ??_C@_1GE@KOCFNGPB@?$AA_?$AAc?$AAo?$AAn?$AAt?$AAr?$AAo?$AAl?$AAf?$AAp?$AA_?$AAs?$AA?$CI?$AA?$CI?$AA?$CI?$AAv?$AAo?$AAi?$AAd?$AA?5?$AA?$CK?$AA?$CJ?$AA0?$AA?$CJ?$AA?0?$AA?5?$AA0?$AAx?$AA0?$AA0?$AA0?$AA1@ 300a8ae8     LIBCMTD:fp8.obj
 0002:00009b50       ??_C@_1GA@GIMEIKLC@?$AAf?$AA?3?$AA?2?$AAd?$AAd?$AA?2?$AAv?$AAc?$AAt?$AAo?$AAo?$AAl?$AAs?$AA?2?$AAc?$AAr?$AAt?$AA_?$AAb?$AAl?$AAd?$AA?2?$AAs?$AAe?$AAl?$AAf?$AA_?$AAx?$AA8?$AA6?$AA?2?$AAc@ 300a8b50     LIBCMTD:strtoq.obj
 0002:00009bb0       ??_C@_1BA@BMMDEPNE@?$AAs?$AAt?$AAr?$AAt?$AAo?$AAx?$AAq?$AA?$AA@ 300a8bb0     LIBCMTD:strtoq.obj
 0002:00009bc0       ??_C@_1FE@CEHLKAHD@?$AAi?$AAb?$AAa?$AAs?$AAe?$AA?5?$AA?$DN?$AA?$DN?$AA?5?$AA0?$AA?5?$AA?$HM?$AA?$HM?$AA?5?$AA?$CI?$AA2?$AA?5?$AA?$DM?$AA?$DN?$AA?5?$AAi?$AAb?$AAa?$AAs?$AAe?$AA?5?$AA?$CG?$AA?$CG?$AA?5?$AAi?$AAb?$AAa@ 300a8bc0     LIBCMTD:strtoq.obj
 0002:00009c18       ??_C@_1GA@IPHKKOEI@?$AAf?$AA?3?$AA?2?$AAd?$AAd?$AA?2?$AAv?$AAc?$AAt?$AAo?$AAo?$AAl?$AAs?$AA?2?$AAc?$AAr?$AAt?$AA_?$AAb?$AAl?$AAd?$AA?2?$AAs?$AAe?$AAl?$AAf?$AA_?$AAx?$AA8?$AA6?$AA?2?$AAc@ 300a8c18     LIBCMTD:strtol.obj
 0002:00009c78       ??_C@_1BA@LOLAMAJG@?$AAs?$AAt?$AAr?$AAt?$AAo?$AAx?$AAl?$AA?$AA@ 300a8c78     LIBCMTD:strtol.obj
 0002:00009c88       ??_C@_1BK@MGMFAEKH@?$AAk?$AAe?$AAr?$AAn?$AAe?$AAl?$AA3?$AA2?$AA?4?$AAd?$AAl?$AAl?$AA?$AA@ 300a8c88     LIBCMTD:winapisupp.obj
 0002:00009ca4       ??_C@_08KNHFBNJ@FlsAlloc?$AA@ 300a8ca4     LIBCMTD:winapisupp.obj
 0002:00009cb0       ??_C@_07PEJMOBNF@FlsFree?$AA@ 300a8cb0     LIBCMTD:winapisupp.obj
 0002:00009cb8       ??_C@_0M@GDNOONDI@FlsGetValue?$AA@ 300a8cb8     LIBCMTD:winapisupp.obj
 0002:00009cc4       ??_C@_0M@JCPCPOEF@FlsSetValue?$AA@ 300a8cc4     LIBCMTD:winapisupp.obj
 0002:00009cd0       ??_C@_0BM@HCFOFFN@InitializeCriticalSectionEx?$AA@ 300a8cd0     LIBCMTD:winapisupp.obj
 0002:00009cec       ??_C@_0BD@KIEEOEEH@CreateSemaphoreExW?$AA@ 300a8cec     LIBCMTD:winapisupp.obj
 0002:00009d00       ??_C@_0BI@BKLFFAPO@SetThreadStackGuarantee?$AA@ 300a8d00     LIBCMTD:winapisupp.obj
 0002:00009d18       ??_C@_0BG@OGFAJCKC@CreateThreadpoolTimer?$AA@ 300a8d18     LIBCMTD:winapisupp.obj
 0002:00009d30       ??_C@_0BD@LPLEMMDI@SetThreadpoolTimer?$AA@ 300a8d30     LIBCMTD:winapisupp.obj
 0002:00009d44       ??_C@_0CA@FMNJENH@WaitForThreadpoolTimerCallbacks?$AA@ 300a8d44     LIBCMTD:winapisupp.obj
 0002:00009d64       ??_C@_0BF@DCFCCNOC@CloseThreadpoolTimer?$AA@ 300a8d64     LIBCMTD:winapisupp.obj
 0002:00009d7c       ??_C@_0BF@FLABGKKM@CreateThreadpoolWait?$AA@ 300a8d7c     LIBCMTD:winapisupp.obj
 0002:00009d94       ??_C@_0BC@MGCOHNA@SetThreadpoolWait?$AA@ 300a8d94     LIBCMTD:winapisupp.obj
 0002:00009da8       ??_C@_0BE@OCIOMIMP@CloseThreadpoolWait?$AA@ 300a8da8     LIBCMTD:winapisupp.obj
 0002:00009dbc       ??_C@_0BJ@LKGHFHBO@FlushProcessWriteBuffers?$AA@ 300a8dbc     LIBCMTD:winapisupp.obj
 0002:00009dd8       ??_C@_0BP@KALKKPMO@FreeLibraryWhenCallbackReturns?$AA@ 300a8dd8     LIBCMTD:winapisupp.obj
 0002:00009df8       ??_C@_0BK@DFNBACLA@GetCurrentProcessorNumber?$AA@ 300a8df8     LIBCMTD:winapisupp.obj
 0002:00009e14       ??_C@_0BP@KHGALBC@GetLogicalProcessorInformation?$AA@ 300a8e14     LIBCMTD:winapisupp.obj
 0002:00009e34       ??_C@_0BE@FKKLLFLM@CreateSymbolicLinkW?$AA@ 300a8e34     LIBCMTD:winapisupp.obj
 0002:00009e48       ??_C@_0BJ@OHNKDLIJ@SetDefaultDllDirectories?$AA@ 300a8e48     LIBCMTD:winapisupp.obj
 0002:00009e64       ??_C@_0BE@LJANKFHF@EnumSystemLocalesEx?$AA@ 300a8e64     LIBCMTD:winapisupp.obj
 0002:00009e78       ??_C@_0BA@IHGNDAEB@CompareStringEx?$AA@ 300a8e78     LIBCMTD:winapisupp.obj
 0002:00009e88       ??_C@_0BA@EPCJIIPD@GetDateFormatEx?$AA@ 300a8e88     LIBCMTD:winapisupp.obj
 0002:00009e98       ??_C@_0BA@ONOKGCMP@GetLocaleInfoEx?$AA@ 300a8e98     LIBCMTD:winapisupp.obj
 0002:00009ea8       ??_C@_0BA@CIJJKCJJ@GetTimeFormatEx?$AA@ 300a8ea8     LIBCMTD:winapisupp.obj
 0002:00009eb8       ??_C@_0BJ@PBCCBIPI@GetUserDefaultLocaleName?$AA@ 300a8eb8     LIBCMTD:winapisupp.obj
 0002:00009ed4       ??_C@_0BC@CELBKLLA@IsValidLocaleName?$AA@ 300a8ed4     LIBCMTD:winapisupp.obj
 0002:00009ee8       ??_C@_0O@KKBNKAPF@LCMapStringEx?$AA@ 300a8ee8     LIBCMTD:winapisupp.obj
 0002:00009ef8       ??_C@_0BE@JOGNEJCI@GetCurrentPackageId?$AA@ 300a8ef8     LIBCMTD:winapisupp.obj
 0002:00009f0c       ??_C@_1BI@MFCLPIBM@?$AAs?$AAt?$AAr?$AA?5?$AA?$CB?$AA?$DN?$AA?5?$AAN?$AAU?$AAL?$AAL?$AA?$AA@ 300a8f0c     LIBCMTD:_flsbuf.obj
 0002:00009f28       ??_C@_1GC@GNCCMPNN@?$AAf?$AA?3?$AA?2?$AAd?$AAd?$AA?2?$AAv?$AAc?$AAt?$AAo?$AAo?$AAl?$AAs?$AA?2?$AAc?$AAr?$AAt?$AA_?$AAb?$AAl?$AAd?$AA?2?$AAs?$AAe?$AAl?$AAf?$AA_?$AAx?$AA8?$AA6?$AA?2?$AAc@ 300a8f28     LIBCMTD:_flsbuf.obj
 0002:00009f90       ??_C@_1HO@MLMGPAFH@?$AA?$CI?$AA?$CC?$AAi?$AAn?$AAc?$AAo?$AAn?$AAs?$AAi?$AAs?$AAt?$AAe?$AAn?$AAt?$AA?5?$AAI?$AAO?$AAB?$AA?5?$AAf?$AAi?$AAe?$AAl?$AAd?$AAs?$AA?$CC?$AA?0?$AA?5?$AAs?$AAt?$AAr?$AAe@ 300a8f90     LIBCMTD:_flsbuf.obj
 0002:0000a010       ??_C@_06OJHGLDPL@?$CInull?$CJ?$AA@ 300a9010     LIBCMTD:output.obj
 0002:0000a018       ??_C@_1O@CEDCILHN@?$AA?$CI?$AAn?$AAu?$AAl?$AAl?$AA?$CJ?$AA?$AA@ 300a9018     LIBCMTD:output.obj
 0002:0000a028       ___lookuptable             300a9028     LIBCMTD:output.obj
 0002:0000a084       ??_C@_1CC@FADMNIL@?$AA?$CI?$AAs?$AAt?$AAr?$AAe?$AAa?$AAm?$AA?5?$AA?$CB?$AA?$DN?$AA?5?$AAN?$AAU?$AAL?$AAL?$AA?$CJ?$AA?$AA@ 300a9084     LIBCMTD:output.obj
 0002:0000a0a8       ??_C@_1GA@HHFOFBLN@?$AAf?$AA?3?$AA?2?$AAd?$AAd?$AA?2?$AAv?$AAc?$AAt?$AAo?$AAo?$AAl?$AAs?$AA?2?$AAc?$AAr?$AAt?$AA_?$AAb?$AAl?$AAd?$AA?2?$AAs?$AAe?$AAl?$AAf?$AA_?$AAx?$AA8?$AA6?$AA?2?$AAc@ 300a90a8     LIBCMTD:output.obj
 0002:0000a108       ??_C@_1BE@IONLIDNC@?$AA_?$AAo?$AAu?$AAt?$AAp?$AAu?$AAt?$AA_?$AAl?$AA?$AA@ 300a9108     LIBCMTD:output.obj
 0002:0000a120       ??_C@_1BAA@ODEGEDCK@?$AA?$CI?$AA?5?$AA?$CI?$AA_?$AAS?$AAt?$AAr?$AAe?$AAa?$AAm?$AA?9?$AA?$DO?$AA_?$AAf?$AAl?$AAa?$AAg?$AA?5?$AA?$CG?$AA?5?$AA_?$AAI?$AAO?$AAS?$AAT?$AAR?$AAG?$AA?$CJ?$AA?5?$AA?$HM?$AA?$HM?$AA?5@ 300a9120     LIBCMTD:output.obj
 0002:0000a220       ??_C@_1CC@IFFHEMNF@?$AA?$CI?$AAc?$AAh?$AA?5?$AA?$CB?$AA?$DN?$AA?5?$AA_?$AAT?$AA?$CI?$AA?8?$AA?2?$AA0?$AA?8?$AA?$CJ?$AA?$CJ?$AA?$AA@ 300a9220     LIBCMTD:output.obj
 0002:0000a248       ??_C@_1EK@PNGFDECN@?$AA?$CI?$AA?$CC?$AA?8?$AAn?$AA?8?$AA?5?$AAf?$AAo?$AAr?$AAm?$AAa?$AAt?$AA?5?$AAs?$AAp?$AAe?$AAc?$AAi?$AAf?$AAi?$AAe?$AAr?$AA?5?$AAd?$AAi?$AAs?$AAa?$AAb?$AAl?$AAe?$AAd?$AA?$CC@ 300a9248     LIBCMTD:output.obj
 0002:0000a294       ??_C@_0DA@NFBEBPEE@f?3?2dd?2vctools?2crt_bld?2self_x86?2c@ 300a9294     LIBCMTD:output.obj
 0002:0000a2c4       ??_C@_1BI@KANOLAMF@?$AA_?$AAo?$AAu?$AAt?$AAp?$AAu?$AAt?$AA_?$AAp?$AA_?$AAl?$AA?$AA@ 300a92c4     LIBCMTD:outputp.obj
 0002:0000a2e0       ??_C@_1JC@PFJNKEIO@?$AA?$CI?$AA?$CI?$AAt?$AAy?$AAp?$AAe?$AA_?$AAp?$AAo?$AAs?$AA?5?$AA?$DO?$AA?$DN?$AA?5?$AA0?$AA?$CJ?$AA?5?$AA?$CG?$AA?$CG?$AA?5?$AA?$CI?$AA?$CK?$AAe?$AAn?$AAd?$AA_?$AAp?$AAo?$AAs?$AA?5?$AA?$DN?$AA?$DN@ 300a92e0     LIBCMTD:outputp.obj
 0002:0000a378       ??_C@_1EE@DMAIGNBG@?$AA?$CI?$AA?$CC?$AAI?$AAn?$AAc?$AAo?$AAr?$AAr?$AAe?$AAc?$AAt?$AA?5?$AAf?$AAo?$AAr?$AAm?$AAa?$AAt?$AA?5?$AAs?$AAp?$AAe?$AAc?$AAi?$AAf?$AAi?$AAe?$AAr?$AA?$CC?$AA?0?$AA?5?$AA0@ 300a9378     LIBCMTD:outputp.obj
 0002:0000a3c0       ??_C@_1JE@NMBHOLFI@?$AA?$CI?$AA?$CI?$AAw?$AAi?$AAd?$AAt?$AAh?$AA_?$AAp?$AAo?$AAs?$AA?5?$AA?$DO?$AA?$DN?$AA?5?$AA0?$AA?$CJ?$AA?5?$AA?$CG?$AA?$CG?$AA?5?$AA?$CI?$AA?$CK?$AAe?$AAn?$AAd?$AA_?$AAp?$AAo?$AAs?$AA?5?$AA?$DN@ 300a93c0     LIBCMTD:outputp.obj
 0002:0000a458       ??_C@_1II@PIPIMLPF@?$AA_?$AAt?$AAv?$AAa?$AAl?$AAi?$AAd?$AAa?$AAt?$AAe?$AA_?$AAp?$AAa?$AAr?$AAa?$AAm?$AA_?$AAr?$AAe?$AAu?$AAs?$AAe?$AA?$CI?$AA?$CG?$AAp?$AAo?$AAs?$AA_?$AAv?$AAa?$AAl?$AAu@ 300a9458     LIBCMTD:outputp.obj
 0002:0000a4e0       ??_C@_1JG@JBJBOCFB@?$AA?$CI?$AA?$CI?$AAp?$AAr?$AAe?$AAc?$AAi?$AAs?$AA_?$AAp?$AAo?$AAs?$AA?5?$AA?$DO?$AA?$DN?$AA?5?$AA0?$AA?$CJ?$AA?5?$AA?$CG?$AA?$CG?$AA?5?$AA?$CI?$AA?$CK?$AAe?$AAn?$AAd?$AA_?$AAp?$AAo?$AAs?$AA?5@ 300a94e0     LIBCMTD:outputp.obj
 0002:0000a578       ??_C@_1IK@EIEPDKHJ@?$AA_?$AAt?$AAv?$AAa?$AAl?$AAi?$AAd?$AAa?$AAt?$AAe?$AA_?$AAp?$AAa?$AAr?$AAa?$AAm?$AA_?$AAr?$AAe?$AAu?$AAs?$AAe?$AA?$CI?$AA?$CG?$AAp?$AAo?$AAs?$AA_?$AAv?$AAa?$AAl?$AAu@ 300a9578     LIBCMTD:outputp.obj
 0002:0000a608       ??_C@_1EM@BNPHBBIA@?$AA?$CI?$AA?$CI?$AAt?$AAy?$AAp?$AAe?$AA_?$AAp?$AAo?$AAs?$AA?$DO?$AA?$DN?$AA0?$AA?$CJ?$AA?5?$AA?$CG?$AA?$CG?$AA?5?$AA?$CI?$AAt?$AAy?$AAp?$AAe?$AA_?$AAp?$AAo?$AAs?$AA?$DM?$AA_?$AAA?$AAR?$AAG@ 300a9608     LIBCMTD:outputp.obj
 0002:0000a658       ??_C@_1IK@MHEDJAMK@?$AA_?$AAt?$AAv?$AAa?$AAl?$AAi?$AAd?$AAa?$AAt?$AAe?$AA_?$AAp?$AAa?$AAr?$AAa?$AAm?$AA_?$AAr?$AAe?$AAu?$AAs?$AAe?$AA?$CI?$AA?$CG?$AAp?$AAo?$AAs?$AA_?$AAv?$AAa?$AAl?$AAu@ 300a9658     LIBCMTD:outputp.obj
 0002:0000a6e8       ??_C@_1IG@FDCPLALG@?$AA_?$AAt?$AAv?$AAa?$AAl?$AAi?$AAd?$AAa?$AAt?$AAe?$AA_?$AAp?$AAa?$AAr?$AAa?$AAm?$AA_?$AAr?$AAe?$AAu?$AAs?$AAe?$AA?$CI?$AA?$CG?$AAp?$AAo?$AAs?$AA_?$AAv?$AAa?$AAl?$AAu@ 300a96e8     LIBCMTD:outputp.obj
 0002:0000a770       ??_C@_1IG@HJIMKDHC@?$AA_?$AAt?$AAv?$AAa?$AAl?$AAi?$AAd?$AAa?$AAt?$AAe?$AA_?$AAp?$AAa?$AAr?$AAa?$AAm?$AA_?$AAr?$AAe?$AAu?$AAs?$AAe?$AA?$CI?$AA?$CG?$AAp?$AAo?$AAs?$AA_?$AAv?$AAa?$AAl?$AAu@ 300a9770     LIBCMTD:outputp.obj
 0002:0000a7f8       ??_C@_1IM@DNGHAPLB@?$AA_?$AAt?$AAv?$AAa?$AAl?$AAi?$AAd?$AAa?$AAt?$AAe?$AA_?$AAp?$AAa?$AAr?$AAa?$AAm?$AA_?$AAr?$AAe?$AAu?$AAs?$AAe?$AA?$CI?$AA?$CG?$AAp?$AAo?$AAs?$AA_?$AAv?$AAa?$AAl?$AAu@ 300a97f8     LIBCMTD:outputp.obj
 0002:0000a884       ??_C@_1DG@GOHGNKHE@?$AAp?$AAa?$AAs?$AAs?$AA?5?$AA?$DN?$AA?$DN?$AA?5?$AAF?$AAO?$AAR?$AAM?$AAA?$AAT?$AA_?$AAO?$AAU?$AAT?$AAP?$AAU?$AAT?$AA_?$AAP?$AAA?$AAS?$AAS?$AA?$AA@ 300a9884     LIBCMTD:outputp.obj
 0002:0000a8c0       ??_C@_1IK@NBGDDCBN@?$AA_?$AAt?$AAv?$AAa?$AAl?$AAi?$AAd?$AAa?$AAt?$AAe?$AA_?$AAp?$AAa?$AAr?$AAa?$AAm?$AA_?$AAr?$AAe?$AAu?$AAs?$AAe?$AA?$CI?$AA?$CG?$AAp?$AAo?$AAs?$AA_?$AAv?$AAa?$AAl?$AAu@ 300a98c0     LIBCMTD:outputp.obj
 0002:0000a950       ??_C@_1JC@OACKELNN@?$AA_?$AAt?$AAv?$AAa?$AAl?$AAi?$AAd?$AAa?$AAt?$AAe?$AA_?$AAp?$AAa?$AAr?$AAa?$AAm?$AA_?$AAr?$AAe?$AAu?$AAs?$AAe?$AA?$CI?$AA?$CG?$AAp?$AAo?$AAs?$AA_?$AAv?$AAa?$AAl?$AAu@ 300a9950     LIBCMTD:outputp.obj
 0002:0000a9e8       ??_C@_1FK@LNCFKALM@?$AA?$CI?$AA?$CI?$AAs?$AAt?$AAa?$AAt?$AAe?$AA?5?$AA?$DN?$AA?$DN?$AA?5?$AAS?$AAT?$AA_?$AAN?$AAO?$AAR?$AAM?$AAA?$AAL?$AA?$CJ?$AA?5?$AA?$HM?$AA?$HM?$AA?5?$AA?$CI?$AAs?$AAt?$AAa?$AAt?$AAe?$AA?5@ 300a99e8     LIBCMTD:outputp.obj
 0002:0000aa48       ??_C@_1FK@BCPANIEK@?$AA?$CI?$AA?$CC?$AAM?$AAi?$AAs?$AAs?$AAi?$AAn?$AAg?$AA?5?$AAp?$AAo?$AAs?$AAi?$AAt?$AAi?$AAo?$AAn?$AA?5?$AAi?$AAn?$AA?5?$AAt?$AAh?$AAe?$AA?5?$AAf?$AAo?$AAr?$AAm?$AAa?$AAt@ 300a9a48     LIBCMTD:outputp.obj
 0002:0000ab10       ??_C@_05EOHGHCHD@exp10?$AA@ 300a9b10     LIBCMTD:libm_error.obj
 0002:0000c340       __OP_ATAN2jmptab           300ab340     LIBCMTD:87triga.obj
 0002:0000da60       ??_C@_1BI@GKKCBDMD@?$AAd?$AAs?$AAt?$AA?5?$AA?$CB?$AA?$DN?$AA?5?$AAN?$AAU?$AAL?$AAL?$AA?$AA@ 300aca60     LIBCMTD:memcpy_s.obj
 0002:0000da78       ??_C@_1GE@NEOPGGBM@?$AAf?$AA?3?$AA?2?$AAd?$AAd?$AA?2?$AAv?$AAc?$AAt?$AAo?$AAo?$AAl?$AAs?$AA?2?$AAc?$AAr?$AAt?$AA_?$AAb?$AAl?$AAd?$AA?2?$AAs?$AAe?$AAl?$AAf?$AA_?$AAx?$AA8?$AA6?$AA?2?$AAc@ 300aca78     LIBCMTD:memcpy_s.obj
 0002:0000dadc       ??_C@_1BC@GKHDJMGB@?$AAm?$AAe?$AAm?$AAc?$AAp?$AAy?$AA_?$AAs?$AA?$AA@ 300acadc     LIBCMTD:memcpy_s.obj
 0002:0000daf0       ??_C@_1BI@DCHLDCPP@?$AAs?$AAr?$AAc?$AA?5?$AA?$CB?$AA?$DN?$AA?5?$AAN?$AAU?$AAL?$AAL?$AA?$AA@ 300acaf0     LIBCMTD:memcpy_s.obj
 0002:0000db08       ??_C@_1CK@DDKKOLAN@?$AAs?$AAi?$AAz?$AAe?$AAI?$AAn?$AAB?$AAy?$AAt?$AAe?$AAs?$AA?5?$AA?$DO?$AA?$DN?$AA?5?$AAc?$AAo?$AAu?$AAn?$AAt?$AA?$AA@ 300acb08     LIBCMTD:memcpy_s.obj
 0002:0000db38       ??_C@_1FC@PFMLEHKI@?$AA?$CI?$AA?$CI?$AA_?$AAD?$AAs?$AAt?$AA?$CJ?$AA?$CJ?$AA?5?$AA?$CB?$AA?$DN?$AA?5?$AAN?$AAU?$AAL?$AAL?$AA?5?$AA?$CG?$AA?$CG?$AA?5?$AA?$CI?$AA?$CI?$AA_?$AAS?$AAi?$AAz?$AAe?$AAI?$AAn?$AAW?$AAo?$AAr@ 300acb38     LIBCMTD:wcscat_s.obj
 0002:0000db90       ??_C@_1GI@NOKGIAGA@?$AAf?$AA?3?$AA?2?$AAd?$AAd?$AA?2?$AAv?$AAc?$AAt?$AAo?$AAo?$AAl?$AAs?$AA?2?$AAc?$AAr?$AAt?$AA_?$AAb?$AAl?$AAd?$AA?2?$AAs?$AAe?$AAl?$AAf?$AA_?$AAx?$AA8?$AA6?$AA?2?$AAc@ 300acb90     LIBCMTD:wcscat_s.obj
 0002:0000dbf8       ??_C@_1BC@PLIEPKPJ@?$AAw?$AAc?$AAs?$AAc?$AAa?$AAt?$AA_?$AAs?$AA?$AA@ 300acbf8     LIBCMTD:wcscat_s.obj
 0002:0000dc0c       ??_C@_1CG@OFBJMIGJ@?$AA?$CI?$AA?$CI?$AA?$CI?$AA_?$AAS?$AAr?$AAc?$AA?$CJ?$AA?$CJ?$AA?$CJ?$AA?5?$AA?$CB?$AA?$DN?$AA?5?$AAN?$AAU?$AAL?$AAL?$AA?$AA@ 300acc0c     LIBCMTD:wcscat_s.obj
 0002:0000dc34       ??_C@_1DM@FHLMIEG@?$AAS?$AAt?$AAr?$AAi?$AAn?$AAg?$AA?5?$AAi?$AAs?$AA?5?$AAn?$AAo?$AAt?$AA?5?$AAn?$AAu?$AAl?$AAl?$AA?5?$AAt?$AAe?$AAr?$AAm?$AAi?$AAn?$AAa?$AAt?$AAe?$AAd?$AA?$AA@ 300acc34     LIBCMTD:wcscat_s.obj
 0002:0000dc70       ??_C@_1FA@MJKDNFFB@?$AA?$CI?$AAL?$AA?$CC?$AAS?$AAt?$AAr?$AAi?$AAn?$AAg?$AA?5?$AAi?$AAs?$AA?5?$AAn?$AAo?$AAt?$AA?5?$AAn?$AAu?$AAl?$AAl?$AA?5?$AAt?$AAe?$AAr?$AAm?$AAi?$AAn?$AAa?$AAt?$AAe?$AAd@ 300acc70     LIBCMTD:wcscat_s.obj
 0002:0000dcc0       ??_C@_1CI@HCPHDDLE@?$AAB?$AAu?$AAf?$AAf?$AAe?$AAr?$AA?5?$AAi?$AAs?$AA?5?$AAt?$AAo?$AAo?$AA?5?$AAs?$AAm?$AAa?$AAl?$AAl?$AA?$AA@ 300accc0     LIBCMTD:wcscat_s.obj
 0002:0000dce8       ??_C@_1DM@MADKGDLO@?$AA?$CI?$AAL?$AA?$CC?$AAB?$AAu?$AAf?$AAf?$AAe?$AAr?$AA?5?$AAi?$AAs?$AA?5?$AAt?$AAo?$AAo?$AA?5?$AAs?$AAm?$AAa?$AAl?$AAl?$AA?$CC?$AA?5?$AA?$CG?$AA?$CG?$AA?5?$AA0?$AA?$CJ?$AA?$AA@ 300acce8     LIBCMTD:wcscat_s.obj
 0002:0000dd28       ??_C@_1GI@BGBNCIMA@?$AAf?$AA?3?$AA?2?$AAd?$AAd?$AA?2?$AAv?$AAc?$AAt?$AAo?$AAo?$AAl?$AAs?$AA?2?$AAc?$AAr?$AAt?$AA_?$AAb?$AAl?$AAd?$AA?2?$AAs?$AAe?$AAl?$AAf?$AA_?$AAx?$AA8?$AA6?$AA?2?$AAc@ 300acd28     LIBCMTD:wcscpy_s.obj
 0002:0000dd90       ??_C@_1BC@KIONAFPO@?$AAw?$AAc?$AAs?$AAc?$AAp?$AAy?$AA_?$AAs?$AA?$AA@ 300acd90     LIBCMTD:wcscpy_s.obj
 0002:0000dda8       ??_C@_1GK@DICCLCDF@?$AAf?$AA?3?$AA?2?$AAd?$AAd?$AA?2?$AAv?$AAc?$AAt?$AAo?$AAo?$AAl?$AAs?$AA?2?$AAc?$AAr?$AAt?$AA_?$AAb?$AAl?$AAd?$AA?2?$AAs?$AAe?$AAl?$AAf?$AA_?$AAx?$AA8?$AA6?$AA?2?$AAc@ 300acda8     LIBCMTD:wcsncat_s.obj
 0002:0000de14       ??_C@_1BE@KPKIKKCF@?$AAw?$AAc?$AAs?$AAn?$AAc?$AAa?$AAt?$AA_?$AAs?$AA?$AA@ 300ace14     LIBCMTD:wcsncat_s.obj
 0002:0000de28       ??_C@_1BI@BGOHAHKC@?$AAm?$AAs?$AAc?$AAo?$AAr?$AAe?$AAe?$AA?4?$AAd?$AAl?$AAl?$AA?$AA@ 300ace28     LIBCMTD:crt0dat.obj
 0002:0000de40       ??_C@_0P@MIGLKIOC@CorExitProcess?$AA@ 300ace40     LIBCMTD:crt0dat.obj
 0002:0000de50       ??_C@_1GC@DGCPEDNJ@?$AAf?$AA?3?$AA?2?$AAd?$AAd?$AA?2?$AAv?$AAc?$AAt?$AAo?$AAo?$AAl?$AAs?$AA?2?$AAc?$AAr?$AAt?$AA_?$AAb?$AAl?$AAd?$AA?2?$AAs?$AAe?$AAl?$AAf?$AA_?$AAx?$AA8?$AA6?$AA?2?$AAc@ 300ace50     LIBCMTD:crt0dat.obj
 0002:0000deb4       ??_C@_1BK@PNLDCCDP@?$AA_?$AAg?$AAe?$AAt?$AA_?$AAw?$AAp?$AAg?$AAm?$AAp?$AAt?$AAr?$AA?$AA@ 300aceb4     LIBCMTD:crt0dat.obj
 0002:0000ded0       ??_C@_1CC@CDIPMFPD@?$AA_?$AAw?$AAp?$AAg?$AAm?$AAp?$AAt?$AAr?$AA?5?$AA?$CB?$AA?$DN?$AA?5?$AAN?$AAU?$AAL?$AAL?$AA?$AA@ 300aced0     LIBCMTD:crt0dat.obj
 0002:0000def4       ??_C@_1BI@COAAPHJK@?$AA_?$AAg?$AAe?$AAt?$AA_?$AAp?$AAg?$AAm?$AAp?$AAt?$AAr?$AA?$AA@ 300acef4     LIBCMTD:crt0dat.obj
 0002:0000df0c       ??_C@_1CA@BBNAFCKO@?$AA_?$AAp?$AAg?$AAm?$AAp?$AAt?$AAr?$AA?5?$AA?$CB?$AA?$DN?$AA?5?$AAN?$AAU?$AAL?$AAL?$AA?$AA@ 300acf0c     LIBCMTD:crt0dat.obj
 0002:0000df2c       ??_C@_1BK@DJNILIMN@?$AAp?$AAa?$AAt?$AAh?$AA?5?$AA?$CB?$AA?$DN?$AA?5?$AAN?$AAU?$AAL?$AAL?$AA?$AA@ 300acf2c     LIBCMTD:crt0dat.obj
 0002:0000df48       ??_C@_1DG@KANBJOCK@?$AA_?$AA_?$AAc?$AAo?$AAp?$AAy?$AA_?$AAp?$AAa?$AAt?$AAh?$AA_?$AAt?$AAo?$AA_?$AAw?$AAi?$AAd?$AAe?$AA_?$AAs?$AAt?$AAr?$AAi?$AAn?$AAg?$AA?$AA@ 300acf48     LIBCMTD:crt0dat.obj
 0002:0000df80       ??_C@_1CA@BGODLPHH@?$AAo?$AAu?$AAt?$AAP?$AAa?$AAt?$AAh?$AA?5?$AA?$CB?$AA?$DN?$AA?5?$AAN?$AAU?$AAL?$AAL?$AA?$AA@ 300acf80     LIBCMTD:crt0dat.obj
 0002:0000dfa0       ??_C@_0DB@LJJKGJFF@f?3?2dd?2vctools?2crt_bld?2self_x86?2c@ 300acfa0     LIBCMTD:crt0dat.obj
 0002:0000dfd4       ??_C@_1DE@BCNCAIK@?$AA?$CI?$AA?$CC?$AAI?$AAn?$AAv?$AAa?$AAl?$AAi?$AAd?$AA?5?$AAe?$AAr?$AAr?$AAo?$AAr?$AA_?$AAm?$AAo?$AAd?$AAe?$AA?$CC?$AA?0?$AA?5?$AA0?$AA?$CJ?$AA?$AA@ 300acfd4     LIBCMTD:errmode.obj
 0002:0000e008       ??_C@_1GC@FGMGFCNB@?$AAf?$AA?3?$AA?2?$AAd?$AAd?$AA?2?$AAv?$AAc?$AAt?$AAo?$AAo?$AAl?$AAs?$AA?2?$AAc?$AAr?$AAt?$AA_?$AAb?$AAl?$AAd?$AA?2?$AAs?$AAe?$AAl?$AAf?$AA_?$AAx?$AA8?$AA6?$AA?2?$AAc@ 300ad008     LIBCMTD:errmode.obj
 0002:0000e06c       ??_C@_1CA@LFDHAMEM@?$AA_?$AAs?$AAe?$AAt?$AA_?$AAe?$AAr?$AAr?$AAo?$AAr?$AA_?$AAm?$AAo?$AAd?$AAe?$AA?$AA@ 300ad06c     LIBCMTD:errmode.obj
 0002:0000e090       ??_C@_1FM@MFCBFCGB@?$AAf?$AA?3?$AA?2?$AAd?$AAd?$AA?2?$AAv?$AAc?$AAt?$AAo?$AAo?$AAl?$AAs?$AA?2?$AAc?$AAr?$AAt?$AA_?$AAb?$AAl?$AAd?$AA?2?$AAs?$AAe?$AAl?$AAf?$AA_?$AAx?$AA8?$AA6?$AA?2?$AAc@ 300ad090     LIBCMTD:xtows.obj
 0002:0000e0ec       ??_C@_1O@NCBFODOE@?$AAx?$AAt?$AAo?$AAw?$AA_?$AAs?$AA?$AA@ 300ad0ec     LIBCMTD:xtows.obj
 0002:0000e0fc       ??_C@_1CC@JNJFIMGE@?$AAs?$AAi?$AAz?$AAe?$AAI?$AAn?$AAT?$AAC?$AAh?$AAa?$AAr?$AAs?$AA?5?$AA?$DO?$AA?5?$AA0?$AA?$AA@ 300ad0fc     LIBCMTD:xtows.obj
 0002:0000e120       ??_C@_1FA@MKGGAGEI@?$AAs?$AAi?$AAz?$AAe?$AAI?$AAn?$AAT?$AAC?$AAh?$AAa?$AAr?$AAs?$AA?5?$AA?$DO?$AA?5?$AA?$CI?$AAs?$AAi?$AAz?$AAe?$AA_?$AAt?$AA?$CJ?$AA?$CI?$AAi?$AAs?$AA_?$AAn?$AAe?$AAg?$AA?5?$AA?$DP@ 300ad120     LIBCMTD:xtows.obj
 0002:0000e170       ??_C@_1DE@PCJGDBBD@?$AA2?$AA?5?$AA?$DM?$AA?$DN?$AA?5?$AAr?$AAa?$AAd?$AAi?$AAx?$AA?5?$AA?$CG?$AA?$CG?$AA?5?$AAr?$AAa?$AAd?$AAi?$AAx?$AA?5?$AA?$DM?$AA?$DN?$AA?5?$AA3?$AA6?$AA?$AA@ 300ad170     LIBCMTD:xtows.obj
 0002:0000e1a4       ??_C@_1CM@HABGDNLJ@?$AAl?$AAe?$AAn?$AAg?$AAt?$AAh?$AA?5?$AA?$DM?$AA?5?$AAs?$AAi?$AAz?$AAe?$AAI?$AAn?$AAT?$AAC?$AAh?$AAa?$AAr?$AAs?$AA?$AA@ 300ad1a4     LIBCMTD:xtows.obj
 0002:0000e1d0       ??_C@_1BC@HDEJCFPB@?$AAx?$AA6?$AA4?$AAt?$AAo?$AAw?$AA_?$AAs?$AA?$AA@ 300ad1d0     LIBCMTD:xtows.obj
 0002:0000e1e4       ??_C@_0CP@BNKDODJJ@f?3?2dd?2vctools?2crt_bld?2self_x86?2c@ 300ad1e4     LIBCMTD:_file.obj
 0002:0000e214       ??_C@_1BM@JMKHIAHP@?$AA?$CI?$AAs?$AAt?$AAr?$AA?5?$AA?$CB?$AA?$DN?$AA?5?$AAN?$AAU?$AAL?$AAL?$AA?$CJ?$AA?$AA@ 300ad214     LIBCMTD:setvbuf.obj
 0002:0000e230       ??_C@_1GC@FPPJLAOD@?$AAf?$AA?3?$AA?2?$AAd?$AAd?$AA?2?$AAv?$AAc?$AAt?$AAo?$AAo?$AAl?$AAs?$AA?2?$AAc?$AAr?$AAt?$AA_?$AAb?$AAl?$AAd?$AA?2?$AAs?$AAe?$AAl?$AAf?$AA_?$AAx?$AA8?$AA6?$AA?2?$AAc@ 300ad230     LIBCMTD:setvbuf.obj
 0002:0000e294       ??_C@_1BA@OGODIODK@?$AAs?$AAe?$AAt?$AAv?$AAb?$AAu?$AAf?$AA?$AA@ 300ad294     LIBCMTD:setvbuf.obj
 0002:0000e2a8       ??_C@_1HC@CBFEDAGG@?$AA?$CI?$AAt?$AAy?$AAp?$AAe?$AA?5?$AA?$DN?$AA?$DN?$AA?5?$AA_?$AAI?$AAO?$AAN?$AAB?$AAF?$AA?$CJ?$AA?5?$AA?$HM?$AA?$HM?$AA?5?$AA?$CI?$AAt?$AAy?$AAp?$AAe?$AA?5?$AA?$DN?$AA?$DN?$AA?5?$AA_?$AAI?$AAO@ 300ad2a8     LIBCMTD:setvbuf.obj
 0002:0000e320       ??_C@_1EG@IJNJIDNB@?$AA?$CI?$AA?$CI?$AA2?$AA?5?$AA?$DM?$AA?$DN?$AA?5?$AAs?$AAi?$AAz?$AAe?$AA?$CJ?$AA?5?$AA?$CG?$AA?$CG?$AA?5?$AA?$CI?$AAs?$AAi?$AAz?$AAe?$AA?5?$AA?$DM?$AA?$DN?$AA?5?$AAI?$AAN?$AAT?$AA_?$AAM?$AAA?$AAX@ 300ad320     LIBCMTD:setvbuf.obj
 0002:0000e368       ??_C@_0DB@MIGHMKAN@f?3?2dd?2vctools?2crt_bld?2self_x86?2c@ 300ad368     LIBCMTD:setvbuf.obj
 0002:0000e3a0       ??_C@_1GE@NIBJAMDO@?$AAf?$AA?3?$AA?2?$AAd?$AAd?$AA?2?$AAv?$AAc?$AAt?$AAo?$AAo?$AAl?$AAs?$AA?2?$AAc?$AAr?$AAt?$AA_?$AAb?$AAl?$AAd?$AA?2?$AAs?$AAe?$AAl?$AAf?$AA_?$AAx?$AA8?$AA6?$AA?2?$AAc@ 300ad3a0     LIBCMTD:fwprintf.obj
 0002:0000e404       ??_C@_1BC@BHLPNJBO@?$AAf?$AAw?$AAp?$AAr?$AAi?$AAn?$AAt?$AAf?$AA?$AA@ 300ad404     LIBCMTD:fwprintf.obj
 0002:0000e418       ??_C@_1GE@KINELFI@?$AAf?$AA?3?$AA?2?$AAd?$AAd?$AA?2?$AAv?$AAc?$AAt?$AAo?$AAo?$AAl?$AAs?$AA?2?$AAc?$AAr?$AAt?$AA_?$AAb?$AAl?$AAd?$AA?2?$AAs?$AAe?$AAl?$AAf?$AA_?$AAx?$AA8?$AA6?$AA?2?$AAc@ 300ad418     LIBCMTD:vswprnc.obj
 0002:0000e47c       ??_C@_1CE@IGKFIJFD@?$AA_?$AAv?$AAs?$AAw?$AAp?$AAr?$AAi?$AAn?$AAt?$AAf?$AA_?$AAh?$AAe?$AAl?$AAp?$AAe?$AAr?$AA?$AA@ 300ad47c     LIBCMTD:vswprnc.obj
 0002:0000e4a0       ??_C@_1EC@FABAOFFO@?$AA?$CI?$AAc?$AAo?$AAu?$AAn?$AAt?$AA?5?$AA?$DN?$AA?$DN?$AA?5?$AA0?$AA?$CJ?$AA?5?$AA?$HM?$AA?$HM?$AA?5?$AA?$CI?$AAs?$AAt?$AAr?$AAi?$AAn?$AAg?$AA?5?$AA?$CB?$AA?$DN?$AA?5?$AAN?$AAU?$AAL?$AAL?$AA?$CJ@ 300ad4a0     LIBCMTD:vswprnc.obj
 0002:0000e4e4       ??_C@_1BO@MLMCMBKN@?$AAf?$AAo?$AAr?$AAm?$AAa?$AAt?$AA?5?$AA?$CB?$AA?$DN?$AA?5?$AAN?$AAU?$AAL?$AAL?$AA?$AA@ 300ad4e4     LIBCMTD:vswprnc.obj
 0002:0000e504       ??_C@_1BO@OALHJLCI@?$AA_?$AAv?$AAs?$AAw?$AAp?$AAr?$AAi?$AAn?$AAt?$AAf?$AA_?$AAs?$AA_?$AAl?$AA?$AA@ 300ad504     LIBCMTD:vswprnc.obj
 0002:0000e528       ??_C@_1EE@MPCHJFGP@?$AAs?$AAt?$AAr?$AAi?$AAn?$AAg?$AA?5?$AA?$CB?$AA?$DN?$AA?5?$AAN?$AAU?$AAL?$AAL?$AA?5?$AA?$CG?$AA?$CG?$AA?5?$AAs?$AAi?$AAz?$AAe?$AAI?$AAn?$AAW?$AAo?$AAr?$AAd?$AAs?$AA?5?$AA?$DO?$AA?5@ 300ad528     LIBCMTD:vswprnc.obj
 0002:0000e56c       ??_C@_1DA@HPBFKMEB@?$AA?$CI?$AA?$CC?$AAB?$AAu?$AAf?$AAf?$AAe?$AAr?$AA?5?$AAt?$AAo?$AAo?$AA?5?$AAs?$AAm?$AAa?$AAl?$AAl?$AA?$CC?$AA?0?$AA?5?$AA0?$AA?$CJ?$AA?$AA@ 300ad56c     LIBCMTD:vswprnc.obj
 0002:0000e59c       ??_C@_1CA@BKFKMJFF@?$AA_?$AAv?$AAs?$AAn?$AAw?$AAp?$AAr?$AAi?$AAn?$AAt?$AAf?$AA_?$AAs?$AA_?$AAl?$AA?$AA@ 300ad59c     LIBCMTD:vswprnc.obj
 0002:0000e5bc       ??_C@_0DA@ELJOOIJF@f?3?2dd?2vctools?2crt_bld?2self_x86?2c@ 300ad5bc     LIBCMTD:winsig.obj
 0002:0000e5ec       ??_C@_1DO@MLNEDKGB@?$AA?$CI?$AA?$CC?$AAI?$AAn?$AAv?$AAa?$AAl?$AAi?$AAd?$AA?5?$AAs?$AAi?$AAg?$AAn?$AAa?$AAl?$AA?5?$AAo?$AAr?$AA?5?$AAe?$AAr?$AAr?$AAo?$AAr?$AA?$CC?$AA?0?$AA?5?$AA0?$AA?$CJ?$AA?$AA@ 300ad5ec     LIBCMTD:winsig.obj
 0002:0000e630       ??_C@_1GA@DBECNFG@?$AAf?$AA?3?$AA?2?$AAd?$AAd?$AA?2?$AAv?$AAc?$AAt?$AAo?$AAo?$AAl?$AAs?$AA?2?$AAc?$AAr?$AAt?$AA_?$AAb?$AAl?$AAd?$AA?2?$AAs?$AAe?$AAl?$AAf?$AA_?$AAx?$AA8?$AA6?$AA?2?$AAc@ 300ad630     LIBCMTD:winsig.obj
 0002:0000e690       ??_C@_1O@EJLDHPPL@?$AAs?$AAi?$AAg?$AAn?$AAa?$AAl?$AA?$AA@ 300ad690     LIBCMTD:winsig.obj
 0002:0000e6a0       ??_C@_1M@DMJEIKHL@?$AAr?$AAa?$AAi?$AAs?$AAe?$AA?$AA@ 300ad6a0     LIBCMTD:winsig.obj
 0002:0000e6ac       ??_C@_1BG@GOEBHBDC@?$AAU?$AAS?$AAE?$AAR?$AA3?$AA2?$AA?4?$AAD?$AAL?$AAL?$AA?$AA@ 300ad6ac     LIBCMTD:crtmboxw.obj
 0002:0000e6c4       ??_C@_0M@DLDCCGNP@MessageBoxW?$AA@ 300ad6c4     LIBCMTD:crtmboxw.obj
 0002:0000e6d0       ??_C@_0BA@HNOPNCHB@GetActiveWindow?$AA@ 300ad6d0     LIBCMTD:crtmboxw.obj
 0002:0000e6e0       ??_C@_0BD@HHGDFDBJ@GetLastActivePopup?$AA@ 300ad6e0     LIBCMTD:crtmboxw.obj
 0002:0000e6f4       ??_C@_0BK@DEKFELLI@GetUserObjectInformationW?$AA@ 300ad6f4     LIBCMTD:crtmboxw.obj
 0002:0000e710       ??_C@_0BI@DFKBFLJE@GetProcessWindowStation?$AA@ 300ad710     LIBCMTD:crtmboxw.obj
 0002:0000e7e0       ??_C@_1FK@PGACCAFB@?$AAR?$AA6?$AA0?$AA0?$AA2?$AA?$AN?$AA?6?$AA?9?$AA?5?$AAf?$AAl?$AAo?$AAa?$AAt?$AAi?$AAn?$AAg?$AA?5?$AAp?$AAo?$AAi?$AAn?$AAt?$AA?5?$AAs?$AAu?$AAp?$AAp?$AAo?$AAr?$AAt?$AA?5@ 300ad7e0     LIBCMTD:crt0msg.obj
 0002:0000e840       ??_C@_1FE@LLNEDJMD@?$AAR?$AA6?$AA0?$AA0?$AA8?$AA?$AN?$AA?6?$AA?9?$AA?5?$AAn?$AAo?$AAt?$AA?5?$AAe?$AAn?$AAo?$AAu?$AAg?$AAh?$AA?5?$AAs?$AAp?$AAa?$AAc?$AAe?$AA?5?$AAf?$AAo?$AAr?$AA?5?$AAa?$AAr@ 300ad840     LIBCMTD:crt0msg.obj
 0002:0000e898       ??_C@_1FI@HONFMGBI@?$AAR?$AA6?$AA0?$AA0?$AA9?$AA?$AN?$AA?6?$AA?9?$AA?5?$AAn?$AAo?$AAt?$AA?5?$AAe?$AAn?$AAo?$AAu?$AAg?$AAh?$AA?5?$AAs?$AAp?$AAa?$AAc?$AAe?$AA?5?$AAf?$AAo?$AAr?$AA?5?$AAe?$AAn@ 300ad898     LIBCMTD:crt0msg.obj
 0002:0000e8f0       ??_C@_1EG@BEHAGFJD@?$AAR?$AA6?$AA0?$AA1?$AA0?$AA?$AN?$AA?6?$AA?9?$AA?5?$AAa?$AAb?$AAo?$AAr?$AAt?$AA?$CI?$AA?$CJ?$AA?5?$AAh?$AAa?$AAs?$AA?5?$AAb?$AAe?$AAe?$AAn?$AA?5?$AAc?$AAa?$AAl?$AAl?$AAe?$AAd@ 300ad8f0     LIBCMTD:crt0msg.obj
 0002:0000e938       ??_C@_1FI@LOGNIKDM@?$AAR?$AA6?$AA0?$AA1?$AA6?$AA?$AN?$AA?6?$AA?9?$AA?5?$AAn?$AAo?$AAt?$AA?5?$AAe?$AAn?$AAo?$AAu?$AAg?$AAh?$AA?5?$AAs?$AAp?$AAa?$AAc?$AAe?$AA?5?$AAf?$AAo?$AAr?$AA?5?$AAt?$AAh@ 300ad938     LIBCMTD:crt0msg.obj
 0002:0000e990       ??_C@_1FK@BEOGODMC@?$AAR?$AA6?$AA0?$AA1?$AA7?$AA?$AN?$AA?6?$AA?9?$AA?5?$AAu?$AAn?$AAe?$AAx?$AAp?$AAe?$AAc?$AAt?$AAe?$AAd?$AA?5?$AAm?$AAu?$AAl?$AAt?$AAi?$AAt?$AAh?$AAr?$AAe?$AAa?$AAd?$AA?5@ 300ad990     LIBCMTD:crt0msg.obj
 0002:0000e9f0       ??_C@_1EC@JIBHAOPH@?$AAR?$AA6?$AA0?$AA1?$AA8?$AA?$AN?$AA?6?$AA?9?$AA?5?$AAu?$AAn?$AAe?$AAx?$AAp?$AAe?$AAc?$AAt?$AAe?$AAd?$AA?5?$AAh?$AAe?$AAa?$AAp?$AA?5?$AAe?$AAr?$AAr?$AAo?$AAr?$AA?$AN?$AA?6@ 300ad9f0     LIBCMTD:crt0msg.obj
 0002:0000ea38       ??_C@_1FC@ECHBIFBC@?$AAR?$AA6?$AA0?$AA1?$AA9?$AA?$AN?$AA?6?$AA?9?$AA?5?$AAu?$AAn?$AAa?$AAb?$AAl?$AAe?$AA?5?$AAt?$AAo?$AA?5?$AAo?$AAp?$AAe?$AAn?$AA?5?$AAc?$AAo?$AAn?$AAs?$AAo?$AAl?$AAe?$AA?5@ 300ada38     LIBCMTD:crt0msg.obj
 0002:0000ea90       ??_C@_1GK@FHCKBEFA@?$AAR?$AA6?$AA0?$AA2?$AA4?$AA?$AN?$AA?6?$AA?9?$AA?5?$AAn?$AAo?$AAt?$AA?5?$AAe?$AAn?$AAo?$AAu?$AAg?$AAh?$AA?5?$AAs?$AAp?$AAa?$AAc?$AAe?$AA?5?$AAf?$AAo?$AAr?$AA?5?$AA_?$AAo@ 300ada90     LIBCMTD:crt0msg.obj
 0002:0000eb00       ??_C@_1EM@MAADIHMB@?$AAR?$AA6?$AA0?$AA2?$AA5?$AA?$AN?$AA?6?$AA?9?$AA?5?$AAp?$AAu?$AAr?$AAe?$AA?5?$AAv?$AAi?$AAr?$AAt?$AAu?$AAa?$AAl?$AA?5?$AAf?$AAu?$AAn?$AAc?$AAt?$AAi?$AAo?$AAn?$AA?5?$AAc@ 300adb00     LIBCMTD:crt0msg.obj
 0002:0000eb50       ??_C@_1GK@MCAAGJMO@?$AAR?$AA6?$AA0?$AA2?$AA6?$AA?$AN?$AA?6?$AA?9?$AA?5?$AAn?$AAo?$AAt?$AA?5?$AAe?$AAn?$AAo?$AAu?$AAg?$AAh?$AA?5?$AAs?$AAp?$AAa?$AAc?$AAe?$AA?5?$AAf?$AAo?$AAr?$AA?5?$AAs?$AAt@ 300adb50     LIBCMTD:crt0msg.obj
 0002:0000ebc0       ??_C@_1GK@MFGOKLAG@?$AAR?$AA6?$AA0?$AA2?$AA7?$AA?$AN?$AA?6?$AA?9?$AA?5?$AAn?$AAo?$AAt?$AA?5?$AAe?$AAn?$AAo?$AAu?$AAg?$AAh?$AA?5?$AAs?$AAp?$AAa?$AAc?$AAe?$AA?5?$AAf?$AAo?$AAr?$AA?5?$AAl?$AAo@ 300adbc0     LIBCMTD:crt0msg.obj
 0002:0000ec30       ??_C@_1EK@HHFLMAOL@?$AAR?$AA6?$AA0?$AA2?$AA8?$AA?$AN?$AA?6?$AA?9?$AA?5?$AAu?$AAn?$AAa?$AAb?$AAl?$AAe?$AA?5?$AAt?$AAo?$AA?5?$AAi?$AAn?$AAi?$AAt?$AAi?$AAa?$AAl?$AAi?$AAz?$AAe?$AA?5?$AAh?$AAe@ 300adc30     LIBCMTD:crt0msg.obj
 0002:0000ec7c       ??_C@_1DO@BMFCDCD@?$AAR?$AA6?$AA0?$AA3?$AA0?$AA?$AN?$AA?6?$AA?9?$AA?5?$AAC?$AAR?$AAT?$AA?5?$AAn?$AAo?$AAt?$AA?5?$AAi?$AAn?$AAi?$AAt?$AAi?$AAa?$AAl?$AAi?$AAz?$AAe?$AAd?$AA?$AN?$AA?6?$AA?$AA@ 300adc7c     LIBCMTD:crt0msg.obj
 0002:0000ecc0       ??_C@_1MG@ENCOOIDF@?$AAR?$AA6?$AA0?$AA3?$AA1?$AA?$AN?$AA?6?$AA?9?$AA?5?$AAA?$AAt?$AAt?$AAe?$AAm?$AAp?$AAt?$AA?5?$AAt?$AAo?$AA?5?$AAi?$AAn?$AAi?$AAt?$AAi?$AAa?$AAl?$AAi?$AAz?$AAe?$AA?5?$AAt@ 300adcc0     LIBCMTD:crt0msg.obj
 0002:0000ed88       ??_C@_1GG@GOPILAJP@?$AAR?$AA6?$AA0?$AA3?$AA2?$AA?$AN?$AA?6?$AA?9?$AA?5?$AAn?$AAo?$AAt?$AA?5?$AAe?$AAn?$AAo?$AAu?$AAg?$AAh?$AA?5?$AAs?$AAp?$AAa?$AAc?$AAe?$AA?5?$AAf?$AAo?$AAr?$AA?5?$AAl?$AAo@ 300add88     LIBCMTD:crt0msg.obj
 0002:0000edf0       ??_C@_1BOO@KGEDBGAJ@?$AAR?$AA6?$AA0?$AA3?$AA3?$AA?$AN?$AA?6?$AA?9?$AA?5?$AAA?$AAt?$AAt?$AAe?$AAm?$AAp?$AAt?$AA?5?$AAt?$AAo?$AA?5?$AAu?$AAs?$AAe?$AA?5?$AAM?$AAS?$AAI?$AAL?$AA?5?$AAc?$AAo?$AAd@ 300addf0     LIBCMTD:crt0msg.obj
 0002:0000efe0       ??_C@_1GG@MKFPEKFO@?$AAR?$AA6?$AA0?$AA3?$AA4?$AA?$AN?$AA?6?$AA?9?$AA?5?$AAi?$AAn?$AAc?$AAo?$AAn?$AAs?$AAi?$AAs?$AAt?$AAe?$AAn?$AAt?$AA?5?$AAo?$AAn?$AAe?$AAx?$AAi?$AAt?$AA?5?$AAb?$AAe?$AAg@ 300adfe0     LIBCMTD:crt0msg.obj
 0002:0000f048       ??_C@_1BO@BFCDCGC@?$AAD?$AAO?$AAM?$AAA?$AAI?$AAN?$AA?5?$AAe?$AAr?$AAr?$AAo?$AAr?$AA?$AN?$AA?6?$AA?$AA@ 300ae048     LIBCMTD:crt0msg.obj
 0002:0000f068       ??_C@_1BK@KMOMNAAI@?$AAS?$AAI?$AAN?$AAG?$AA?5?$AAe?$AAr?$AAr?$AAo?$AAr?$AA?$AN?$AA?6?$AA?$AA@ 300ae068     LIBCMTD:crt0msg.obj
 0002:0000f084       ??_C@_1BM@JBBEPPHI@?$AAT?$AAL?$AAO?$AAS?$AAS?$AA?5?$AAe?$AAr?$AAr?$AAo?$AAr?$AA?$AN?$AA?6?$AA?$AA@ 300ae084     LIBCMTD:crt0msg.obj
 0002:0000f0a0       ??_C@_15JNBOKNOG@?$AA?$AN?$AA?6?$AA?$AA@ 300ae0a0     LIBCMTD:crt0msg.obj
 0002:0000f0a8       ??_C@_1BO@BKOMIGKJ@?$AAr?$AAu?$AAn?$AAt?$AAi?$AAm?$AAe?$AA?5?$AAe?$AAr?$AAr?$AAo?$AAr?$AA?5?$AA?$AA@ 300ae0a8     LIBCMTD:crt0msg.obj
 0002:0000f0c8       ??_C@_1GC@HKOJBOFF@?$AAf?$AA?3?$AA?2?$AAd?$AAd?$AA?2?$AAv?$AAc?$AAt?$AAo?$AAo?$AAl?$AAs?$AA?2?$AAc?$AAr?$AAt?$AA_?$AAb?$AAl?$AAd?$AA?2?$AAs?$AAe?$AAl?$AAf?$AA_?$AAx?$AA8?$AA6?$AA?2?$AAc@ 300ae0c8     LIBCMTD:crt0msg.obj
 0002:0000f12c       ??_C@_1BI@EAHMBMEC@?$AA_?$AAN?$AAM?$AAS?$AAG?$AA_?$AAW?$AAR?$AAI?$AAT?$AAE?$AA?$AA@ 300ae12c     LIBCMTD:crt0msg.obj
 0002:0000f148       ??_C@_1KO@BKLCKNFL@?$AAw?$AAc?$AAs?$AAc?$AAp?$AAy?$AA_?$AAs?$AA?$CI?$AAo?$AAu?$AAt?$AAm?$AAs?$AAg?$AA?0?$AA?5?$AA?$CI?$AAs?$AAi?$AAz?$AAe?$AAo?$AAf?$AA?$CI?$AAo?$AAu?$AAt?$AAm?$AAs?$AAg?$AA?$CJ@ 300ae148     LIBCMTD:crt0msg.obj
 0002:0000f1f8       ??_C@_1DE@JNGNBFGO@?$AAR?$AAu?$AAn?$AAt?$AAi?$AAm?$AAe?$AA?5?$AAE?$AAr?$AAr?$AAo?$AAr?$AA?$CB?$AA?6?$AA?6?$AAP?$AAr?$AAo?$AAg?$AAr?$AAa?$AAm?$AA?3?$AA?5?$AA?$AA@ 300ae1f8     LIBCMTD:crt0msg.obj
 0002:0000f230       ??_C@_1HK@FJJNAABO@?$AAw?$AAc?$AAs?$AAc?$AAp?$AAy?$AA_?$AAs?$AA?$CI?$AAp?$AAr?$AAo?$AAg?$AAn?$AAa?$AAm?$AAe?$AA?0?$AA?5?$AAp?$AAr?$AAo?$AAg?$AAn?$AAa?$AAm?$AAe?$AA_?$AAs?$AAi?$AAz?$AAe@ 300ae230     LIBCMTD:crt0msg.obj
 0002:0000f2b0       ??_C@_1HI@FLHKGEBE@?$AAw?$AAc?$AAs?$AAn?$AAc?$AAp?$AAy?$AA_?$AAs?$AA?$CI?$AAp?$AAc?$AAh?$AA?0?$AA?5?$AAp?$AAr?$AAo?$AAg?$AAn?$AAa?$AAm?$AAe?$AA_?$AAs?$AAi?$AAz?$AAe?$AA?5?$AA?9?$AA?5?$AA?$CI@ 300ae2b0     LIBCMTD:crt0msg.obj
 0002:0000f328       ??_C@_1IA@DCJGKHFO@?$AAw?$AAc?$AAs?$AAc?$AAa?$AAt?$AA_?$AAs?$AA?$CI?$AAo?$AAu?$AAt?$AAm?$AAs?$AAg?$AA?0?$AA?5?$AA?$CI?$AAs?$AAi?$AAz?$AAe?$AAo?$AAf?$AA?$CI?$AAo?$AAu?$AAt?$AAm?$AAs?$AAg?$AA?$CJ@ 300ae328     LIBCMTD:crt0msg.obj
 0002:0000f3a8       ??_C@_1IG@NMONDPP@?$AAw?$AAc?$AAs?$AAc?$AAa?$AAt?$AA_?$AAs?$AA?$CI?$AAo?$AAu?$AAt?$AAm?$AAs?$AAg?$AA?0?$AA?5?$AA?$CI?$AAs?$AAi?$AAz?$AAe?$AAo?$AAf?$AA?$CI?$AAo?$AAu?$AAt?$AAm?$AAs?$AAg?$AA?$CJ@ 300ae3a8     LIBCMTD:crt0msg.obj
 0002:0000f430       ??_C@_1FE@KNPCCODH@?$AA?$CI?$AA?$CC?$AAC?$AAo?$AAr?$AAr?$AAu?$AAp?$AAt?$AAe?$AAd?$AA?5?$AAp?$AAo?$AAi?$AAn?$AAt?$AAe?$AAr?$AA?5?$AAp?$AAa?$AAs?$AAs?$AAe?$AAd?$AA?5?$AAt?$AAo?$AA?5?$AA_?$AAf@ 300ae430     LIBCMTD:a_map.obj
 0002:0000f488       ??_C@_1GA@INJGGEBC@?$AAf?$AA?3?$AA?2?$AAd?$AAd?$AA?2?$AAv?$AAc?$AAt?$AAo?$AAo?$AAl?$AAs?$AA?2?$AAc?$AAr?$AAt?$AA_?$AAb?$AAl?$AAd?$AA?2?$AAs?$AAe?$AAl?$AAf?$AA_?$AAx?$AA8?$AA6?$AA?2?$AAc@ 300ae488     LIBCMTD:a_map.obj
 0002:0000f4e8       ___lc_category             300ae4e8     LIBCMTD:wsetloca.obj
 0002:0000f530       ??_C@_1O@GIFLHMA@?$AAL?$AAC?$AA_?$AAA?$AAL?$AAL?$AA?$AA@ 300ae530     LIBCMTD:wsetloca.obj
 0002:0000f540       ??_C@_1BG@PPOMIBNJ@?$AAL?$AAC?$AA_?$AAC?$AAO?$AAL?$AAL?$AAA?$AAT?$AAE?$AA?$AA@ 300ae540     LIBCMTD:wsetloca.obj
 0002:0000f558       ??_C@_1BC@FFJGAPJM@?$AAL?$AAC?$AA_?$AAC?$AAT?$AAY?$AAP?$AAE?$AA?$AA@ 300ae558     LIBCMTD:wsetloca.obj
 0002:0000f56c       ??_C@_1BI@PCKFNJFB@?$AAL?$AAC?$AA_?$AAM?$AAO?$AAN?$AAE?$AAT?$AAA?$AAR?$AAY?$AA?$AA@ 300ae56c     LIBCMTD:wsetloca.obj
 0002:0000f584       ??_C@_1BG@ENIEDKID@?$AAL?$AAC?$AA_?$AAN?$AAU?$AAM?$AAE?$AAR?$AAI?$AAC?$AA?$AA@ 300ae584     LIBCMTD:wsetloca.obj
 0002:0000f59c       ??_C@_1BA@HAAOMIIG@?$AAL?$AAC?$AA_?$AAT?$AAI?$AAM?$AAE?$AA?$AA@ 300ae59c     LIBCMTD:wsetloca.obj
 0002:0000f630       ??_C@_1GA@LDEGDKD@?$AA?$CI?$AA?$CC?$AAI?$AAn?$AAv?$AAa?$AAl?$AAi?$AAd?$AA?5?$AAp?$AAa?$AAr?$AAa?$AAm?$AAe?$AAt?$AAe?$AAr?$AA?5?$AAf?$AAo?$AAr?$AA?5?$AA_?$AAc?$AAo?$AAn?$AAf?$AAi?$AAg?$AAt@ 300ae630     LIBCMTD:wsetloca.obj
 0002:0000f690       ??_C@_1GE@GBFCCMHH@?$AAf?$AA?3?$AA?2?$AAd?$AAd?$AA?2?$AAv?$AAc?$AAt?$AAo?$AAo?$AAl?$AAs?$AA?2?$AAc?$AAr?$AAt?$AA_?$AAb?$AAl?$AAd?$AA?2?$AAs?$AAe?$AAl?$AAf?$AA_?$AAx?$AA8?$AA6?$AA?2?$AAc@ 300ae690     LIBCMTD:wsetloca.obj
 0002:0000f6f4       ??_C@_1CI@FGIONOJM@?$AA_?$AAc?$AAo?$AAn?$AAf?$AAi?$AAg?$AAt?$AAh?$AAr?$AAe?$AAa?$AAd?$AAl?$AAo?$AAc?$AAa?$AAl?$AAe?$AA?$AA@ 300ae6f4     LIBCMTD:wsetloca.obj
 0002:0000f71c       ??_C@_0DC@NCPJHDFJ@f?3?2dd?2vctools?2crt_bld?2self_x86?2c@ 300ae71c     LIBCMTD:wsetloca.obj
 0002:0000f750       ??_C@_1FG@OHLFEKMC@?$AAL?$AAC?$AA_?$AAM?$AAI?$AAN?$AA?5?$AA?$DM?$AA?$DN?$AA?5?$AA_?$AAc?$AAa?$AAt?$AAe?$AAg?$AAo?$AAr?$AAy?$AA?5?$AA?$CG?$AA?$CG?$AA?5?$AA_?$AAc?$AAa?$AAt?$AAe?$AAg?$AAo?$AAr?$AAy@ 300ae750     LIBCMTD:wsetloca.obj
 0002:0000f7a8       ??_C@_1BI@KJNPAEHL@?$AA_?$AAw?$AAs?$AAe?$AAt?$AAl?$AAo?$AAc?$AAa?$AAl?$AAe?$AA?$AA@ 300ae7a8     LIBCMTD:wsetloca.obj
 0002:0000f7c0       ??_C@_15NBPDDFIP@?$AA?$DN?$AA?$DL?$AA?$AA@ 300ae7c0     LIBCMTD:wsetloca.obj
 0002:0000f7c8       ??_C@_13PJJBFPED@?$AA?$DL?$AA?$AA@ 300ae7c8     LIBCMTD:wsetloca.obj
 0002:0000f7cc       ??_C@_1CG@DKJCBBPP@?$AA_?$AAw?$AAs?$AAe?$AAt?$AAl?$AAo?$AAc?$AAa?$AAl?$AAe?$AA_?$AAn?$AAo?$AAl?$AAo?$AAc?$AAk?$AA?$AA@ 300ae7cc     LIBCMTD:wsetloca.obj
 0002:0000f7f8       ??_C@_1IA@DGCOPCLP@?$AAw?$AAc?$AAs?$AAn?$AAc?$AAp?$AAy?$AA_?$AAs?$AA?$CI?$AAl?$AAc?$AAt?$AAe?$AAm?$AAp?$AA?0?$AA?5?$AA?$CI?$AAs?$AAi?$AAz?$AAe?$AAo?$AAf?$AA?$CI?$AAl?$AAc?$AAt?$AAe?$AAm?$AAp@ 300ae7f8     LIBCMTD:wsetloca.obj
 0002:0000f878       ??_C@_1CI@ODOPEMNJ@?$AA_?$AAw?$AAs?$AAe?$AAt?$AAl?$AAo?$AAc?$AAa?$AAl?$AAe?$AA_?$AAs?$AAe?$AAt?$AA_?$AAc?$AAa?$AAt?$AA?$AA@ 300ae878     LIBCMTD:wsetloca.obj
 0002:0000f8a0       ??_C@_1EM@MHOCNIAA@?$AAw?$AAc?$AAs?$AAc?$AAp?$AAy?$AA_?$AAs?$AA?$CI?$AAp?$AAc?$AAh?$AA_?$AAc?$AAa?$AAt?$AA_?$AAl?$AAo?$AAc?$AAa?$AAl?$AAe?$AA?0?$AA?5?$AAc?$AAc?$AAh?$AA?0?$AA?5?$AAl?$AAc@ 300ae8a0     LIBCMTD:wsetloca.obj
 0002:0000f8ec       ??_C@_13NMPKAAJP@?$AA?$DN?$AA?$AA@ 300ae8ec     LIBCMTD:wsetloca.obj
 0002:0000f8f0       ??_C@_1CI@LKOPFFBD@?$AA_?$AAw?$AAs?$AAe?$AAt?$AAl?$AAo?$AAc?$AAa?$AAl?$AAe?$AA_?$AAg?$AAe?$AAt?$AA_?$AAa?$AAl?$AAl?$AA?$AA@ 300ae8f0     LIBCMTD:wsetloca.obj
 0002:0000f918       ??_C@_1DC@HMLJMODP@?$AAw?$AAc?$AAs?$AAc?$AAa?$AAt?$AA_?$AAs?$AA?$CI?$AAp?$AAc?$AAh?$AA?0?$AA?5?$AAc?$AAc?$AAh?$AA?0?$AA?5?$AAL?$AA?$CC?$AA?$DL?$AA?$CC?$AA?$CJ?$AA?$AA@ 300ae918     LIBCMTD:wsetloca.obj
 0002:0000f94c       ??_C@_1BM@OIIBLEFG@?$AA_?$AAe?$AAx?$AAp?$AAa?$AAn?$AAd?$AAl?$AAo?$AAc?$AAa?$AAl?$AAe?$AA?$AA@ 300ae94c     LIBCMTD:wsetloca.obj
 0002:0000f968       ??_C@_1BFG@FHLOBJGM@?$AAw?$AAc?$AAs?$AAn?$AAc?$AAp?$AAy?$AA_?$AAs?$AA?$CI?$AAl?$AAo?$AAc?$AAa?$AAl?$AAe?$AAN?$AAa?$AAm?$AAe?$AAO?$AAu?$AAt?$AAp?$AAu?$AAt?$AA?0?$AA?5?$AAl?$AAo?$AAc?$AAa@ 300ae968     LIBCMTD:wsetloca.obj
 0002:0000fac0       ??_C@_1EI@OCINLCHN@?$AAw?$AAc?$AAs?$AAc?$AAp?$AAy?$AA_?$AAs?$AA?$CI?$AAo?$AAu?$AAt?$AAp?$AAu?$AAt?$AA?0?$AA?5?$AAs?$AAi?$AAz?$AAe?$AAI?$AAn?$AAC?$AAh?$AAa?$AAr?$AAs?$AA?0?$AA?5?$AAL?$AA?$CC@ 300aeac0     LIBCMTD:wsetloca.obj
 0002:0000fb08       ??_C@_13FHBKNHDA@?$AAC?$AA?$AA@ 300aeb08     LIBCMTD:wsetloca.obj
 0002:0000fb10       ??_C@_1MO@NNCNEOAP@?$AAw?$AAc?$AAs?$AAn?$AAc?$AAp?$AAy?$AA_?$AAs?$AA?$CI?$AAl?$AAo?$AAc?$AAa?$AAl?$AAe?$AAN?$AAa?$AAm?$AAe?$AAO?$AAu?$AAt?$AAp?$AAu?$AAt?$AA?0?$AA?5?$AAl?$AAo?$AAc?$AAa@ 300aeb10     LIBCMTD:wsetloca.obj
 0002:0000fbe0       ??_C@_1IG@MKDIEKFD@?$AAw?$AAc?$AAs?$AAn?$AAc?$AAp?$AAy?$AA_?$AAs?$AA?$CI?$AAc?$AAa?$AAc?$AAh?$AAe?$AAo?$AAu?$AAt?$AA?0?$AA?5?$AAc?$AAa?$AAc?$AAh?$AAe?$AAo?$AAu?$AAt?$AAL?$AAe?$AAn?$AA?0@ 300aebe0     LIBCMTD:wsetloca.obj
 0002:0000fc68       ??_C@_1KK@KMIFPBBC@?$AAw?$AAc?$AAs?$AAn?$AAc?$AAp?$AAy?$AA_?$AAs?$AA?$CI?$AAl?$AAo?$AAc?$AAa?$AAl?$AAe?$AAN?$AAa?$AAm?$AAe?$AAO?$AAu?$AAt?$AAp?$AAu?$AAt?$AA?0?$AA?5?$AAl?$AAo?$AAc?$AAa@ 300aec68     LIBCMTD:wsetloca.obj
 0002:0000fd18       ??_C@_1BEK@OJDMMIMP@?$AAw?$AAc?$AAs?$AAn?$AAc?$AAp?$AAy?$AA_?$AAs?$AA?$CI?$AA_?$AAp?$AAs?$AAe?$AAt?$AAl?$AAo?$AAc?$AA_?$AAd?$AAa?$AAt?$AAa?$AA?9?$AA?$DO?$AA_?$AAc?$AAa?$AAc?$AAh?$AAe?$AAL@ 300aed18     LIBCMTD:wsetloca.obj
 0002:0000fe68       ??_C@_1BGG@FCLLNAOE@?$AAw?$AAc?$AAs?$AAn?$AAc?$AAp?$AAy?$AA_?$AAs?$AA?$CI?$AA_?$AAp?$AAs?$AAe?$AAt?$AAl?$AAo?$AAc?$AA_?$AAd?$AAa?$AAt?$AAa?$AA?9?$AA?$DO?$AA_?$AAc?$AAa?$AAc?$AAh?$AAe?$AAL@ 300aee68     LIBCMTD:wsetloca.obj
 0002:0000ffd0       ??_C@_1IC@FCCDBGLL@?$AAw?$AAc?$AAs?$AAn?$AAc?$AAp?$AAy?$AA_?$AAs?$AA?$CI?$AAc?$AAa?$AAc?$AAh?$AAe?$AAi?$AAn?$AA?0?$AA?5?$AAc?$AAa?$AAc?$AAh?$AAe?$AAi?$AAn?$AAL?$AAe?$AAn?$AA?0?$AA?5?$AAe@ 300aefd0     LIBCMTD:wsetloca.obj
 0002:00010058       ??_C@_1FA@HOOAAHFF@?$AAw?$AAc?$AAs?$AAc?$AAp?$AAy?$AA_?$AAs?$AA?$CI?$AAo?$AAu?$AAt?$AAp?$AAu?$AAt?$AA?0?$AA?5?$AAs?$AAi?$AAz?$AAe?$AAI?$AAn?$AAC?$AAh?$AAa?$AAr?$AAs?$AA?0?$AA?5?$AAc?$AAa@ 300af058     LIBCMTD:wsetloca.obj
 0002:000100a8       ??_C@_1BC@LEOKFFML@?$AA_?$AAw?$AAc?$AAs?$AAc?$AAa?$AAt?$AAs?$AA?$AA@ 300af0a8     LIBCMTD:wsetloca.obj
 0002:000100c0       ??_C@_1BII@IONPPCCF@?$AAw?$AAc?$AAs?$AAc?$AAa?$AAt?$AA_?$AAs?$AA?$CI?$AAo?$AAu?$AAt?$AAs?$AAt?$AAr?$AA?0?$AA?5?$AAn?$AAu?$AAm?$AAb?$AAe?$AAr?$AAO?$AAf?$AAE?$AAl?$AAe?$AAm?$AAe?$AAn?$AAt@ 300af0c0     LIBCMTD:wsetloca.obj
 0002:00010248       ??_C@_1BK@GNCHCGCN@?$AA_?$AA_?$AAl?$AAc?$AA_?$AAw?$AAc?$AAs?$AAt?$AAo?$AAl?$AAc?$AA?$AA@ 300af248     LIBCMTD:wsetloca.obj
 0002:00010268       ??_C@_1NI@NELJHJBO@?$AAw?$AAc?$AAs?$AAn?$AAc?$AAp?$AAy?$AA_?$AAs?$AA?$CI?$AAn?$AAa?$AAm?$AAe?$AAs?$AA?9?$AA?$DO?$AAs?$AAz?$AAC?$AAo?$AAd?$AAe?$AAP?$AAa?$AAg?$AAe?$AA?0?$AA?5?$AA?$CI?$AAs?$AAi@ 300af268     LIBCMTD:wsetloca.obj
 0002:00010340       ??_C@_17MBJJLFDM@?$AA_?$AA?4?$AA?0?$AA?$AA@ 300af340     LIBCMTD:wsetloca.obj
 0002:00010348       ??_C@_1MO@PBGOIBFL@?$AAw?$AAc?$AAs?$AAn?$AAc?$AAp?$AAy?$AA_?$AAs?$AA?$CI?$AAn?$AAa?$AAm?$AAe?$AAs?$AA?9?$AA?$DO?$AAs?$AAz?$AAL?$AAa?$AAn?$AAg?$AAu?$AAa?$AAg?$AAe?$AA?0?$AA?5?$AA?$CI?$AAs?$AAi@ 300af348     LIBCMTD:wsetloca.obj
 0002:00010418       ??_C@_1MI@CLMFNAAJ@?$AAw?$AAc?$AAs?$AAn?$AAc?$AAp?$AAy?$AA_?$AAs?$AA?$CI?$AAn?$AAa?$AAm?$AAe?$AAs?$AA?9?$AA?$DO?$AAs?$AAz?$AAC?$AAo?$AAu?$AAn?$AAt?$AAr?$AAy?$AA?0?$AA?5?$AA?$CI?$AAs?$AAi?$AAz@ 300af418     LIBCMTD:wsetloca.obj
 0002:000104e0       ??_C@_1MO@NBFBMKCB@?$AAw?$AAc?$AAs?$AAn?$AAc?$AAp?$AAy?$AA_?$AAs?$AA?$CI?$AAn?$AAa?$AAm?$AAe?$AAs?$AA?9?$AA?$DO?$AAs?$AAz?$AAC?$AAo?$AAd?$AAe?$AAP?$AAa?$AAg?$AAe?$AA?0?$AA?5?$AA?$CI?$AAs?$AAi@ 300af4e0     LIBCMTD:wsetloca.obj
 0002:000105b0       ??_C@_1BK@HEBMGPEK@?$AA_?$AA_?$AAl?$AAc?$AA_?$AAl?$AAc?$AAt?$AAo?$AAw?$AAc?$AAs?$AA?$AA@ 300af5b0     LIBCMTD:wsetloca.obj
 0002:000105d0       ??_C@_1GM@FOFMGOEK@?$AAw?$AAc?$AAs?$AAc?$AAp?$AAy?$AA_?$AAs?$AA?$CI?$AAl?$AAo?$AAc?$AAa?$AAl?$AAe?$AA?0?$AA?5?$AAn?$AAu?$AAm?$AAb?$AAe?$AAr?$AAO?$AAf?$AAE?$AAl?$AAe?$AAm?$AAe?$AAn?$AAt@ 300af5d0     LIBCMTD:wsetloca.obj
 0002:0001063c       ??_C@_13ENNFDPBH@?$AA_?$AA?$AA@ 300af63c     LIBCMTD:wsetloca.obj
 0002:00010640       ??_C@_13JOFGPIOO@?$AA?4?$AA?$AA@ 300af640     LIBCMTD:wsetloca.obj
 0002:00010644       ??_C@_1CG@HCGEAFEA@?$AA_?$AA_?$AAc?$AAo?$AAp?$AAy?$AA_?$AAl?$AAo?$AAc?$AAa?$AAl?$AAe?$AA_?$AAn?$AAa?$AAm?$AAe?$AA?$AA@ 300af644     LIBCMTD:wsetloca.obj
 0002:00010670       ??_C@_1GI@HBNMCKGD@?$AAw?$AAc?$AAs?$AAn?$AAc?$AAp?$AAy?$AA_?$AAs?$AA?$CI?$AAl?$AAo?$AAc?$AAa?$AAl?$AAe?$AAN?$AAa?$AAm?$AAe?$AAC?$AAo?$AAp?$AAy?$AA?0?$AA?5?$AAc?$AAc?$AAh?$AA?$CL?$AA1?$AA?0@ 300af670     LIBCMTD:wsetloca.obj
 0002:000106d8       __XcptActTab               300af6d8     LIBCMTD:winxfltr.obj
 0002:00010768       __XcptActTabCount          300af768     LIBCMTD:winxfltr.obj
 0002:0001076c       __XcptActTabSize           300af76c     LIBCMTD:winxfltr.obj
 0002:00010770       __First_FPE_Indx           300af770     LIBCMTD:winxfltr.obj
 0002:00010774       __Num_FPE                  300af774     LIBCMTD:winxfltr.obj
 0002:00010778       ??_C@_1BC@DENNNKIM@?$AA_?$AAc?$AAr?$AAt?$AAh?$AAe?$AAa?$AAp?$AA?$AA@ 300af778     LIBCMTD:heapinit.obj
 0002:00010790       ??_C@_1GE@JDDMFOID@?$AAf?$AA?3?$AA?2?$AAd?$AAd?$AA?2?$AAv?$AAc?$AAt?$AAo?$AAo?$AAl?$AAs?$AA?2?$AAc?$AAr?$AAt?$AA_?$AAb?$AAl?$AAd?$AA?2?$AAs?$AAe?$AAl?$AAf?$AA_?$AAx?$AA8?$AA6?$AA?2?$AAc@ 300af790     LIBCMTD:heapinit.obj
 0002:000107f4       ??_C@_0DA@NBLAKPEL@f?3?2dd?2vctools?2crt_bld?2self_x86?2c@ 300af7f4     LIBCMTD:ioinit.obj
 0002:00010824       ??_C@_0DB@OEPBJOLC@f?3?2dd?2vctools?2crt_bld?2self_x86?2c@ 300af824     LIBCMTD:stdargv.obj
 0002:00010858       ??_C@_0DB@BMEBJJKP@f?3?2dd?2vctools?2crt_bld?2self_x86?2c@ 300af858     LIBCMTD:stdenvp.obj
 0002:00010890       ??_C@_1GC@DGBFLDBN@?$AAf?$AA?3?$AA?2?$AAd?$AAd?$AA?2?$AAv?$AAc?$AAt?$AAo?$AAo?$AAl?$AAs?$AA?2?$AAc?$AAr?$AAt?$AA_?$AAb?$AAl?$AAd?$AA?2?$AAs?$AAe?$AAl?$AAf?$AA_?$AAx?$AA8?$AA6?$AA?2?$AAc@ 300af890     LIBCMTD:stdenvp.obj
 0002:000108f4       ??_C@_1BC@GHMCNHHL@?$AA_?$AAs?$AAe?$AAt?$AAe?$AAn?$AAv?$AAp?$AA?$AA@ 300af8f4     LIBCMTD:stdenvp.obj
 0002:00010908       ??_C@_1DE@MMOGFGHF@?$AAs?$AAt?$AAr?$AAc?$AAp?$AAy?$AA_?$AAs?$AA?$CI?$AA?$CK?$AAe?$AAn?$AAv?$AA?0?$AA?5?$AAc?$AAc?$AAh?$AAa?$AAr?$AAs?$AA?0?$AA?5?$AAp?$AA?$CJ?$AA?$AA@ 300af908     LIBCMTD:stdenvp.obj
 0002:00010950       ??_C@_04HJMOFLDF@Free?$AA@ 300af950     LIBCMTD:dbgheap.obj
 0002:00010958       ??_C@_06EFAGIKOH@Normal?$AA@ 300af958     LIBCMTD:dbgheap.obj
 0002:00010960       ??_C@_03OGPFLFLO@CRT?$AA@  300af960     LIBCMTD:dbgheap.obj
 0002:00010964       ??_C@_06KMEJCCGM@Ignore?$AA@ 300af964     LIBCMTD:dbgheap.obj
 0002:0001096c       ??_C@_06PJIGMIJB@Client?$AA@ 300af96c     LIBCMTD:dbgheap.obj
 0002:00010974       ??_C@_1CE@LJFEPPMP@?$AA_?$AAC?$AAr?$AAt?$AAC?$AAh?$AAe?$AAc?$AAk?$AAM?$AAe?$AAm?$AAo?$AAr?$AAy?$AA?$CI?$AA?$CJ?$AA?$AA@ 300af974     LIBCMTD:dbgheap.obj
 0002:00010998       ??_C@_1GC@DNJKKEAA@?$AAf?$AA?3?$AA?2?$AAd?$AAd?$AA?2?$AAv?$AAc?$AAt?$AAo?$AAo?$AAl?$AAs?$AA?2?$AAc?$AAr?$AAt?$AA_?$AAb?$AAl?$AAd?$AA?2?$AAs?$AAe?$AAl?$AAf?$AA_?$AAx?$AA8?$AA6?$AA?2?$AAc@ 300af998     LIBCMTD:dbgheap.obj
 0002:000109fc       ??_C@_0DF@BBEGIFEK@Client?5hook?5allocation?5failure?5a@ 300af9fc     LIBCMTD:dbgheap.obj
 0002:00010a34       ??_C@_0CB@CCLOLAHO@Client?5hook?5allocation?5failure?4?6@ 300afa34     LIBCMTD:dbgheap.obj
 0002:00010a58       ??_C@_0CF@BICKFLAF@Invalid?5allocation?5size?3?5?$CFIu?5byt@ 300afa58     LIBCMTD:dbgheap.obj
 0002:00010a80       ??_C@_0DC@JEMAGEKG@Error?3?5memory?5allocation?3?5bad?5me@ 300afa80     LIBCMTD:dbgheap.obj
 0002:00010ab4       ??_C@_0DI@KKJPDPGM@Client?5hook?5re?9allocation?5failur@ 300afab4     LIBCMTD:dbgheap.obj
 0002:00010aec       ??_C@_0CE@DOFMDOL@Client?5hook?5re?9allocation?5failur@ 300afaec     LIBCMTD:dbgheap.obj
 0002:00010b10       ??_C@_0ED@GPCPBAGP@Invalid?5allocation?5size?3?5?$CFIu?5byt@ 300afb10     LIBCMTD:dbgheap.obj
 0002:00010b58       ??_C@_0FA@EFEIGJKG@Error?3?5memory?5allocation?3?5bad?5me@ 300afb58     LIBCMTD:dbgheap.obj
 0002:00010ba8       ??_C@_0EM@LGFLMAGJ@The?5Block?5at?50x?$CFp?5was?5allocated?5@ 300afba8     LIBCMTD:dbgheap.obj
 0002:00010bf8       ??_C@_1EE@GFOPCECE@?$AA_?$AAC?$AAr?$AAt?$AAI?$AAs?$AAV?$AAa?$AAl?$AAi?$AAd?$AAH?$AAe?$AAa?$AAp?$AAP?$AAo?$AAi?$AAn?$AAt?$AAe?$AAr?$AA?$CI?$AAp?$AAU?$AAs?$AAe?$AAr?$AAD?$AAa?$AAt?$AAa@ 300afbf8     LIBCMTD:dbgheap.obj
 0002:00010c40       ??_C@_1IK@DCPKDGNH@?$AAp?$AAO?$AAl?$AAd?$AAB?$AAl?$AAo?$AAc?$AAk?$AA?9?$AA?$DO?$AAn?$AAL?$AAi?$AAn?$AAe?$AA?5?$AA?$DN?$AA?$DN?$AA?5?$AAI?$AAG?$AAN?$AAO?$AAR?$AAE?$AA_?$AAL?$AAI?$AAN?$AAE?$AA?5@ 300afc40     LIBCMTD:dbgheap.obj
 0002:00010ccc       ??_C@_0DA@HFBKENN@Error?3?5possible?5heap?5corruption?5@ 300afccc     LIBCMTD:dbgheap.obj
 0002:00010d00       ??_C@_1GE@PCKLOLAO@?$AAf?$AAR?$AAe?$AAa?$AAl?$AAl?$AAo?$AAc?$AA?5?$AA?$HM?$AA?$HM?$AA?5?$AA?$CI?$AA?$CB?$AAf?$AAR?$AAe?$AAa?$AAl?$AAl?$AAo?$AAc?$AA?5?$AA?$CG?$AA?$CG?$AA?5?$AAp?$AAN?$AAe?$AAw?$AAB?$AAl@ 300afd00     LIBCMTD:dbgheap.obj
 0002:00010d64       ??_C@_1DC@GEFKNOOL@?$AA_?$AAp?$AAL?$AAa?$AAs?$AAt?$AAB?$AAl?$AAo?$AAc?$AAk?$AA?5?$AA?$DN?$AA?$DN?$AA?5?$AAp?$AAO?$AAl?$AAd?$AAB?$AAl?$AAo?$AAc?$AAk?$AA?$AA@ 300afd64     LIBCMTD:dbgheap.obj
 0002:00010d98       ??_C@_1DE@KOOKLFBB@?$AA_?$AAp?$AAF?$AAi?$AAr?$AAs?$AAt?$AAB?$AAl?$AAo?$AAc?$AAk?$AA?5?$AA?$DN?$AA?$DN?$AA?5?$AAp?$AAO?$AAl?$AAd?$AAB?$AAl?$AAo?$AAc?$AAk?$AA?$AA@ 300afd98     LIBCMTD:dbgheap.obj
 0002:00010dcc       ??_C@_1CE@CJACEFBA@?$AAp?$AAU?$AAs?$AAe?$AAr?$AAD?$AAa?$AAt?$AAa?$AA?5?$AA?$CB?$AA?$DN?$AA?5?$AAN?$AAU?$AAL?$AAL?$AA?$AA@ 300afdcc     LIBCMTD:dbgheap.obj
 0002:00010df0       ??_C@_1BI@HAPNGHDP@?$AA_?$AAe?$AAx?$AAp?$AAa?$AAn?$AAd?$AA_?$AAd?$AAb?$AAg?$AA?$AA@ 300afdf0     LIBCMTD:dbgheap.obj
 0002:00010e08       ??_C@_0EJ@HEIBCIMJ@The?5Block?5at?50x?$CFp?5was?5allocated?5@ 300afe08     LIBCMTD:dbgheap.obj
 0002:00010e54       ??_C@_0BL@KEIPLFAC@Client?5hook?5free?5failure?4?6?$AA@ 300afe54     LIBCMTD:dbgheap.obj
 0002:00010e70       ??_C@_1EO@LHDAJOCM@?$AA_?$AAB?$AAL?$AAO?$AAC?$AAK?$AA_?$AAT?$AAY?$AAP?$AAE?$AA_?$AAI?$AAS?$AA_?$AAV?$AAA?$AAL?$AAI?$AAD?$AA?$CI?$AAp?$AAH?$AAe?$AAa?$AAd?$AA?9?$AA?$DO?$AAn?$AAB?$AAl?$AAo@ 300afe70     LIBCMTD:dbgheap.obj
 0002:00010ec0       ??_C@_0KI@JGFOHMEB@HEAP?5CORRUPTION?5DETECTED?3?5before@ 300afec0     LIBCMTD:dbgheap.obj
 0002:00010f68       ??_C@_0IK@PJCGLBOB@HEAP?5CORRUPTION?5DETECTED?3?5before@ 300aff68     LIBCMTD:dbgheap.obj
 0002:00010ff8       ??_C@_0KE@MBMNHHHN@HEAP?5CORRUPTION?5DETECTED?3?5after?5@ 300afff8     LIBCMTD:dbgheap.obj
 0002:000110a0       ??_C@_0IG@LEMBDCJK@HEAP?5CORRUPTION?5DETECTED?3?5after?5@ 300b00a0     LIBCMTD:dbgheap.obj
 0002:00011128       ??_C@_1HK@HPCBMDFG@?$AAp?$AAH?$AAe?$AAa?$AAd?$AA?9?$AA?$DO?$AAn?$AAL?$AAi?$AAn?$AAe?$AA?5?$AA?$DN?$AA?$DN?$AA?5?$AAI?$AAG?$AAN?$AAO?$AAR?$AAE?$AA_?$AAL?$AAI?$AAN?$AAE?$AA?5?$AA?$CG?$AA?$CG?$AA?5?$AAp@ 300b0128     LIBCMTD:dbgheap.obj
 0002:000111a4       ??_C@_1DM@ODCJIDCP@?$AAp?$AAH?$AAe?$AAa?$AAd?$AA?9?$AA?$DO?$AAn?$AAB?$AAl?$AAo?$AAc?$AAk?$AAU?$AAs?$AAe?$AA?5?$AA?$DN?$AA?$DN?$AA?5?$AAn?$AAB?$AAl?$AAo?$AAc?$AAk?$AAU?$AAs?$AAe?$AA?$AA@ 300b01a4     LIBCMTD:dbgheap.obj
 0002:000111e0       ??_C@_1CK@DMAGEMBG@?$AA_?$AAp?$AAL?$AAa?$AAs?$AAt?$AAB?$AAl?$AAo?$AAc?$AAk?$AA?5?$AA?$DN?$AA?$DN?$AA?5?$AAp?$AAH?$AAe?$AAa?$AAd?$AA?$AA@ 300b01e0     LIBCMTD:dbgheap.obj
 0002:0001120c       ??_C@_1CM@MMAADDMD@?$AA_?$AAp?$AAF?$AAi?$AAr?$AAs?$AAt?$AAB?$AAl?$AAo?$AAc?$AAk?$AA?5?$AA?$DN?$AA?$DN?$AA?5?$AAp?$AAH?$AAe?$AAa?$AAd?$AA?$AA@ 300b020c     LIBCMTD:dbgheap.obj
 0002:00011238       ??_C@_1BG@MBKOGDLD@?$AA_?$AAm?$AAs?$AAi?$AAz?$AAe?$AA_?$AAd?$AAb?$AAg?$AA?$AA@ 300b0238     LIBCMTD:dbgheap.obj
 0002:00011250       ??_C@_0CE@MKKHMBMK@_heapchk?5fails?5with?5_HEAPBADBEGI@ 300b0250     LIBCMTD:dbgheap.obj
 0002:00011274       ??_C@_0CD@CPKEAPBD@_heapchk?5fails?5with?5_HEAPBADNODE@ 300b0274     LIBCMTD:dbgheap.obj
 0002:00011298       ??_C@_0CC@MJGLGBDG@_heapchk?5fails?5with?5_HEAPBADEND?4@ 300b0298     LIBCMTD:dbgheap.obj
 0002:000112bc       ??_C@_0CC@MFFCHFHO@_heapchk?5fails?5with?5_HEAPBADPTR?4@ 300b02bc     LIBCMTD:dbgheap.obj
 0002:000112e0       ??_C@_0CL@HNNNMKMJ@_heapchk?5fails?5with?5unknown?5retu@ 300b02e0     LIBCMTD:dbgheap.obj
 0002:0001130c       ??_C@_07OHKEFPKJ@DAMAGED?$AA@ 300b030c     LIBCMTD:dbgheap.obj
 0002:00011318       ??_C@_0KA@IHNJJKPL@HEAP?5CORRUPTION?5DETECTED?3?5on?5top@ 300b0318     LIBCMTD:dbgheap.obj
 0002:000113b8       ??_C@_0IC@BBJIOOJH@HEAP?5CORRUPTION?5DETECTED?3?5on?5top@ 300b03b8     LIBCMTD:dbgheap.obj
 0002:00011440       ??_C@_0EG@DGJMPDBH@?$CFhs?5located?5at?50x?$CFp?5is?5?$CFIu?5bytes@ 300b0440     LIBCMTD:dbgheap.obj
 0002:00011488       ??_C@_0CI@JMLBEDHJ@?$CFhs?5located?5at?50x?$CFp?5is?5?$CFIu?5bytes@ 300b0488     LIBCMTD:dbgheap.obj
 0002:000114b0       ??_C@_1BHO@NNANJNF@?$AA?$CI?$AAf?$AAN?$AAe?$AAw?$AAB?$AAi?$AAt?$AAs?$AA?$DN?$AA?$DN?$AA_?$AAC?$AAR?$AAT?$AAD?$AAB?$AAG?$AA_?$AAR?$AAE?$AAP?$AAO?$AAR?$AAT?$AA_?$AAF?$AAL?$AAA?$AAG?$AA?$CJ?$AA?5@ 300b04b0     LIBCMTD:dbgheap.obj
 0002:00011630       ??_C@_1BO@GJFDNMNF@?$AA_?$AAC?$AAr?$AAt?$AAS?$AAe?$AAt?$AAD?$AAb?$AAg?$AAF?$AAl?$AAa?$AAg?$AA?$AA@ 300b0630     LIBCMTD:dbgheap.obj
 0002:00011650       ??_C@_1BI@CJGCEEDL@?$AAp?$AAf?$AAn?$AA?5?$AA?$CB?$AA?$DN?$AA?5?$AAN?$AAU?$AAL?$AAL?$AA?$AA@ 300b0650     LIBCMTD:dbgheap.obj
 0002:00011668       ??_C@_1DE@GJCKCKEC@?$AA_?$AAC?$AAr?$AAt?$AAD?$AAo?$AAF?$AAo?$AAr?$AAA?$AAl?$AAl?$AAC?$AAl?$AAi?$AAe?$AAn?$AAt?$AAO?$AAb?$AAj?$AAe?$AAc?$AAt?$AAs?$AA?$AA@ 300b0668     LIBCMTD:dbgheap.obj
 0002:0001169c       ??_C@_1BM@MIMANDHC@?$AAs?$AAt?$AAa?$AAt?$AAe?$AA?5?$AA?$CB?$AA?$DN?$AA?5?$AAN?$AAU?$AAL?$AAL?$AA?$AA@ 300b069c     LIBCMTD:dbgheap.obj
 0002:000116b8       ??_C@_1CE@NJJKELF@?$AA_?$AAC?$AAr?$AAt?$AAM?$AAe?$AAm?$AAC?$AAh?$AAe?$AAc?$AAk?$AAp?$AAo?$AAi?$AAn?$AAt?$AA?$AA@ 300b06b8     LIBCMTD:dbgheap.obj
 0002:000116dc       ??_C@_0DP@LEFMFBOD@Bad?5memory?5block?5found?5at?50x?$CFp?4?6@ 300b06dc     LIBCMTD:dbgheap.obj
 0002:0001171c       ??_C@_0CB@EAAIGELO@Bad?5memory?5block?5found?5at?50x?$CFp?4?6@ 300b071c     LIBCMTD:dbgheap.obj
 0002:00011740       ??_C@_1CE@PDIENACM@?$AA_?$AAC?$AAr?$AAt?$AAM?$AAe?$AAm?$AAD?$AAi?$AAf?$AAf?$AAe?$AAr?$AAe?$AAn?$AAc?$AAe?$AA?$AA@ 300b0740     LIBCMTD:dbgheap.obj
 0002:00011764       ??_C@_1CC@DHPFEMMN@?$AAo?$AAl?$AAd?$AAS?$AAt?$AAa?$AAt?$AAe?$AA?5?$AA?$CB?$AA?$DN?$AA?5?$AAN?$AAU?$AAL?$AAL?$AA?$AA@ 300b0764     LIBCMTD:dbgheap.obj
 0002:00011788       ??_C@_1CC@DFPEDFBP@?$AAn?$AAe?$AAw?$AAS?$AAt?$AAa?$AAt?$AAe?$AA?5?$AA?$CB?$AA?$DN?$AA?5?$AAN?$AAU?$AAL?$AAL?$AA?$AA@ 300b0788     LIBCMTD:dbgheap.obj
 0002:000117ac       ??_C@_05MKKEDADM@?$CF?42X?5?$AA@ 300b07ac     LIBCMTD:dbgheap.obj
 0002:000117b4       ??_C@_1CG@LPFIACGM@?$AA_?$AAp?$AAr?$AAi?$AAn?$AAt?$AAM?$AAe?$AAm?$AAB?$AAl?$AAo?$AAc?$AAk?$AAD?$AAa?$AAt?$AAa?$AA?$AA@ 300b07b4     LIBCMTD:dbgheap.obj
 0002:000117dc       ??_C@_0BA@HJBKCELP@?5Data?3?5?$DM?$CFs?$DO?5?$CFs?6?$AA@ 300b07dc     LIBCMTD:dbgheap.obj
 0002:000117ec       ??_C@_0BE@KCIPKCIA@Dumping?5objects?5?9?$DO?6?$AA@ 300b07ec     LIBCMTD:dbgheap.obj
 0002:00011800       ??_C@_0BE@OIEFNFL@?$CDFile?5Error?$CD?$CI?$CFd?$CJ?5?3?5?$AA@ 300b0800     LIBCMTD:dbgheap.obj
 0002:00011814       ??_C@_0L@JMEFFCCJ@?$CFhs?$CI?$CFd?$CJ?5?3?5?$AA@ 300b0814     LIBCMTD:dbgheap.obj
 0002:00011820       ??_C@_06PKLGBFGM@?$HL?$CFld?$HN?5?$AA@ 300b0820     LIBCMTD:dbgheap.obj
 0002:00011828       ??_C@_0DD@GHNAAKBB@client?5block?5at?50x?$CFp?0?5subtype?5?$CFx@ 300b0828     LIBCMTD:dbgheap.obj
 0002:0001185c       ??_C@_0CH@FAGDDGPN@normal?5block?5at?50x?$CFp?0?5?$CFIu?5bytes?5@ 300b085c     LIBCMTD:dbgheap.obj
 0002:00011884       ??_C@_0DA@MDLBNIBM@crt?5block?5at?50x?$CFp?0?5subtype?5?$CFx?0?5?$CF@ 300b0884     LIBCMTD:dbgheap.obj
 0002:000118b4       ??_C@_0BH@GFGKJDCO@Object?5dump?5complete?4?6?$AA@ 300b08b4     LIBCMTD:dbgheap.obj
 0002:000118cc       ??_C@_0BI@JBFPOEJA@Detected?5memory?5leaks?$CB?6?$AA@ 300b08cc     LIBCMTD:dbgheap.obj
 0002:000118e4       ??_C@_1CM@MPNIBKGK@?$AA_?$AAC?$AAr?$AAt?$AAM?$AAe?$AAm?$AAD?$AAu?$AAm?$AAp?$AAS?$AAt?$AAa?$AAt?$AAi?$AAs?$AAt?$AAi?$AAc?$AAs?$AA?$AA@ 300b08e4     LIBCMTD:dbgheap.obj
 0002:00011910       ??_C@_0BO@DACNIABB@?$CFId?5bytes?5in?5?$CFId?5?$CFhs?5Blocks?4?6?$AA@ 300b0910     LIBCMTD:dbgheap.obj
 0002:00011930       ??_C@_0CB@BLHDAFNE@Largest?5number?5used?3?5?$CFId?5bytes?4?6@ 300b0930     LIBCMTD:dbgheap.obj
 0002:00011954       ??_C@_0BP@DEDHGGGI@Total?5allocations?3?5?$CFId?5bytes?4?6?$AA@ 300b0954     LIBCMTD:dbgheap.obj
 0002:00011974       ??_C@_1CE@NPMGPNNP@?$AAI?$AAS?$AA_?$AA2?$AA_?$AAP?$AAO?$AAW?$AA_?$AAN?$AA?$CI?$AAa?$AAl?$AAi?$AAg?$AAn?$AA?$CJ?$AA?$AA@ 300b0974     LIBCMTD:dbgheap.obj
 0002:00011998       ??_C@_1DG@DONCJBBJ@?$AA_?$AAa?$AAl?$AAi?$AAg?$AAn?$AAe?$AAd?$AA_?$AAo?$AAf?$AAf?$AAs?$AAe?$AAt?$AA_?$AAm?$AAa?$AAl?$AAl?$AAo?$AAc?$AA_?$AAd?$AAb?$AAg?$AA?$AA@ 300b0998     LIBCMTD:dbgheap.obj
 0002:000119d0       ??_C@_1DK@LFLKFPDA@?$AAo?$AAf?$AAf?$AAs?$AAe?$AAt?$AA?5?$AA?$DN?$AA?$DN?$AA?5?$AA0?$AA?5?$AA?$HM?$AA?$HM?$AA?5?$AAo?$AAf?$AAf?$AAs?$AAe?$AAt?$AA?5?$AA?$DM?$AA?5?$AAs?$AAi?$AAz?$AAe?$AA?$AA@ 300b09d0     LIBCMTD:dbgheap.obj
 0002:00011a10       ??_C@_0EI@NDNJMAJK@The?5block?5at?50x?$CFp?5was?5not?5alloca@ 300b0a10     LIBCMTD:dbgheap.obj
 0002:00011a58       ??_C@_0DL@PGHMMKNE@Damage?5before?50x?$CFp?5which?5was?5all@ 300b0a58     LIBCMTD:dbgheap.obj
 0002:00011a94       ??_C@_1DI@NINIKFFK@?$AA_?$AAa?$AAl?$AAi?$AAg?$AAn?$AAe?$AAd?$AA_?$AAo?$AAf?$AAf?$AAs?$AAe?$AAt?$AA_?$AAr?$AAe?$AAa?$AAl?$AAl?$AAo?$AAc?$AA_?$AAd?$AAb?$AAg?$AA?$AA@ 300b0a94     LIBCMTD:dbgheap.obj
 0002:00011ad0       ??_C@_0EF@PGELACII@The?5block?5at?50x?$CFp?5was?5not?5alloca@ 300b0ad0     LIBCMTD:dbgheap.obj
 0002:00011b18       ??_C@_1CC@MOBIKHH@?$AAm?$AAe?$AAm?$AAb?$AAl?$AAo?$AAc?$AAk?$AA?5?$AA?$CB?$AA?$DN?$AA?5?$AAN?$AAU?$AAL?$AAL?$AA?$AA@ 300b0b18     LIBCMTD:dbgheap.obj
 0002:00011b3c       ??_C@_1CG@CEGMHIMN@?$AA_?$AAa?$AAl?$AAi?$AAg?$AAn?$AAe?$AAd?$AA_?$AAm?$AAs?$AAi?$AAz?$AAe?$AA_?$AAd?$AAb?$AAg?$AA?$AA@ 300b0b3c     LIBCMTD:dbgheap.obj
 0002:00011b64       ??_C@_0CP@PPLBCJDN@f?3?2dd?2vctools?2crt_bld?2self_x86?2c@ 300b0b64     LIBCMTD:a_env.obj
 0002:00011b94       ??_C@_0CP@MKONOLCI@f?3?2dd?2vctools?2crt_bld?2self_x86?2c@ 300b0b94     LIBCMTD:mlock.obj
 0002:00011bc4       ??_C@_0DB@BECNGFDL@f?3?2dd?2vctools?2crt_bld?2self_x86?2c@ 300b0bc4     LIBCMTD:initmon.obj
 0002:00011bf8       ??_C@_1DM@GKAPAMDO@?$AAp?$AAl?$AAo?$AAc?$AAi?$AA?9?$AA?$DO?$AAl?$AAc?$AAo?$AAn?$AAv?$AA_?$AAm?$AAo?$AAn?$AA_?$AAr?$AAe?$AAf?$AAc?$AAo?$AAu?$AAn?$AAt?$AA?5?$AA?$DO?$AA?5?$AA0?$AA?$AA@ 300b0bf8     LIBCMTD:initmon.obj
 0002:00011c38       ??_C@_1GC@IKADOFBJ@?$AAf?$AA?3?$AA?2?$AAd?$AAd?$AA?2?$AAv?$AAc?$AAt?$AAo?$AAo?$AAl?$AAs?$AA?2?$AAc?$AAr?$AAt?$AA_?$AAb?$AAl?$AAd?$AA?2?$AAs?$AAe?$AAl?$AAf?$AA_?$AAx?$AA8?$AA6?$AA?2?$AAc@ 300b0c38     LIBCMTD:initmon.obj
 0002:00011c9c       ??_C@_0DB@KKFMDHFI@f?3?2dd?2vctools?2crt_bld?2self_x86?2c@ 300b0c9c     LIBCMTD:initnum.obj
 0002:00011cd0       ??_C@_1DM@IFKAINNE@?$AAp?$AAl?$AAo?$AAc?$AAi?$AA?9?$AA?$DO?$AAl?$AAc?$AAo?$AAn?$AAv?$AA_?$AAn?$AAu?$AAm?$AA_?$AAr?$AAe?$AAf?$AAc?$AAo?$AAu?$AAn?$AAt?$AA?5?$AA?$DO?$AA?5?$AA0?$AA?$AA@ 300b0cd0     LIBCMTD:initnum.obj
 0002:00011d10       ??_C@_1GC@EDJOCBCL@?$AAf?$AA?3?$AA?2?$AAd?$AAd?$AA?2?$AAv?$AAc?$AAt?$AAo?$AAo?$AAl?$AAs?$AA?2?$AAc?$AAr?$AAt?$AA_?$AAb?$AAl?$AAd?$AA?2?$AAs?$AAe?$AAl?$AAf?$AA_?$AAx?$AA8?$AA6?$AA?2?$AAc@ 300b0d10     LIBCMTD:initnum.obj
 0002:00011d74       ??_C@_0DC@KICHHNFK@f?3?2dd?2vctools?2crt_bld?2self_x86?2c@ 300b0d74     LIBCMTD:inittime.obj
 0002:00011da8       ??_C@_1EE@FDHCFDHN@?$AAp?$AAl?$AAo?$AAc?$AAi?$AA?9?$AA?$DO?$AAl?$AAc?$AA_?$AAt?$AAi?$AAm?$AAe?$AA_?$AAc?$AAu?$AAr?$AAr?$AA?9?$AA?$DO?$AAr?$AAe?$AAf?$AAc?$AAo?$AAu?$AAn?$AAt?$AA?5?$AA?$DO?$AA?5@ 300b0da8     LIBCMTD:inittime.obj
 0002:00011df0       ??_C@_1GE@GJCMHHMH@?$AAf?$AA?3?$AA?2?$AAd?$AAd?$AA?2?$AAv?$AAc?$AAt?$AAo?$AAo?$AAl?$AAs?$AA?2?$AAc?$AAr?$AAt?$AA_?$AAb?$AAl?$AAd?$AA?2?$AAs?$AAe?$AAl?$AAf?$AA_?$AAx?$AA8?$AA6?$AA?2?$AAc@ 300b0df0     LIBCMTD:inittime.obj
 0002:00011e58       ??_C@_1GE@DKGHLBLP@?$AAf?$AA?3?$AA?2?$AAd?$AAd?$AA?2?$AAv?$AAc?$AAt?$AAo?$AAo?$AAl?$AAs?$AA?2?$AAc?$AAr?$AAt?$AA_?$AAb?$AAl?$AAd?$AA?2?$AAs?$AAe?$AAl?$AAf?$AA_?$AAx?$AA8?$AA6?$AA?2?$AAc@ 300b0e58     LIBCMTD:swprintf.obj
 0002:00011ebc       ??_C@_1BE@BMIJMLDD@?$AA_?$AAs?$AAw?$AAp?$AAr?$AAi?$AAn?$AAt?$AAf?$AA?$AA@ 300b0ebc     LIBCMTD:swprintf.obj
 0002:00011ed0       ??_C@_1FA@IFFFOLDJ@?$AAn?$AAR?$AAp?$AAt?$AAT?$AAy?$AAp?$AAe?$AA?5?$AA?$DO?$AA?$DN?$AA?5?$AA0?$AA?5?$AA?$CG?$AA?$CG?$AA?5?$AAn?$AAR?$AAp?$AAt?$AAT?$AAy?$AAp?$AAe?$AA?5?$AA?$DM?$AA?5?$AA_?$AAC?$AAR?$AAT@ 300b0ed0     LIBCMTD:dbgrptt.obj
 0002:00011f20       ??_C@_1GC@FIGJJMEN@?$AAf?$AA?3?$AA?2?$AAd?$AAd?$AA?2?$AAv?$AAc?$AAt?$AAo?$AAo?$AAl?$AAs?$AA?2?$AAc?$AAr?$AAt?$AA_?$AAb?$AAl?$AAd?$AA?2?$AAs?$AAe?$AAl?$AAf?$AA_?$AAx?$AA8?$AA6?$AA?2?$AAc@ 300b0f20     LIBCMTD:dbgrptt.obj
 0002:00011f84       ??_C@_1CE@FIHIECNJ@?$AA_?$AAC?$AAr?$AAt?$AAS?$AAe?$AAt?$AAR?$AAe?$AAp?$AAo?$AAr?$AAt?$AAM?$AAo?$AAd?$AAe?$AA?$AA@ 300b0f84     LIBCMTD:dbgrptt.obj
 0002:00011fa8       ??_C@_1NK@LOFHIHFC@?$AAf?$AAM?$AAo?$AAd?$AAe?$AA?5?$AA?$DN?$AA?$DN?$AA?5?$AA_?$AAC?$AAR?$AAT?$AAD?$AAB?$AAG?$AA_?$AAR?$AAE?$AAP?$AAO?$AAR?$AAT?$AA_?$AAM?$AAO?$AAD?$AAE?$AA?5?$AA?$HM?$AA?$HM?$AA?5@ 300b0fa8     LIBCMTD:dbgrptt.obj
 0002:00012084       ??_C@_1CE@IKKEDCME@?$AA_?$AAC?$AAr?$AAt?$AAS?$AAe?$AAt?$AAR?$AAe?$AAp?$AAo?$AAr?$AAt?$AAF?$AAi?$AAl?$AAe?$AA?$AA@ 300b1084     LIBCMTD:dbgrptt.obj
 0002:000120a8       ??_C@_1CA@KHJHLKA@?$AA_?$AAV?$AAC?$AAr?$AAt?$AAD?$AAb?$AAg?$AAR?$AAe?$AAp?$AAo?$AAr?$AAt?$AAA?$AA?$AA@ 300b10a8     LIBCMTD:dbgrptt.obj
 0002:000120c8       ??_C@_1FA@JPHJBHEM@?$AA_?$AAi?$AAt?$AAo?$AAa?$AA_?$AAs?$AA?$CI?$AAn?$AAL?$AAi?$AAn?$AAe?$AA?0?$AA?5?$AAs?$AAz?$AAL?$AAi?$AAn?$AAe?$AAM?$AAe?$AAs?$AAs?$AAa?$AAg?$AAe?$AA?0?$AA?5?$AA4?$AA0@ 300b10c8     LIBCMTD:dbgrptt.obj
 0002:00012118       ??_C@_0CG@BNGLOCEO@Second?5Chance?5Assertion?5Failed?3?5@ 300b1118     LIBCMTD:dbgrptt.obj
 0002:00012140       ??_C@_0P@DFJNDPOP@?$DMfile?5unknown?$DO?$AA@ 300b1140     LIBCMTD:dbgrptt.obj
 0002:00012150       ??_C@_07BHGABMGB@?0?5Line?5?$AA@ 300b1150     LIBCMTD:dbgrptt.obj
 0002:00012158       ??_C@_01EEMJAFIK@?6?$AA@   300b1158     LIBCMTD:dbgrptt.obj
 0002:00012160       ??_C@_1JI@GAALPGBM@?$AAs?$AAt?$AAr?$AAc?$AAp?$AAy?$AA_?$AAs?$AA?$CI?$AAs?$AAz?$AAU?$AAs?$AAe?$AAr?$AAM?$AAe?$AAs?$AAs?$AAa?$AAg?$AAe?$AA?0?$AA?5?$AA4?$AA0?$AA9?$AA6?$AA?0?$AA?5?$AA?$CC?$AA_@ 300b1160     LIBCMTD:dbgrptt.obj
 0002:000121f8       ??_C@_0CL@EACFGMNB@_CrtDbgReport?3?5String?5too?5long?5o@ 300b11f8     LIBCMTD:dbgrptt.obj
 0002:00012228       ??_C@_1KK@GIGAEDMO@?$AAs?$AAt?$AAr?$AAc?$AAp?$AAy?$AA_?$AAs?$AA?$CI?$AAs?$AAz?$AAL?$AAi?$AAn?$AAe?$AAM?$AAe?$AAs?$AAs?$AAa?$AAg?$AAe?$AA?0?$AA?5?$AA4?$AA0?$AA9?$AA6?$AA?0?$AA?5?$AAs?$AAz@ 300b1228     LIBCMTD:dbgrptt.obj
 0002:000122d4       ??_C@_0BD@CAENFOHP@Assertion?5failed?3?5?$AA@ 300b12d4     LIBCMTD:dbgrptt.obj
 0002:000122e8       ??_C@_0BC@LAIDCHCH@Assertion?5failed?$CB?$AA@ 300b12e8     LIBCMTD:dbgrptt.obj
 0002:00012300       ??_C@_1FK@NPGBPOFO@?$AAs?$AAt?$AAr?$AAc?$AAa?$AAt?$AA_?$AAs?$AA?$CI?$AAs?$AAz?$AAL?$AAi?$AAn?$AAe?$AAM?$AAe?$AAs?$AAs?$AAa?$AAg?$AAe?$AA?0?$AA?5?$AA4?$AA0?$AA9?$AA6?$AA?0?$AA?5?$AAs?$AAz@ 300b1300     LIBCMTD:dbgrptt.obj
 0002:00012360       ??_C@_1EI@CACDLAFK@?$AAs?$AAt?$AAr?$AAc?$AAa?$AAt?$AA_?$AAs?$AA?$CI?$AAs?$AAz?$AAL?$AAi?$AAn?$AAe?$AAM?$AAe?$AAs?$AAs?$AAa?$AAg?$AAe?$AA?0?$AA?5?$AA4?$AA0?$AA9?$AA6?$AA?0?$AA?5?$AA?$CC?$AA?2@ 300b1360     LIBCMTD:dbgrptt.obj
 0002:000123a8       ??_C@_01LIIJDEN@?$AN?$AA@  300b13a8     LIBCMTD:dbgrptt.obj
 0002:000123b0       ??_C@_1EI@LDHJEDO@?$AAs?$AAt?$AAr?$AAc?$AAa?$AAt?$AA_?$AAs?$AA?$CI?$AAs?$AAz?$AAL?$AAi?$AAn?$AAe?$AAM?$AAe?$AAs?$AAs?$AAa?$AAg?$AAe?$AA?0?$AA?5?$AA4?$AA0?$AA9?$AA6?$AA?0?$AA?5?$AA?$CC?$AA?2@ 300b13b0     LIBCMTD:dbgrptt.obj
 0002:000123f8       ??_C@_0M@IPILFDFN@?$CFs?$CI?$CFd?$CJ?5?3?5?$CFs?$AA@ 300b13f8     LIBCMTD:dbgrptt.obj
 0002:00012408       ??_C@_1JG@CPKCIOEE@?$AAs?$AAt?$AAr?$AAc?$AAp?$AAy?$AA_?$AAs?$AA?$CI?$AAs?$AAz?$AAO?$AAu?$AAt?$AAM?$AAe?$AAs?$AAs?$AAa?$AAg?$AAe?$AA?0?$AA?5?$AA4?$AA0?$AA9?$AA6?$AA?0?$AA?5?$AA?$CC?$AA_?$AAC@ 300b1408     LIBCMTD:dbgrptt.obj
 0002:000124a0       ??_C@_1FI@IBIOIHEG@?$AAs?$AAt?$AAr?$AAc?$AAp?$AAy?$AA_?$AAs?$AA?$CI?$AAs?$AAz?$AAO?$AAu?$AAt?$AAM?$AAe?$AAs?$AAs?$AAa?$AAg?$AAe?$AA?0?$AA?5?$AA4?$AA0?$AA9?$AA6?$AA?0?$AA?5?$AAs?$AAz?$AAL@ 300b14a0     LIBCMTD:dbgrptt.obj
 0002:000124f8       ??_C@_1IM@OOKIFKOH@?$AAe?$AA?5?$AA?$DN?$AA?5?$AAm?$AAb?$AAs?$AAt?$AAo?$AAw?$AAc?$AAs?$AA_?$AAs?$AA?$CI?$AA?$CG?$AAr?$AAe?$AAt?$AA?0?$AA?5?$AAs?$AAz?$AAO?$AAu?$AAt?$AAM?$AAe?$AAs?$AAs?$AAa?$AAg@ 300b14f8     LIBCMTD:dbgrptt.obj
 0002:00012588       ??_C@_1MC@IGEECMDB@?$AAw?$AAc?$AAs?$AAc?$AAp?$AAy?$AA_?$AAs?$AA?$CI?$AAs?$AAz?$AAO?$AAu?$AAt?$AAM?$AAe?$AAs?$AAs?$AAa?$AAg?$AAe?$AA2?$AA?0?$AA?5?$AA4?$AA0?$AA9?$AA6?$AA?0?$AA?5?$AAL?$AA?$CC@ 300b1588     LIBCMTD:dbgrptt.obj
 0002:00012650       ??_C@_1HO@PJOFIKFE@?$AA_?$AAC?$AAr?$AAt?$AAD?$AAb?$AAg?$AAR?$AAe?$AAp?$AAo?$AAr?$AAt?$AA?3?$AA?5?$AAS?$AAt?$AAr?$AAi?$AAn?$AAg?$AA?5?$AAt?$AAo?$AAo?$AA?5?$AAl?$AAo?$AAn?$AAg?$AA?5?$AAo@ 300b1650     LIBCMTD:dbgrptt.obj
 0002:000126d0       ??_C@_1CA@HPALHDOD@?$AA_?$AAV?$AAC?$AAr?$AAt?$AAD?$AAb?$AAg?$AAR?$AAe?$AAp?$AAo?$AAr?$AAt?$AAW?$AA?$AA@ 300b16d0     LIBCMTD:dbgrptt.obj
 0002:000126f0       ??_C@_1FA@CNLLOMHI@?$AA_?$AAi?$AAt?$AAo?$AAw?$AA_?$AAs?$AA?$CI?$AAn?$AAL?$AAi?$AAn?$AAe?$AA?0?$AA?5?$AAs?$AAz?$AAL?$AAi?$AAn?$AAe?$AAM?$AAe?$AAs?$AAs?$AAa?$AAg?$AAe?$AA?0?$AA?5?$AA4?$AA0@ 300b16f0     LIBCMTD:dbgrptt.obj
 0002:00012740       ??_C@_1EM@MJFLEDMB@?$AAS?$AAe?$AAc?$AAo?$AAn?$AAd?$AA?5?$AAC?$AAh?$AAa?$AAn?$AAc?$AAe?$AA?5?$AAA?$AAs?$AAs?$AAe?$AAr?$AAt?$AAi?$AAo?$AAn?$AA?5?$AAF?$AAa?$AAi?$AAl?$AAe?$AAd?$AA?3?$AA?5@ 300b1740     LIBCMTD:dbgrptt.obj
 0002:0001278c       ??_C@_1BO@OCHMLCAG@?$AA?$DM?$AAf?$AAi?$AAl?$AAe?$AA?5?$AAu?$AAn?$AAk?$AAn?$AAo?$AAw?$AAn?$AA?$DO?$AA?$AA@ 300b178c     LIBCMTD:dbgrptt.obj
 0002:000127ac       ??_C@_1BA@ELMMDCFC@?$AA?0?$AA?5?$AAL?$AAi?$AAn?$AAe?$AA?5?$AA?$AA@ 300b17ac     LIBCMTD:dbgrptt.obj
 0002:000127c0       ??_C@_1JK@KHFABAEO@?$AAw?$AAc?$AAs?$AAc?$AAp?$AAy?$AA_?$AAs?$AA?$CI?$AAs?$AAz?$AAU?$AAs?$AAe?$AAr?$AAM?$AAe?$AAs?$AAs?$AAa?$AAg?$AAe?$AA?0?$AA?5?$AA4?$AA0?$AA9?$AA6?$AA?0?$AA?5?$AAL?$AA?$CC@ 300b17c0     LIBCMTD:dbgrptt.obj
 0002:00012860       ??_C@_1KO@DGAHENCH@?$AAw?$AAc?$AAs?$AAc?$AAp?$AAy?$AA_?$AAs?$AA?$CI?$AAs?$AAz?$AAL?$AAi?$AAn?$AAe?$AAM?$AAe?$AAs?$AAs?$AAa?$AAg?$AAe?$AA?0?$AA?5?$AA4?$AA0?$AA9?$AA6?$AA?0?$AA?5?$AAs?$AAz@ 300b1860     LIBCMTD:dbgrptt.obj
 0002:00012910       ??_C@_1CG@FFFGGODN@?$AAA?$AAs?$AAs?$AAe?$AAr?$AAt?$AAi?$AAo?$AAn?$AA?5?$AAf?$AAa?$AAi?$AAl?$AAe?$AAd?$AA?3?$AA?5?$AA?$AA@ 300b1910     LIBCMTD:dbgrptt.obj
 0002:00012938       ??_C@_1FK@HPADHBBD@?$AAw?$AAc?$AAs?$AAc?$AAa?$AAt?$AA_?$AAs?$AA?$CI?$AAs?$AAz?$AAL?$AAi?$AAn?$AAe?$AAM?$AAe?$AAs?$AAs?$AAa?$AAg?$AAe?$AA?0?$AA?5?$AA4?$AA0?$AA9?$AA6?$AA?0?$AA?5?$AAs?$AAz@ 300b1938     LIBCMTD:dbgrptt.obj
 0002:00012998       ??_C@_1EK@NMDFGHMF@?$AAw?$AAc?$AAs?$AAc?$AAa?$AAt?$AA_?$AAs?$AA?$CI?$AAs?$AAz?$AAL?$AAi?$AAn?$AAe?$AAM?$AAe?$AAs?$AAs?$AAa?$AAg?$AAe?$AA?0?$AA?5?$AA4?$AA0?$AA9?$AA6?$AA?0?$AA?5?$AAL?$AA?$CC@ 300b1998     LIBCMTD:dbgrptt.obj
 0002:000129e4       ??_C@_13CMNBPIDO@?$AA?$AN?$AA?$AA@ 300b19e4     LIBCMTD:dbgrptt.obj
 0002:000129e8       ??_C@_1EK@PHCBEDKB@?$AAw?$AAc?$AAs?$AAc?$AAa?$AAt?$AA_?$AAs?$AA?$CI?$AAs?$AAz?$AAL?$AAi?$AAn?$AAe?$AAM?$AAe?$AAs?$AAs?$AAa?$AAg?$AAe?$AA?0?$AA?5?$AA4?$AA0?$AA9?$AA6?$AA?0?$AA?5?$AAL?$AA?$CC@ 300b19e8     LIBCMTD:dbgrptt.obj
 0002:00012a34       ??_C@_1BI@JIDBEPIG@?$AA?$CF?$AAs?$AA?$CI?$AA?$CF?$AAd?$AA?$CJ?$AA?5?$AA?3?$AA?5?$AA?$CF?$AAs?$AA?$AA@ 300b1a34     LIBCMTD:dbgrptt.obj
 0002:00012a50       ??_C@_1FI@DBAIJPJE@?$AAw?$AAc?$AAs?$AAc?$AAp?$AAy?$AA_?$AAs?$AA?$CI?$AAs?$AAz?$AAO?$AAu?$AAt?$AAM?$AAe?$AAs?$AAs?$AAa?$AAg?$AAe?$AA?0?$AA?5?$AA4?$AA0?$AA9?$AA6?$AA?0?$AA?5?$AAs?$AAz?$AAL@ 300b1a50     LIBCMTD:dbgrptt.obj
 0002:00012aa8       ??_C@_1JC@EOAPFDLN@?$AAw?$AAc?$AAs?$AAt?$AAo?$AAm?$AAb?$AAs?$AA_?$AAs?$AA?$CI?$AA?$CI?$AA?$CI?$AAv?$AAo?$AAi?$AAd?$AA?5?$AA?$CK?$AA?$CJ?$AA0?$AA?$CJ?$AA?0?$AA?5?$AAs?$AAz?$AAO?$AAu?$AAt?$AAM?$AAe?$AAs@ 300b1aa8     LIBCMTD:dbgrptt.obj
 0002:00012b40       ??_C@_1MA@LBAMNNOB@?$AAs?$AAt?$AAr?$AAc?$AAp?$AAy?$AA_?$AAs?$AA?$CI?$AAs?$AAz?$AAO?$AAu?$AAt?$AAM?$AAe?$AAs?$AAs?$AAa?$AAg?$AAe?$AA2?$AA?0?$AA?5?$AA4?$AA0?$AA9?$AA6?$AA?0?$AA?5?$AA?$CC?$AA_@ 300b1b40     LIBCMTD:dbgrptt.obj
 0002:00012c00       ??_C@_0DP@GNPEPHJD@_CrtDbgReport?3?5String?5too?5long?5o@ 300b1c00     LIBCMTD:dbgrptt.obj
 0002:00012c40       ??_C@_1IE@CPGKIAGP@?$AAw?$AAc?$AAs?$AAt?$AAo?$AAm?$AAb?$AAs?$AA_?$AAs?$AA?$CI?$AA?$CG?$AAr?$AAe?$AAt?$AA?0?$AA?5?$AAs?$AAz?$AAa?$AAO?$AAu?$AAt?$AAM?$AAe?$AAs?$AAs?$AAa?$AAg?$AAe?$AA?0?$AA?5@ 300b1c40     LIBCMTD:dbgrptt.obj
 0002:00012cc8       ___newctype                300b1cc8     LIBCMTD:ctype.obj
 0002:00012fc8       __wctype                   300b1fc8     LIBCMTD:ctype.obj
 0002:000131d0       ___newclmap                300b21d0     LIBCMTD:ctype.obj
 0002:00013350       ___newcumap                300b2350     LIBCMTD:ctype.obj
 0002:000134d0       ??_C@_1FC@NCPEPIBI@?$AA?$CI?$AA?$CI?$AA_?$AAD?$AAs?$AAt?$AA?$CJ?$AA?$CJ?$AA?5?$AA?$CB?$AA?$DN?$AA?5?$AAN?$AAU?$AAL?$AAL?$AA?5?$AA?$CG?$AA?$CG?$AA?5?$AA?$CI?$AA?$CI?$AA_?$AAS?$AAi?$AAz?$AAe?$AAI?$AAn?$AAB?$AAy?$AAt@ 300b24d0     LIBCMTD:strcpy_s.obj
 0002:00013524       ??_C@_1BC@CFJEPFGF@?$AAs?$AAt?$AAr?$AAc?$AAp?$AAy?$AA_?$AAs?$AA?$AA@ 300b2524     LIBCMTD:strcpy_s.obj
 0002:00013538       ??_C@_1GE@BDKOPHIO@?$AAf?$AA?3?$AA?2?$AAd?$AAd?$AA?2?$AAv?$AAc?$AAt?$AAo?$AAo?$AAl?$AAs?$AA?2?$AAc?$AAr?$AAt?$AA_?$AAb?$AAl?$AAd?$AA?2?$AAs?$AAe?$AAl?$AAf?$AA_?$AAx?$AA8?$AA6?$AA?2?$AAc@ 300b2538     LIBCMTD:_fptostr.obj
 0002:0001359c       ??_C@_1BC@OPALLEB@?$AA_?$AAf?$AAp?$AAt?$AAo?$AAs?$AAt?$AAr?$AA?$AA@ 300b259c     LIBCMTD:_fptostr.obj
 0002:000135b0       ??_C@_1GM@CEDLGDDI@?$AAs?$AAi?$AAz?$AAe?$AAI?$AAn?$AAB?$AAy?$AAt?$AAe?$AAs?$AA?5?$AA?$DO?$AA?5?$AA?$CI?$AAs?$AAi?$AAz?$AAe?$AA_?$AAt?$AA?$CJ?$AA?$CI?$AA?$CI?$AAd?$AAi?$AAg?$AAi?$AAt?$AAs?$AA?5?$AA?$DO@ 300b25b0     LIBCMTD:_fptostr.obj
 0002:0001361c       ??_C@_1BK@CLIEHFDF@?$AAp?$AAf?$AAl?$AAt?$AA?5?$AA?$CB?$AA?$DN?$AA?5?$AAN?$AAU?$AAL?$AAL?$AA?$AA@ 300b261c     LIBCMTD:_fptostr.obj
 0002:00013638       ??_C@_1HC@PKFDNKN@?$AAf?$AA?3?$AA?2?$AAd?$AAd?$AA?2?$AAv?$AAc?$AAt?$AAo?$AAo?$AAl?$AAs?$AA?2?$AAc?$AAr?$AAt?$AA_?$AAb?$AAl?$AAd?$AA?2?$AAs?$AAe?$AAl?$AAf?$AA_?$AAx?$AA8?$AA6?$AA?2?$AAc@ 300b2638     LIBCMTD:cfout.obj
 0002:000136ac       ??_C@_1BC@BPMMEHLK@?$AA_?$AAf?$AAl?$AAt?$AAo?$AAu?$AAt?$AA2?$AA?$AA@ 300b26ac     LIBCMTD:cfout.obj
 0002:000136c0       ??_C@_1FK@KODCOBKF@?$AAs?$AAt?$AAr?$AAc?$AAp?$AAy?$AA_?$AAs?$AA?$CI?$AAr?$AAe?$AAs?$AAu?$AAl?$AAt?$AAs?$AAt?$AAr?$AA?0?$AA?5?$AAr?$AAe?$AAs?$AAu?$AAl?$AAt?$AAs?$AAi?$AAz?$AAe?$AA?0?$AA?5@ 300b26c0     LIBCMTD:cfout.obj
 0002:00013720       ??_C@_1EM@EGEEBJLG@?$AA?$CI?$AAo?$AAp?$AAt?$AAi?$AAo?$AAn?$AAs?$AA?5?$AA?$CG?$AA?5?$AA?$HO?$AA_?$AAT?$AAW?$AAO?$AA_?$AAD?$AAI?$AAG?$AAI?$AAT?$AA_?$AAE?$AAX?$AAP?$AAO?$AAN?$AAE?$AAN?$AAT?$AA?$CJ@ 300b2720     LIBCMTD:outputformat.obj
 0002:00013770       ??_C@_1GM@NFGGJJCM@?$AAf?$AA?3?$AA?2?$AAd?$AAd?$AA?2?$AAv?$AAc?$AAt?$AAo?$AAo?$AAl?$AAs?$AA?2?$AAc?$AAr?$AAt?$AA_?$AAb?$AAl?$AAd?$AA?2?$AAs?$AAe?$AAl?$AAf?$AA_?$AAx?$AA8?$AA6?$AA?2?$AAc@ 300b2770     LIBCMTD:outputformat.obj
 0002:000137dc       ??_C@_1CG@EBJECAJM@?$AA_?$AAs?$AAe?$AAt?$AA_?$AAo?$AAu?$AAt?$AAp?$AAu?$AAt?$AA_?$AAf?$AAo?$AAr?$AAm?$AAa?$AAt?$AA?$AA@ 300b27dc     LIBCMTD:outputformat.obj
 0002:00013804       ??_C@_1DG@JNDMIEJL@?$AA?$CI?$AA?$CC?$AAI?$AAn?$AAv?$AAa?$AAl?$AAi?$AAd?$AA?5?$AAi?$AAn?$AAp?$AAu?$AAt?$AA?5?$AAv?$AAa?$AAl?$AAu?$AAe?$AA?$CC?$AA?0?$AA?5?$AA0?$AA?$CJ?$AA?$AA@ 300b2804     LIBCMTD:contrlfp.obj
 0002:00013840       ??_C@_1HI@JIOCECAH@?$AAf?$AA?3?$AA?2?$AAd?$AAd?$AA?2?$AAv?$AAc?$AAt?$AAo?$AAo?$AAl?$AAs?$AA?2?$AAc?$AAr?$AAt?$AA_?$AAb?$AAl?$AAd?$AA?2?$AAs?$AAe?$AAl?$AAf?$AA_?$AAx?$AA8?$AA6?$AA?2?$AAc@ 300b2840     LIBCMTD:contrlfp.obj
 0002:000138b8       ??_C@_1BK@CDOALEA@?$AA_?$AAc?$AAo?$AAn?$AAt?$AAr?$AAo?$AAl?$AAf?$AAp?$AA_?$AAs?$AA?$AA@ 300b28b8     LIBCMTD:contrlfp.obj
 0002:000138d8       ??_C@_1GA@PBJHELNC@?$AAf?$AA?3?$AA?2?$AAd?$AAd?$AA?2?$AAv?$AAc?$AAt?$AAo?$AAo?$AAl?$AAs?$AA?2?$AAc?$AAr?$AAt?$AA_?$AAb?$AAl?$AAd?$AA?2?$AAs?$AAe?$AAl?$AAf?$AA_?$AAx?$AA8?$AA6?$AA?2?$AAc@ 300b28d8     LIBCMTD:fileno.obj
 0002:00013938       ??_C@_1BA@JGHIEKKM@?$AA_?$AAf?$AAi?$AAl?$AAe?$AAn?$AAo?$AA?$AA@ 300b2938     LIBCMTD:fileno.obj
 0002:00013948       ??_C@_1FO@LPCLHKGE@?$AA?$CI?$AAf?$AAh?$AA?5?$AA?$DO?$AA?$DN?$AA?5?$AA0?$AA?5?$AA?$CG?$AA?$CG?$AA?5?$AA?$CI?$AAu?$AAn?$AAs?$AAi?$AAg?$AAn?$AAe?$AAd?$AA?$CJ?$AAf?$AAh?$AA?5?$AA?$DM?$AA?5?$AA?$CI?$AAu?$AAn?$AAs?$AAi@ 300b2948     LIBCMTD:isatty.obj
 0002:000139a8       ??_C@_1GA@LPGDJDEN@?$AAf?$AA?3?$AA?2?$AAd?$AAd?$AA?2?$AAv?$AAc?$AAt?$AAo?$AAo?$AAl?$AAs?$AA?2?$AAc?$AAr?$AAt?$AA_?$AAb?$AAl?$AAd?$AA?2?$AAs?$AAe?$AAl?$AAf?$AA_?$AAx?$AA8?$AA6?$AA?2?$AAc@ 300b29a8     LIBCMTD:isatty.obj
 0002:00013a08       ??_C@_1BA@LEBDGIHM@?$AA_?$AAi?$AAs?$AAa?$AAt?$AAt?$AAy?$AA?$AA@ 300b2a08     LIBCMTD:isatty.obj
 0002:00013a18       ??_C@_1FO@EPLDPDDL@?$AAf?$AA?3?$AA?2?$AAd?$AAd?$AA?2?$AAv?$AAc?$AAt?$AAo?$AAo?$AAl?$AAs?$AA?2?$AAc?$AAr?$AAt?$AA_?$AAb?$AAl?$AAd?$AA?2?$AAs?$AAe?$AAl?$AAf?$AA_?$AAx?$AA8?$AA6?$AA?2?$AAc@ 300b2a18     LIBCMTD:write.obj
 0002:00013a78       ??_C@_1O@KOFKDHPL@?$AA_?$AAw?$AAr?$AAi?$AAt?$AAe?$AA?$AA@ 300b2a78     LIBCMTD:write.obj
 0002:00013a88       ??_C@_1CM@OKGMMMDH@?$AA?$CI?$AA_?$AAo?$AAs?$AAf?$AAi?$AAl?$AAe?$AA?$CI?$AAf?$AAh?$AA?$CJ?$AA?5?$AA?$CG?$AA?5?$AAF?$AAO?$AAP?$AAE?$AAN?$AA?$CJ?$AA?$AA@ 300b2a88     LIBCMTD:write.obj
 0002:00013ab8       ??_C@_1JE@ECKHFIFP@?$AA?$CI?$AA?$CC?$AAI?$AAn?$AAv?$AAa?$AAl?$AAi?$AAd?$AA?5?$AAf?$AAi?$AAl?$AAe?$AA?5?$AAd?$AAe?$AAs?$AAc?$AAr?$AAi?$AAp?$AAt?$AAo?$AAr?$AA?4?$AA?5?$AAF?$AAi?$AAl?$AAe?$AA?5@ 300b2ab8     LIBCMTD:write.obj
 0002:00013b4c       ??_C@_1BM@KFJLMBPG@?$AA?$CI?$AAb?$AAu?$AAf?$AA?5?$AA?$CB?$AA?$DN?$AA?5?$AAN?$AAU?$AAL?$AAL?$AA?$CJ?$AA?$AA@ 300b2b4c     LIBCMTD:write.obj
 0002:00013b68       ??_C@_1BM@NCANHCIP@?$AA_?$AAw?$AAr?$AAi?$AAt?$AAe?$AA_?$AAn?$AAo?$AAl?$AAo?$AAc?$AAk?$AA?$AA@ 300b2b68     LIBCMTD:write.obj
 0002:00013b84       ??_C@_1CC@EEOLPHGO@?$AA?$CI?$AA?$CI?$AAc?$AAn?$AAt?$AA?5?$AA?$CG?$AA?5?$AA1?$AA?$CJ?$AA?5?$AA?$DN?$AA?$DN?$AA?5?$AA0?$AA?$CJ?$AA?$AA@ 300b2b84     LIBCMTD:write.obj
 0002:00013ba8       ??_C@_1DI@CNMHHHLG@?$AAi?$AAs?$AAl?$AAe?$AAa?$AAd?$AAb?$AAy?$AAt?$AAe?$AA?$CI?$AA_?$AAd?$AAb?$AAc?$AAs?$AAB?$AAu?$AAf?$AAf?$AAe?$AAr?$AA?$CI?$AAf?$AAh?$AA?$CJ?$AA?$CJ?$AA?$AA@ 300b2ba8     LIBCMTD:write.obj
 0002:00013be0       ??_C@_1GE@MINKPNPH@?$AAf?$AA?3?$AA?2?$AAd?$AAd?$AA?2?$AAv?$AAc?$AAt?$AAo?$AAo?$AAl?$AAs?$AA?2?$AAc?$AAr?$AAt?$AA_?$AAb?$AAl?$AAd?$AA?2?$AAs?$AAe?$AAl?$AAf?$AA_?$AAx?$AA8?$AA6?$AA?2?$AAc@ 300b2be0     LIBCMTD:lseeki64.obj
 0002:00013c44       ??_C@_1BE@KHFBJMNM@?$AA_?$AAl?$AAs?$AAe?$AAe?$AAk?$AAi?$AA6?$AA4?$AA?$AA@ 300b2c44     LIBCMTD:lseeki64.obj
 0002:00013c58       ??_C@_1GC@DKMGNNCC@?$AAf?$AA?3?$AA?2?$AAd?$AAd?$AA?2?$AAv?$AAc?$AAt?$AAo?$AAo?$AAl?$AAs?$AA?2?$AAc?$AAr?$AAt?$AA_?$AAb?$AAl?$AAd?$AA?2?$AAs?$AAe?$AAl?$AAf?$AA_?$AAx?$AA8?$AA6?$AA?2?$AAc@ 300b2c58     LIBCMTD:_getbuf.obj
 0002:00013cbc       ??_C@_0DB@JEHOCBEJ@f?3?2dd?2vctools?2crt_bld?2self_x86?2c@ 300b2cbc     LIBCMTD:_getbuf.obj
 0002:00013cf0       ??_C@_1GA@LHEGHOAF@?$AAf?$AA?3?$AA?2?$AAd?$AAd?$AA?2?$AAv?$AAc?$AAt?$AAo?$AAo?$AAl?$AAs?$AA?2?$AAc?$AAr?$AAt?$AA_?$AAb?$AAl?$AAd?$AA?2?$AAs?$AAe?$AAl?$AAf?$AA_?$AAx?$AA8?$AA6?$AA?2?$AAc@ 300b2cf0     LIBCMTD:printf.obj
 0002:00013d50       ??_C@_1O@GKDHFACN@?$AAp?$AAr?$AAi?$AAn?$AAt?$AAf?$AA?$AA@ 300b2d50     LIBCMTD:printf.obj
 0002:00013d60       ??_C@_1CO@HFMIILNF@?$AAs?$AAi?$AAz?$AAe?$AAI?$AAn?$AAB?$AAy?$AAt?$AAe?$AAs?$AA?5?$AA?$DM?$AA?$DN?$AA?5?$AAI?$AAN?$AAT?$AA_?$AAM?$AAA?$AAX?$AA?$AA@ 300b2d60     LIBCMTD:wctomb.obj
 0002:00013d90       ??_C@_1GA@LDLHPOO@?$AAf?$AA?3?$AA?2?$AAd?$AAd?$AA?2?$AAv?$AAc?$AAt?$AAo?$AAo?$AAl?$AAs?$AA?2?$AAc?$AAr?$AAt?$AA_?$AAb?$AAl?$AAd?$AA?2?$AAs?$AAe?$AAl?$AAf?$AA_?$AAx?$AA8?$AA6?$AA?2?$AAc@ 300b2d90     LIBCMTD:wctomb.obj
 0002:00013df0       ??_C@_1BI@IEADNOHF@?$AA_?$AAw?$AAc?$AAt?$AAo?$AAm?$AAb?$AA_?$AAs?$AA_?$AAl?$AA?$AA@ 300b2df0     LIBCMTD:wctomb.obj
 0002:00013e08       ___lookuptable_s           300b2e08     LIBCMTD:outputs.obj
 0002:00013e64       ??_C@_1BI@COFBLHCG@?$AA_?$AAo?$AAu?$AAt?$AAp?$AAu?$AAt?$AA_?$AAs?$AA_?$AAl?$AA?$AA@ 300b2e64     LIBCMTD:outputs.obj
 0002:00013e7c       ??_C@_0DA@HMCPFNKN@f?3?2dd?2vctools?2crt_bld?2self_x86?2c@ 300b2e7c     LIBCMTD:onexit.obj
 0002:00013eac       ??_C@_1BC@JLLICHIC@?$AAp?$AAn?$AAh?$AA?5?$AA?$DN?$AA?$DN?$AA?5?$AA0?$AA?$AA@ 300b2eac     LIBCMTD:handler.obj
 0002:00013ec0       ??_C@_1GG@CDHAPCGF@?$AAf?$AA?3?$AA?2?$AAd?$AAd?$AA?2?$AAv?$AAc?$AAt?$AAo?$AAo?$AAl?$AAs?$AA?2?$AAc?$AAr?$AAt?$AA_?$AAb?$AAl?$AAd?$AA?2?$AAs?$AAe?$AAl?$AAf?$AA_?$AAx?$AA8?$AA6?$AA?2?$AAc@ 300b2ec0     LIBCMTD:handler.obj
 0002:00013f28       ??_C@_0DC@CFDMMFIG@f?3?2dd?2vctools?2crt_bld?2self_x86?2c@ 300b2f28     LIBCMTD:inithelp.obj
 0002:00013f60       ??_C@_1GE@PLPIMDHG@?$AAf?$AA?3?$AA?2?$AAd?$AAd?$AA?2?$AAv?$AAc?$AAt?$AAo?$AAo?$AAl?$AAs?$AA?2?$AAc?$AAr?$AAt?$AA_?$AAb?$AAl?$AAd?$AA?2?$AAs?$AAe?$AAl?$AAf?$AA_?$AAx?$AA8?$AA6?$AA?2?$AAc@ 300b2f60     LIBCMTD:inithelp.obj
 0002:00013fc4       ??_C@_1CA@KHHCPEI@?$AA_?$AA_?$AAg?$AAe?$AAt?$AAl?$AAo?$AAc?$AAa?$AAl?$AAe?$AAi?$AAn?$AAf?$AAo?$AA?$AA@ 300b2fc4     LIBCMTD:inithelp.obj
 0002:00013fe8       ??_C@_1GO@NGIGJNHH@?$AAs?$AAt?$AAr?$AAn?$AAc?$AAp?$AAy?$AA_?$AAs?$AA?$CI?$AA?$CK?$AAs?$AAt?$AAr?$AAa?$AAd?$AAd?$AAr?$AAe?$AAs?$AAs?$AA?0?$AA?5?$AAo?$AAu?$AAt?$AAs?$AAi?$AAz?$AAe?$AA?0?$AA?5@ 300b2fe8     LIBCMTD:inithelp.obj
 0002:00014058       ??_C@_1CK@GFDNDKK@?$AA_?$AAR?$AAa?$AAn?$AAd?$AAo?$AAm?$AAV?$AAa?$AAl?$AAu?$AAe?$AA?5?$AA?$CB?$AA?$DN?$AA?5?$AAN?$AAU?$AAL?$AAL?$AA?$AA@ 300b3058     LIBCMTD:rand_s.obj
 0002:00014088       ??_C@_1GA@HBGBBKCD@?$AAf?$AA?3?$AA?2?$AAd?$AAd?$AA?2?$AAv?$AAc?$AAt?$AAo?$AAo?$AAl?$AAs?$AA?2?$AAc?$AAr?$AAt?$AA_?$AAb?$AAl?$AAd?$AA?2?$AAs?$AAe?$AAl?$AAf?$AA_?$AAx?$AA8?$AA6?$AA?2?$AAc@ 300b3088     LIBCMTD:rand_s.obj
 0002:000140e8       ??_C@_1O@IJGPPOGF@?$AAr?$AAa?$AAn?$AAd?$AA_?$AAs?$AA?$AA@ 300b30e8     LIBCMTD:rand_s.obj
 0002:000140f8       ??_C@_1BK@GAEMIDIL@?$AAA?$AAD?$AAV?$AAA?$AAP?$AAI?$AA3?$AA2?$AA?4?$AAD?$AAL?$AAL?$AA?$AA@ 300b30f8     LIBCMTD:rand_s.obj
 0002:00014118       ??_C@_1GA@EBEDGGGB@?$AA?$CI?$AA?$CC?$AAr?$AAa?$AAn?$AAd?$AA_?$AAs?$AA?5?$AAi?$AAs?$AA?5?$AAn?$AAo?$AAt?$AA?5?$AAa?$AAv?$AAa?$AAi?$AAl?$AAa?$AAb?$AAl?$AAe?$AA?5?$AAo?$AAn?$AA?5?$AAt?$AAh?$AAi@ 300b3118     LIBCMTD:rand_s.obj
 0002:00014178       ??_C@_0BC@JEAENNKH@SystemFunction036?$AA@ 300b3178     LIBCMTD:rand_s.obj
 0002:00014190       ??_C@_1GC@DGAFOCMO@?$AAf?$AA?3?$AA?2?$AAd?$AAd?$AA?2?$AAv?$AAc?$AAt?$AAo?$AAo?$AAl?$AAs?$AA?2?$AAc?$AAr?$AAt?$AA_?$AAb?$AAl?$AAd?$AA?2?$AAs?$AAe?$AAl?$AAf?$AA_?$AAx?$AA8?$AA6?$AA?2?$AAc@ 300b3190     LIBCMTD:_sftbuf.obj
 0002:000141f4       ??_C@_0DB@OLNNDFNH@f?3?2dd?2vctools?2crt_bld?2self_x86?2c@ 300b31f4     LIBCMTD:_sftbuf.obj
 0002:00014228       ??_C@_1CO@KCKAACMI@?$AAf?$AAl?$AAa?$AAg?$AA?5?$AA?$DN?$AA?$DN?$AA?5?$AA0?$AA?5?$AA?$HM?$AA?$HM?$AA?5?$AAf?$AAl?$AAa?$AAg?$AA?5?$AA?$DN?$AA?$DN?$AA?5?$AA1?$AA?$AA@ 300b3228     LIBCMTD:_sftbuf.obj
 0002:00014258       ??_C@_1HC@KFLBHHBC@?$AA?$CI?$AAf?$AAi?$AAl?$AAe?$AAd?$AAe?$AAs?$AA?5?$AA?$DO?$AA?$DN?$AA?5?$AA0?$AA?5?$AA?$CG?$AA?$CG?$AA?5?$AA?$CI?$AAu?$AAn?$AAs?$AAi?$AAg?$AAn?$AAe?$AAd?$AA?$CJ?$AAf?$AAi?$AAl?$AAe?$AAd@ 300b3258     LIBCMTD:commit.obj
 0002:000142d0       ??_C@_1GA@BOPCOCFN@?$AAf?$AA?3?$AA?2?$AAd?$AAd?$AA?2?$AAv?$AAc?$AAt?$AAo?$AAo?$AAl?$AAs?$AA?2?$AAc?$AAr?$AAt?$AA_?$AAb?$AAl?$AAd?$AA?2?$AAs?$AAe?$AAl?$AAf?$AA_?$AAx?$AA8?$AA6?$AA?2?$AAc@ 300b32d0     LIBCMTD:commit.obj
 0002:00014330       ??_C@_1BA@FLNMBBIM@?$AA_?$AAc?$AAo?$AAm?$AAm?$AAi?$AAt?$AA?$AA@ 300b3330     LIBCMTD:commit.obj
 0002:00014340       ??_C@_1DG@LNNHNFHJ@?$AA?$CI?$AA_?$AAo?$AAs?$AAf?$AAi?$AAl?$AAe?$AA?$CI?$AAf?$AAi?$AAl?$AAe?$AAd?$AAe?$AAs?$AA?$CJ?$AA?5?$AA?$CG?$AA?5?$AAF?$AAO?$AAP?$AAE?$AAN?$AA?$CJ?$AA?$AA@ 300b3340     LIBCMTD:commit.obj
 0002:00014378       ??_C@_1BO@KIJENGPH@?$AAs?$AAt?$AAr?$AAe?$AAa?$AAm?$AA?5?$AA?$CB?$AA?$DN?$AA?5?$AAN?$AAU?$AAL?$AAL?$AA?$AA@ 300b3378     LIBCMTD:_freebuf.obj
 0002:00014398       ??_C@_1GE@MIMBMOF@?$AAf?$AA?3?$AA?2?$AAd?$AAd?$AA?2?$AAv?$AAc?$AAt?$AAo?$AAo?$AAl?$AAs?$AA?2?$AAc?$AAr?$AAt?$AA_?$AAb?$AAl?$AAd?$AA?2?$AAs?$AAe?$AAl?$AAf?$AA_?$AAx?$AA8?$AA6?$AA?2?$AAc@ 300b3398     LIBCMTD:_freebuf.obj
 0002:00014400       ??_C@_1GE@MBMBDAGC@?$AAf?$AA?3?$AA?2?$AAd?$AAd?$AA?2?$AAv?$AAc?$AAt?$AAo?$AAo?$AAl?$AAs?$AA?2?$AAc?$AAr?$AAt?$AA_?$AAb?$AAl?$AAd?$AA?2?$AAs?$AAe?$AAl?$AAf?$AA_?$AAx?$AA8?$AA6?$AA?2?$AAc@ 300b3400     LIBCMTD:vfwprint.obj
 0002:00014464       ??_C@_1CC@MONNFDCM@?$AAv?$AAf?$AAw?$AAp?$AAr?$AAi?$AAn?$AAt?$AAf?$AA_?$AAh?$AAe?$AAl?$AAp?$AAe?$AAr?$AA?$AA@ 300b3464     LIBCMTD:vfwprint.obj
 0002:00014488       ??_C@_1BG@BBCDFOMA@?$AA_?$AAw?$AAo?$AAu?$AAt?$AAp?$AAu?$AAt?$AA_?$AAl?$AA?$AA@ 300b3488     LIBCMTD:woutput.obj
 0002:000144a0       ??_C@_1BK@ONMFGLDB@?$AA_?$AAw?$AAo?$AAu?$AAt?$AAp?$AAu?$AAt?$AA_?$AAs?$AA_?$AAl?$AA?$AA@ 300b34a0     LIBCMTD:woutputs.obj
 0002:000144bc       ??_C@_1BK@GDEKGMNC@?$AA_?$AAw?$AAo?$AAu?$AAt?$AAp?$AAu?$AAt?$AA_?$AAp?$AA_?$AAl?$AA?$AA@ 300b34bc     LIBCMTD:woutputp.obj
 0002:000144d8       ??_C@_1GK@PAJJBKJF@?$AAf?$AA?3?$AA?2?$AAd?$AAd?$AA?2?$AAv?$AAc?$AAt?$AAo?$AAo?$AAl?$AAs?$AA?2?$AAc?$AAr?$AAt?$AA_?$AAb?$AAl?$AAd?$AA?2?$AAs?$AAe?$AAl?$AAf?$AA_?$AAx?$AA8?$AA6?$AA?2?$AAc@ 300b34d8     LIBCMTD:wcsncpy_s.obj
 0002:00014544       ??_C@_1BE@PMMBFFCC@?$AAw?$AAc?$AAs?$AAn?$AAc?$AAp?$AAy?$AA_?$AAs?$AA?$AA@ 300b3544     LIBCMTD:wcsncpy_s.obj
 0002:00014558       ??_C@_1M@ELCKCCJJ@?$AAm?$AAi?$AA?9?$AAn?$AAz?$AA?$AA@ 300b3558     LIBCMTD:winapinls.obj
 0002:00014564       ??_C@_1M@CBOOLAPA@?$AAm?$AAk?$AA?9?$AAm?$AAk?$AA?$AA@ 300b3564     LIBCMTD:winapinls.obj
 0002:00014570       ??_C@_1M@GPHNBJKN@?$AAm?$AAl?$AA?9?$AAi?$AAn?$AA?$AA@ 300b3570     LIBCMTD:winapinls.obj
 0002:0001457c       ??_C@_1M@PABJILIG@?$AAm?$AAn?$AA?9?$AAm?$AAn?$AA?$AA@ 300b357c     LIBCMTD:winapinls.obj
 0002:00014588       ??_C@_1M@FGBKKIPG@?$AAm?$AAr?$AA?9?$AAi?$AAn?$AA?$AA@ 300b3588     LIBCMTD:winapinls.obj
 0002:00014594       ??_C@_1M@NDBPDDAL@?$AAm?$AAs?$AA?9?$AAb?$AAn?$AA?$AA@ 300b3594     LIBCMTD:winapinls.obj
 0002:000145a0       ??_C@_1M@OPIHOOPI@?$AAm?$AAs?$AA?9?$AAm?$AAy?$AA?$AA@ 300b35a0     LIBCMTD:winapinls.obj
 0002:000145ac       ??_C@_1M@PPDBCNFM@?$AAm?$AAt?$AA?9?$AAm?$AAt?$AA?$AA@ 300b35ac     LIBCMTD:winapinls.obj
 0002:000145b8       ??_C@_1M@KDJDKMDD@?$AAn?$AAb?$AA?9?$AAn?$AAo?$AA?$AA@ 300b35b8     LIBCMTD:winapinls.obj
 0002:000145c4       ??_C@_1M@KFCFLMJP@?$AAn?$AAl?$AA?9?$AAb?$AAe?$AA?$AA@ 300b35c4     LIBCMTD:winapinls.obj
 0002:000145d0       ??_C@_1M@KPOPDDGO@?$AAn?$AAl?$AA?9?$AAn?$AAl?$AA?$AA@ 300b35d0     LIBCMTD:winapinls.obj
 0002:000145dc       ??_C@_1M@LJKPEMLN@?$AAn?$AAn?$AA?9?$AAn?$AAo?$AA?$AA@ 300b35dc     LIBCMTD:winapinls.obj
 0002:000145e8       ??_C@_1M@BDGHHBFL@?$AAn?$AAs?$AA?9?$AAz?$AAa?$AA?$AA@ 300b35e8     LIBCMTD:winapinls.obj
 0002:000145f4       ??_C@_1M@IDEHOAP@?$AAp?$AAa?$AA?9?$AAi?$AAn?$AA?$AA@ 300b35f4     LIBCMTD:winapinls.obj
 0002:00014600       ??_C@_1M@HDBKGOGH@?$AAp?$AAl?$AA?9?$AAp?$AAl?$AA?$AA@ 300b3600     LIBCMTD:winapinls.obj
 0002:0001460c       ??_C@_1M@LJLLCMEH@?$AAp?$AAt?$AA?9?$AAb?$AAr?$AA?$AA@ 300b360c     LIBCMTD:winapinls.obj
 0002:00014618       ??_C@_1M@NCMONAAL@?$AAp?$AAt?$AA?9?$AAp?$AAt?$AA?$AA@ 300b3618     LIBCMTD:winapinls.obj
 0002:00014624       ??_C@_1O@EAKMAJDN@?$AAq?$AAu?$AAz?$AA?9?$AAb?$AAo?$AA?$AA@ 300b3624     LIBCMTD:winapinls.obj
 0002:00014634       ??_C@_1O@BHHPIGDN@?$AAq?$AAu?$AAz?$AA?9?$AAe?$AAc?$AA?$AA@ 300b3634     LIBCMTD:winapinls.obj
 0002:00014644       ??_C@_1O@GBAPEKMJ@?$AAq?$AAu?$AAz?$AA?9?$AAp?$AAe?$AA?$AA@ 300b3644     LIBCMTD:winapinls.obj
 0002:00014654       ??_C@_1M@CLGLEFBO@?$AAr?$AAo?$AA?9?$AAr?$AAo?$AA?$AA@ 300b3654     LIBCMTD:winapinls.obj
 0002:00014660       ??_C@_1M@CEEDODME@?$AAr?$AAu?$AA?9?$AAr?$AAu?$AA?$AA@ 300b3660     LIBCMTD:winapinls.obj
 0002:0001466c       ??_C@_1M@HPKKKMPP@?$AAs?$AAa?$AA?9?$AAi?$AAn?$AA?$AA@ 300b366c     LIBCMTD:winapinls.obj
 0002:00014678       ??_C@_1M@BKMAIGOJ@?$AAs?$AAe?$AA?9?$AAf?$AAi?$AA?$AA@ 300b3678     LIBCMTD:winapinls.obj
 0002:00014684       ??_C@_1M@NDPIFLFI@?$AAs?$AAe?$AA?9?$AAn?$AAo?$AA?$AA@ 300b3684     LIBCMTD:winapinls.obj
 0002:00014690       ??_C@_1M@DANKKHJ@?$AAs?$AAe?$AA?9?$AAs?$AAe?$AA?$AA@ 300b3690     LIBCMTD:winapinls.obj
 0002:0001469c       ??_C@_1M@PNBLONPJ@?$AAs?$AAk?$AA?9?$AAs?$AAk?$AA?$AA@ 300b369c     LIBCMTD:winapinls.obj
 0002:000146a8       ??_C@_1M@LFMODOAL@?$AAs?$AAl?$AA?9?$AAs?$AAi?$AA?$AA@ 300b36a8     LIBCMTD:winapinls.obj
 0002:000146b4       ??_C@_1O@DFKOMPG@?$AAs?$AAm?$AAa?$AA?9?$AAn?$AAo?$AA?$AA@ 300b36b4     LIBCMTD:winapinls.obj
 0002:000146c4       ??_C@_1O@NDKPBNNH@?$AAs?$AAm?$AAa?$AA?9?$AAs?$AAe?$AA?$AA@ 300b36c4     LIBCMTD:winapinls.obj
 0002:000146d4       ??_C@_1O@PLLKBHAB@?$AAs?$AAm?$AAj?$AA?9?$AAn?$AAo?$AA?$AA@ 300b36d4     LIBCMTD:winapinls.obj
 0002:000146e4       ??_C@_1O@CLEPOGCA@?$AAs?$AAm?$AAj?$AA?9?$AAs?$AAe?$AA?$AA@ 300b36e4     LIBCMTD:winapinls.obj
 0002:000146f4       ??_C@_1O@DLGJGKMK@?$AAs?$AAm?$AAn?$AA?9?$AAf?$AAi?$AA?$AA@ 300b36f4     LIBCMTD:winapinls.obj
 0002:00014704       ??_C@_1O@OJDJGAJC@?$AAs?$AAm?$AAs?$AA?9?$AAf?$AAi?$AA?$AA@ 300b3704     LIBCMTD:winapinls.obj
 0002:00014714       ??_C@_1M@BOFOGHPB@?$AAs?$AAq?$AA?9?$AAa?$AAl?$AA?$AA@ 300b3714     LIBCMTD:winapinls.obj
 0002:00014720       ??_C@_1BG@LJBBIPGB@?$AAs?$AAr?$AA?9?$AAb?$AAa?$AA?9?$AAc?$AAy?$AAr?$AAl?$AA?$AA@ 300b3720     LIBCMTD:winapinls.obj
 0002:00014738       ??_C@_1BG@JLBENFOE@?$AAs?$AAr?$AA?9?$AAb?$AAa?$AA?9?$AAl?$AAa?$AAt?$AAn?$AA?$AA@ 300b3738     LIBCMTD:winapinls.obj
 0002:00014750       ??_C@_1BG@KODPNHE@?$AAs?$AAr?$AA?9?$AAs?$AAp?$AA?9?$AAc?$AAy?$AAr?$AAl?$AA?$AA@ 300b3750     LIBCMTD:winapinls.obj
 0002:00014768       ??_C@_1BG@CIOGKHPB@?$AAs?$AAr?$AA?9?$AAs?$AAp?$AA?9?$AAl?$AAa?$AAt?$AAn?$AA?$AA@ 300b3768     LIBCMTD:winapinls.obj
 0002:00014780       ??_C@_1M@NGFJLMAC@?$AAs?$AAv?$AA?9?$AAf?$AAi?$AA?$AA@ 300b3780     LIBCMTD:winapinls.obj
 0002:0001478c       ??_C@_1M@MPJEJAJC@?$AAs?$AAv?$AA?9?$AAs?$AAe?$AA?$AA@ 300b378c     LIBCMTD:winapinls.obj
 0002:00014798       ??_C@_1M@MPNDHLFK@?$AAs?$AAw?$AA?9?$AAk?$AAe?$AA?$AA@ 300b3798     LIBCMTD:winapinls.obj
 0002:000147a4       ??_C@_1O@KOHBJJI@?$AAs?$AAy?$AAr?$AA?9?$AAs?$AAy?$AA?$AA@ 300b37a4     LIBCMTD:winapinls.obj
 0002:000147b4       ??_C@_1M@LDCEFHA@?$AAt?$AAa?$AA?9?$AAi?$AAn?$AA?$AA@ 300b37b4     LIBCMTD:winapinls.obj
 0002:000147c0       ??_C@_1M@CNJOFAK@?$AAt?$AAe?$AA?9?$AAi?$AAn?$AA?$AA@ 300b37c0     LIBCMTD:winapinls.obj
 0002:000147cc       ??_C@_1M@GNAECACD@?$AAt?$AAh?$AA?9?$AAt?$AAh?$AA?$AA@ 300b37cc     LIBCMTD:winapinls.obj
 0002:000147d8       ??_C@_1M@CHBIHOJO@?$AAt?$AAn?$AA?9?$AAz?$AAa?$AA?$AA@ 300b37d8     LIBCMTD:winapinls.obj
 0002:000147e4       ??_C@_1M@GCCMIGPJ@?$AAt?$AAr?$AA?9?$AAt?$AAr?$AA?$AA@ 300b37e4     LIBCMTD:winapinls.obj
 0002:000147f0       ??_C@_1M@CELMCNBK@?$AAt?$AAt?$AA?9?$AAr?$AAu?$AA?$AA@ 300b37f0     LIBCMTD:winapinls.obj
 0002:000147fc       ??_C@_1M@KLMCELGA@?$AAu?$AAk?$AA?9?$AAu?$AAa?$AA?$AA@ 300b37fc     LIBCMTD:winapinls.obj
 0002:00014808       ??_C@_1M@EPAJJAJF@?$AAu?$AAr?$AA?9?$AAp?$AAk?$AA?$AA@ 300b3808     LIBCMTD:winapinls.obj
 0002:00014814       ??_C@_1BG@GEGPMCDJ@?$AAu?$AAz?$AA?9?$AAu?$AAz?$AA?9?$AAc?$AAy?$AAr?$AAl?$AA?$AA@ 300b3814     LIBCMTD:winapinls.obj
 0002:0001482c       ??_C@_1BG@EGGKJILM@?$AAu?$AAz?$AA?9?$AAu?$AAz?$AA?9?$AAl?$AAa?$AAt?$AAn?$AA?$AA@ 300b382c     LIBCMTD:winapinls.obj
 0002:00014844       ??_C@_1M@GFOCLFF@?$AAv?$AAi?$AA?9?$AAv?$AAn?$AA?$AA@ 300b3844     LIBCMTD:winapinls.obj
 0002:00014850       ??_C@_1M@CPAMEDFI@?$AAx?$AAh?$AA?9?$AAz?$AAa?$AA?$AA@ 300b3850     LIBCMTD:winapinls.obj
 0002:0001485c       ??_C@_1O@EBKIFIGN@?$AAz?$AAh?$AA?9?$AAc?$AAh?$AAs?$AA?$AA@ 300b385c     LIBCMTD:winapinls.obj
 0002:0001486c       ??_C@_1O@NMHPGANE@?$AAz?$AAh?$AA?9?$AAc?$AAh?$AAt?$AA?$AA@ 300b386c     LIBCMTD:winapinls.obj
 0002:0001487c       ??_C@_1M@LPINJOMC@?$AAz?$AAh?$AA?9?$AAc?$AAn?$AA?$AA@ 300b387c     LIBCMTD:winapinls.obj
 0002:00014888       ??_C@_1M@OCJEJODD@?$AAz?$AAh?$AA?9?$AAh?$AAk?$AA?$AA@ 300b3888     LIBCMTD:winapinls.obj
 0002:00014894       ??_C@_1M@DNDLJINH@?$AAz?$AAh?$AA?9?$AAm?$AAo?$AA?$AA@ 300b3894     LIBCMTD:winapinls.obj
 0002:000148a0       ??_C@_1M@MBFDNDND@?$AAz?$AAh?$AA?9?$AAs?$AAg?$AA?$AA@ 300b38a0     LIBCMTD:winapinls.obj
 0002:000148ac       ??_C@_1M@IMEPLEPE@?$AAz?$AAh?$AA?9?$AAt?$AAw?$AA?$AA@ 300b38ac     LIBCMTD:winapinls.obj
 0002:000148b8       ??_C@_1M@BBGHNHJP@?$AAz?$AAu?$AA?9?$AAz?$AAa?$AA?$AA@ 300b38b8     LIBCMTD:winapinls.obj
 0002:000148c8       _LcidToLocaleNameTable     300b38c8     LIBCMTD:winapinls.obj
 0002:00014fe8       _LocaleNameToIndexTable    300b3fe8     LIBCMTD:winapinls.obj
 0002:00015708       ??_C@_15EMKDOKLE@?$AAa?$AAr?$AA?$AA@ 300b4708     LIBCMTD:winapinls.obj
 0002:00015710       ??_C@_15KNPADPLH@?$AAb?$AAg?$AA?$AA@ 300b4710     LIBCMTD:winapinls.obj
 0002:00015718       ??_C@_15EDMHLDMO@?$AAc?$AAa?$AA?$AA@ 300b4718     LIBCMTD:winapinls.obj
 0002:00015720       ??_C@_1O@BPEAJADD@?$AAz?$AAh?$AA?9?$AAC?$AAH?$AAS?$AA?$AA@ 300b4720     LIBCMTD:winapinls.obj
 0002:00015730       ??_C@_15LJNHCMNK@?$AAc?$AAs?$AA?$AA@ 300b4730     LIBCMTD:winapinls.obj
 0002:00015738       ??_C@_15FOMCIDHG@?$AAd?$AAa?$AA?$AA@ 300b4738     LIBCMTD:winapinls.obj
 0002:00015740       ??_C@_15NBKABECB@?$AAd?$AAe?$AA?$AA@ 300b4740     LIBCMTD:winapinls.obj
 0002:00015748       ??_C@_15GHPEIIAO@?$AAe?$AAl?$AA?$AA@ 300b4748     LIBCMTD:winapinls.obj
 0002:00015750       ??_C@_15MNPNEAIF@?$AAe?$AAn?$AA?$AA@ 300b4750     LIBCMTD:winapinls.obj
 0002:00015758       ??_C@_15GPIOMPMH@?$AAe?$AAs?$AA?$AA@ 300b4758     LIBCMTD:winapinls.obj
 0002:00015760       ??_C@_15NGLOAKJC@?$AAf?$AAi?$AA?$AA@ 300b4760     LIBCMTD:winapinls.obj
 0002:00015768       ??_C@_15FBKGNKAM@?$AAf?$AAr?$AA?$AA@ 300b4768     LIBCMTD:winapinls.obj
 0002:00015770       ??_C@_15KGGCNEFK@?$AAh?$AAe?$AA?$AA@ 300b4770     LIBCMTD:winapinls.obj
 0002:00015778       ??_C@_15PGHLIDMF@?$AAh?$AAu?$AA?$AA@ 300b4778     LIBCMTD:winapinls.obj
 0002:00015780       ??_C@_15BIEMAPLM@?$AAi?$AAs?$AA?$AA@ 300b4780     LIBCMTD:winapinls.obj
 0002:00015788       ??_C@_15IFJLDHAF@?$AAi?$AAt?$AA?$AA@ 300b4788     LIBCMTD:winapinls.obj
 0002:00015790       ??_C@_15GEMIOCAG@?$AAj?$AAa?$AA?$AA@ 300b4790     LIBCMTD:winapinls.obj
 0002:00015798       ??_C@_15EPELEGJA@?$AAk?$AAo?$AA?$AA@ 300b4798     LIBCMTD:winapinls.obj
 0002:000157a0       ??_C@_15NDDHIMN@?$AAn?$AAl?$AA?$AA@ 300b47a0     LIBCMTD:winapinls.obj
 0002:000157a8       ??_C@_15BPIGNHCD@?$AAn?$AAo?$AA?$AA@ 300b47a8     LIBCMTD:winapinls.obj
 0002:000157b0       ??_C@_15DEOPBLCG@?$AAp?$AAl?$AA?$AA@ 300b47b0     LIBCMTD:winapinls.obj
 0002:000157b8       ??_C@_15KBECGEFG@?$AAp?$AAt?$AA?$AA@ 300b47b8     LIBCMTD:winapinls.obj
 0002:000157c0       ??_C@_15GLJCBFMD@?$AAr?$AAo?$AA?$AA@ 300b47c0     LIBCMTD:winapinls.obj
 0002:000157c8       ??_C@_15FEDGKCDI@?$AAr?$AAu?$AA?$AA@ 300b47c8     LIBCMTD:winapinls.obj
 0002:000157d0       ??_C@_15GLKMLLHM@?$AAh?$AAr?$AA?$AA@ 300b47d0     LIBCMTD:winapinls.obj
 0002:000157d8       ??_C@_15CPKMFBDB@?$AAs?$AAk?$AA?$AA@ 300b47d8     LIBCMTD:winapinls.obj
 0002:000157e0       ??_C@_15BAAIOGMK@?$AAs?$AAq?$AA?$AA@ 300b47e0     LIBCMTD:winapinls.obj
 0002:000157e8       ??_C@_15INNPNOHD@?$AAs?$AAv?$AA?$AA@ 300b47e8     LIBCMTD:winapinls.obj
 0002:000157f0       ??_C@_15CABMMOGH@?$AAt?$AAh?$AA?$AA@ 300b47f0     LIBCMTD:winapinls.obj
 0002:000157f8       ??_C@_15BPLIHJJM@?$AAt?$AAr?$AA?$AA@ 300b47f8     LIBCMTD:winapinls.obj
 0002:00015800       ??_C@_15NEOEKKDJ@?$AAu?$AAr?$AA?$AA@ 300b4800     LIBCMTD:winapinls.obj
 0002:00015808       ??_C@_15NFICGAJK@?$AAi?$AAd?$AA?$AA@ 300b4808     LIBCMTD:winapinls.obj
 0002:00015810       ??_C@_15PJPFLCCM@?$AAu?$AAk?$AA?$AA@ 300b4810     LIBCMTD:winapinls.obj
 0002:00015818       ??_C@_15HPJPHDM@?$AAb?$AAe?$AA?$AA@ 300b4818     LIBCMTD:winapinls.obj
 0002:00015820       ??_C@_15LCHLGJII@?$AAs?$AAl?$AA?$AA@ 300b4820     LIBCMTD:winapinls.obj
 0002:00015828       ??_C@_15PCFJPHHO@?$AAe?$AAt?$AA?$AA@ 300b4828     LIBCMTD:winapinls.obj
 0002:00015830       ??_C@_15HPFPGODN@?$AAl?$AAv?$AA?$AA@ 300b4830     LIBCMTD:winapinls.obj
 0002:00015838       ??_C@_15NFFGKGLG@?$AAl?$AAt?$AA?$AA@ 300b4838     LIBCMTD:winapinls.obj
 0002:00015840       ??_C@_15BDAKCCHN@?$AAf?$AAa?$AA?$AA@ 300b4840     LIBCMTD:winapinls.obj
 0002:00015848       ??_C@_15NFGIAIAJ@?$AAv?$AAi?$AA?$AA@ 300b4848     LIBCMTD:winapinls.obj
 0002:00015850       ??_C@_15LMKNDMHN@?$AAh?$AAy?$AA?$AA@ 300b4850     LIBCMTD:winapinls.obj
 0002:00015858       ??_C@_15IJBHMCFL@?$AAa?$AAz?$AA?$AA@ 300b4858     LIBCMTD:winapinls.obj
 0002:00015860       ??_C@_15EKOFJABL@?$AAe?$AAu?$AA?$AA@ 300b4860     LIBCMTD:winapinls.obj
 0002:00015868       ??_C@_15BGHADCNK@?$AAm?$AAk?$AA?$AA@ 300b4868     LIBCMTD:winapinls.obj
 0002:00015870       ??_C@_15JDNICKHM@?$AAa?$AAf?$AA?$AA@ 300b4870     LIBCMTD:winapinls.obj
 0002:00015878       ??_C@_15KPJEDBKD@?$AAk?$AAa?$AA?$AA@ 300b4878     LIBCMTD:winapinls.obj
 0002:00015880       ??_C@_15PDNFFFEO@?$AAf?$AAo?$AA?$AA@ 300b4880     LIBCMTD:winapinls.obj
 0002:00015888       ??_C@_15OMLEGLOC@?$AAh?$AAi?$AA?$AA@ 300b4888     LIBCMTD:winapinls.obj
 0002:00015890       ??_C@_15IDNNENKK@?$AAm?$AAs?$AA?$AA@ 300b4890     LIBCMTD:winapinls.obj
 0002:00015898       ??_C@_15MACJNBMH@?$AAk?$AAk?$AA?$AA@ 300b4898     LIBCMTD:winapinls.obj
 0002:000158a0       ??_C@_15DKDJEOND@?$AAk?$AAy?$AA?$AA@ 300b48a0     LIBCMTD:winapinls.obj
 0002:000158a8       ??_C@_15DFGDLJBG@?$AAs?$AAw?$AA?$AA@ 300b48a8     LIBCMTD:winapinls.obj
 0002:000158b0       ??_C@_15BBFAICNG@?$AAu?$AAz?$AA?$AA@ 300b48b0     LIBCMTD:winapinls.obj
 0002:000158b8       ??_C@_15DKNDCGEA@?$AAt?$AAt?$AA?$AA@ 300b48b8     LIBCMTD:winapinls.obj
 0002:000158c0       ??_C@_15MGIFMDPL@?$AAp?$AAa?$AA?$AA@ 300b48c0     LIBCMTD:winapinls.obj
 0002:000158c8       ??_C@_15HCNDBBA@?$AAg?$AAu?$AA?$AA@ 300b48c8     LIBCMTD:winapinls.obj
 0002:000158d0       ??_C@_15FNBEIBON@?$AAt?$AAa?$AA?$AA@ 300b48d0     LIBCMTD:winapinls.obj
 0002:000158d8       ??_C@_15NCHGBGLK@?$AAt?$AAe?$AA?$AA@ 300b48d8     LIBCMTD:winapinls.obj
 0002:000158e0       ??_C@_15PHPHCBPF@?$AAk?$AAn?$AA?$AA@ 300b48e0     LIBCMTD:winapinls.obj
 0002:000158e8       ??_C@_15DLGBCKMP@?$AAm?$AAr?$AA?$AA@ 300b48e8     LIBCMTD:winapinls.obj
 0002:000158f0       ??_C@_15EABBLBFF@?$AAs?$AAa?$AA?$AA@ 300b48f0     LIBCMTD:winapinls.obj
 0002:000158f8       ??_C@_15CBKOMCOI@?$AAm?$AAn?$AA?$AA@ 300b48f8     LIBCMTD:winapinls.obj
 0002:00015900       ??_C@_15CKDMCJAF@?$AAg?$AAl?$AA?$AA@ 300b4900     LIBCMTD:winapinls.obj
 0002:00015908       ??_C@_17CNJFBPG@?$AAk?$AAo?$AAk?$AA?$AA@ 300b4908     LIBCMTD:winapinls.obj
 0002:00015910       ??_C@_17FFBJICPL@?$AAs?$AAy?$AAr?$AA?$AA@ 300b4910     LIBCMTD:winapinls.obj
 0002:00015918       ??_C@_17KPNDCPAF@?$AAd?$AAi?$AAv?$AA?$AA@ 300b4918     LIBCMTD:winapinls.obj
 0002:00015920       ??_C@_1M@OKAHONE@?$AAa?$AAr?$AA?9?$AAS?$AAA?$AA?$AA@ 300b4920     LIBCMTD:winapinls.obj
 0002:0001592c       ??_C@_1M@FFFIGIGK@?$AAb?$AAg?$AA?9?$AAB?$AAG?$AA?$AA@ 300b492c     LIBCMTD:winapinls.obj
 0002:00015938       ??_C@_1M@BJNKEDC@?$AAc?$AAa?$AA?9?$AAE?$AAS?$AA?$AA@ 300b4938     LIBCMTD:winapinls.obj
 0002:00015944       ??_C@_1M@IJJHFJHA@?$AAc?$AAs?$AA?9?$AAC?$AAZ?$AA?$AA@ 300b4944     LIBCMTD:winapinls.obj
 0002:00015950       ??_C@_1M@CLPEOBGI@?$AAd?$AAa?$AA?9?$AAD?$AAK?$AA?$AA@ 300b4950     LIBCMTD:winapinls.obj
 0002:0001595c       ??_C@_1M@MCMADGCB@?$AAd?$AAe?$AA?9?$AAD?$AAE?$AA?$AA@ 300b495c     LIBCMTD:winapinls.obj
 0002:00015968       ??_C@_1M@OOCKEMAM@?$AAe?$AAl?$AA?9?$AAG?$AAR?$AA?$AA@ 300b4968     LIBCMTD:winapinls.obj
 0002:00015974       ??_C@_1M@DDNJFGID@?$AAf?$AAi?$AA?9?$AAF?$AAI?$AA?$AA@ 300b4974     LIBCMTD:winapinls.obj
 0002:00015980       ??_C@_1M@GLIPPMAC@?$AAf?$AAr?$AA?9?$AAF?$AAR?$AA?$AA@ 300b4980     LIBCMTD:winapinls.obj
 0002:0001598c       ??_C@_1M@GFMCHPE@?$AAh?$AAe?$AA?9?$AAI?$AAL?$AA?$AA@ 300b498c     LIBCMTD:winapinls.obj
 0002:00015998       ??_C@_1M@MHLPGNKM@?$AAh?$AAu?$AA?9?$AAH?$AAU?$AA?$AA@ 300b4998     LIBCMTD:winapinls.obj
 0002:000159a4       ??_C@_1M@LPDDNNPN@?$AAi?$AAs?$AA?9?$AAI?$AAS?$AA?$AA@ 300b49a4     LIBCMTD:winapinls.obj
 0002:000159b0       ??_C@_1M@MADIPODN@?$AAi?$AAt?$AA?9?$AAI?$AAT?$AA?$AA@ 300b49b0     LIBCMTD:winapinls.obj
 0002:000159bc       ??_C@_1M@IHBJJGG@?$AAn?$AAl?$AA?9?$AAN?$AAL?$AA?$AA@ 300b49bc     LIBCMTD:winapinls.obj
 0002:000159c8       ??_C@_1M@EANAGDL@?$AAn?$AAb?$AA?9?$AAN?$AAO?$AA?$AA@ 300b49c8     LIBCMTD:winapinls.obj
 0002:000159d4       ??_C@_1M@NEIEMEGP@?$AAp?$AAl?$AA?9?$AAP?$AAL?$AA?$AA@ 300b49d4     LIBCMTD:winapinls.obj
 0002:000159e0       ??_C@_1M@BOCFIGEP@?$AAp?$AAt?$AA?9?$AAB?$AAR?$AA?$AA@ 300b49e0     LIBCMTD:winapinls.obj
 0002:000159ec       ??_C@_1M@IMPFOPBG@?$AAr?$AAo?$AA?9?$AAR?$AAO?$AA?$AA@ 300b49ec     LIBCMTD:winapinls.obj
 0002:000159f8       ??_C@_1M@IDNNEJMM@?$AAr?$AAu?$AA?9?$AAR?$AAU?$AA?$AA@ 300b49f8     LIBCMTD:winapinls.obj
 0002:00015a04       ??_C@_1M@LILEEOGM@?$AAh?$AAr?$AA?9?$AAH?$AAR?$AA?$AA@ 300b4a04     LIBCMTD:winapinls.obj
 0002:00015a10       ??_C@_1M@FKIFEHPB@?$AAs?$AAk?$AA?9?$AAS?$AAK?$AA?$AA@ 300b4a10     LIBCMTD:winapinls.obj
 0002:00015a1c       ??_C@_1M@LJMAMNPJ@?$AAs?$AAq?$AA?9?$AAA?$AAL?$AA?$AA@ 300b4a1c     LIBCMTD:winapinls.obj
 0002:00015a28       ??_C@_1M@GIAKDKJK@?$AAs?$AAv?$AA?9?$AAS?$AAE?$AA?$AA@ 300b4a28     LIBCMTD:winapinls.obj
 0002:00015a34       ??_C@_1M@MKJKIKCL@?$AAt?$AAh?$AA?9?$AAT?$AAH?$AA?$AA@ 300b4a34     LIBCMTD:winapinls.obj
 0002:00015a40       ??_C@_1M@MFLCCMPB@?$AAt?$AAr?$AA?9?$AAT?$AAR?$AA?$AA@ 300b4a40     LIBCMTD:winapinls.obj
 0002:00015a4c       ??_C@_1M@OIJHDKJN@?$AAu?$AAr?$AA?9?$AAP?$AAK?$AA?$AA@ 300b4a4c     LIBCMTD:winapinls.obj
 0002:00015a58       ??_C@_1M@LHIPCIEK@?$AAi?$AAd?$AA?9?$AAI?$AAD?$AA?$AA@ 300b4a58     LIBCMTD:winapinls.obj
 0002:00015a64       ??_C@_1M@MFMOBGI@?$AAu?$AAk?$AA?9?$AAU?$AAA?$AA?$AA@ 300b4a64     LIBCMTD:winapinls.obj
 0002:00015a70       ??_C@_1M@OBGLJIPL@?$AAb?$AAe?$AA?9?$AAB?$AAY?$AA?$AA@ 300b4a70     LIBCMTD:winapinls.obj
 0002:00015a7c       ??_C@_1M@BCFAJEAD@?$AAs?$AAl?$AA?9?$AAS?$AAI?$AA?$AA@ 300b4a7c     LIBCMTD:winapinls.obj
 0002:00015a88       ??_C@_1M@FKFFEDDN@?$AAe?$AAt?$AA?9?$AAE?$AAE?$AA?$AA@ 300b4a88     LIBCMTD:winapinls.obj
 0002:00015a94       ??_C@_1M@KGKKAACI@?$AAl?$AAv?$AA?9?$AAL?$AAV?$AA?$AA@ 300b4a94     LIBCMTD:winapinls.obj
 0002:00015aa0       ??_C@_1M@IFGBIJO@?$AAl?$AAt?$AA?9?$AAL?$AAT?$AA?$AA@ 300b4aa0     LIBCMTD:winapinls.obj
 0002:00015aac       ??_C@_1M@FGEAHEDM@?$AAf?$AAa?$AA?9?$AAI?$AAR?$AA?$AA@ 300b4aac     LIBCMTD:winapinls.obj
 0002:00015ab8       ??_C@_1M@KBMAIBFN@?$AAv?$AAi?$AA?9?$AAV?$AAN?$AA?$AA@ 300b4ab8     LIBCMTD:winapinls.obj
 0002:00015ac4       ??_C@_1M@GPCBKDJK@?$AAh?$AAy?$AA?9?$AAA?$AAM?$AA?$AA@ 300b4ac4     LIBCMTD:winapinls.obj
 0002:00015ad0       ??_C@_1BG@BECMDDJB@?$AAa?$AAz?$AA?9?$AAA?$AAZ?$AA?9?$AAL?$AAa?$AAt?$AAn?$AA?$AA@ 300b4ad0     LIBCMTD:winapinls.obj
 0002:00015ae8       ??_C@_1M@MAOFCAEA@?$AAe?$AAu?$AA?9?$AAE?$AAS?$AA?$AA@ 300b4ae8     LIBCMTD:winapinls.obj
 0002:00015af4       ??_C@_1M@IGHABKPI@?$AAm?$AAk?$AA?9?$AAM?$AAK?$AA?$AA@ 300b4af4     LIBCMTD:winapinls.obj
 0002:00015b00       ??_C@_1M@IAIGNEJG@?$AAt?$AAn?$AA?9?$AAZ?$AAA?$AA?$AA@ 300b4b00     LIBCMTD:winapinls.obj
 0002:00015b0c       ??_C@_1M@IIJCOJFA@?$AAx?$AAh?$AA?9?$AAZ?$AAA?$AA?$AA@ 300b4b0c     LIBCMTD:winapinls.obj
 0002:00015b18       ??_C@_1M@LGPJHNJH@?$AAz?$AAu?$AA?9?$AAZ?$AAA?$AA?$AA@ 300b4b18     LIBCMTD:winapinls.obj
 0002:00015b24       ??_C@_1M@HOKAOIO@?$AAa?$AAf?$AA?9?$AAZ?$AAA?$AA?$AA@ 300b4b24     LIBCMTD:winapinls.obj
 0002:00015b30       ??_C@_1M@DPCLHLIE@?$AAk?$AAa?$AA?9?$AAG?$AAE?$AA?$AA@ 300b4b30     LIBCMTD:winapinls.obj
 0002:00015b3c       ??_C@_1M@BLKMHJBI@?$AAf?$AAo?$AA?9?$AAF?$AAO?$AA?$AA@ 300b4b3c     LIBCMTD:winapinls.obj
 0002:00015b48       ??_C@_1M@LGGJAPPB@?$AAh?$AAi?$AA?9?$AAI?$AAN?$AA?$AA@ 300b4b48     LIBCMTD:winapinls.obj
 0002:00015b54       ??_C@_1M@FIKPIHFE@?$AAm?$AAt?$AA?9?$AAM?$AAT?$AA?$AA@ 300b4b54     LIBCMTD:winapinls.obj
 0002:00015b60       ??_C@_1M@HEGGPBFA@?$AAs?$AAe?$AA?9?$AAN?$AAO?$AA?$AA@ 300b4b60     LIBCMTD:winapinls.obj
 0002:00015b6c       ??_C@_1M@EIBJEEPA@?$AAm?$AAs?$AA?9?$AAM?$AAY?$AA?$AA@ 300b4b6c     LIBCMTD:winapinls.obj
 0002:00015b78       ??_C@_1M@FHLBGMPP@?$AAk?$AAk?$AA?9?$AAK?$AAZ?$AA?$AA@ 300b4b78     LIBCMTD:winapinls.obj
 0002:00015b84       ??_C@_1M@NGJJLCGI@?$AAk?$AAy?$AA?9?$AAK?$AAG?$AA?$AA@ 300b4b84     LIBCMTD:winapinls.obj
 0002:00015b90       ??_C@_1M@GIENNBFC@?$AAs?$AAw?$AA?9?$AAK?$AAE?$AA?$AA@ 300b4b90     LIBCMTD:winapinls.obj
 0002:00015b9c       ??_C@_1BG@NDGMJIMJ@?$AAu?$AAz?$AA?9?$AAU?$AAZ?$AA?9?$AAL?$AAa?$AAt?$AAn?$AA?$AA@ 300b4b9c     LIBCMTD:winapinls.obj
 0002:00015bb4       ??_C@_1M@IDCCIHBC@?$AAt?$AAt?$AA?9?$AAR?$AAU?$AA?$AA@ 300b4bb4     LIBCMTD:winapinls.obj
 0002:00015bc0       ??_C@_1M@LOICPMOJ@?$AAb?$AAn?$AA?9?$AAI?$AAN?$AA?$AA@ 300b4bc0     LIBCMTD:winapinls.obj
 0002:00015bcc       ??_C@_1M@KPKKNEAH@?$AAp?$AAa?$AA?9?$AAI?$AAN?$AA?$AA@ 300b4bcc     LIBCMTD:winapinls.obj
 0002:00015bd8       ??_C@_1M@PJGPPBOG@?$AAg?$AAu?$AA?9?$AAI?$AAN?$AA?$AA@ 300b4bd8     LIBCMTD:winapinls.obj
 0002:00015be4       ??_C@_1M@KMKMOPHI@?$AAt?$AAa?$AA?9?$AAI?$AAN?$AA?$AA@ 300b4be4     LIBCMTD:winapinls.obj
 0002:00015bf0       ??_C@_1M@KFEHEPAC@?$AAt?$AAe?$AA?9?$AAI?$AAN?$AA?$AA@ 300b4bf0     LIBCMTD:winapinls.obj
 0002:00015bfc       ??_C@_1M@CDCLMGHI@?$AAk?$AAn?$AA?9?$AAI?$AAN?$AA?$AA@ 300b4bfc     LIBCMTD:winapinls.obj
 0002:00015c08       ??_C@_1M@MIODLDKF@?$AAm?$AAl?$AA?9?$AAI?$AAN?$AA?$AA@ 300b4c08     LIBCMTD:winapinls.obj
 0002:00015c14       ??_C@_1M@PBIEACPO@?$AAm?$AAr?$AA?9?$AAI?$AAN?$AA?$AA@ 300b4c14     LIBCMTD:winapinls.obj
 0002:00015c20       ??_C@_1M@NIDEAGPH@?$AAs?$AAa?$AA?9?$AAI?$AAN?$AA?$AA@ 300b4c20     LIBCMTD:winapinls.obj
 0002:00015c2c       ??_C@_1M@FHIHCBIO@?$AAm?$AAn?$AA?9?$AAM?$AAN?$AA?$AA@ 300b4c2c     LIBCMTD:winapinls.obj
 0002:00015c38       ??_C@_1M@JAIJPENP@?$AAc?$AAy?$AA?9?$AAG?$AAB?$AA?$AA@ 300b4c38     LIBCMTD:winapinls.obj
 0002:00015c44       ??_C@_1M@PHGFBEPN@?$AAg?$AAl?$AA?9?$AAE?$AAS?$AA?$AA@ 300b4c44     LIBCMTD:winapinls.obj
 0002:00015c50       ??_C@_1O@KPIPDNCP@?$AAk?$AAo?$AAk?$AA?9?$AAI?$AAN?$AA?$AA@ 300b4c50     LIBCMTD:winapinls.obj
 0002:00015c60       ??_C@_1O@KNHJLDJA@?$AAs?$AAy?$AAr?$AA?9?$AAS?$AAY?$AA?$AA@ 300b4c60     LIBCMTD:winapinls.obj
 0002:00015c70       ??_C@_1O@MKEKBLAH@?$AAd?$AAi?$AAv?$AA?9?$AAM?$AAV?$AA?$AA@ 300b4c70     LIBCMTD:winapinls.obj
 0002:00015c80       ??_C@_1O@OHDCKDDF@?$AAq?$AAu?$AAz?$AA?9?$AAB?$AAO?$AA?$AA@ 300b4c80     LIBCMTD:winapinls.obj
 0002:00015c90       ??_C@_1M@LEPJNLFD@?$AAn?$AAs?$AA?9?$AAZ?$AAA?$AA?$AA@ 300b4c90     LIBCMTD:winapinls.obj
 0002:00015c9c       ??_C@_1M@OMLEIIJB@?$AAm?$AAi?$AA?9?$AAN?$AAZ?$AA?$AA@ 300b4c9c     LIBCMTD:winapinls.obj
 0002:00015ca8       ??_C@_1M@PMPEAILG@?$AAa?$AAr?$AA?9?$AAI?$AAQ?$AA?$AA@ 300b4ca8     LIBCMTD:winapinls.obj
 0002:00015cb4       ??_C@_1M@CNKPNOEE@?$AAd?$AAe?$AA?9?$AAC?$AAH?$AA?$AA@ 300b4cb4     LIBCMTD:winapinls.obj
 0002:00015cc0       ??_C@_1M@LKMGMLKO@?$AAe?$AAn?$AA?9?$AAG?$AAB?$AA?$AA@ 300b4cc0     LIBCMTD:winapinls.obj
 0002:00015ccc       ??_C@_1M@PGKJFFGL@?$AAe?$AAs?$AA?9?$AAM?$AAX?$AA?$AA@ 300b4ccc     LIBCMTD:winapinls.obj
 0002:00015cd8       ??_C@_1M@DNNANBDC@?$AAf?$AAr?$AA?9?$AAB?$AAE?$AA?$AA@ 300b4cd8     LIBCMTD:winapinls.obj
 0002:00015ce4       ??_C@_1M@HLGMDFHM@?$AAi?$AAt?$AA?9?$AAC?$AAH?$AA?$AA@ 300b4ce4     LIBCMTD:winapinls.obj
 0002:00015cf0       ??_C@_1M@CLLBGJH@?$AAn?$AAl?$AA?9?$AAB?$AAE?$AA?$AA@ 300b4cf0     LIBCMTD:winapinls.obj
 0002:00015cfc       ??_C@_1M@BODBOGLF@?$AAn?$AAn?$AA?9?$AAN?$AAO?$AA?$AA@ 300b4cfc     LIBCMTD:winapinls.obj
 0002:00015d08       ??_C@_1M@HFFAHKAD@?$AAp?$AAt?$AA?9?$AAP?$AAT?$AA?$AA@ 300b4d08     LIBCMTD:winapinls.obj
 0002:00015d14       ??_C@_1BG@LNOAKHIE@?$AAs?$AAr?$AA?9?$AAS?$AAP?$AA?9?$AAL?$AAa?$AAt?$AAn?$AA?$AA@ 300b4d14     LIBCMTD:winapinls.obj
 0002:00015d2c       ??_C@_1M@HBMHBGAK@?$AAs?$AAv?$AA?9?$AAF?$AAI?$AA?$AA@ 300b4d2c     LIBCMTD:winapinls.obj
 0002:00015d38       ??_C@_1BG@DGCJGJBE@?$AAa?$AAz?$AA?9?$AAA?$AAZ?$AA?9?$AAC?$AAy?$AAr?$AAl?$AA?$AA@ 300b4d38     LIBCMTD:winapinls.obj
 0002:00015d50       ??_C@_1M@KEJDAAHB@?$AAs?$AAe?$AA?9?$AAS?$AAE?$AA?$AA@ 300b4d50     LIBCMTD:winapinls.obj
 0002:00015d5c       ??_C@_1M@HEIBJJAD@?$AAm?$AAs?$AA?9?$AAB?$AAN?$AA?$AA@ 300b4d5c     LIBCMTD:winapinls.obj
 0002:00015d68       ??_C@_1BG@PBGJMCEM@?$AAu?$AAz?$AA?9?$AAU?$AAZ?$AA?9?$AAC?$AAy?$AAr?$AAl?$AA?$AA@ 300b4d68     LIBCMTD:winapinls.obj
 0002:00015d80       ??_C@_1O@LAOBCMDF@?$AAq?$AAu?$AAz?$AA?9?$AAE?$AAC?$AA?$AA@ 300b4d80     LIBCMTD:winapinls.obj
 0002:00015d90       ??_C@_1M@POEEMAIO@?$AAa?$AAr?$AA?9?$AAE?$AAG?$AA?$AA@ 300b4d90     LIBCMTD:winapinls.obj
 0002:00015d9c       ??_C@_1M@EFAKDEDL@?$AAz?$AAh?$AA?9?$AAH?$AAK?$AA?$AA@ 300b4d9c     LIBCMTD:winapinls.obj
 0002:00015da8       ??_C@_1M@HKKIJHGI@?$AAd?$AAe?$AA?9?$AAA?$AAT?$AA?$AA@ 300b4da8     LIBCMTD:winapinls.obj
 0002:00015db4       ??_C@_1M@KBFBEHJF@?$AAe?$AAn?$AA?9?$AAA?$AAU?$AA?$AA@ 300b4db4     LIBCMTD:winapinls.obj
 0002:00015dc0       ??_C@_1M@MNPLFAAH@?$AAe?$AAs?$AA?9?$AAE?$AAS?$AA?$AA@ 300b4dc0     LIBCMTD:winapinls.obj
 0002:00015dcc       ??_C@_1M@HJOOJFMA@?$AAf?$AAr?$AA?9?$AAC?$AAA?$AA?$AA@ 300b4dcc     LIBCMTD:winapinls.obj
 0002:00015dd8       ??_C@_1BG@JPOFPNAB@?$AAs?$AAr?$AA?9?$AAS?$AAP?$AA?9?$AAC?$AAy?$AAr?$AAl?$AA?$AA@ 300b4dd8     LIBCMTD:winapinls.obj
 0002:00015df0       ??_C@_1M@LNFOCMOB@?$AAs?$AAe?$AA?9?$AAF?$AAI?$AA?$AA@ 300b4df0     LIBCMTD:winapinls.obj
 0002:00015dfc       ??_C@_1O@MGJBOAMB@?$AAq?$AAu?$AAz?$AA?9?$AAP?$AAE?$AA?$AA@ 300b4dfc     LIBCMTD:winapinls.obj
 0002:00015e0c       ??_C@_1M@GJINLBOK@?$AAa?$AAr?$AA?9?$AAL?$AAY?$AA?$AA@ 300b4e0c     LIBCMTD:winapinls.obj
 0002:00015e18       ??_C@_1M@GGMNHJNL@?$AAz?$AAh?$AA?9?$AAS?$AAG?$AA?$AA@ 300b4e18     LIBCMTD:winapinls.obj
 0002:00015e24       ??_C@_1M@HOIKODND@?$AAd?$AAe?$AA?9?$AAL?$AAU?$AA?$AA@ 300b4e24     LIBCMTD:winapinls.obj
 0002:00015e30       ??_C@_1M@DDOCCGFG@?$AAe?$AAn?$AA?9?$AAC?$AAA?$AA?$AA@ 300b4e30     LIBCMTD:winapinls.obj
 0002:00015e3c       ??_C@_1M@BNOEMJLF@?$AAe?$AAs?$AA?9?$AAG?$AAT?$AA?$AA@ 300b4e3c     LIBCMTD:winapinls.obj
 0002:00015e48       ??_C@_1M@EOGNKEK@?$AAf?$AAr?$AA?9?$AAC?$AAH?$AA?$AA@ 300b4e48     LIBCMTD:winapinls.obj
 0002:00015e54       ??_C@_1M@FLIDJFHL@?$AAh?$AAr?$AA?9?$AAB?$AAA?$AA?$AA@ 300b4e54     LIBCMTD:winapinls.obj
 0002:00015e60       ??_C@_1O@FMCELNAJ@?$AAs?$AAm?$AAj?$AA?9?$AAN?$AAO?$AA?$AA@ 300b4e60     LIBCMTD:winapinls.obj
 0002:00015e70       ??_C@_1M@JHGLJMGJ@?$AAa?$AAr?$AA?9?$AAD?$AAZ?$AA?$AA@ 300b4e70     LIBCMTD:winapinls.obj
 0002:00015e7c       ??_C@_1M@JKKFDCNP@?$AAz?$AAh?$AA?9?$AAM?$AAO?$AA?$AA@ 300b4e7c     LIBCMTD:winapinls.obj
 0002:00015e88       ??_C@_1M@GEEFALPE@?$AAd?$AAe?$AA?9?$AAL?$AAI?$AA?$AA@ 300b4e88     LIBCMTD:winapinls.obj
 0002:00015e94       ??_C@_1M@IGEOFBG@?$AAe?$AAn?$AA?9?$AAN?$AAZ?$AA?$AA@ 300b4e94     LIBCMTD:winapinls.obj
 0002:00015ea0       ??_C@_1M@KDBONEHP@?$AAe?$AAs?$AA?9?$AAC?$AAR?$AA?$AA@ 300b4ea0     LIBCMTD:winapinls.obj
 0002:00015eac       ??_C@_1M@FHMDOHNN@?$AAf?$AAr?$AA?9?$AAL?$AAU?$AA?$AA@ 300b4eac     LIBCMTD:winapinls.obj
 0002:00015eb8       ??_C@_1BG@NFKKMAFG@?$AAb?$AAs?$AA?9?$AAB?$AAA?$AA?9?$AAL?$AAa?$AAt?$AAn?$AA?$AA@ 300b4eb8     LIBCMTD:winapinls.obj
 0002:00015ed0       ??_C@_1O@IMNBEMCI@?$AAs?$AAm?$AAj?$AA?9?$AAS?$AAE?$AA?$AA@ 300b4ed0     LIBCMTD:winapinls.obj
 0002:00015ee0       ??_C@_1M@DHHMBNDP@?$AAa?$AAr?$AA?9?$AAM?$AAA?$AA?$AA@ 300b4ee0     LIBCMTD:winapinls.obj
 0002:00015eec       ??_C@_1M@BNBLJCGH@?$AAe?$AAn?$AA?9?$AAI?$AAE?$AA?$AA@ 300b4eec     LIBCMTD:winapinls.obj
 0002:00015ef8       ??_C@_1M@GEPAFMDL@?$AAe?$AAs?$AA?9?$AAP?$AAA?$AA?$AA@ 300b4ef8     LIBCMTD:winapinls.obj
 0002:00015f04       ??_C@_1M@OJONDMDL@?$AAf?$AAr?$AA?9?$AAM?$AAC?$AA?$AA@ 300b4f04     LIBCMTD:winapinls.obj
 0002:00015f10       ??_C@_1BG@OBCNFJB@?$AAs?$AAr?$AA?9?$AAB?$AAA?$AA?9?$AAL?$AAa?$AAt?$AAn?$AA?$AA@ 300b4f10     LIBCMTD:winapinls.obj
 0002:00015f28       ??_C@_1O@KEMEEGPO@?$AAs?$AAm?$AAa?$AA?9?$AAN?$AAO?$AA?$AA@ 300b4f28     LIBCMTD:winapinls.obj
 0002:00015f38       ??_C@_1M@ELMGFODK@?$AAa?$AAr?$AA?9?$AAT?$AAN?$AA?$AA@ 300b4f38     LIBCMTD:winapinls.obj
 0002:00015f44       ??_C@_1M@BHDLHFAF@?$AAe?$AAn?$AA?9?$AAZ?$AAA?$AA?$AA@ 300b4f44     LIBCMTD:winapinls.obj
 0002:00015f50       ??_C@_1M@BMGIGLIF@?$AAe?$AAs?$AA?9?$AAD?$AAO?$AA?$AA@ 300b4f50     LIBCMTD:winapinls.obj
 0002:00015f5c       ??_C@_1BG@CMBHIPBE@?$AAs?$AAr?$AA?9?$AAB?$AAA?$AA?9?$AAC?$AAy?$AAr?$AAl?$AA?$AA@ 300b4f5c     LIBCMTD:winapinls.obj
 0002:00015f74       ??_C@_1O@HEDBLHNP@?$AAs?$AAm?$AAa?$AA?9?$AAS?$AAE?$AA?$AA@ 300b4f74     LIBCMTD:winapinls.obj
 0002:00015f84       ??_C@_1M@DAGCADIM@?$AAa?$AAr?$AA?9?$AAO?$AAM?$AA?$AA@ 300b4f84     LIBCMTD:winapinls.obj
 0002:00015f90       ??_C@_1M@FODLMICG@?$AAe?$AAn?$AA?9?$AAJ?$AAM?$AA?$AA@ 300b4f90     LIBCMTD:winapinls.obj
 0002:00015f9c       ??_C@_1M@DNMLCIHB@?$AAe?$AAs?$AA?9?$AAV?$AAE?$AA?$AA@ 300b4f9c     LIBCMTD:winapinls.obj
 0002:00015fa8       ??_C@_1O@EOKHMKJK@?$AAs?$AAm?$AAs?$AA?9?$AAF?$AAI?$AA?$AA@ 300b4fa8     LIBCMTD:winapinls.obj
 0002:00015fb8       ??_C@_1M@CAFJMKOF@?$AAa?$AAr?$AA?9?$AAY?$AAE?$AA?$AA@ 300b4fb8     LIBCMTD:winapinls.obj
 0002:00015fc4       ??_C@_1M@CBFHIJLI@?$AAe?$AAn?$AA?9?$AAC?$AAB?$AA?$AA@ 300b4fc4     LIBCMTD:winapinls.obj
 0002:00015fd0       ??_C@_1M@BGNFLDN@?$AAe?$AAs?$AA?9?$AAC?$AAO?$AA?$AA@ 300b4fd0     LIBCMTD:winapinls.obj
 0002:00015fdc       ??_C@_1O@JMPHMAMC@?$AAs?$AAm?$AAn?$AA?9?$AAF?$AAI?$AA?$AA@ 300b4fdc     LIBCMTD:winapinls.obj
 0002:00015fec       ??_C@_1M@JLANABKE@?$AAa?$AAr?$AA?9?$AAS?$AAY?$AA?$AA@ 300b4fec     LIBCMTD:winapinls.obj
 0002:00015ff8       ??_C@_1M@HPKGCFGN@?$AAe?$AAn?$AA?9?$AAB?$AAZ?$AA?$AA@ 300b4ff8     LIBCMTD:winapinls.obj
 0002:00016004       ??_C@_1M@OLJCMLGM@?$AAe?$AAs?$AA?9?$AAP?$AAE?$AA?$AA@ 300b5004     LIBCMTD:winapinls.obj
 0002:00016010       ??_C@_1M@MKKGFKLE@?$AAa?$AAr?$AA?9?$AAJ?$AAO?$AA?$AA@ 300b5010     LIBCMTD:winapinls.obj
 0002:0001601c       ??_C@_1M@EKPGLDNI@?$AAe?$AAn?$AA?9?$AAT?$AAT?$AA?$AA@ 300b501c     LIBCMTD:winapinls.obj
 0002:00016028       ??_C@_1M@OONGHFHE@?$AAe?$AAs?$AA?9?$AAA?$AAR?$AA?$AA@ 300b5028     LIBCMTD:winapinls.obj
 0002:00016034       ??_C@_1M@OOJFGBHE@?$AAa?$AAr?$AA?9?$AAL?$AAB?$AA?$AA@ 300b5034     LIBCMTD:winapinls.obj
 0002:00016040       ??_C@_1M@GCEJHNEG@?$AAe?$AAn?$AA?9?$AAZ?$AAW?$AA?$AA@ 300b5040     LIBCMTD:winapinls.obj
 0002:0001604c       ??_C@_1M@JNOCAHJI@?$AAe?$AAs?$AA?9?$AAE?$AAC?$AA?$AA@ 300b504c     LIBCMTD:winapinls.obj
 0002:00016058       ??_C@_1M@JEFHPGGB@?$AAa?$AAr?$AA?9?$AAK?$AAW?$AA?$AA@ 300b5058     LIBCMTD:winapinls.obj
 0002:00016064       ??_C@_1M@MLKIBJOJ@?$AAe?$AAn?$AA?9?$AAP?$AAH?$AA?$AA@ 300b5064     LIBCMTD:winapinls.obj
 0002:00016070       ??_C@_1M@BDNIPEND@?$AAe?$AAs?$AA?9?$AAC?$AAL?$AA?$AA@ 300b5070     LIBCMTD:winapinls.obj
 0002:0001607c       ??_C@_1M@MPNMEKBD@?$AAa?$AAr?$AA?9?$AAA?$AAE?$AA?$AA@ 300b507c     LIBCMTD:winapinls.obj
 0002:00016088       ??_C@_1M@KBJALCPI@?$AAe?$AAs?$AA?9?$AAU?$AAY?$AA?$AA@ 300b5088     LIBCMTD:winapinls.obj
 0002:00016094       ??_C@_1M@LLCCOAGA@?$AAa?$AAr?$AA?9?$AAB?$AAH?$AA?$AA@ 300b5094     LIBCMTD:winapinls.obj
 0002:000160a0       ??_C@_1M@PBFNCDEL@?$AAe?$AAs?$AA?9?$AAP?$AAY?$AA?$AA@ 300b50a0     LIBCMTD:winapinls.obj
 0002:000160ac       ??_C@_1M@EDGINPNP@?$AAa?$AAr?$AA?9?$AAQ?$AAA?$AA?$AA@ 300b50ac     LIBCMTD:winapinls.obj
 0002:000160b8       ??_C@_1M@MKDBIIJI@?$AAe?$AAs?$AA?9?$AAB?$AAO?$AA?$AA@ 300b50b8     LIBCMTD:winapinls.obj
 0002:000160c4       ??_C@_1M@CPKKEBLD@?$AAe?$AAs?$AA?9?$AAS?$AAV?$AA?$AA@ 300b50c4     LIBCMTD:winapinls.obj
 0002:000160d0       ??_C@_1M@NDBGMMJL@?$AAe?$AAs?$AA?9?$AAH?$AAN?$AA?$AA@ 300b50d0     LIBCMTD:winapinls.obj
 0002:000160dc       ??_C@_1M@JIJIBHDP@?$AAe?$AAs?$AA?9?$AAN?$AAI?$AA?$AA@ 300b50dc     LIBCMTD:winapinls.obj
 0002:000160e8       ??_C@_1M@CGFMKEEK@?$AAe?$AAs?$AA?9?$AAP?$AAR?$AA?$AA@ 300b50e8     LIBCMTD:winapinls.obj
 0002:000160f4       ??_C@_1O@ICJHKIIK@?$AAz?$AAh?$AA?9?$AAC?$AAH?$AAT?$AA?$AA@ 300b50f4     LIBCMTD:winapinls.obj
 0002:00016104       ??_C@_15CLNEJCE@?$AAs?$AAr?$AA?$AA@ 300b5104     LIBCMTD:winapinls.obj
 0002:0001610c       ??_C@_1M@KAHEKEIG@?$AAa?$AAf?$AA?9?$AAz?$AAa?$AA?$AA@ 300b510c     LIBCMTD:winapinls.obj
 0002:00016118       ??_C@_1M@GIECOABL@?$AAa?$AAr?$AA?9?$AAa?$AAe?$AA?$AA@ 300b5118     LIBCMTD:winapinls.obj
 0002:00016124       ??_C@_1M@BMLMEKGI@?$AAa?$AAr?$AA?9?$AAb?$AAh?$AA?$AA@ 300b5124     LIBCMTD:winapinls.obj
 0002:00016130       ??_C@_1M@DAPFDGGB@?$AAa?$AAr?$AA?9?$AAd?$AAz?$AA?$AA@ 300b5130     LIBCMTD:winapinls.obj
 0002:0001613c       ??_C@_1M@FJNKGKIG@?$AAa?$AAr?$AA?9?$AAe?$AAg?$AA?$AA@ 300b513c     LIBCMTD:winapinls.obj
 0002:00016148       ??_C@_1M@FLGKKCLO@?$AAa?$AAr?$AA?9?$AAi?$AAq?$AA?$AA@ 300b5148     LIBCMTD:winapinls.obj
 0002:00016154       ??_C@_1M@GNDIPALM@?$AAa?$AAr?$AA?9?$AAj?$AAo?$AA?$AA@ 300b5154     LIBCMTD:winapinls.obj
 0002:00016160       ??_C@_1M@DDMJFMGJ@?$AAa?$AAr?$AA?9?$AAk?$AAw?$AA?$AA@ 300b5160     LIBCMTD:winapinls.obj
 0002:0001616c       ??_C@_1M@EJALMLHM@?$AAa?$AAr?$AA?9?$AAl?$AAb?$AA?$AA@ 300b516c     LIBCMTD:winapinls.obj
 0002:00016178       ??_C@_1M@MOBDBLOC@?$AAa?$AAr?$AA?9?$AAl?$AAy?$AA?$AA@ 300b5178     LIBCMTD:winapinls.obj
 0002:00016184       ??_C@_1M@JAOCLHDH@?$AAa?$AAr?$AA?9?$AAm?$AAa?$AA?$AA@ 300b5184     LIBCMTD:winapinls.obj
 0002:00016190       ??_C@_1M@JHPMKJIE@?$AAa?$AAr?$AA?9?$AAo?$AAm?$AA?$AA@ 300b5190     LIBCMTD:winapinls.obj
 0002:0001619c       ??_C@_1M@OEPGHFNH@?$AAa?$AAr?$AA?9?$AAq?$AAa?$AA?$AA@ 300b519c     LIBCMTD:winapinls.obj
 0002:000161a8       ??_C@_1M@KJDONENM@?$AAa?$AAr?$AA?9?$AAs?$AAa?$AA?$AA@ 300b51a8     LIBCMTD:winapinls.obj
 0002:000161b4       ??_C@_1M@DMJDKLKM@?$AAa?$AAr?$AA?9?$AAs?$AAy?$AA?$AA@ 300b51b4     LIBCMTD:winapinls.obj
 0002:000161c0       ??_C@_1M@OMFIPEDC@?$AAa?$AAr?$AA?9?$AAt?$AAn?$AA?$AA@ 300b51c0     LIBCMTD:winapinls.obj
 0002:000161cc       ??_C@_1M@IHMHGAON@?$AAa?$AAr?$AA?9?$AAy?$AAe?$AA?$AA@ 300b51cc     LIBCMTD:winapinls.obj
 0002:000161d8       ??_C@_1BG@KDCPGJGB@?$AAa?$AAz?$AA?9?$AAa?$AAz?$AA?9?$AAc?$AAy?$AAr?$AAl?$AA?$AA@ 300b51d8     LIBCMTD:winapinls.obj
 0002:000161f0       ??_C@_1BG@IBCKDDOE@?$AAa?$AAz?$AA?9?$AAa?$AAz?$AA?9?$AAl?$AAa?$AAt?$AAn?$AA?$AA@ 300b51f0     LIBCMTD:winapinls.obj
 0002:00016208       ??_C@_1M@EGPFDCPD@?$AAb?$AAe?$AA?9?$AAb?$AAy?$AA?$AA@ 300b5208     LIBCMTD:winapinls.obj
 0002:00016214       ??_C@_1M@PCMGMCGC@?$AAb?$AAg?$AA?9?$AAb?$AAg?$AA?$AA@ 300b5214     LIBCMTD:winapinls.obj
 0002:00016220       ??_C@_1M@BJBMFGOB@?$AAb?$AAn?$AA?9?$AAi?$AAn?$AA?$AA@ 300b5220     LIBCMTD:winapinls.obj
 0002:0001622c       ??_C@_1BG@EAKMMACD@?$AAb?$AAs?$AA?9?$AAb?$AAa?$AA?9?$AAl?$AAa?$AAt?$AAn?$AA?$AA@ 300b522c     LIBCMTD:winapinls.obj
 0002:00016244       ??_C@_1M@KGADAODK@?$AAc?$AAa?$AA?9?$AAe?$AAs?$AA?$AA@ 300b5244     LIBCMTD:winapinls.obj
 0002:00016250       ??_C@_1M@COAJPDHI@?$AAc?$AAs?$AA?9?$AAc?$AAz?$AA?$AA@ 300b5250     LIBCMTD:winapinls.obj
 0002:0001625c       ??_C@_1M@DHBHFONH@?$AAc?$AAy?$AA?9?$AAg?$AAb?$AA?$AA@ 300b525c     LIBCMTD:winapinls.obj
 0002:00016268       ??_C@_1M@IMGKELGA@?$AAd?$AAa?$AA?9?$AAd?$AAk?$AA?$AA@ 300b5268     LIBCMTD:winapinls.obj
 0002:00016274       ??_C@_1M@NNDGDNGA@?$AAd?$AAe?$AA?9?$AAa?$AAt?$AA?$AA@ 300b5274     LIBCMTD:winapinls.obj
 0002:00016280       ??_C@_1M@IKDBHEEM@?$AAd?$AAe?$AA?9?$AAc?$AAh?$AA?$AA@ 300b5280     LIBCMTD:winapinls.obj
 0002:0001628c       ??_C@_1M@GFFOJMCJ@?$AAd?$AAe?$AA?9?$AAd?$AAe?$AA?$AA@ 300b528c     LIBCMTD:winapinls.obj
 0002:00016298       ??_C@_1M@MDNLKBPM@?$AAd?$AAe?$AA?9?$AAl?$AAi?$AA?$AA@ 300b5298     LIBCMTD:winapinls.obj
 0002:000162a4       ??_C@_1M@NJBEEJNL@?$AAd?$AAe?$AA?9?$AAl?$AAu?$AA?$AA@ 300b52a4     LIBCMTD:winapinls.obj
 0002:000162b0       ??_C@_1O@GNNELBAP@?$AAd?$AAi?$AAv?$AA?9?$AAm?$AAv?$AA?$AA@ 300b52b0     LIBCMTD:winapinls.obj
 0002:000162c0       ??_C@_1M@EJLEOGAE@?$AAe?$AAl?$AA?9?$AAg?$AAr?$AA?$AA@ 300b52c0     LIBCMTD:winapinls.obj
 0002:000162cc       ??_C@_1M@GMPONJN@?$AAe?$AAn?$AA?9?$AAa?$AAu?$AA?$AA@ 300b52cc     LIBCMTD:winapinls.obj
 0002:000162d8       ??_C@_1M@NIDIIPGF@?$AAe?$AAn?$AA?9?$AAb?$AAz?$AA?$AA@ 300b52d8     LIBCMTD:winapinls.obj
 0002:000162e4       ??_C@_1M@JEHMIMFO@?$AAe?$AAn?$AA?9?$AAc?$AAa?$AA?$AA@ 300b52e4     LIBCMTD:winapinls.obj
 0002:000162f0       ??_C@_1M@IGMJCDLA@?$AAe?$AAn?$AA?9?$AAc?$AAb?$AA?$AA@ 300b52f0     LIBCMTD:winapinls.obj
 0002:000162fc       ??_C@_1M@BNFIGBKG@?$AAe?$AAn?$AA?9?$AAg?$AAb?$AA?$AA@ 300b52fc     LIBCMTD:winapinls.obj
 0002:00016308       ??_C@_1M@LKIFDIGP@?$AAe?$AAn?$AA?9?$AAi?$AAe?$AA?$AA@ 300b5308     LIBCMTD:winapinls.obj
 0002:00016314       ??_C@_1M@PJKFGCCO@?$AAe?$AAn?$AA?9?$AAj?$AAm?$AA?$AA@ 300b5314     LIBCMTD:winapinls.obj
 0002:00016320       ??_C@_1M@KPPKEPBO@?$AAe?$AAn?$AA?9?$AAn?$AAz?$AA?$AA@ 300b5320     LIBCMTD:winapinls.obj
 0002:0001632c       ??_C@_1M@GMDGLDOB@?$AAe?$AAn?$AA?9?$AAp?$AAh?$AA?$AA@ 300b532c     LIBCMTD:winapinls.obj
 0002:00016338       ??_C@_1M@ONGIBJNA@?$AAe?$AAn?$AA?9?$AAt?$AAt?$AA?$AA@ 300b5338     LIBCMTD:winapinls.obj
 0002:00016344       ??_C@_1M@LLODPCMM@?$AAe?$AAn?$AA?9?$AAu?$AAs?$AA?$AA@ 300b5344     LIBCMTD:winapinls.obj
 0002:00016350       ??_C@_1M@LAKFNPAN@?$AAe?$AAn?$AA?9?$AAz?$AAa?$AA?$AA@ 300b5350     LIBCMTD:winapinls.obj
 0002:0001635c       ??_C@_1M@MFNHNHEO@?$AAe?$AAn?$AA?9?$AAz?$AAw?$AA?$AA@ 300b535c     LIBCMTD:winapinls.obj
 0002:00016368       ??_C@_1M@EJEINPHM@?$AAe?$AAs?$AA?9?$AAa?$AAr?$AA?$AA@ 300b5368     LIBCMTD:winapinls.obj
 0002:00016374       ??_C@_1M@GNKPCCJA@?$AAe?$AAs?$AA?9?$AAb?$AAo?$AA?$AA@ 300b5374     LIBCMTD:winapinls.obj
 0002:00016380       ??_C@_1M@LEEGFONL@?$AAe?$AAs?$AA?9?$AAc?$AAl?$AA?$AA@ 300b5380     LIBCMTD:winapinls.obj
 0002:0001638c       ??_C@_1M@KGPDPBDF@?$AAe?$AAs?$AA?9?$AAc?$AAo?$AA?$AA@ 300b538c     LIBCMTD:winapinls.obj
 0002:00016398       ??_C@_1M@EIAHOHH@?$AAe?$AAs?$AA?9?$AAc?$AAr?$AA?$AA@ 300b5398     LIBCMTD:winapinls.obj
 0002:000163a4       ??_C@_1M@LLPGMBIN@?$AAe?$AAs?$AA?9?$AAd?$AAo?$AA?$AA@ 300b53a4     LIBCMTD:winapinls.obj
 0002:000163b0       ??_C@_1M@DKHMKNJA@?$AAe?$AAs?$AA?9?$AAe?$AAc?$AA?$AA@ 300b53b0     LIBCMTD:winapinls.obj
 0002:000163bc       ??_C@_1M@GKGFPKAP@?$AAe?$AAs?$AA?9?$AAe?$AAs?$AA?$AA@ 300b53bc     LIBCMTD:winapinls.obj
 0002:000163c8       ??_C@_1M@LKHKGDLN@?$AAe?$AAs?$AA?9?$AAg?$AAt?$AA?$AA@ 300b53c8     LIBCMTD:winapinls.obj
 0002:000163d4       ??_C@_1M@HEIIGGJD@?$AAe?$AAs?$AA?9?$AAh?$AAn?$AA?$AA@ 300b53d4     LIBCMTD:winapinls.obj
 0002:000163e0       ??_C@_1M@FBDHPPGD@?$AAe?$AAs?$AA?9?$AAm?$AAx?$AA?$AA@ 300b53e0     LIBCMTD:winapinls.obj
 0002:000163ec       ??_C@_1M@DPAGLNDH@?$AAe?$AAs?$AA?9?$AAn?$AAi?$AA?$AA@ 300b53ec     LIBCMTD:winapinls.obj
 0002:000163f8       ??_C@_1M@MDGOPGDD@?$AAe?$AAs?$AA?9?$AAp?$AAa?$AA?$AA@ 300b53f8     LIBCMTD:winapinls.obj
 0002:00016404       ??_C@_1M@EMAMGBGE@?$AAe?$AAs?$AA?9?$AAp?$AAe?$AA?$AA@ 300b5404     LIBCMTD:winapinls.obj
 0002:00016410       ??_C@_1M@IBMCAOEC@?$AAe?$AAs?$AA?9?$AAp?$AAr?$AA?$AA@ 300b5410     LIBCMTD:winapinls.obj
 0002:0001641c       ??_C@_1M@FGMDIJED@?$AAe?$AAs?$AA?9?$AAp?$AAy?$AA?$AA@ 300b541c     LIBCMTD:winapinls.obj
 0002:00016428       ??_C@_1M@IIDEOLLL@?$AAe?$AAs?$AA?9?$AAs?$AAv?$AA?$AA@ 300b5428     LIBCMTD:winapinls.obj
 0002:00016434       ??_C@_1M@GAOBIPA@?$AAe?$AAs?$AA?9?$AAu?$AAy?$AA?$AA@ 300b5434     LIBCMTD:winapinls.obj
 0002:00016440       ??_C@_1M@JKFFICHJ@?$AAe?$AAs?$AA?9?$AAv?$AAe?$AA?$AA@ 300b5440     LIBCMTD:winapinls.obj
 0002:0001644c       ??_C@_1M@PNMLOJDF@?$AAe?$AAt?$AA?9?$AAe?$AAe?$AA?$AA@ 300b544c     LIBCMTD:winapinls.obj
 0002:00016458       ??_C@_1M@GHHLIKEI@?$AAe?$AAu?$AA?9?$AAe?$AAs?$AA?$AA@ 300b5458     LIBCMTD:winapinls.obj
 0002:00016464       ??_C@_1M@PBNONODE@?$AAf?$AAa?$AA?9?$AAi?$AAr?$AA?$AA@ 300b5464     LIBCMTD:winapinls.obj
 0002:00016470       ??_C@_1M@JEEHPMIL@?$AAf?$AAi?$AA?9?$AAf?$AAi?$AA?$AA@ 300b5470     LIBCMTD:winapinls.obj
 0002:0001647c       ??_C@_1M@LMDCNDBA@?$AAf?$AAo?$AA?9?$AAf?$AAo?$AA?$AA@ 300b547c     LIBCMTD:winapinls.obj
 0002:00016488       ??_C@_1M@JKEOHLDK@?$AAf?$AAr?$AA?9?$AAb?$AAe?$AA?$AA@ 300b5488     LIBCMTD:winapinls.obj
 0002:00016494       ??_C@_1M@NOHADPMI@?$AAf?$AAr?$AA?9?$AAc?$AAa?$AA?$AA@ 300b5494     LIBCMTD:winapinls.obj
 0002:000164a0       ??_C@_1M@KDHIHAEC@?$AAf?$AAr?$AA?9?$AAc?$AAh?$AA?$AA@ 300b54a0     LIBCMTD:winapinls.obj
 0002:000164ac       ??_C@_1M@MMBBFGAK@?$AAf?$AAr?$AA?9?$AAf?$AAr?$AA?$AA@ 300b54ac     LIBCMTD:winapinls.obj
 0002:000164b8       ??_C@_1M@PAFNENNF@?$AAf?$AAr?$AA?9?$AAl?$AAu?$AA?$AA@ 300b54b8     LIBCMTD:winapinls.obj
 0002:000164c4       ??_C@_1M@EOHDJGDD@?$AAf?$AAr?$AA?9?$AAm?$AAc?$AA?$AA@ 300b54c4     LIBCMTD:winapinls.obj
 0002:000164d0       ??_C@_1M@FAPLLOPF@?$AAg?$AAl?$AA?9?$AAe?$AAs?$AA?$AA@ 300b54d0     LIBCMTD:winapinls.obj
 0002:000164dc       ??_C@_1M@FOPBFLOO@?$AAg?$AAu?$AA?9?$AAi?$AAn?$AA?$AA@ 300b54dc     LIBCMTD:winapinls.obj
 0002:000164e8       ??_C@_1M@KBMCINPM@?$AAh?$AAe?$AA?9?$AAi?$AAl?$AA?$AA@ 300b54e8     LIBCMTD:winapinls.obj
 0002:000164f4       ??_C@_1M@BBPHKFPJ@?$AAh?$AAi?$AA?9?$AAi?$AAn?$AA?$AA@ 300b54f4     LIBCMTD:winapinls.obj
 0002:00016500       ??_C@_1M@PMBNDPHD@?$AAh?$AAr?$AA?9?$AAb?$AAa?$AA?$AA@ 300b5500     LIBCMTD:winapinls.obj
 0002:0001650c       ??_C@_1M@BPCKOEGE@?$AAh?$AAr?$AA?9?$AAh?$AAr?$AA?$AA@ 300b550c     LIBCMTD:winapinls.obj
 0002:00016518       ??_C@_1M@GACBMHKE@?$AAh?$AAu?$AA?9?$AAh?$AAu?$AA?$AA@ 300b5518     LIBCMTD:winapinls.obj
 0002:00016524       ??_C@_1M@MILPAJJC@?$AAh?$AAy?$AA?9?$AAa?$AAm?$AA?$AA@ 300b5524     LIBCMTD:winapinls.obj
 0002:00016530       ??_C@_1M@BABBICEC@?$AAi?$AAd?$AA?9?$AAi?$AAd?$AA?$AA@ 300b5530     LIBCMTD:winapinls.obj
 0002:0001653c       ??_C@_1M@BIKNHHPF@?$AAi?$AAs?$AA?9?$AAi?$AAs?$AA?$AA@ 300b553c     LIBCMTD:winapinls.obj
 0002:00016548       ??_C@_1M@NMPCJPHE@?$AAi?$AAt?$AA?9?$AAc?$AAh?$AA?$AA@ 300b5548     LIBCMTD:winapinls.obj
 0002:00016554       ??_C@_1M@GHKGFEDF@?$AAi?$AAt?$AA?9?$AAi?$AAt?$AA?$AA@ 300b5554     LIBCMTD:winapinls.obj
 0002:00016560       ??_C@_1M@NIEJCJJA@?$AAj?$AAa?$AA?9?$AAj?$AAp?$AA?$AA@ 300b5560     LIBCMTD:winapinls.obj
 0002:0001656c       ??_C@_1M@JILFNBIM@?$AAk?$AAa?$AA?9?$AAg?$AAe?$AA?$AA@ 300b556c     LIBCMTD:winapinls.obj
 0002:00016578       ??_C@_1M@PACPMGPH@?$AAk?$AAk?$AA?9?$AAk?$AAz?$AA?$AA@ 300b5578     LIBCMTD:winapinls.obj
 0002:00016584       ??_C@_1M@IELFGMHA@?$AAk?$AAn?$AA?9?$AAi?$AAn?$AA?$AA@ 300b5584     LIBCMTD:winapinls.obj
 0002:00016590       ??_C@_1O@IBBJHCH@?$AAk?$AAo?$AAk?$AA?9?$AAi?$AAn?$AA?$AA@ 300b5590     LIBCMTD:winapinls.obj
 0002:000165a0       ??_C@_1M@DMHAEOGC@?$AAk?$AAo?$AA?9?$AAk?$AAr?$AA?$AA@ 300b55a0     LIBCMTD:winapinls.obj
 0002:000165ac       ??_C@_1M@HBAHBIGA@?$AAk?$AAy?$AA?9?$AAk?$AAg?$AA?$AA@ 300b55ac     LIBCMTD:winapinls.obj
 0002:000165b8       ??_C@_1M@KPMILCJG@?$AAl?$AAt?$AA?9?$AAl?$AAt?$AA?$AA@ 300b55b8     LIBCMTD:winapinls.obj
 0002:000165c4       ??_C@_1M@BDEKKCA@?$AAl?$AAv?$AA?9?$AAl?$AAv?$AA?$AA@ 300b55c4     LIBCMTD:winapinls.obj
 0002:000165d0       ??_C@_1GG@BCIJGKDA@?$AAf?$AA?3?$AA?2?$AAd?$AAd?$AA?2?$AAv?$AAc?$AAt?$AAo?$AAo?$AAl?$AAs?$AA?2?$AAc?$AAr?$AAt?$AA_?$AAb?$AAl?$AAd?$AA?2?$AAs?$AAe?$AAl?$AAf?$AA_?$AAx?$AA8?$AA6?$AA?2?$AAc@ 300b55d0     LIBCMTD:winapinls.obj
 0002:00016638       ??_C@_1DO@MBHJDOGM@?$AA_?$AA_?$AAc?$AAr?$AAt?$AAD?$AAo?$AAw?$AAn?$AAl?$AAe?$AAv?$AAe?$AAl?$AAL?$AAC?$AAI?$AAD?$AAT?$AAo?$AAL?$AAo?$AAc?$AAa?$AAl?$AAe?$AAN?$AAa?$AAm?$AAe?$AA?$AA@ 300b5638     LIBCMTD:winapinls.obj
 0002:00016678       ??_C@_1FO@LFACCMJH@?$AAw?$AAc?$AAs?$AAc?$AAp?$AAy?$AA_?$AAs?$AA?$CI?$AAo?$AAu?$AAt?$AAL?$AAo?$AAc?$AAa?$AAl?$AAe?$AAN?$AAa?$AAm?$AAe?$AA?0?$AA?5?$AAc?$AAc?$AAh?$AAL?$AAo?$AAc?$AAa?$AAl@ 300b5678     LIBCMTD:winapinls.obj
 0002:000166d8       ??_C@_0DC@EHLBFILA@f?3?2dd?2vctools?2crt_bld?2self_x86?2c@ 300b56d8     LIBCMTD:initctyp.obj
 0002:00016710       ??_C@_1GE@OCPKBDKE@?$AAf?$AA?3?$AA?2?$AAd?$AAd?$AA?2?$AAv?$AAc?$AAt?$AAo?$AAo?$AAl?$AAs?$AA?2?$AAc?$AAr?$AAt?$AA_?$AAb?$AAl?$AAd?$AA?2?$AAs?$AAe?$AAl?$AAf?$AA_?$AAx?$AA8?$AA6?$AA?2?$AAc@ 300b5710     LIBCMTD:initctyp.obj
 0002:00016774       ??_C@_1DG@NMBGBDM@?$AAp?$AAl?$AAo?$AAc?$AAi?$AA?9?$AA?$DO?$AAc?$AAt?$AAy?$AAp?$AAe?$AA1?$AA_?$AAr?$AAe?$AAf?$AAc?$AAo?$AAu?$AAn?$AAt?$AA?5?$AA?$DO?$AA?5?$AA0?$AA?$AA@ 300b5774     LIBCMTD:initctyp.obj
 0002:000167b0       ___rg_language             300b57b0     LIBCMTD:getqloc.obj
 0002:00016abc       ??_C@_1BC@LLOKLNP@?$AAa?$AAm?$AAe?$AAr?$AAi?$AAc?$AAa?$AAn?$AA?$AA@ 300b5abc     LIBCMTD:getqloc.obj
 0002:00016ad0       ??_C@_1CC@HEIGCDGG@?$AAa?$AAm?$AAe?$AAr?$AAi?$AAc?$AAa?$AAn?$AA?5?$AAe?$AAn?$AAg?$AAl?$AAi?$AAs?$AAh?$AA?$AA@ 300b5ad0     LIBCMTD:getqloc.obj
 0002:00016af4       ??_C@_1CC@IHCNOMIN@?$AAa?$AAm?$AAe?$AAr?$AAi?$AAc?$AAa?$AAn?$AA?9?$AAe?$AAn?$AAg?$AAl?$AAi?$AAs?$AAh?$AA?$AA@ 300b5af4     LIBCMTD:getqloc.obj
 0002:00016b18       ??_C@_1BG@GKAGPCGG@?$AAa?$AAu?$AAs?$AAt?$AAr?$AAa?$AAl?$AAi?$AAa?$AAn?$AA?$AA@ 300b5b18     LIBCMTD:getqloc.obj
 0002:00016b30       ??_C@_1BA@GMENCENF@?$AAb?$AAe?$AAl?$AAg?$AAi?$AAa?$AAn?$AA?$AA@ 300b5b30     LIBCMTD:getqloc.obj
 0002:00016b40       ??_C@_1BC@PJMIIAAN@?$AAc?$AAa?$AAn?$AAa?$AAd?$AAi?$AAa?$AAn?$AA?$AA@ 300b5b40     LIBCMTD:getqloc.obj
 0002:00016b54       ??_C@_17NOIMNFBF@?$AAc?$AAh?$AAh?$AA?$AA@ 300b5b54     LIBCMTD:getqloc.obj
 0002:00016b5c       ??_C@_17GGDALCHA@?$AAc?$AAh?$AAi?$AA?$AA@ 300b5b5c     LIBCMTD:getqloc.obj
 0002:00016b64       ??_C@_1BA@NPNJKIBL@?$AAc?$AAh?$AAi?$AAn?$AAe?$AAs?$AAe?$AA?$AA@ 300b5b64     LIBCMTD:getqloc.obj
 0002:00016b74       ??_C@_1CC@DINBAMMJ@?$AAc?$AAh?$AAi?$AAn?$AAe?$AAs?$AAe?$AA?9?$AAh?$AAo?$AAn?$AAg?$AAk?$AAo?$AAn?$AAg?$AA?$AA@ 300b5b74     LIBCMTD:getqloc.obj
 0002:00016b98       ??_C@_1CG@IOBJPACO@?$AAc?$AAh?$AAi?$AAn?$AAe?$AAs?$AAe?$AA?9?$AAs?$AAi?$AAm?$AAp?$AAl?$AAi?$AAf?$AAi?$AAe?$AAd?$AA?$AA@ 300b5b98     LIBCMTD:getqloc.obj
 0002:00016bc0       ??_C@_1CE@GAJNDCKG@?$AAc?$AAh?$AAi?$AAn?$AAe?$AAs?$AAe?$AA?9?$AAs?$AAi?$AAn?$AAg?$AAa?$AAp?$AAo?$AAr?$AAe?$AA?$AA@ 300b5bc0     LIBCMTD:getqloc.obj
 0002:00016be4       ??_C@_1CI@PAJPIOOD@?$AAc?$AAh?$AAi?$AAn?$AAe?$AAs?$AAe?$AA?9?$AAt?$AAr?$AAa?$AAd?$AAi?$AAt?$AAi?$AAo?$AAn?$AAa?$AAl?$AA?$AA@ 300b5be4     LIBCMTD:getqloc.obj
 0002:00016c0c       ??_C@_1BM@NILJBMMD@?$AAd?$AAu?$AAt?$AAc?$AAh?$AA?9?$AAb?$AAe?$AAl?$AAg?$AAi?$AAa?$AAn?$AA?$AA@ 300b5c0c     LIBCMTD:getqloc.obj
 0002:00016c28       ??_C@_1CC@OOJPJNEJ@?$AAe?$AAn?$AAg?$AAl?$AAi?$AAs?$AAh?$AA?9?$AAa?$AAm?$AAe?$AAr?$AAi?$AAc?$AAa?$AAn?$AA?$AA@ 300b5c28     LIBCMTD:getqloc.obj
 0002:00016c4c       ??_C@_1BI@IOLFEEM@?$AAe?$AAn?$AAg?$AAl?$AAi?$AAs?$AAh?$AA?9?$AAa?$AAu?$AAs?$AA?$AA@ 300b5c4c     LIBCMTD:getqloc.obj
 0002:00016c64       ??_C@_1BO@HFFNLENJ@?$AAe?$AAn?$AAg?$AAl?$AAi?$AAs?$AAh?$AA?9?$AAb?$AAe?$AAl?$AAi?$AAz?$AAe?$AA?$AA@ 300b5c64     LIBCMTD:getqloc.obj
 0002:00016c84       ??_C@_1BI@HAPKJMPO@?$AAe?$AAn?$AAg?$AAl?$AAi?$AAs?$AAh?$AA?9?$AAc?$AAa?$AAn?$AA?$AA@ 300b5c84     LIBCMTD:getqloc.obj
 0002:00016c9c       ??_C@_1CE@HLNDMIOJ@?$AAe?$AAn?$AAg?$AAl?$AAi?$AAs?$AAh?$AA?9?$AAc?$AAa?$AAr?$AAi?$AAb?$AAb?$AAe?$AAa?$AAn?$AA?$AA@ 300b5c9c     LIBCMTD:getqloc.obj
 0002:00016cc0       ??_C@_1BI@LDHJHHAC@?$AAe?$AAn?$AAg?$AAl?$AAi?$AAs?$AAh?$AA?9?$AAi?$AAr?$AAe?$AA?$AA@ 300b5cc0     LIBCMTD:getqloc.obj
 0002:00016cd8       ??_C@_1CA@NJMMCFOC@?$AAe?$AAn?$AAg?$AAl?$AAi?$AAs?$AAh?$AA?9?$AAj?$AAa?$AAm?$AAa?$AAi?$AAc?$AAa?$AA?$AA@ 300b5cd8     LIBCMTD:getqloc.obj
 0002:00016cf8       ??_C@_1BG@BHJEBBGG@?$AAe?$AAn?$AAg?$AAl?$AAi?$AAs?$AAh?$AA?9?$AAn?$AAz?$AA?$AA@ 300b5cf8     LIBCMTD:getqloc.obj
 0002:00016d10       ??_C@_1CK@FGOEJJCO@?$AAe?$AAn?$AAg?$AAl?$AAi?$AAs?$AAh?$AA?9?$AAs?$AAo?$AAu?$AAt?$AAh?$AA?5?$AAa?$AAf?$AAr?$AAi?$AAc?$AAa?$AA?$AA@ 300b5d10     LIBCMTD:getqloc.obj
 0002:00016d3c       ??_C@_1DE@PDBJPCJ@?$AAe?$AAn?$AAg?$AAl?$AAi?$AAs?$AAh?$AA?9?$AAt?$AAr?$AAi?$AAn?$AAi?$AAd?$AAa?$AAd?$AA?5?$AAy?$AA?5?$AAt?$AAo?$AAb?$AAa?$AAg?$AAo?$AA?$AA@ 300b5d3c     LIBCMTD:getqloc.obj
 0002:00016d70       ??_C@_1BG@JGCANDME@?$AAe?$AAn?$AAg?$AAl?$AAi?$AAs?$AAh?$AA?9?$AAu?$AAk?$AA?$AA@ 300b5d70     LIBCMTD:getqloc.obj
 0002:00016d88       ??_C@_1BG@DINKMLE@?$AAe?$AAn?$AAg?$AAl?$AAi?$AAs?$AAh?$AA?9?$AAu?$AAs?$AA?$AA@ 300b5d88     LIBCMTD:getqloc.obj
 0002:00016da0       ??_C@_1BI@NMFDBHJE@?$AAe?$AAn?$AAg?$AAl?$AAi?$AAs?$AAh?$AA?9?$AAu?$AAs?$AAa?$AA?$AA@ 300b5da0     LIBCMTD:getqloc.obj
 0002:00016db8       ??_C@_1BO@OIHKJKII@?$AAf?$AAr?$AAe?$AAn?$AAc?$AAh?$AA?9?$AAb?$AAe?$AAl?$AAg?$AAi?$AAa?$AAn?$AA?$AA@ 300b5db8     LIBCMTD:getqloc.obj
 0002:00016dd8       ??_C@_1CA@NKAELJKI@?$AAf?$AAr?$AAe?$AAn?$AAc?$AAh?$AA?9?$AAc?$AAa?$AAn?$AAa?$AAd?$AAi?$AAa?$AAn?$AA?$AA@ 300b5dd8     LIBCMTD:getqloc.obj
 0002:00016df8       ??_C@_1CE@MGKCNLGN@?$AAf?$AAr?$AAe?$AAn?$AAc?$AAh?$AA?9?$AAl?$AAu?$AAx?$AAe?$AAm?$AAb?$AAo?$AAu?$AAr?$AAg?$AA?$AA@ 300b5df8     LIBCMTD:getqloc.obj
 0002:00016e1c       ??_C@_1BK@CEGEAILM@?$AAf?$AAr?$AAe?$AAn?$AAc?$AAh?$AA?9?$AAs?$AAw?$AAi?$AAs?$AAs?$AA?$AA@ 300b5e1c     LIBCMTD:getqloc.obj
 0002:00016e38       ??_C@_1CA@PAFKEOCC@?$AAg?$AAe?$AAr?$AAm?$AAa?$AAn?$AA?9?$AAa?$AAu?$AAs?$AAt?$AAr?$AAi?$AAa?$AAn?$AA?$AA@ 300b5e38     LIBCMTD:getqloc.obj
 0002:00016e58       ??_C@_1CI@HCFHGOFD@?$AAg?$AAe?$AAr?$AAm?$AAa?$AAn?$AA?9?$AAl?$AAi?$AAc?$AAh?$AAt?$AAe?$AAn?$AAs?$AAt?$AAe?$AAi?$AAn?$AA?$AA@ 300b5e58     LIBCMTD:getqloc.obj
 0002:00016e80       ??_C@_1CE@FEDDNPDG@?$AAg?$AAe?$AAr?$AAm?$AAa?$AAn?$AA?9?$AAl?$AAu?$AAx?$AAe?$AAm?$AAb?$AAo?$AAu?$AAr?$AAg?$AA?$AA@ 300b5e80     LIBCMTD:getqloc.obj
 0002:00016ea4       ??_C@_1BK@LIMINNMN@?$AAg?$AAe?$AAr?$AAm?$AAa?$AAn?$AA?9?$AAs?$AAw?$AAi?$AAs?$AAs?$AA?$AA@ 300b5ea4     LIBCMTD:getqloc.obj
 0002:00016ec0       ??_C@_1BM@LGMDBEPD@?$AAi?$AAr?$AAi?$AAs?$AAh?$AA?9?$AAe?$AAn?$AAg?$AAl?$AAi?$AAs?$AAh?$AA?$AA@ 300b5ec0     LIBCMTD:getqloc.obj
 0002:00016edc       ??_C@_1BM@NNCFBAEE@?$AAi?$AAt?$AAa?$AAl?$AAi?$AAa?$AAn?$AA?9?$AAs?$AAw?$AAi?$AAs?$AAs?$AA?$AA@ 300b5edc     LIBCMTD:getqloc.obj
 0002:00016ef8       ??_C@_1BE@FEDJNPIB@?$AAn?$AAo?$AAr?$AAw?$AAe?$AAg?$AAi?$AAa?$AAn?$AA?$AA@ 300b5ef8     LIBCMTD:getqloc.obj
 0002:00016f0c       ??_C@_1CC@CILKDEIE@?$AAn?$AAo?$AAr?$AAw?$AAe?$AAg?$AAi?$AAa?$AAn?$AA?9?$AAb?$AAo?$AAk?$AAm?$AAa?$AAl?$AA?$AA@ 300b5f0c     LIBCMTD:getqloc.obj
 0002:00016f30       ??_C@_1CE@DHMMHEPL@?$AAn?$AAo?$AAr?$AAw?$AAe?$AAg?$AAi?$AAa?$AAn?$AA?9?$AAn?$AAy?$AAn?$AAo?$AAr?$AAs?$AAk?$AA?$AA@ 300b5f30     LIBCMTD:getqloc.obj
 0002:00016f54       ??_C@_1CK@OPNMHECD@?$AAp?$AAo?$AAr?$AAt?$AAu?$AAg?$AAu?$AAe?$AAs?$AAe?$AA?9?$AAb?$AAr?$AAa?$AAz?$AAi?$AAl?$AAi?$AAa?$AAn?$AA?$AA@ 300b5f54     LIBCMTD:getqloc.obj
 0002:00016f80       ??_C@_1CE@KEEHCDB@?$AAs?$AAp?$AAa?$AAn?$AAi?$AAs?$AAh?$AA?9?$AAa?$AAr?$AAg?$AAe?$AAn?$AAt?$AAi?$AAn?$AAa?$AA?$AA@ 300b5f80     LIBCMTD:getqloc.obj
 0002:00016fa4       ??_C@_1CA@GIAOLHJD@?$AAs?$AAp?$AAa?$AAn?$AAi?$AAs?$AAh?$AA?9?$AAb?$AAo?$AAl?$AAi?$AAv?$AAi?$AAa?$AA?$AA@ 300b5fa4     LIBCMTD:getqloc.obj
 0002:00016fc4       ??_C@_1BM@OJNDFNPD@?$AAs?$AAp?$AAa?$AAn?$AAi?$AAs?$AAh?$AA?9?$AAc?$AAh?$AAi?$AAl?$AAe?$AA?$AA@ 300b5fc4     LIBCMTD:getqloc.obj
 0002:00016fe0       ??_C@_1CC@OCOLPALL@?$AAs?$AAp?$AAa?$AAn?$AAi?$AAs?$AAh?$AA?9?$AAc?$AAo?$AAl?$AAo?$AAm?$AAb?$AAi?$AAa?$AA?$AA@ 300b5fe0     LIBCMTD:getqloc.obj
 0002:00017004       ??_C@_1CG@BPOFMKBB@?$AAs?$AAp?$AAa?$AAn?$AAi?$AAs?$AAh?$AA?9?$AAc?$AAo?$AAs?$AAt?$AAa?$AA?5?$AAr?$AAi?$AAc?$AAa?$AA?$AA@ 300b6004     LIBCMTD:getqloc.obj
 0002:0001702c       ??_C@_1DG@IGOBAPBB@?$AAs?$AAp?$AAa?$AAn?$AAi?$AAs?$AAh?$AA?9?$AAd?$AAo?$AAm?$AAi?$AAn?$AAi?$AAc?$AAa?$AAn?$AA?5?$AAr?$AAe?$AAp?$AAu?$AAb?$AAl?$AAi?$AAc?$AA?$AA@ 300b602c     LIBCMTD:getqloc.obj
 0002:00017064       ??_C@_1CA@JHAPGEGI@?$AAs?$AAp?$AAa?$AAn?$AAi?$AAs?$AAh?$AA?9?$AAe?$AAc?$AAu?$AAa?$AAd?$AAo?$AAr?$AA?$AA@ 300b6064     LIBCMTD:getqloc.obj
 0002:00017084       ??_C@_1CI@LAPALJPP@?$AAs?$AAp?$AAa?$AAn?$AAi?$AAs?$AAh?$AA?9?$AAe?$AAl?$AA?5?$AAs?$AAa?$AAl?$AAv?$AAa?$AAd?$AAo?$AAr?$AA?$AA@ 300b6084     LIBCMTD:getqloc.obj
 0002:000170ac       ??_C@_1CE@PDGBOFOM@?$AAs?$AAp?$AAa?$AAn?$AAi?$AAs?$AAh?$AA?9?$AAg?$AAu?$AAa?$AAt?$AAe?$AAm?$AAa?$AAl?$AAa?$AA?$AA@ 300b60ac     LIBCMTD:getqloc.obj
 0002:000170d0       ??_C@_1CC@NBEBAODI@?$AAs?$AAp?$AAa?$AAn?$AAi?$AAs?$AAh?$AA?9?$AAh?$AAo?$AAn?$AAd?$AAu?$AAr?$AAa?$AAs?$AA?$AA@ 300b60d0     LIBCMTD:getqloc.obj
 0002:000170f4       ??_C@_1CA@LLKGHBMF@?$AAs?$AAp?$AAa?$AAn?$AAi?$AAs?$AAh?$AA?9?$AAm?$AAe?$AAx?$AAi?$AAc?$AAa?$AAn?$AA?$AA@ 300b60f4     LIBCMTD:getqloc.obj
 0002:00017114       ??_C@_1BO@LKNDOIGD@?$AAs?$AAp?$AAa?$AAn?$AAi?$AAs?$AAh?$AA?9?$AAm?$AAo?$AAd?$AAe?$AAr?$AAn?$AA?$AA@ 300b6114     LIBCMTD:getqloc.obj
 0002:00017134       ??_C@_1CE@NMDMOEEB@?$AAs?$AAp?$AAa?$AAn?$AAi?$AAs?$AAh?$AA?9?$AAn?$AAi?$AAc?$AAa?$AAr?$AAa?$AAg?$AAu?$AAa?$AA?$AA@ 300b6134     LIBCMTD:getqloc.obj
 0002:00017158       ??_C@_1BO@LLCBEJGB@?$AAs?$AAp?$AAa?$AAn?$AAi?$AAs?$AAh?$AA?9?$AAp?$AAa?$AAn?$AAa?$AAm?$AAa?$AA?$AA@ 300b6158     LIBCMTD:getqloc.obj
 0002:00017178       ??_C@_1CC@FKPGGIHO@?$AAs?$AAp?$AAa?$AAn?$AAi?$AAs?$AAh?$AA?9?$AAp?$AAa?$AAr?$AAa?$AAg?$AAu?$AAa?$AAy?$AA?$AA@ 300b6178     LIBCMTD:getqloc.obj
 0002:0001719c       ??_C@_1BK@CDEIHOOP@?$AAs?$AAp?$AAa?$AAn?$AAi?$AAs?$AAh?$AA?9?$AAp?$AAe?$AAr?$AAu?$AA?$AA@ 300b619c     LIBCMTD:getqloc.obj
 0002:000171b8       ??_C@_1CI@GAHAKKGP@?$AAs?$AAp?$AAa?$AAn?$AAi?$AAs?$AAh?$AA?9?$AAp?$AAu?$AAe?$AAr?$AAt?$AAo?$AA?5?$AAr?$AAi?$AAc?$AAo?$AA?$AA@ 300b61b8     LIBCMTD:getqloc.obj
 0002:000171e0       ??_C@_1CA@NKJBCAGP@?$AAs?$AAp?$AAa?$AAn?$AAi?$AAs?$AAh?$AA?9?$AAu?$AAr?$AAu?$AAg?$AAu?$AAa?$AAy?$AA?$AA@ 300b61e0     LIBCMTD:getqloc.obj
 0002:00017200       ??_C@_1CE@ODILCONM@?$AAs?$AAp?$AAa?$AAn?$AAi?$AAs?$AAh?$AA?9?$AAv?$AAe?$AAn?$AAe?$AAz?$AAu?$AAe?$AAl?$AAa?$AA?$AA@ 300b6200     LIBCMTD:getqloc.obj
 0002:00017224       ??_C@_1CA@OBNMCGFO@?$AAs?$AAw?$AAe?$AAd?$AAi?$AAs?$AAh?$AA?9?$AAf?$AAi?$AAn?$AAl?$AAa?$AAn?$AAd?$AA?$AA@ 300b6224     LIBCMTD:getqloc.obj
 0002:00017244       ??_C@_1M@PIPDDPPI@?$AAs?$AAw?$AAi?$AAs?$AAs?$AA?$AA@ 300b6244     LIBCMTD:getqloc.obj
 0002:00017250       ??_C@_15GMFIMNFM@?$AAu?$AAs?$AA?$AA@ 300b6250     LIBCMTD:getqloc.obj
 0002:00017258       ??_C@_17HAEBFAGL@?$AAu?$AAs?$AAa?$AA?$AA@ 300b6258     LIBCMTD:getqloc.obj
 0002:00017260       ___rg_country              300b6260     LIBCMTD:getqloc.obj
 0002:00017374       ??_C@_1BA@DPFJEPHB@?$AAa?$AAm?$AAe?$AAr?$AAi?$AAc?$AAa?$AA?$AA@ 300b6374     LIBCMTD:getqloc.obj
 0002:00017384       ??_C@_1BA@ELOGGFK@?$AAb?$AAr?$AAi?$AAt?$AAa?$AAi?$AAn?$AA?$AA@ 300b6384     LIBCMTD:getqloc.obj
 0002:00017394       ??_C@_1M@GHBGIGDA@?$AAc?$AAh?$AAi?$AAn?$AAa?$AA?$AA@ 300b6394     LIBCMTD:getqloc.obj
 0002:000173a0       ??_C@_1M@NCHEJOPO@?$AAc?$AAz?$AAe?$AAc?$AAh?$AA?$AA@ 300b63a0     LIBCMTD:getqloc.obj
 0002:000173ac       ??_C@_1BA@BKPAPBLA@?$AAe?$AAn?$AAg?$AAl?$AAa?$AAn?$AAd?$AA?$AA@ 300b63ac     LIBCMTD:getqloc.obj
 0002:000173bc       ??_C@_1BM@HKBCKIPC@?$AAg?$AAr?$AAe?$AAa?$AAt?$AA?5?$AAb?$AAr?$AAi?$AAt?$AAa?$AAi?$AAn?$AA?$AA@ 300b63bc     LIBCMTD:getqloc.obj
 0002:000173d8       ??_C@_1BA@PPCHPGJB@?$AAh?$AAo?$AAl?$AAl?$AAa?$AAn?$AAd?$AA?$AA@ 300b63d8     LIBCMTD:getqloc.obj
 0002:000173e8       ??_C@_1BE@JBMPEGDG@?$AAh?$AAo?$AAn?$AAg?$AA?9?$AAk?$AAo?$AAn?$AAg?$AA?$AA@ 300b63e8     LIBCMTD:getqloc.obj
 0002:000173fc       ??_C@_1BI@KOELBBPJ@?$AAn?$AAe?$AAw?$AA?9?$AAz?$AAe?$AAa?$AAl?$AAa?$AAn?$AAd?$AA?$AA@ 300b63fc     LIBCMTD:getqloc.obj
 0002:00017414       ??_C@_15HIEBHAIO@?$AAn?$AAz?$AA?$AA@ 300b6414     LIBCMTD:getqloc.obj
 0002:0001741c       ??_C@_1BC@CHBCPFPI@?$AAp?$AAr?$AA?5?$AAc?$AAh?$AAi?$AAn?$AAa?$AA?$AA@ 300b641c     LIBCMTD:getqloc.obj
 0002:00017430       ??_C@_1BC@JAOIIFKD@?$AAp?$AAr?$AA?9?$AAc?$AAh?$AAi?$AAn?$AAa?$AA?$AA@ 300b6430     LIBCMTD:getqloc.obj
 0002:00017444       ??_C@_1BI@BEHPPHKC@?$AAp?$AAu?$AAe?$AAr?$AAt?$AAo?$AA?9?$AAr?$AAi?$AAc?$AAo?$AA?$AA@ 300b6444     LIBCMTD:getqloc.obj
 0002:0001745c       ??_C@_1O@PAEOFKDI@?$AAs?$AAl?$AAo?$AAv?$AAa?$AAk?$AA?$AA@ 300b645c     LIBCMTD:getqloc.obj
 0002:0001746c       ??_C@_1BK@FIHMCKAM@?$AAs?$AAo?$AAu?$AAt?$AAh?$AA?5?$AAa?$AAf?$AAr?$AAi?$AAc?$AAa?$AA?$AA@ 300b646c     LIBCMTD:getqloc.obj
 0002:00017488       ??_C@_1BI@NAEOODKB@?$AAs?$AAo?$AAu?$AAt?$AAh?$AA?5?$AAk?$AAo?$AAr?$AAe?$AAa?$AA?$AA@ 300b6488     LIBCMTD:getqloc.obj
 0002:000174a0       ??_C@_1BK@FBDGGIFF@?$AAs?$AAo?$AAu?$AAt?$AAh?$AA?9?$AAa?$AAf?$AAr?$AAi?$AAc?$AAa?$AA?$AA@ 300b64a0     LIBCMTD:getqloc.obj
 0002:000174bc       ??_C@_1BI@GHLEJDPK@?$AAs?$AAo?$AAu?$AAt?$AAh?$AA?9?$AAk?$AAo?$AAr?$AAe?$AAa?$AA?$AA@ 300b64bc     LIBCMTD:getqloc.obj
 0002:000174d4       ??_C@_1CE@PLHLOMJF@?$AAt?$AAr?$AAi?$AAn?$AAi?$AAd?$AAa?$AAd?$AA?5?$AA?$CG?$AA?5?$AAt?$AAo?$AAb?$AAa?$AAg?$AAo?$AA?$AA@ 300b64d4     LIBCMTD:getqloc.obj
 0002:000174f8       ??_C@_1BO@MODIMHHI@?$AAu?$AAn?$AAi?$AAt?$AAe?$AAd?$AA?9?$AAk?$AAi?$AAn?$AAg?$AAd?$AAo?$AAm?$AA?$AA@ 300b64f8     LIBCMTD:getqloc.obj
 0002:00017518       ??_C@_1BM@FFHJONBJ@?$AAu?$AAn?$AAi?$AAt?$AAe?$AAd?$AA?9?$AAs?$AAt?$AAa?$AAt?$AAe?$AAs?$AA?$AA@ 300b6518     LIBCMTD:getqloc.obj
 0002:00017534       ___rg_language_count       300b6534     LIBCMTD:getqloc.obj
 0002:00017538       ___rg_country_count        300b6538     LIBCMTD:getqloc.obj
 0002:00017540       ??_C@_1GC@FECJGAE@?$AAf?$AA?3?$AA?2?$AAd?$AAd?$AA?2?$AAv?$AAc?$AAt?$AAo?$AAo?$AAl?$AAs?$AA?2?$AAc?$AAr?$AAt?$AA_?$AAb?$AAl?$AAd?$AA?2?$AAs?$AAe?$AAl?$AAf?$AA_?$AAx?$AA8?$AA6?$AA?2?$AAc@ 300b6540     LIBCMTD:getqloc.obj
 0002:000175a4       ??_C@_1CO@NJACLALJ@?$AA_?$AA_?$AAg?$AAe?$AAt?$AA_?$AAq?$AAu?$AAa?$AAl?$AAi?$AAf?$AAi?$AAe?$AAd?$AA_?$AAl?$AAo?$AAc?$AAa?$AAl?$AAe?$AA?$AA@ 300b65a4     LIBCMTD:getqloc.obj
 0002:000175d8       ??_C@_1BGM@FCCPEFDE@?$AAw?$AAc?$AAs?$AAn?$AAc?$AAp?$AAy?$AA_?$AAs?$AA?$CI?$AAl?$AAp?$AAO?$AAu?$AAt?$AAS?$AAt?$AAr?$AA?9?$AA?$DO?$AAs?$AAz?$AAL?$AAo?$AAc?$AAa?$AAl?$AAe?$AAN?$AAa?$AAm?$AAe@ 300b65d8     LIBCMTD:getqloc.obj
 0002:00017744       ??_C@_1CM@OGEMFJNJ@?$AAL?$AAa?$AAn?$AAg?$AAC?$AAo?$AAu?$AAn?$AAt?$AAr?$AAy?$AAE?$AAn?$AAu?$AAm?$AAP?$AAr?$AAo?$AAc?$AAE?$AAx?$AA?$AA@ 300b6744     LIBCMTD:getqloc.obj
 0002:00017770       ??_C@_1BFO@LLJKJAIC@?$AAw?$AAc?$AAs?$AAn?$AAc?$AAp?$AAy?$AA_?$AAs?$AA?$CI?$AA_?$AAp?$AAs?$AAe?$AAt?$AAl?$AAo?$AAc?$AA_?$AAd?$AAa?$AAt?$AAa?$AA?9?$AA?$DO?$AA_?$AAc?$AAa?$AAc?$AAh?$AAe?$AAL@ 300b6770     LIBCMTD:getqloc.obj
 0002:000178d0       ??_C@_1CG@PGLLICHO@?$AAL?$AAa?$AAn?$AAg?$AAu?$AAa?$AAg?$AAe?$AAE?$AAn?$AAu?$AAm?$AAP?$AAr?$AAo?$AAc?$AAE?$AAx?$AA?$AA@ 300b68d0     LIBCMTD:getqloc.obj
 0002:000178f8       ??_C@_1DC@CPKFANGP@?$AAG?$AAe?$AAt?$AAL?$AAo?$AAc?$AAa?$AAl?$AAe?$AAN?$AAa?$AAm?$AAe?$AAF?$AAr?$AAo?$AAm?$AAD?$AAe?$AAf?$AAa?$AAu?$AAl?$AAt?$AA?$AA@ 300b68f8     LIBCMTD:getqloc.obj
 0002:00017930       ??_C@_1BEO@EJBNGKHB@?$AAw?$AAc?$AAs?$AAn?$AAc?$AAp?$AAy?$AA_?$AAs?$AA?$CI?$AA_?$AAp?$AAs?$AAe?$AAt?$AAl?$AAo?$AAc?$AA_?$AAd?$AAa?$AAt?$AAa?$AA?9?$AA?$DO?$AA_?$AAc?$AAa?$AAc?$AAh?$AAe?$AAL@ 300b6930     LIBCMTD:getqloc.obj
 0002:00017a80       ??_C@_17DNCLJFIF@?$AAA?$AAC?$AAP?$AA?$AA@ 300b6a80     LIBCMTD:getqloc.obj
 0002:00017a88       ??_C@_17CIKBIHLH@?$AAO?$AAC?$AAP?$AA?$AA@ 300b6a88     LIBCMTD:getqloc.obj
 0002:00017a90       ___rglangidNotDefault      300b6a90     LIBCMTD:getqloc_downlevel.obj
 0002:00017aa4       ??_C@_1BO@KFIJIAEA@?$AAp?$AAB?$AAl?$AAo?$AAc?$AAk?$AA?5?$AA?$CB?$AA?$DN?$AA?5?$AAN?$AAU?$AAL?$AAL?$AA?$AA@ 300b6aa4     LIBCMTD:expand.obj
 0002:00017ac8       ??_C@_1GA@EBHFLDNH@?$AAf?$AA?3?$AA?2?$AAd?$AAd?$AA?2?$AAv?$AAc?$AAt?$AAo?$AAo?$AAl?$AAs?$AA?2?$AAc?$AAr?$AAt?$AA_?$AAb?$AAl?$AAd?$AA?2?$AAs?$AAe?$AAl?$AAf?$AA_?$AAx?$AA8?$AA6?$AA?2?$AAc@ 300b6ac8     LIBCMTD:expand.obj
 0002:00017b28       ??_C@_1BK@JMCGJOCC@?$AA_?$AAe?$AAx?$AAp?$AAa?$AAn?$AAd?$AA_?$AAb?$AAa?$AAs?$AAe?$AA?$AA@ 300b6b28     LIBCMTD:expand.obj
 0002:00017b50       ??_C@_03KHICJKCI@?4?4?4?$AA@ 300b6b50     LIBCMTD:dbgrpt.obj
 0002:00017b54       ??_C@_1CG@GNMJDMIO@?$AA_?$AAC?$AAr?$AAt?$AAS?$AAe?$AAt?$AAR?$AAe?$AAp?$AAo?$AAr?$AAt?$AAH?$AAo?$AAo?$AAk?$AA2?$AA?$AA@ 300b6b54     LIBCMTD:dbgrpt.obj
 0002:00017b7c       ??_C@_1CI@IDOKFLAJ@?$AA_?$AA_?$AAc?$AAr?$AAt?$AAM?$AAe?$AAs?$AAs?$AAa?$AAg?$AAe?$AAW?$AAi?$AAn?$AAd?$AAo?$AAw?$AAA?$AA?$AA@ 300b6b7c     LIBCMTD:dbgrpt.obj
 0002:00017ba8       ??_C@_1GG@DLDHOIGE@?$AAs?$AAt?$AAr?$AAc?$AAp?$AAy?$AA_?$AAs?$AA?$CI?$AAs?$AAz?$AAE?$AAx?$AAe?$AAN?$AAa?$AAm?$AAe?$AA?0?$AA?5?$AA2?$AA6?$AA0?$AA?0?$AA?5?$AA?$CC?$AA?$DM?$AAp?$AAr?$AAo?$AAg?$AAr@ 300b6ba8     LIBCMTD:dbgrpt.obj
 0002:00017c10       ??_C@_0BH@DNAGHKFM@?$DMprogram?5name?5unknown?$DO?$AA@ 300b6c10     LIBCMTD:dbgrpt.obj
 0002:00017c28       ??_C@_1LG@BEHAHJLI@?$AAD?$AAe?$AAb?$AAu?$AAg?$AA?5?$AA?$CF?$AAs?$AA?$CB?$AA?6?$AA?6?$AAP?$AAr?$AAo?$AAg?$AAr?$AAa?$AAm?$AA?3?$AA?5?$AA?$CF?$AAh?$AAs?$AA?$CF?$AAs?$AA?$CF?$AAs?$AA?$CF?$AAh?$AAs?$AA?$CF?$AAs@ 300b6c28     LIBCMTD:dbgrpt.obj
 0002:00017ce0       ??_C@_1GC@BMNPEKNN@?$AAf?$AA?3?$AA?2?$AAd?$AAd?$AA?2?$AAv?$AAc?$AAt?$AAo?$AAo?$AAl?$AAs?$AA?2?$AAc?$AAr?$AAt?$AA_?$AAb?$AAl?$AAd?$AA?2?$AAs?$AAe?$AAl?$AAf?$AA_?$AAx?$AA8?$AA6?$AA?2?$AAc@ 300b6ce0     LIBCMTD:sprintf.obj
 0002:00017d44       ??_C@_1BA@KBJJGFFE@?$AAs?$AAp?$AAr?$AAi?$AAn?$AAt?$AAf?$AA?$AA@ 300b6d44     LIBCMTD:sprintf.obj
 0002:00017d54       __pDestructExceptionObject 300b6d54     LIBCMTD:frame.obj
 0002:00017d58       ?value@?$_Sizeof@U_Nil@std@@U12@U12@U12@U12@U12@U12@U12@@std@@2IB 300b6d58     LIBCMTD:frame.obj
 0002:00017d5c       ?value@?$integral_constant@_N$0A@@std@@2_NB 300b6d5c     LIBCMTD:frame.obj
 0002:00017d5d       ?value@?$integral_constant@_N$00@std@@2_NB 300b6d5d     LIBCMTD:frame.obj
 0002:00017d64       ??_7bad_exception@std@@6B@ 300b6d64     LIBCMTD:frame.obj
 0002:00017d6c       ??_C@_0O@DPKOEFFH@bad?5exception?$AA@ 300b6d6c     LIBCMTD:frame.obj
 0002:00017d7c       ??_C@_1BK@EPLNBKAK@?$AA_?$AAv?$AAs?$AAw?$AAp?$AAr?$AAi?$AAn?$AAt?$AAf?$AA_?$AAl?$AA?$AA@ 300b6d7c     LIBCMTD:vswprint.obj
 0002:00017d98       ??_C@_1CG@IMMIEPNA@?$AA_?$AAv?$AAs?$AAc?$AAw?$AAp?$AAr?$AAi?$AAn?$AAt?$AAf?$AA_?$AAh?$AAe?$AAl?$AAp?$AAe?$AAr?$AA?$AA@ 300b6d98     LIBCMTD:vswprint.obj
 0002:00017dc0       ??_C@_1BC@HGPNAKGC@?$AAs?$AAt?$AAr?$AAc?$AAa?$AAt?$AA_?$AAs?$AA?$AA@ 300b6dc0     LIBCMTD:strcat_s.obj
 0002:00017dd4       ??_C@_1O@GIMBNLEI@?$AAx?$AAt?$AAo?$AAa?$AA_?$AAs?$AA?$AA@ 300b6dd4     LIBCMTD:xtoas.obj
 0002:00017de4       ??_C@_1BC@MJJNBNFN@?$AAx?$AA6?$AA4?$AAt?$AAo?$AAa?$AA_?$AAs?$AA?$AA@ 300b6de4     LIBCMTD:xtoas.obj
 0002:00017df8       ??_C@_1BE@EEKACIGI@?$AAs?$AA?5?$AA?$CB?$AA?$DN?$AA?5?$AAN?$AAU?$AAL?$AAL?$AA?$AA@ 300b6df8     LIBCMTD:mbstowcs.obj
 0002:00017e10       ??_C@_1GE@LCCDHBMH@?$AAf?$AA?3?$AA?2?$AAd?$AAd?$AA?2?$AAv?$AAc?$AAt?$AAo?$AAo?$AAl?$AAs?$AA?2?$AAc?$AAr?$AAt?$AA_?$AAb?$AAl?$AAd?$AA?2?$AAs?$AAe?$AAl?$AAf?$AA_?$AAx?$AA8?$AA6?$AA?2?$AAc@ 300b6e10     LIBCMTD:mbstowcs.obj
 0002:00017e74       ??_C@_1CG@JEHFHLNG@?$AA_?$AAm?$AAb?$AAs?$AAt?$AAo?$AAw?$AAc?$AAs?$AA_?$AAl?$AA_?$AAh?$AAe?$AAl?$AAp?$AAe?$AAr?$AA?$AA@ 300b6e74     LIBCMTD:mbstowcs.obj
 0002:00017ea0       ??_C@_1JA@JKDFMOPO@?$AA?$CI?$AAp?$AAw?$AAc?$AAs?$AA?5?$AA?$DN?$AA?$DN?$AA?5?$AAN?$AAU?$AAL?$AAL?$AA?5?$AA?$CG?$AA?$CG?$AA?5?$AAs?$AAi?$AAz?$AAe?$AAI?$AAn?$AAW?$AAo?$AAr?$AAd?$AAs?$AA?5?$AA?$DN?$AA?$DN?$AA?5@ 300b6ea0     LIBCMTD:mbstowcs.obj
 0002:00017f30       ??_C@_1BM@PHENIGHD@?$AA_?$AAm?$AAb?$AAs?$AAt?$AAo?$AAw?$AAc?$AAs?$AA_?$AAs?$AA_?$AAl?$AA?$AA@ 300b6f30     LIBCMTD:mbstowcs.obj
 0002:00017f4c       ??_C@_1CM@LLECFMFH@?$AAb?$AAu?$AAf?$AAf?$AAe?$AAr?$AAS?$AAi?$AAz?$AAe?$AA?5?$AA?$DM?$AA?$DN?$AA?5?$AAI?$AAN?$AAT?$AA_?$AAM?$AAA?$AAX?$AA?$AA@ 300b6f4c     LIBCMTD:mbstowcs.obj
 0002:00017f78       ??_C@_1CO@JNPEPJAL@?$AAr?$AAe?$AAt?$AAs?$AAi?$AAz?$AAe?$AA?5?$AA?$DM?$AA?$DN?$AA?5?$AAs?$AAi?$AAz?$AAe?$AAI?$AAn?$AAW?$AAo?$AAr?$AAd?$AAs?$AA?$AA@ 300b6f78     LIBCMTD:mbstowcs.obj
 0002:00017fa8       ??_C@_1BK@OIBENBPM@?$AAp?$AAw?$AAc?$AAs?$AA?5?$AA?$CB?$AA?$DN?$AA?5?$AAN?$AAU?$AAL?$AAL?$AA?$AA@ 300b6fa8     LIBCMTD:wcstombs.obj
 0002:00017fc8       ??_C@_1GE@OAENIBOD@?$AAf?$AA?3?$AA?2?$AAd?$AAd?$AA?2?$AAv?$AAc?$AAt?$AAo?$AAo?$AAl?$AAs?$AA?2?$AAc?$AAr?$AAt?$AA_?$AAb?$AAl?$AAd?$AA?2?$AAs?$AAe?$AAl?$AAf?$AA_?$AAx?$AA8?$AA6?$AA?2?$AAc@ 300b6fc8     LIBCMTD:wcstombs.obj
 0002:0001802c       ??_C@_1CG@LLJCAOHF@?$AA_?$AAw?$AAc?$AAs?$AAt?$AAo?$AAm?$AAb?$AAs?$AA_?$AAl?$AA_?$AAh?$AAe?$AAl?$AAp?$AAe?$AAr?$AA?$AA@ 300b702c     LIBCMTD:wcstombs.obj
 0002:00018058       ??_C@_1IM@MFGKHGBP@?$AA?$CI?$AAd?$AAs?$AAt?$AA?5?$AA?$CB?$AA?$DN?$AA?5?$AAN?$AAU?$AAL?$AAL?$AA?5?$AA?$CG?$AA?$CG?$AA?5?$AAs?$AAi?$AAz?$AAe?$AAI?$AAn?$AAB?$AAy?$AAt?$AAe?$AAs?$AA?5?$AA?$DO?$AA?5?$AA0?$AA?$CJ@ 300b7058     LIBCMTD:wcstombs.obj
 0002:000180e4       ??_C@_1BM@BDMCLLDL@?$AA_?$AAw?$AAc?$AAs?$AAt?$AAo?$AAm?$AAb?$AAs?$AA_?$AAs?$AA_?$AAl?$AA?$AA@ 300b70e4     LIBCMTD:wcstombs.obj
 0002:00018100       ??_C@_1CM@KEOGBFLI@?$AAs?$AAi?$AAz?$AAe?$AAI?$AAn?$AAB?$AAy?$AAt?$AAe?$AAs?$AA?5?$AA?$DO?$AA?5?$AAr?$AAe?$AAt?$AAs?$AAi?$AAz?$AAe?$AA?$AA@ 300b7100     LIBCMTD:wcstombs.obj
 0002:0001812c       ??_C@_1CE@PCFPEIFI@?$AA_?$AAv?$AAs?$AAn?$AAp?$AAr?$AAi?$AAn?$AAt?$AAf?$AA_?$AAh?$AAe?$AAl?$AAp?$AAe?$AAr?$AA?$AA@ 300b712c     LIBCMTD:vsnprnc.obj
 0002:00018150       ??_C@_1BM@BLJALHEF@?$AA_?$AAv?$AAs?$AAp?$AAr?$AAi?$AAn?$AAt?$AAf?$AA_?$AAs?$AA_?$AAl?$AA?$AA@ 300b7150     LIBCMTD:vsnprnc.obj
 0002:00018170       ??_C@_1EE@OKCKIGFK@?$AAs?$AAt?$AAr?$AAi?$AAn?$AAg?$AA?5?$AA?$CB?$AA?$DN?$AA?5?$AAN?$AAU?$AAL?$AAL?$AA?5?$AA?$CG?$AA?$CG?$AA?5?$AAs?$AAi?$AAz?$AAe?$AAI?$AAn?$AAB?$AAy?$AAt?$AAe?$AAs?$AA?5?$AA?$DO?$AA?5@ 300b7170     LIBCMTD:vsnprnc.obj
 0002:000181b4       ??_C@_1BO@MMPELNIM@?$AA_?$AAv?$AAs?$AAn?$AAp?$AAr?$AAi?$AAn?$AAt?$AAf?$AA_?$AAs?$AA_?$AAl?$AA?$AA@ 300b71b4     LIBCMTD:vsnprnc.obj
 0002:000181d8       ??_C@_1HG@HFJMHCFK@?$AAf?$AA?3?$AA?2?$AAd?$AAd?$AA?2?$AAv?$AAc?$AAt?$AAo?$AAo?$AAl?$AAs?$AA?2?$AAc?$AAr?$AAt?$AA_?$AAb?$AAl?$AAd?$AA?2?$AAs?$AAe?$AAl?$AAf?$AA_?$AAx?$AA8?$AA6?$AA?2?$AAc@ 300b71d8     LIBCMTD:x10fout.obj
 0002:00018250       ??_C@_1BI@ELMAAFLN@?$AA$?$AAI?$AA1?$AA0?$AA_?$AAO?$AAU?$AAT?$AAP?$AAU?$AAT?$AA?$AA@ 300b7250     LIBCMTD:x10fout.obj
 0002:00018268       ??_C@_1EG@CDDBFNOB@?$AAs?$AAt?$AAr?$AAc?$AAp?$AAy?$AA_?$AAs?$AA?$CI?$AAf?$AAo?$AAs?$AA?9?$AA?$DO?$AAm?$AAa?$AAn?$AA?0?$AA?5?$AA2?$AA1?$AA?$CL?$AA1?$AA?0?$AA?5?$AA?$CC?$AA1?$AA?$CD?$AAS?$AAN?$AAA?$AAN@ 300b7268     LIBCMTD:x10fout.obj
 0002:000182b0       ??_C@_06PGGFOGJG@1?$CDSNAN?$AA@ 300b72b0     LIBCMTD:x10fout.obj
 0002:000182b8       ??_C@_1EE@MADEBIHF@?$AAs?$AAt?$AAr?$AAc?$AAp?$AAy?$AA_?$AAs?$AA?$CI?$AAf?$AAo?$AAs?$AA?9?$AA?$DO?$AAm?$AAa?$AAn?$AA?0?$AA?5?$AA2?$AA1?$AA?$CL?$AA1?$AA?0?$AA?5?$AA?$CC?$AA1?$AA?$CD?$AAI?$AAN?$AAD?$AA?$CC@ 300b72b8     LIBCMTD:x10fout.obj
 0002:000182fc       ??_C@_05PHHOCPM@1?$CDIND?$AA@ 300b72fc     LIBCMTD:x10fout.obj
 0002:00018308       ??_C@_1EE@ICBBBPAI@?$AAs?$AAt?$AAr?$AAc?$AAp?$AAy?$AA_?$AAs?$AA?$CI?$AAf?$AAo?$AAs?$AA?9?$AA?$DO?$AAm?$AAa?$AAn?$AA?0?$AA?5?$AA2?$AA1?$AA?$CL?$AA1?$AA?0?$AA?5?$AA?$CC?$AA1?$AA?$CD?$AAI?$AAN?$AAF?$AA?$CC@ 300b7308     LIBCMTD:x10fout.obj
 0002:0001834c       ??_C@_05DNEBIAHO@1?$CDINF?$AA@ 300b734c     LIBCMTD:x10fout.obj
 0002:00018358       ??_C@_1EG@MCFPJJEM@?$AAs?$AAt?$AAr?$AAc?$AAp?$AAy?$AA_?$AAs?$AA?$CI?$AAf?$AAo?$AAs?$AA?9?$AA?$DO?$AAm?$AAa?$AAn?$AA?0?$AA?5?$AA2?$AA1?$AA?$CL?$AA1?$AA?0?$AA?5?$AA?$CC?$AA1?$AA?$CD?$AAQ?$AAN?$AAA?$AAN@ 300b7358     LIBCMTD:x10fout.obj
 0002:000183a0       ??_C@_06IMKFLFPG@1?$CDQNAN?$AA@ 300b73a0     LIBCMTD:x10fout.obj
 0002:000183a8       ?commonFlags@?1??_control87@@9@9 300b73a8     LIBCMTD:ieee87.obj
 0002:000183b0       ??_C@_1HO@BFDKGHOI@?$AAf?$AA?3?$AA?2?$AAd?$AAd?$AA?2?$AAv?$AAc?$AAt?$AAo?$AAo?$AAl?$AAs?$AA?2?$AAc?$AAr?$AAt?$AA_?$AAb?$AAl?$AAd?$AA?2?$AAs?$AAe?$AAl?$AAf?$AA_?$AAx?$AA8?$AA6?$AA?2?$AAc@ 300b73b0     LIBCMTD:ieee87.obj
 0002:00018430       ??_C@_1BO@OFDNCLL@?$AA_?$AAs?$AAe?$AAt?$AA_?$AAc?$AAo?$AAn?$AAt?$AAr?$AAo?$AAl?$AAf?$AAp?$AA?$AA@ 300b7430     LIBCMTD:ieee87.obj
 0002:00018450       ??_C@_1GO@OKJGOMCB@?$AA_?$AAc?$AAo?$AAn?$AAt?$AAr?$AAo?$AAl?$AAf?$AAp?$AA_?$AAs?$AA?$CI?$AA?$CI?$AA?$CI?$AAv?$AAo?$AAi?$AAd?$AA?5?$AA?$CK?$AA?$CJ?$AA0?$AA?$CJ?$AA?0?$AA?5?$AAn?$AAe?$AAw?$AAc?$AAt?$AAr@ 300b7450     LIBCMTD:ieee87.obj
 0002:000184c0       ??_C@_0DB@KIKNCIEC@f?3?2dd?2vctools?2crt_bld?2self_x86?2c@ 300b74c0     LIBCMTD:osfinfo.obj
 0002:000184f8       ??_C@_1GC@MLKLDJJG@?$AAf?$AA?3?$AA?2?$AAd?$AAd?$AA?2?$AAv?$AAc?$AAt?$AAo?$AAo?$AAl?$AAs?$AA?2?$AAc?$AAr?$AAt?$AA_?$AAb?$AAl?$AAd?$AA?2?$AAs?$AAe?$AAl?$AAf?$AA_?$AAx?$AA8?$AA6?$AA?2?$AAc@ 300b74f8     LIBCMTD:osfinfo.obj
 0002:0001855c       ??_C@_1BO@EMBOBGKE@?$AA_?$AAg?$AAe?$AAt?$AA_?$AAo?$AAs?$AAf?$AAh?$AAa?$AAn?$AAd?$AAl?$AAe?$AA?$AA@ 300b755c     LIBCMTD:osfinfo.obj
 0002:00018580       ??_C@_1NC@EINCOKCO@?$AA_?$AAl?$AAo?$AAc?$AA_?$AAu?$AAp?$AAd?$AAa?$AAt?$AAe?$AA?4?$AAG?$AAe?$AAt?$AAL?$AAo?$AAc?$AAa?$AAl?$AAe?$AAT?$AA?$CI?$AA?$CJ?$AA?9?$AA?$DO?$AAl?$AAo?$AAc?$AAi?$AAn?$AAf@ 300b7580     LIBCMTD:mbtowc.obj
 0002:00018658       ??_C@_1GA@GFFDGGFH@?$AAf?$AA?3?$AA?2?$AAd?$AAd?$AA?2?$AAv?$AAc?$AAt?$AAo?$AAo?$AAl?$AAs?$AA?2?$AAc?$AAr?$AAt?$AA_?$AAb?$AAl?$AAd?$AA?2?$AAs?$AAe?$AAl?$AAf?$AA_?$AAx?$AA8?$AA6?$AA?2?$AAc@ 300b7658     LIBCMTD:mbtowc.obj
 0002:000186b8       ??_C@_1GC@DHFFJKMC@?$AAf?$AA?3?$AA?2?$AAd?$AAd?$AA?2?$AAv?$AAc?$AAt?$AAo?$AAo?$AAl?$AAs?$AA?2?$AAc?$AAr?$AAt?$AA_?$AAb?$AAl?$AAd?$AA?2?$AAs?$AAe?$AAl?$AAf?$AA_?$AAx?$AA8?$AA6?$AA?2?$AAc@ 300b76b8     LIBCMTD:vprintf.obj
 0002:0001871c       ??_C@_1BO@JGFPDJCP@?$AAv?$AAp?$AAr?$AAi?$AAn?$AAt?$AAf?$AA_?$AAh?$AAe?$AAl?$AAp?$AAe?$AAr?$AA?$AA@ 300b771c     LIBCMTD:vprintf.obj
 0002:0001873c       ??_C@_1BE@NDMJHJJG@?$AAs?$AAt?$AAr?$AAn?$AAc?$AAp?$AAy?$AA_?$AAs?$AA?$AA@ 300b773c     LIBCMTD:strncpy_s.obj
 0002:00018750       ??_C@_1GA@KMIDAPAP@?$AAf?$AA?3?$AA?2?$AAd?$AAd?$AA?2?$AAv?$AAc?$AAt?$AAo?$AAo?$AAl?$AAs?$AA?2?$AAc?$AAr?$AAt?$AA_?$AAb?$AAl?$AAd?$AA?2?$AAs?$AAe?$AAl?$AAf?$AA_?$AAx?$AA8?$AA6?$AA?2?$AAc@ 300b7750     LIBCMTD:fclose.obj
 0002:000187b0       ??_C@_1O@EGMJNCOI@?$AAf?$AAc?$AAl?$AAo?$AAs?$AAe?$AA?$AA@ 300b77b0     LIBCMTD:fclose.obj
 0002:000187c0       ??_C@_1BO@JINCABEC@?$AA_?$AAf?$AAc?$AAl?$AAo?$AAs?$AAe?$AA_?$AAn?$AAo?$AAl?$AAo?$AAc?$AAk?$AA?$AA@ 300b77c0     LIBCMTD:fclose.obj
 0002:000187e0       ??_C@_1GA@BJIGKGEA@?$AAf?$AA?3?$AA?2?$AAd?$AAd?$AA?2?$AAv?$AAc?$AAt?$AAo?$AAo?$AAl?$AAs?$AA?2?$AAc?$AAr?$AAt?$AA_?$AAb?$AAl?$AAd?$AA?2?$AAs?$AAe?$AAl?$AAf?$AA_?$AAx?$AA8?$AA6?$AA?2?$AAc@ 300b77e0     LIBCMTD:fputwc.obj
 0002:00018840       ??_C@_1O@HJNPHHHB@?$AAf?$AAp?$AAu?$AAt?$AAw?$AAc?$AA?$AA@ 300b7840     LIBCMTD:fputwc.obj
 0002:00018850       ??_C@_1GA@CADFOND@?$AAf?$AA?3?$AA?2?$AAd?$AAd?$AA?2?$AAv?$AAc?$AAt?$AAo?$AAo?$AAl?$AAs?$AA?2?$AAc?$AAr?$AAt?$AA_?$AAb?$AAl?$AAd?$AA?2?$AAs?$AAe?$AAl?$AAf?$AA_?$AAx?$AA8?$AA6?$AA?2?$AAc@ 300b7850     LIBCMTD:wcstol.obj
 0002:000188b0       ??_C@_1BA@PCFLFGNC@?$AAw?$AAc?$AAs?$AAt?$AAo?$AAx?$AAl?$AA?$AA@ 300b78b0     LIBCMTD:wcstol.obj
 0002:000188c0       ??_C@_1GC@MHLPCCAP@?$AAf?$AA?3?$AA?2?$AAd?$AAd?$AA?2?$AAv?$AAc?$AAt?$AAo?$AAo?$AAl?$AAs?$AA?2?$AAc?$AAr?$AAt?$AA_?$AAb?$AAl?$AAd?$AA?2?$AAs?$AAe?$AAl?$AAf?$AA_?$AAx?$AA8?$AA6?$AA?2?$AAc@ 300b78c0     LIBCMTD:wcsicmp.obj
 0002:00018924       ??_C@_1BG@EELGPCPD@?$AA_?$AAw?$AAc?$AAs?$AAi?$AAc?$AAm?$AAp?$AA_?$AAl?$AA?$AA@ 300b7924     LIBCMTD:wcsicmp.obj
 0002:0001893c       ??_C@_1BC@NHIBDOMC@?$AA_?$AAw?$AAc?$AAs?$AAi?$AAc?$AAm?$AAp?$AA?$AA@ 300b793c     LIBCMTD:wcsicmp.obj
 0002:00018950       ??_C@_1BM@CBACDFHA@?$AAf?$AAi?$AAr?$AAs?$AAt?$AA?5?$AA?$CB?$AA?$DN?$AA?5?$AAN?$AAU?$AAL?$AAL?$AA?$AA@ 300b7950     LIBCMTD:wcsnicmp.obj
 0002:00018970       ??_C@_1GE@JMKOMBJH@?$AAf?$AA?3?$AA?2?$AAd?$AAd?$AA?2?$AAv?$AAc?$AAt?$AAo?$AAo?$AAl?$AAs?$AA?2?$AAc?$AAr?$AAt?$AA_?$AAb?$AAl?$AAd?$AA?2?$AAs?$AAe?$AAl?$AAf?$AA_?$AAx?$AA8?$AA6?$AA?2?$AAc@ 300b7970     LIBCMTD:wcsnicmp.obj
 0002:000189d4       ??_C@_1BI@KLMFNDBC@?$AA_?$AAw?$AAc?$AAs?$AAn?$AAi?$AAc?$AAm?$AAp?$AA_?$AAl?$AA?$AA@ 300b79d4     LIBCMTD:wcsnicmp.obj
 0002:000189ec       ??_C@_1BK@LKBOPAFJ@?$AAl?$AAa?$AAs?$AAt?$AA?5?$AA?$CB?$AA?$DN?$AA?5?$AAN?$AAU?$AAL?$AAL?$AA?$AA@ 300b79ec     LIBCMTD:wcsnicmp.obj
 0002:00018a08       ??_C@_1BE@JKOKKFEL@?$AA_?$AAw?$AAc?$AAs?$AAn?$AAi?$AAc?$AAm?$AAp?$AA?$AA@ 300b7a08     LIBCMTD:wcsnicmp.obj
 0002:00018a20       ??_C@_1GE@BDAODJCD@?$AAf?$AA?3?$AA?2?$AAd?$AAd?$AA?2?$AAv?$AAc?$AAt?$AAo?$AAo?$AAl?$AAs?$AA?2?$AAc?$AAr?$AAt?$AA_?$AAb?$AAl?$AAd?$AA?2?$AAs?$AAe?$AAl?$AAf?$AA_?$AAx?$AA8?$AA6?$AA?2?$AAc@ 300b7a20     LIBCMTD:dbgdel.obj
 0002:00018a88       ??_7type_info@@6B@         300b7a88     LIBCMTD:typinfo.obj
 0002:00018a90       ??_7exception@std@@6B@     300b7a90     LIBCMTD:stdexcpt.obj
 0002:00018a98       ??_C@_0BC@EOODALEL@Unknown?5exception?$AA@ 300b7a98     LIBCMTD:stdexcpt.obj
 0002:00018ab0       ??_7bad_cast@std@@6B@      300b7ab0     LIBCMTD:stdexcpt.obj
 0002:00018abc       ??_7bad_typeid@std@@6B@    300b7abc     LIBCMTD:stdexcpt.obj
 0002:00018ac8       ??_7__non_rtti_object@std@@6B@ 300b7ac8     LIBCMTD:stdexcpt.obj
 0002:00018af0       ??_C@_1BA@BALFACEM@?$AAC?$AAO?$AAN?$AAO?$AAU?$AAT?$AA$?$AA?$AA@ 300b7af0     LIBCMTD:initcon.obj
 0002:00018b00       ??_C@_1FO@NNGNFGFH@?$AAf?$AA?3?$AA?2?$AAd?$AAd?$AA?2?$AAv?$AAc?$AAt?$AAo?$AAo?$AAl?$AAs?$AA?2?$AAc?$AAr?$AAt?$AA_?$AAb?$AAl?$AAd?$AA?2?$AAs?$AAe?$AAl?$AAf?$AA_?$AAx?$AA8?$AA6?$AA?2?$AAc@ 300b7b00     LIBCMTD:close.obj
 0002:00018b60       ??_C@_1O@EDEJGJBM@?$AA_?$AAc?$AAl?$AAo?$AAs?$AAe?$AA?$AA@ 300b7b60     LIBCMTD:close.obj
 0002:00018b70       ??_C@_1GA@OFLNHKCJ@?$AAf?$AA?3?$AA?2?$AAd?$AAd?$AA?2?$AAv?$AAc?$AAt?$AAo?$AAo?$AAl?$AAs?$AA?2?$AAc?$AAr?$AAt?$AA_?$AAb?$AAl?$AAd?$AA?2?$AAs?$AAe?$AAl?$AAf?$AA_?$AAx?$AA8?$AA6?$AA?2?$AAc@ 300b7b70     LIBCMTD:wcstoq.obj
 0002:00018bd0       ??_C@_1BA@FACINJJA@?$AAw?$AAc?$AAs?$AAt?$AAo?$AAx?$AAq?$AA?$AA@ 300b7bd0     LIBCMTD:wcstoq.obj
 0002:00018be0       ??_C@_1CK@GELGGBDK@?$AAp?$AAN?$AAo?$AAd?$AAe?$AA?9?$AA?$DO?$AA_?$AAN?$AAe?$AAx?$AAt?$AA?5?$AA?$CB?$AA?$DN?$AA?5?$AAN?$AAU?$AAL?$AAL?$AA?$AA@ 300b7be0     LIBCMTD:typname.obj
 0002:00018c10       ??_C@_1HG@KNCBMCDD@?$AAf?$AA?3?$AA?2?$AAd?$AAd?$AA?2?$AAv?$AAc?$AAt?$AAo?$AAo?$AAl?$AAs?$AA?2?$AAc?$AAr?$AAt?$AA_?$AAb?$AAl?$AAd?$AA?2?$AAs?$AAe?$AAl?$AAf?$AA_?$AAx?$AA8?$AA6?$AA?2?$AAc@ 300b7c10     LIBCMTD:typname.obj
 0002:00018c88       ??_C@_1CM@OOICDMK@?$AAt?$AAy?$AAp?$AAe?$AA_?$AAi?$AAn?$AAf?$AAo?$AA?3?$AA?3?$AA_?$AAN?$AAa?$AAm?$AAe?$AA_?$AAb?$AAa?$AAs?$AAe?$AA?$AA@ 300b7c88     LIBCMTD:typname.obj
 0002:00018cb8       ??_C@_1JK@NAFNEPGC@?$AAs?$AAt?$AAr?$AAc?$AAp?$AAy?$AA_?$AAs?$AA?5?$AA?$CI?$AA?$CI?$AAc?$AAh?$AAa?$AAr?$AA?5?$AA?$CK?$AA?$CJ?$AA?$CI?$AA?$CI?$AAt?$AAy?$AAp?$AAe?$AA_?$AAi?$AAn?$AAf?$AAo?$AA?5?$AA?$CK?$AA?$CJ@ 300b7cb8     LIBCMTD:typname.obj
 0002:00018d54       ??_C@_1DO@OJJLFJPE@?$AAt?$AAy?$AAp?$AAe?$AA_?$AAi?$AAn?$AAf?$AAo?$AA?3?$AA?3?$AA_?$AAN?$AAa?$AAm?$AAe?$AA_?$AAb?$AAa?$AAs?$AAe?$AA_?$AAi?$AAn?$AAt?$AAe?$AAr?$AAn?$AAa?$AAl?$AA?$AA@ 300b7d54     LIBCMTD:typname.obj
 0002:00018d98       ??_C@_1GI@EAJKJPED@?$AAs?$AAt?$AAr?$AAc?$AAp?$AAy?$AA_?$AAs?$AA?5?$AA?$CI?$AAp?$AAT?$AAm?$AAp?$AAT?$AAy?$AAp?$AAe?$AAN?$AAa?$AAm?$AAe?$AA?0?$AA?5?$AAl?$AAe?$AAn?$AA?$CL?$AA2?$AA?0?$AA?5?$AA?$CI@ 300b7d98     LIBCMTD:typname.obj
 0002:00018f88       ??_C@_08EHJDFFNH@__based?$CI?$AA@ 300b7f88     LIBCMTD:undname.obj
 0002:00018f94       ??_C@_07KOLFKCDI@__cdecl?$AA@ 300b7f94     LIBCMTD:undname.obj
 0002:00018f9c       ??_C@_08GHMPAG@__pascal?$AA@ 300b7f9c     LIBCMTD:undname.obj
 0002:00018fa8       ??_C@_09IFJBGAPI@__stdcall?$AA@ 300b7fa8     LIBCMTD:undname.obj
 0002:00018fb4       ??_C@_0L@NPHFGOKO@__thiscall?$AA@ 300b7fb4     LIBCMTD:undname.obj
 0002:00018fc0       ??_C@_0L@JMKHOMEK@__fastcall?$AA@ 300b7fc0     LIBCMTD:undname.obj
 0002:00018fcc       ??_C@_09HIJEGCPM@__clrcall?$AA@ 300b7fcc     LIBCMTD:undname.obj
 0002:00018fd8       ??_C@_06GHPCKEAG@__eabi?$AA@ 300b7fd8     LIBCMTD:undname.obj
 0002:00018fe0       ??_C@_07JOMMBBKO@__ptr64?$AA@ 300b7fe0     LIBCMTD:undname.obj
 0002:00018fe8       ??_C@_0L@PILCLIHE@__restrict?$AA@ 300b7fe8     LIBCMTD:undname.obj
 0002:00018ff4       ??_C@_0M@GFIIJFMG@__unaligned?$AA@ 300b7ff4     LIBCMTD:undname.obj
 0002:00019000       ??_C@_09DHDLOLLB@restrict?$CI?$AA@ 300b8000     LIBCMTD:undname.obj
 0002:0001900c       ??_C@_04NIHEBCM@?5new?$AA@ 300b800c     LIBCMTD:undname.obj
 0002:00019014       ??_C@_07FPCDHGMM@?5delete?$AA@ 300b8014     LIBCMTD:undname.obj
 0002:0001901c       ??_C@_02GPIOPFAK@?$DO?$DO?$AA@ 300b801c     LIBCMTD:undname.obj
 0002:00019020       ??_C@_02FODMEDOG@?$DM?$DM?$AA@ 300b8020     LIBCMTD:undname.obj
 0002:00019024       ??_C@_01DCLJPIOD@?$CB?$AA@ 300b8024     LIBCMTD:undname.obj
 0002:00019028       ??_C@_02EGOFBIJA@?$DN?$DN?$AA@ 300b8028     LIBCMTD:undname.obj
 0002:0001902c       ??_C@_02FDNJECIE@?$CB?$DN?$AA@ 300b802c     LIBCMTD:undname.obj
 0002:00019030       ??_C@_02GPECMEKF@?$FL?$FN?$AA@ 300b8030     LIBCMTD:undname.obj
 0002:00019034       ??_C@_08LHJFAFGD@operator?$AA@ 300b8034     LIBCMTD:undname.obj
 0002:00019040       ??_C@_02HBOOOICD@?9?$DO?$AA@ 300b8040     LIBCMTD:undname.obj
 0002:00019044       ??_C@_01NBENCBCI@?$CK?$AA@ 300b8044     LIBCMTD:undname.obj
 0002:00019048       ??_C@_02ECNGHCIF@?$CL?$CL?$AA@ 300b8048     LIBCMTD:undname.obj
 0002:0001904c       ??_C@_02BAABKJLB@?9?9?$AA@ 300b804c     LIBCMTD:undname.obj
 0002:00019050       ??_C@_01JOAMLHOP@?9?$AA@   300b8050     LIBCMTD:undname.obj
 0002:00019054       ??_C@_01MIFGBAGJ@?$CL?$AA@ 300b8054     LIBCMTD:undname.obj
 0002:00019058       ??_C@_01HNPIGOCE@?$CG?$AA@ 300b8058     LIBCMTD:undname.obj
 0002:0001905c       ??_C@_03MNHNFDLC@?9?$DO?$CK?$AA@ 300b805c     LIBCMTD:undname.obj
 0002:00019060       ??_C@_01KMDKNFGN@?1?$AA@   300b8060     LIBCMTD:undname.obj
 0002:00019064       ??_C@_01FGNFDNOH@?$CF?$AA@ 300b8064     LIBCMTD:undname.obj
 0002:00019068       ??_C@_01MNNFJEPP@?$DM?$AA@ 300b8068     LIBCMTD:undname.obj
 0002:0001906c       ??_C@_02EHCHHCKH@?$DM?$DN?$AA@ 300b806c     LIBCMTD:undname.obj
 0002:00019070       ??_C@_01PPODPGHN@?$DO?$AA@ 300b8070     LIBCMTD:undname.obj
 0002:00019074       ??_C@_02EEKDKGMJ@?$DO?$DN?$AA@ 300b8074     LIBCMTD:undname.obj
 0002:00019078       ??_C@_01IHBHIGKO@?0?$AA@   300b8078     LIBCMTD:undname.obj
 0002:0001907c       ??_C@_02HCKGKOFO@?$CI?$CJ?$AA@ 300b807c     LIBCMTD:undname.obj
 0002:00019080       ??_C@_01PJKLJHI@?$HO?$AA@  300b8080     LIBCMTD:undname.obj
 0002:00019084       ??_C@_01JKBOJNNK@?$FO?$AA@ 300b8084     LIBCMTD:undname.obj
 0002:00019088       ??_C@_01DNKMNLPK@?$HM?$AA@ 300b8088     LIBCMTD:undname.obj
 0002:0001908c       ??_C@_02PPKAJPJL@?$CG?$CG?$AA@ 300b808c     LIBCMTD:undname.obj
 0002:00019090       ??_C@_02NONPIBCD@?$HM?$HM?$AA@ 300b8090     LIBCMTD:undname.obj
 0002:00019094       ??_C@_02FPIMKNGF@?$CK?$DN?$AA@ 300b8094     LIBCMTD:undname.obj
 0002:00019098       ??_C@_02FOEOMHFC@?$CL?$DN?$AA@ 300b8098     LIBCMTD:undname.obj
 0002:0001909c       ??_C@_02FKMDLLOA@?9?$DN?$AA@ 300b809c     LIBCMTD:undname.obj
 0002:000190a0       ??_C@_02FJEHGPIO@?1?$DN?$AA@ 300b80a0     LIBCMTD:undname.obj
 0002:000190a4       ??_C@_02FENAOKFI@?$CF?$DN?$AA@ 300b80a4     LIBCMTD:undname.obj
 0002:000190a8       ??_C@_03IKFCCPFF@?$DO?$DO?$DN?$AA@ 300b80a8     LIBCMTD:undname.obj
 0002:000190ac       ??_C@_03CDNPDDLA@?$DM?$DM?$DN?$AA@ 300b80ac     LIBCMTD:undname.obj
 0002:000190b0       ??_C@_02FGJGFEAB@?$CG?$DN?$AA@ 300b80b0     LIBCMTD:undname.obj
 0002:000190b4       ??_C@_02DHLNPPGH@?$HM?$DN?$AA@ 300b80b4     LIBCMTD:undname.obj
 0002:000190b8       ??_C@_02MHEGNOJ@?$FO?$DN?$AA@ 300b80b8     LIBCMTD:undname.obj
 0002:000190bc       ??_C@_09IFPLHPGF@?$GAvftable?8?$AA@ 300b80bc     LIBCMTD:undname.obj
 0002:000190c8       ??_C@_09BLBHBJP@?$GAvbtable?8?$AA@ 300b80c8     LIBCMTD:undname.obj
 0002:000190d4       ??_C@_07FEEIOKP@?$GAvcall?8?$AA@ 300b80d4     LIBCMTD:undname.obj
 0002:000190dc       ??_C@_08LLFFHHDJ@?$GAtypeof?8?$AA@ 300b80dc     LIBCMTD:undname.obj
 0002:000190e8       ??_C@_0BF@KDPPACIK@?$GAlocal?5static?5guard?8?$AA@ 300b80e8     LIBCMTD:undname.obj
 0002:00019100       ??_C@_08OBABFOLI@?$GAstring?8?$AA@ 300b8100     LIBCMTD:undname.obj
 0002:0001910c       ??_C@_0BD@JDLKDPAB@?$GAvbase?5destructor?8?$AA@ 300b810c     LIBCMTD:undname.obj
 0002:00019120       ??_C@_0BN@DEGPLNFK@?$GAvector?5deleting?5destructor?8?$AA@ 300b8120     LIBCMTD:undname.obj
 0002:00019140       ??_C@_0BO@OBMKPJIG@?$GAdefault?5constructor?5closure?8?$AA@ 300b8140     LIBCMTD:undname.obj
 0002:00019160       ??_C@_0BN@IMDCHIKM@?$GAscalar?5deleting?5destructor?8?$AA@ 300b8160     LIBCMTD:undname.obj
 0002:00019180       ??_C@_0BO@PFGOCPJJ@?$GAvector?5constructor?5iterator?8?$AA@ 300b8180     LIBCMTD:undname.obj
 0002:000191a0       ??_C@_0BN@LFPFMEDL@?$GAvector?5destructor?5iterator?8?$AA@ 300b81a0     LIBCMTD:undname.obj
 0002:000191c0       ??_C@_0CE@IKBNEHA@?$GAvector?5vbase?5constructor?5iterat@ 300b81c0     LIBCMTD:undname.obj
 0002:000191e4       ??_C@_0BL@NILFHHPC@?$GAvirtual?5displacement?5map?8?$AA@ 300b81e4     LIBCMTD:undname.obj
 0002:00019200       ??_C@_0CB@JONCMFFK@?$GAeh?5vector?5constructor?5iterator?8@ 300b8200     LIBCMTD:undname.obj
 0002:00019224       ??_C@_0CA@GCEOPDGL@?$GAeh?5vector?5destructor?5iterator?8?$AA@ 300b8224     LIBCMTD:undname.obj
 0002:00019244       ??_C@_0CH@OOJPLCPH@?$GAeh?5vector?5vbase?5constructor?5ite@ 300b8244     LIBCMTD:undname.obj
 0002:0001926c       ??_C@_0BL@LLKPOHJI@?$GAcopy?5constructor?5closure?8?$AA@ 300b826c     LIBCMTD:undname.obj
 0002:00019288       ??_C@_0BA@KBCDOMBN@?$GAudt?5returning?8?$AA@ 300b8288     LIBCMTD:undname.obj
 0002:00019298       ??_C@_03KLGMFNMG@?$GAEH?$AA@ 300b8298     LIBCMTD:undname.obj
 0002:0001929c       ??_C@_05KHLCHHI@?$GARTTI?$AA@ 300b829c     LIBCMTD:undname.obj
 0002:000192a4       ??_C@_0BA@KKLDJDLB@?$GAlocal?5vftable?8?$AA@ 300b82a4     LIBCMTD:undname.obj
 0002:000192b4       ??_C@_0CE@IIHCMGGL@?$GAlocal?5vftable?5constructor?5closu@ 300b82b4     LIBCMTD:undname.obj
 0002:000192d8       ??_C@_06FHBGPFGH@?5new?$FL?$FN?$AA@ 300b82d8     LIBCMTD:undname.obj
 0002:000192e0       ??_C@_09LBNFPBCA@?5delete?$FL?$FN?$AA@ 300b82e0     LIBCMTD:undname.obj
 0002:000192ec       ??_C@_0P@HJKNJFNN@?$GAomni?5callsig?8?$AA@ 300b82ec     LIBCMTD:undname.obj
 0002:000192fc       ??_C@_0BL@CNOONJFP@?$GAplacement?5delete?5closure?8?$AA@ 300b82fc     LIBCMTD:undname.obj
 0002:00019318       ??_C@_0BN@CKNJLHMB@?$GAplacement?5delete?$FL?$FN?5closure?8?$AA@ 300b8318     LIBCMTD:undname.obj
 0002:00019338       ??_C@_0CG@CFDHKGGD@?$GAmanaged?5vector?5constructor?5iter@ 300b8338     LIBCMTD:undname.obj
 0002:00019360       ??_C@_0CF@IMGKMJNO@?$GAmanaged?5vector?5destructor?5itera@ 300b8360     LIBCMTD:undname.obj
 0002:00019388       ??_C@_0CG@HLDDJMAG@?$GAeh?5vector?5copy?5constructor?5iter@ 300b8388     LIBCMTD:undname.obj
 0002:000193b0       ??_C@_0CM@FCBBDIGB@?$GAeh?5vector?5vbase?5copy?5constructo@ 300b83b0     LIBCMTD:undname.obj
 0002:000193dc       ??_C@_0BL@CLIPGLGB@?$GAdynamic?5initializer?5for?5?8?$AA@ 300b83dc     LIBCMTD:undname.obj
 0002:000193f8       ??_C@_0CB@PDBIFEP@?$GAdynamic?5atexit?5destructor?5for?5?8@ 300b83f8     LIBCMTD:undname.obj
 0002:0001941c       ??_C@_0CD@CGAJBKEJ@?$GAvector?5copy?5constructor?5iterato@ 300b841c     LIBCMTD:undname.obj
 0002:00019440       ??_C@_0CJ@GJELGAMM@?$GAvector?5vbase?5copy?5constructor?5i@ 300b8440     LIBCMTD:undname.obj
 0002:0001946c       ??_C@_0CL@FGIJHLCE@?$GAmanaged?5vector?5copy?5constructor@ 300b846c     LIBCMTD:undname.obj
 0002:00019498       ??_C@_0BM@PMGGMLDN@?$GAlocal?5static?5thread?5guard?8?$AA@ 300b8498     LIBCMTD:undname.obj
 0002:000194b4       ??_C@_0BC@DAFEJGAK@?5Type?5Descriptor?8?$AA@ 300b84b4     LIBCMTD:undname.obj
 0002:000194c8       ??_C@_0BM@LDKODKLH@?5Base?5Class?5Descriptor?5at?5?$CI?$AA@ 300b84c8     LIBCMTD:undname.obj
 0002:000194e4       ??_C@_0BD@LGICGFMM@?5Base?5Class?5Array?8?$AA@ 300b84e4     LIBCMTD:undname.obj
 0002:000194f8       ??_C@_0BN@MECKDCOJ@?5Class?5Hierarchy?5Descriptor?8?$AA@ 300b84f8     LIBCMTD:undname.obj
 0002:00019518       ??_C@_0BK@CFCOFLF@?5Complete?5Object?5Locator?8?$AA@ 300b8518     LIBCMTD:undname.obj
 0002:00019534       ??_C@_04HEJADOOB@CV?3?5?$AA@ 300b8534     LIBCMTD:undname.obj
 0002:0001953c       ??_C@_02MOLJINC@?3?3?$AA@  300b853c     LIBCMTD:undname.obj
 0002:00019540       ??_C@_0BE@JAEOCHPE@template?9parameter?9?$AA@ 300b8540     LIBCMTD:undname.obj
 0002:00019554       ??_C@_0O@KHGCOMHP@generic?9type?9?$AA@ 300b8554     LIBCMTD:undname.obj
 0002:00019564       ??_C@_01NLNLIGKH@?$GA?$AA@ 300b8564     LIBCMTD:undname.obj
 0002:00019568       ??_C@_01GEODFPGF@?8?$AA@   300b8568     LIBCMTD:undname.obj
 0002:0001956c       ??_C@_0BG@JNJLAMPM@?$GAanonymous?5namespace?8?$AA@ 300b856c     LIBCMTD:undname.obj
 0002:00019584       ??_C@_02OHHJMEON@?8?8?$AA@ 300b8584     LIBCMTD:undname.obj
 0002:00019588       ??_C@_0BN@IBLMMFAP@?$GAnon?9type?9template?9parameter?$AA@ 300b8588     LIBCMTD:undname.obj
 0002:000195a8       ??_C@_04GKJNKENE@void?$AA@ 300b85a8     LIBCMTD:undname.obj
 0002:000195b0       ??_C@_0BE@EODMJLIF@?$GAtemplate?9parameter?$AA@ 300b85b0     LIBCMTD:undname.obj
 0002:000195c4       ??_C@_04HIBGFPH@NULL?$AA@  300b85c4     LIBCMTD:undname.obj
 0002:000195cc       ??_C@_03OPGICMGF@?$HN?8?5?$AA@ 300b85cc     LIBCMTD:undname.obj
 0002:000195d0       ??_C@_02IGFCGPIL@?$HN?8?$AA@ 300b85d0     LIBCMTD:undname.obj
 0002:000195d4       ??_C@_0N@CBHHHENL@?$GAvtordispex?$HL?$AA@ 300b85d4     LIBCMTD:undname.obj
 0002:000195e4       ??_C@_0L@GHPFDFH@?$GAvtordisp?$HL?$AA@ 300b85e4     LIBCMTD:undname.obj
 0002:000195f0       ??_C@_0L@HNGCOGAE@?$GAadjustor?$HL?$AA@ 300b85f0     LIBCMTD:undname.obj
 0002:000195fc       ??_C@_0CB@KJDOOODE@?$GAlocal?5static?5destructor?5helper?8@ 300b85fc     LIBCMTD:undname.obj
 0002:00019620       ??_C@_0DB@ILEFOCIJ@?$GAtemplate?5static?5data?5member?5con@ 300b8620     LIBCMTD:undname.obj
 0002:00019654       ??_C@_0DA@HGFJFBBE@?$GAtemplate?5static?5data?5member?5des@ 300b8654     LIBCMTD:undname.obj
 0002:00019684       ??_C@_07PGOEDBHP@static?5?$AA@ 300b8684     LIBCMTD:undname.obj
 0002:0001968c       ??_C@_08NIEOINHE@virtual?5?$AA@ 300b868c     LIBCMTD:undname.obj
 0002:00019698       ??_C@_09LAPHOOG@private?3?5?$AA@ 300b8698     LIBCMTD:undname.obj
 0002:000196a4       ??_C@_0M@GAIFPFIP@protected?3?5?$AA@ 300b86a4     LIBCMTD:undname.obj
 0002:000196b0       ??_C@_08GPDDCMKI@public?3?5?$AA@ 300b86b0     LIBCMTD:undname.obj
 0002:000196bc       ??_C@_08KJLFOPNE@?$FLthunk?$FN?3?$AA@ 300b86bc     LIBCMTD:undname.obj
 0002:000196c8       ??_C@_0M@DHNBOJMP@extern?5?$CCC?$CC?5?$AA@ 300b86c8     LIBCMTD:undname.obj
 0002:000196d4       ??_C@_02KCKGHPCA@?$CJ?5?$AA@ 300b86d4     LIBCMTD:undname.obj
 0002:000196d8       ??_C@_05CIHEBHNO@char?5?$AA@ 300b86d8     LIBCMTD:undname.obj
 0002:000196e0       ??_C@_06EHJMALKF@short?5?$AA@ 300b86e0     LIBCMTD:undname.obj
 0002:000196e8       ??_C@_04LAHKHJMA@int?5?$AA@ 300b86e8     LIBCMTD:undname.obj
 0002:000196f0       ??_C@_05CJIMAING@long?5?$AA@ 300b86f0     LIBCMTD:undname.obj
 0002:000196f8       ??_C@_09EBBEKKIH@unsigned?5?$AA@ 300b86f8     LIBCMTD:undname.obj
 0002:00019704       ??_C@_05BEFAKPML@void?5?$AA@ 300b8704     LIBCMTD:undname.obj
 0002:0001970c       ??_C@_08PABEKFH@volatile?$AA@ 300b870c     LIBCMTD:undname.obj
 0002:00019718       ??_C@_0P@GCOCNKDM@std?3?3nullptr_t?$AA@ 300b8718     LIBCMTD:undname.obj
 0002:00019728       ??_C@_0L@EGPHHEKN@?$DMellipsis?$DO?$AA@ 300b8728     LIBCMTD:undname.obj
 0002:00019734       ??_C@_04EENFHACM@?0?4?4?4?$AA@ 300b8734     LIBCMTD:undname.obj
 0002:0001973c       ??_C@_0M@ELJOJFFH@?0?$DMellipsis?$DO?$AA@ 300b873c     LIBCMTD:undname.obj
 0002:00019748       ??_C@_07HDJPLPEK@?5throw?$CI?$AA@ 300b8748     LIBCMTD:undname.obj
 0002:00019750       ??_C@_03PBJBJNON@cpu?$AA@  300b8750     LIBCMTD:undname.obj
 0002:00019754       ??_C@_03DCBBJBAA@amp?$AA@  300b8754     LIBCMTD:undname.obj
 0002:00019758       ??_C@_02KEGNLNML@?0?5?$AA@ 300b8758     LIBCMTD:undname.obj
 0002:0001975c       ??_C@_04ENMBGAPA@char?$AA@ 300b875c     LIBCMTD:undname.obj
 0002:00019764       ??_C@_05BFKKPKCG@short?$AA@ 300b8764     LIBCMTD:undname.obj
 0002:0001976c       ??_C@_03JBIPMCLC@int?$AA@  300b876c     LIBCMTD:undname.obj
 0002:00019770       ??_C@_04GOKPGOLB@long?$AA@ 300b8770     LIBCMTD:undname.obj
 0002:00019778       ??_C@_05KNFBNCOH@float?$AA@ 300b8778     LIBCMTD:undname.obj
 0002:00019780       ??_C@_06BNJCAIGJ@double?$AA@ 300b8780     LIBCMTD:undname.obj
 0002:00019788       ??_C@_04DDKJGDCM@bool?$AA@ 300b8788     LIBCMTD:undname.obj
 0002:00019790       ??_C@_06EBGKOKIG@__int8?$AA@ 300b8790     LIBCMTD:undname.obj
 0002:00019798       ??_C@_07ICFHOGAF@__int16?$AA@ 300b8798     LIBCMTD:undname.obj
 0002:000197a0       ??_C@_07OFLPPHGP@__int32?$AA@ 300b87a0     LIBCMTD:undname.obj
 0002:000197a8       ??_C@_07LFCOJCAC@__int64?$AA@ 300b87a8     LIBCMTD:undname.obj
 0002:000197b0       ??_C@_08GAHOLHEO@__int128?$AA@ 300b87b0     LIBCMTD:undname.obj
 0002:000197bc       ??_C@_09EEKGDCPH@?$DMunknown?$DO?$AA@ 300b87bc     LIBCMTD:undname.obj
 0002:000197c8       ??_C@_07CLGGIAMF@wchar_t?$AA@ 300b87c8     LIBCMTD:undname.obj
 0002:000197d0       ??_C@_06GCICPBLB@__w64?5?$AA@ 300b87d0     LIBCMTD:undname.obj
 0002:000197d8       ??_C@_07NFANNNEC@UNKNOWN?$AA@ 300b87d8     LIBCMTD:undname.obj
 0002:000197e0       ??_C@_07EDHNAJHC@signed?5?$AA@ 300b87e0     LIBCMTD:undname.obj
 0002:000197e8       ??_C@_05BNCCCJPP@const?$AA@ 300b87e8     LIBCMTD:undname.obj
 0002:000197f0       ??_C@_09EFNPDFFP@?5volatile?$AA@ 300b87f0     LIBCMTD:undname.obj
 0002:000197fc       ??_C@_0P@GCIFDJCJ@?$GAunknown?5ecsu?8?$AA@ 300b87fc     LIBCMTD:undname.obj
 0002:0001980c       ??_C@_06MOJHIBMG@union?5?$AA@ 300b880c     LIBCMTD:undname.obj
 0002:00019814       ??_C@_07DIBCDNGL@struct?5?$AA@ 300b8814     LIBCMTD:undname.obj
 0002:0001981c       ??_C@_06LJBABKPM@class?5?$AA@ 300b881c     LIBCMTD:undname.obj
 0002:00019824       ??_C@_08KOFANOFK@coclass?5?$AA@ 300b8824     LIBCMTD:undname.obj
 0002:00019830       ??_C@_0N@DLIEFKNA@cointerface?5?$AA@ 300b8830     LIBCMTD:undname.obj
 0002:00019840       ??_C@_05LJGMCFOG@enum?5?$AA@ 300b8840     LIBCMTD:undname.obj
 0002:00019848       ??_C@_09GAIEOBLP@volatile?5?$AA@ 300b8848     LIBCMTD:undname.obj
 0002:00019854       ??_C@_06LIJLOJAG@const?5?$AA@ 300b8854     LIBCMTD:undname.obj
 0002:0001985c       ??_C@_0M@EALIELKG@cli?3?3array?$DM?$AA@ 300b885c     LIBCMTD:undname.obj
 0002:00019868       ??_C@_0O@GKABPPIF@cli?3?3pin_ptr?$DM?$AA@ 300b8868     LIBCMTD:undname.obj
 0002:00019878       ??_C@_02GOGNNPBN@?$CJ?$FL?$AA@ 300b8878     LIBCMTD:undname.obj
 0002:0001987c       ??_C@_06EEGAIFAK@?$HLflat?$HN?$AA@ 300b887c     LIBCMTD:undname.obj
 0002:00019884       ??_C@_05JIBOFOHK@?$HLfor?5?$AA@ 300b8884     LIBCMTD:undname.obj
 0002:0001988c       ??_C@_02MDINNEEG@s?5?$AA@  300b888c     LIBCMTD:undname.obj
 0002:00019894       ??_7DNameNode@@6B@         300b8894     LIBCMTD:undname.obj
 0002:000198a4       ??_7charNode@@6B@          300b88a4     LIBCMTD:undname.obj
 0002:000198b4       ??_7pcharNode@@6B@         300b88b4     LIBCMTD:undname.obj
 0002:000198c4       ??_7pDNameNode@@6B@        300b88c4     LIBCMTD:undname.obj
 0002:000198d4       ??_7DNameStatusNode@@6B@   300b88d4     LIBCMTD:undname.obj
 0002:000198e4       ??_7pairNode@@6B@          300b88e4     LIBCMTD:undname.obj
 0002:000198f0       ??_C@_04OKOHEJBO@?5?$DP?$DP?5?$AA@ 300b88f0     LIBCMTD:undname.obj
 0002:000198f8       __load_config_used         300b88f8     LIBCMTD:loadcfg.obj
 0002:000199b8       ??_R4bad_exception@std@@6B@ 300b89b8     LIBCMTD:frame.obj
 0002:000199cc       ??_R3bad_exception@std@@8  300b89cc     LIBCMTD:frame.obj
 0002:000199dc       ??_R2bad_exception@std@@8  300b89dc     LIBCMTD:frame.obj
 0002:000199e8       ??_R1A@?0A@EA@bad_exception@std@@8 300b89e8     LIBCMTD:frame.obj
 0002:00019a04       ??_R1A@?0A@EA@exception@std@@8 300b8a04     LIBCMTD:frame.obj
 0002:00019a20       ??_R3exception@std@@8      300b8a20     LIBCMTD:frame.obj
 0002:00019a30       ??_R2exception@std@@8      300b8a30     LIBCMTD:frame.obj
 0002:00019a38       ??_R4type_info@@6B@        300b8a38     LIBCMTD:typinfo.obj
 0002:00019a4c       ??_R3type_info@@8          300b8a4c     LIBCMTD:typinfo.obj
 0002:00019a5c       ??_R2type_info@@8          300b8a5c     LIBCMTD:typinfo.obj
 0002:00019a64       ??_R1A@?0A@EA@type_info@@8 300b8a64     LIBCMTD:typinfo.obj
 0002:00019a80       ??_R4exception@std@@6B@    300b8a80     LIBCMTD:stdexcpt.obj
 0002:00019a94       ??_R4bad_cast@std@@6B@     300b8a94     LIBCMTD:stdexcpt.obj
 0002:00019aa8       ??_R3bad_cast@std@@8       300b8aa8     LIBCMTD:stdexcpt.obj
 0002:00019ab8       ??_R2bad_cast@std@@8       300b8ab8     LIBCMTD:stdexcpt.obj
 0002:00019ac4       ??_R1A@?0A@EA@bad_cast@std@@8 300b8ac4     LIBCMTD:stdexcpt.obj
 0002:00019ae0       ??_R4bad_typeid@std@@6B@   300b8ae0     LIBCMTD:stdexcpt.obj
 0002:00019af4       ??_R3bad_typeid@std@@8     300b8af4     LIBCMTD:stdexcpt.obj
 0002:00019b04       ??_R2bad_typeid@std@@8     300b8b04     LIBCMTD:stdexcpt.obj
 0002:00019b10       ??_R1A@?0A@EA@bad_typeid@std@@8 300b8b10     LIBCMTD:stdexcpt.obj
 0002:00019b2c       ??_R4__non_rtti_object@std@@6B@ 300b8b2c     LIBCMTD:stdexcpt.obj
 0002:00019b40       ??_R3__non_rtti_object@std@@8 300b8b40     LIBCMTD:stdexcpt.obj
 0002:00019b50       ??_R2__non_rtti_object@std@@8 300b8b50     LIBCMTD:stdexcpt.obj
 0002:00019b60       ??_R1A@?0A@EA@__non_rtti_object@std@@8 300b8b60     LIBCMTD:stdexcpt.obj
 0002:00019b7c       ??_R4DNameNode@@6B@        300b8b7c     LIBCMTD:undname.obj
 0002:00019b90       ??_R3DNameNode@@8          300b8b90     LIBCMTD:undname.obj
 0002:00019ba0       ??_R2DNameNode@@8          300b8ba0     LIBCMTD:undname.obj
 0002:00019ba8       ??_R1A@?0A@EA@DNameNode@@8 300b8ba8     LIBCMTD:undname.obj
 0002:00019bc4       ??_R4charNode@@6B@         300b8bc4     LIBCMTD:undname.obj
 0002:00019bd8       ??_R3charNode@@8           300b8bd8     LIBCMTD:undname.obj
 0002:00019be8       ??_R2charNode@@8           300b8be8     LIBCMTD:undname.obj
 0002:00019bf4       ??_R1A@?0A@EA@charNode@@8  300b8bf4     LIBCMTD:undname.obj
 0002:00019c10       ??_R4pcharNode@@6B@        300b8c10     LIBCMTD:undname.obj
 0002:00019c24       ??_R3pcharNode@@8          300b8c24     LIBCMTD:undname.obj
 0002:00019c34       ??_R2pcharNode@@8          300b8c34     LIBCMTD:undname.obj
 0002:00019c40       ??_R1A@?0A@EA@pcharNode@@8 300b8c40     LIBCMTD:undname.obj
 0002:00019c5c       ??_R4pDNameNode@@6B@       300b8c5c     LIBCMTD:undname.obj
 0002:00019c70       ??_R3pDNameNode@@8         300b8c70     LIBCMTD:undname.obj
 0002:00019c80       ??_R2pDNameNode@@8         300b8c80     LIBCMTD:undname.obj
 0002:00019c8c       ??_R1A@?0A@EA@pDNameNode@@8 300b8c8c     LIBCMTD:undname.obj
 0002:00019ca8       ??_R4DNameStatusNode@@6B@  300b8ca8     LIBCMTD:undname.obj
 0002:00019cbc       ??_R3DNameStatusNode@@8    300b8cbc     LIBCMTD:undname.obj
 0002:00019ccc       ??_R2DNameStatusNode@@8    300b8ccc     LIBCMTD:undname.obj
 0002:00019cd8       ??_R1A@?0A@EA@DNameStatusNode@@8 300b8cd8     LIBCMTD:undname.obj
 0002:00019cf4       ??_R4pairNode@@6B@         300b8cf4     LIBCMTD:undname.obj
 0002:00019d08       ??_R3pairNode@@8           300b8d08     LIBCMTD:undname.obj
 0002:00019d18       ??_R2pairNode@@8           300b8d18     LIBCMTD:undname.obj
 0002:00019d24       ??_R1A@?0A@EA@pairNode@@8  300b8d24     LIBCMTD:undname.obj
 0002:00019d40       ___safe_se_handler_table   300b8d40     <linker-defined>
 0002:00019d70       ___rtc_iaa                 300b8d70     LIBCMTD:initsect.obj
 0002:00019d74       ___rtc_izz                 300b8d74     LIBCMTD:initsect.obj
 0002:00019d78       ___rtc_taa                 300b8d78     LIBCMTD:initsect.obj
 0002:00019d7c       ___rtc_tzz                 300b8d7c     LIBCMTD:initsect.obj
 0002:0001a59c       __TI2?AVbad_exception@std@@ 300b959c     LIBCMTD:frame.obj
 0002:0001a5ac       __CTA2?AVbad_exception@std@@ 300b95ac     LIBCMTD:frame.obj
 0002:0001a5b8       __CT??_R0?AVbad_exception@std@@@8??0bad_exception@std@@QAE@ABV01@@Z12 300b95b8     LIBCMTD:frame.obj
 0002:0001a5d4       __CT??_R0?AVexception@std@@@8??0exception@std@@QAE@ABV01@@Z12 300b95d4     LIBCMTD:frame.obj
 0002:0001a848       __IMPORT_DESCRIPTOR_KERNEL32 300b9848     kernel32:KERNEL32.dll
 0002:0001a85c       __NULL_IMPORT_DESCRIPTOR   300b985c     kernel32:KERNEL32.dll
 0003:00000000       _eventnames                300bb000     bg_misc.obj
 0003:00000130       _bg_itemlist               300bb130     bg_misc.obj
 0003:000008b4       _bg_numItems               300bb8b4     bg_misc.obj
 0003:000008b8       _pm_stopspeed              300bb8b8     bg_pmove.obj
 0003:000008bc       _pm_duckScale              300bb8bc     bg_pmove.obj
 0003:000008c0       _pm_swimScale              300bb8c0     bg_pmove.obj
 0003:000008c4       _pm_wadeScale              300bb8c4     bg_pmove.obj
 0003:000008c8       _pm_accelerate             300bb8c8     bg_pmove.obj
 0003:000008cc       _pm_airaccelerate          300bb8cc     bg_pmove.obj
 0003:000008d0       _pm_wateraccelerate        300bb8d0     bg_pmove.obj
 0003:000008d4       _pm_flyaccelerate          300bb8d4     bg_pmove.obj
 0003:000008d8       _pm_friction               300bb8d8     bg_pmove.obj
 0003:000008dc       _pm_waterfriction          300bb8dc     bg_pmove.obj
 0003:000008e0       _pm_flightfriction         300bb8e0     bg_pmove.obj
 0003:000008e4       _pm_spectatorfriction      300bb8e4     bg_pmove.obj
 0003:00000a00       _drawTeamOverlayModificationCount 300bba00     cg_draw.obj
 0003:00001188       _forceModelModificationCount 300bc188     cg_main.obj
 0003:000018d0       _cl_numparticles           300bc8d0     cg_marks.obj
 0003:000018d8       _cg_customSoundNames       300bc8d8     cg_players.obj
 0003:00001998       _bytedirs                  300bc998     q_math.obj
 0003:00002130       _colorBlack                300bd130     q_math.obj
 0003:00002140       _colorRed                  300bd140     q_math.obj
 0003:00002150       _colorGreen                300bd150     q_math.obj
 0003:00002160       _colorBlue                 300bd160     q_math.obj
 0003:00002170       _colorYellow               300bd170     q_math.obj
 0003:00002180       _colorMagenta              300bd180     q_math.obj
 0003:00002190       _colorCyan                 300bd190     q_math.obj
 0003:000021a0       _colorWhite                300bd1a0     q_math.obj
 0003:000021b0       _colorLtGrey               300bd1b0     q_math.obj
 0003:000021c0       _colorMdGrey               300bd1c0     q_math.obj
 0003:000021d0       _colorDkGrey               300bd1d0     q_math.obj
 0003:000021e0       _g_color_table             300bd1e0     q_math.obj
 0003:00002260       _axisDefault               300bd260     q_math.obj
 0003:00002284       ?__LINE__Var@?1??ProjectPointOnPlane@@9@9 300bd284     q_math.obj
 0003:00002828       _commandList               300bd828     ui_shared.obj
 0003:000028d0       _scriptCommandCount        300bd8d0     ui_shared.obj
 0003:00002948       _itemParseKeywords         300bd948     ui_shared.obj
 0003:00002c40       _menuParseKeywords         300bdc40     ui_shared.obj
 0003:00002db8       ___security_cookie         300bddb8     LIBCMTD:gs_cookie.obj
 0003:00002dbc       ___security_cookie_complement 300bddbc     LIBCMTD:gs_cookie.obj
 0003:00002dc0       __fltused                  300bddc0     LIBCMTD:fpinit.obj
 0003:00002dc4       __ldused                   300bddc4     LIBCMTD:fpinit.obj
 0003:00002f48       __d_inf                    300bdf48     LIBCMTD:util.obj
 0003:00002f50       __d_ind                    300bdf50     LIBCMTD:util.obj
 0003:00002f58       __d_max                    300bdf58     LIBCMTD:util.obj
 0003:00002f60       __d_min                    300bdf60     LIBCMTD:util.obj
 0003:00002f68       __d_mzero                  300bdf68     LIBCMTD:util.obj
 0003:00003104       ___ptmbcinfo               300be104     LIBCMTD:mbctype.obj
 0003:000031f8       __mbctype                  300be1f8     LIBCMTD:mbctype.obj
 0003:00003300       __mbcasemap                300be300     LIBCMTD:mbctype.obj
 0003:00003400       ___initialmbcinfo          300be400     LIBCMTD:mbctype.obj
 0003:00003620       ___flsindex                300be620     LIBCMTD:tidtable.obj
 0003:00003628       ___wclocalestr             300be628     LIBCMTD:nlsdata.obj
 0003:00003630       ___lc_time_c               300be630     LIBCMTD:nlsdata.obj
 0003:00003794       ___ptlocinfo               300be794     LIBCMTD:nlsdata.obj
 0003:00003798       ___initiallocinfo          300be798     LIBCMTD:nlsdata.obj
 0003:00003850       ___initiallocalestructinfo 300be850     LIBCMTD:nlsdata.obj
 0003:00003858       ___mb_cur_max              300be858     LIBCMTD:nlsdata.obj
 0003:0000385c       ___globallocalestatus      300be85c     LIBCMTD:glstatus.obj
 0003:00003860       __cfltcvt_tab              300be860     LIBCMTD:cmiscdat.obj
 0003:00003888       ___isa_enabled             300be888     LIBCMTD:cpu_disp.obj
 0003:0000388c       __pfnAllocHook             300be88c     LIBCMTD:dbghook.obj
 0003:00003894       ___nullstring              300be894     LIBCMTD:output.obj
 0003:00003898       ___wnullstring             300be898     LIBCMTD:output.obj
 0003:000038a0       ___abort_behavior          300be8a0     LIBCMTD:abort.obj
 0003:000038a8       __iob                      300be8a8     LIBCMTD:_file.obj
 0003:00003b30       ___badioinfo               300beb30     LIBCMTD:ioinit.obj
 0003:00003b78       __crtDbgFlag               300beb78     LIBCMTD:dbgheap.obj
 0003:00003b7c       __crtBreakAlloc            300beb7c     LIBCMTD:dbgheap.obj
 0003:00003b80       ___crtDebugFillThreshold   300beb80     LIBCMTD:dbgheap.obj
 0003:00003b84       __matherr_flag             300beb84     LIBCMTD:matherr.obj
 0003:00003bb8       __pow10pos                 300bebb8     LIBCMTD:constpow.obj
 0003:00003d18       __pow10neg                 300bed18     LIBCMTD:constpow.obj
 0003:00003f98       ___lconv                   300bef98     LIBCMTD:lconv.obj
 0003:00003f9c       ___lconv_static_decimal    300bef9c     LIBCMTD:lconv.obj
 0003:00003fa0       ___lconv_c                 300befa0     LIBCMTD:lconv.obj
 0003:00003ff0       ___lconv_static_W_decimal  300beff0     LIBCMTD:lconv.obj
 0003:00003ff4       __CrtDbgMode               300beff4     LIBCMTD:dbgrptt.obj
 0003:00004000       __CrtDbgFile               300bf000     LIBCMTD:dbgrptt.obj
 0003:0000400c       __crtAssertBusy            300bf00c     LIBCMTD:dbgrptt.obj
 0003:00004010       __pctype                   300bf010     LIBCMTD:ctype.obj
 0003:00004014       __pwctype                  300bf014     LIBCMTD:ctype.obj
 0003:00004030       ??_R0?AVbad_exception@std@@@8 300bf030     LIBCMTD:frame.obj
 0003:00004050       ??_R0?AVexception@std@@@8  300bf050     LIBCMTD:frame.obj
 0003:00004070       __NLG_Destination          300bf070     LIBCMTD:exsup.obj
 0003:00004080       ??_R0?AVtype_info@@@8      300bf080     LIBCMTD:typinfo.obj
 0003:00004098       ??_R0?AVbad_cast@std@@@8   300bf098     LIBCMTD:stdexcpt.obj
 0003:000040b4       ??_R0?AVbad_typeid@std@@@8 300bf0b4     LIBCMTD:stdexcpt.obj
 0003:000040d4       ??_R0?AV__non_rtti_object@std@@@8 300bf0d4     LIBCMTD:stdexcpt.obj
 0003:000040f8       __confh                    300bf0f8     LIBCMTD:initcon.obj
 0003:000040fc       ??_R0?AVDNameNode@@@8      300bf0fc     LIBCMTD:undname.obj
 0003:00004114       ??_R0?AVcharNode@@@8       300bf114     LIBCMTD:undname.obj
 0003:0000412c       ??_R0?AVpcharNode@@@8      300bf12c     LIBCMTD:undname.obj
 0003:00004144       ??_R0?AVpDNameNode@@@8     300bf144     LIBCMTD:undname.obj
 0003:00004160       ??_R0?AVDNameStatusNode@@@8 300bf160     LIBCMTD:undname.obj
 0003:00004180       ??_R0?AVpairNode@@@8       300bf180     LIBCMTD:undname.obj
 0003:000041a0       _c_pmove                   300bf1a0     bg_pmove.obj
 0003:000046c8       _initparticles             300bf6c8     cg_marks.obj
 0003:00006fcc       _vec3_origin               300c1fcc     q_math.obj
 0003:0001d238       _DC                        300d8238     ui_shared.obj
 0003:0001d24c       _menuCount                 300d824c     ui_shared.obj
 0003:0001d250       _openMenuCount             300d8250     ui_shared.obj
 0003:001812a0       ___fastflag                3023c2a0     LIBCMTD:fpinit.obj
 0003:001815c8       __aenvptr                  3023c5c8     LIBCMTD:dllcrt0.obj
 0003:001815cc       __wenvptr                  3023c5cc     LIBCMTD:dllcrt0.obj
 0003:001815d4       ___pInvalidArgHandler      3023c5d4     LIBCMTD:invarg.obj
 0003:001815d8       ___mblocalename            3023c5d8     LIBCMTD:mbctype.obj
 0003:001815dc       ___mbcodepage              3023c5dc     LIBCMTD:mbctype.obj
 0003:001815e0       ___ismbcodepage            3023c5e0     LIBCMTD:mbctype.obj
 0003:001815e4       ___mbulinfo                3023c5e4     LIBCMTD:mbctype.obj
 0003:001815f4       ___isa_available           3023c5f4     LIBCMTD:cpu_disp.obj
 0003:001815f8       ___favor                   3023c5f8     LIBCMTD:cpu_disp.obj
 0003:00181600       __umaskval                 3023c600     LIBCMTD:crt0dat.obj
 0003:00181604       __exitflag                 3023c604     LIBCMTD:crt0dat.obj
 0003:00181608       __C_Termination_Done       3023c608     LIBCMTD:crt0dat.obj
 0003:0018160c       ___winitenv                3023c60c     LIBCMTD:crt0dat.obj
 0003:00181610       ___initenv                 3023c610     LIBCMTD:crt0dat.obj
 0003:00181614       __C_Exit_Done              3023c614     LIBCMTD:crt0dat.obj
 0003:0018161c       ___argc                    3023c61c     LIBCMTD:crt0dat.obj
 0003:00181620       ___argv                    3023c620     LIBCMTD:crt0dat.obj
 0003:00181624       ___wargv                   3023c624     LIBCMTD:crt0dat.obj
 0003:00181628       __environ                  3023c628     LIBCMTD:crt0dat.obj
 0003:0018162c       __wenviron                 3023c62c     LIBCMTD:crt0dat.obj
 0003:00181630       __pgmptr                   3023c630     LIBCMTD:crt0dat.obj
 0003:00181634       __wpgmptr                  3023c634     LIBCMTD:crt0dat.obj
 0003:00181638       ___error_mode              3023c638     LIBCMTD:errmode.obj
 0003:0018163c       __cflush                   3023c63c     LIBCMTD:_file.obj
 0003:00181668       ___app_type                3023c668     LIBCMTD:crt0msg.obj
 0003:00181c98       ___locale_changed          3023cc98     LIBCMTD:wsetloca.obj
 0003:00181c9c       __crtheap                  3023cc9c     LIBCMTD:heapinit.obj
 0003:00181ca0       ___pioinfo                 3023cca0     LIBCMTD:ioinit.obj
 0003:00181ea8       ___crtDebugCheckCount      3023cea8     LIBCMTD:dbgheap.obj
 0003:00181eb0       ?_pfnDumpClient@@3P6AXPAXI@ZA 3023ceb0     LIBCMTD:dbgheap.obj
 0003:00182038       ___lconv_static_null       3023d038     LIBCMTD:lconv.obj
 0003:0018203c       ___lconv_static_W_null     3023d03c     LIBCMTD:lconv.obj
 0003:00182040       __outputformat             3023d040     LIBCMTD:outputformat.obj
 0003:00182048       ?__pInconsistency@@3P6AXXZA 3023d048     LIBCMTD:hooks.obj
 0003:0018204c       ?_pnhHeap@@3P6AHI@ZA       3023d04c     LIBCMTD:handler.obj
 0003:00182050       ___pPurecall               3023d050     LIBCMTD:inithelp.obj
 0003:00182058       __stdbuf                   3023d058     LIBCMTD:_sftbuf.obj
 0003:00182064       __newmode                  3023d064     LIBCMTD:_newmode.obj
 0003:00182070       ?pArgList@UnDecorator@@0PAVReplicator@@A 3023d070     LIBCMTD:undname.obj
 0003:00182074       ?pZNameList@UnDecorator@@0PAVReplicator@@A 3023d074     LIBCMTD:undname.obj
 0003:00182078       ?pTemplateArgList@UnDecorator@@0PAVReplicator@@A 3023d078     LIBCMTD:undname.obj
 0003:0018207c       ?gName@UnDecorator@@0PBDB  3023d07c     LIBCMTD:undname.obj
 0003:00182080       ?name@UnDecorator@@0PBDB   3023d080     LIBCMTD:undname.obj
 0003:00182084       ?outputString@UnDecorator@@0PADA 3023d084     LIBCMTD:undname.obj
 0003:00182088       ?maxStringLength@UnDecorator@@0HA 3023d088     LIBCMTD:undname.obj
 0003:0018208c       ?disableFlags@UnDecorator@@0KA 3023d08c     LIBCMTD:undname.obj
 0003:00182090       ?fExplicitTemplateParams@UnDecorator@@0_NA 3023d090     LIBCMTD:undname.obj
 0003:00182091       ?fGetTemplateArgumentList@UnDecorator@@0_NA 3023d091     LIBCMTD:undname.obj
 0003:00182094       ?m_pGetParameter@UnDecorator@@0P6APADJ@ZA 3023d094     LIBCMTD:undname.obj
 0003:00182100       ?nodes@?1??make@DNameStatusNode@@SAPAV2@W4DNameStatus@@@Z@4PAV2@A 3023d100     LIBCMTD:undname.obj
 0003:00182130       ??_B?1??make@DNameStatusNode@@SAPAV1@W4DNameStatus@@@Z@51 3023d130     LIBCMTD:undname.obj
 0003:00182140       _menuParseKeywordHash      3023d140     <common>
 0003:00182940       _itemParseKeywordHash      3023d940     <common>
 0003:00183140       _menuStack                 3023e140     <common>
 0003:00183180       _Menus                     3023e180     <common>
 0003:0018d280       _g_nameBind2               30248280     <common>
 0003:0018d2a0       _g_nameBind1               302482a0     <common>
 0003:0018d2c0       _voiceChatBuffer           302482c0     <common>
 0003:0018f9c0       _headModelVoiceChat        3024a9c0     <common>
 0003:00190ac0       _voiceChatLists            3024bac0     <common>
 0003:003b9500       _cg_markPolys              30474500     <common>
 0003:003cb500       _oldtime                   30486500     <common>
 0003:003cb510       _rup                       30486510     <common>
 0003:003cb520       _rright                    30486520     <common>
 0003:003cb530       _rforward                  30486530     <common>
 0003:003cb540       _pvup                      30486540     <common>
 0003:003cb550       _pvright                   30486550     <common>
 0003:003cb560       _pvforward                 30486560     <common>
 0003:003cb580       _particles                 30486580     <common>
 0003:003ea580       _free_particles            304a5580     <common>
 0003:003ea584       _active_particles          304a5584     <common>
 0003:003ea588       _cg_freeMarkPolys          304a5588     <common>
 0003:003ea5a0       _cg_activeMarkPolys        304a55a0     <common>
 0003:003ea6c0       _cg_trueLightning          304a56c0     <common>
 0003:003ea7e0       _cg_oldPlasma              304a57e0     <common>
 0003:003ea900       _cg_oldRocket              304a5900     <common>
 0003:003eaa20       _cg_oldRail                304a5a20     <common>
 0003:003eab40       _cg_noProjectileTrail      304a5b40     <common>
 0003:003eac60       _cg_noTaunt                304a5c60     <common>
 0003:003ead80       _cg_bigFont                304a5d80     <common>
 0003:003eaea0       _cg_smallFont              304a5ea0     <common>
 0003:003eafc0       _cg_cameraMode             304a5fc0     <common>
 0003:003eb0e0       _cg_timescale              304a60e0     <common>
 0003:003eb200       _cg_timescaleFadeSpeed     304a6200     <common>
 0003:003eb320       _cg_timescaleFadeEnd       304a6320     <common>
 0003:003eb440       _cg_cameraOrbitDelay       304a6440     <common>
 0003:003eb560       _cg_cameraOrbit            304a6560     <common>
 0003:003eb680       _pmove_msec                304a6680     <common>
 0003:003eb7a0       _pmove_fixed               304a67a0     <common>
 0003:003eb8c0       _cg_smoothClients          304a68c0     <common>
 0003:003eb9e0       _cg_scorePlum              304a69e0     <common>
 0003:003ebb00       _cg_noVoiceText            304a6b00     <common>
 0003:003ebc20       _cg_noVoiceChats           304a6c20     <common>
 0003:003ebd40       _cg_teamChatsOnly          304a6d40     <common>
 0003:003ebe60       _cg_drawFriend             304a6e60     <common>
 0003:003ebf80       _cg_deferPlayers           304a6f80     <common>
 0003:003ec0a0       _cg_predictItems           304a70a0     <common>
 0003:003ec1c0       _cg_blood                  304a71c0     <common>
 0003:003ec2e0       _cg_paused                 304a72e0     <common>
 0003:003ec400       _cg_buildScript            304a7400     <common>
 0003:003ec520       _cg_forceModel             304a7520     <common>
 0003:003ec640       _cg_stats                  304a7640     <common>
 0003:003ec760       _cg_teamChatHeight         304a7760     <common>
 0003:003ec880       _cg_teamChatTime           304a7880     <common>
 0003:003ec9a0       _cg_synchronousClients     304a79a0     <common>
 0003:003ecac0       _cg_drawAttacker           304a7ac0     <common>
 0003:003ecbe0       _cg_lagometer              304a7be0     <common>
 0003:003ecd00       _cg_stereoSeparation       304a7d00     <common>
 0003:003ece20       _cg_thirdPerson            304a7e20     <common>
 0003:003ecf40       _cg_thirdPersonAngle       304a7f40     <common>
 0003:003ed060       _cg_thirdPersonRange       304a8060     <common>
 0003:003ed180       _cg_zoomFov                304a8180     <common>
 0003:003ed2a0       _cg_fov                    304a82a0     <common>
 0003:003ed3c0       _cg_simpleItems            304a83c0     <common>
 0003:003ed4e0       _cg_ignore                 304a84e0     <common>
 0003:003ed600       _cg_autoswitch             304a8600     <common>
 0003:003ed720       _cg_tracerLength           304a8720     <common>
 0003:003ed840       _cg_tracerWidth            304a8840     <common>
 0003:003ed960       _cg_tracerChance           304a8960     <common>
 0003:003eda80       _cg_viewsize               304a8a80     <common>
 0003:003edba0       _cg_drawGun                304a8ba0     <common>
 0003:003edcc0       _cg_gun_z                  304a8cc0     <common>
 0003:003edde0       _cg_gun_y                  304a8de0     <common>
 0003:003edf00       _cg_gun_x                  304a8f00     <common>
 0003:003ee020       _cg_gun_frame              304a9020     <common>
 0003:003ee140       _cg_brassTime              304a9140     <common>
 0003:003ee260       _cg_addMarks               304a9260     <common>
 0003:003ee380       _cg_footsteps              304a9380     <common>
 0003:003ee4a0       _cg_showmiss               304a94a0     <common>
 0003:003ee5c0       _cg_noPlayerAnims          304a95c0     <common>
 0003:003ee6e0       _cg_nopredict              304a96e0     <common>
 0003:003ee800       _cg_errorDecay             304a9800     <common>
 0003:003ee920       _cg_railTrailTime          304a9920     <common>
 0003:003eea40       _cg_debugEvents            304a9a40     <common>
 0003:003eeb60       _cg_debugPosition          304a9b60     <common>
 0003:003eec80       _cg_debugAnim              304a9c80     <common>
 0003:003eeda0       _cg_animSpeed              304a9da0     <common>
 0003:003eeec0       _cg_draw2D                 304a9ec0     <common>
 0003:003eefe0       _cg_drawStatus             304a9fe0     <common>
 0003:003ef100       _cg_crosshairHealth        304aa100     <common>
 0003:003ef220       _cg_crosshairSize          304aa220     <common>
 0003:003ef340       _cg_crosshairY             304aa340     <common>
 0003:003ef460       _cg_crosshairX             304aa460     <common>
 0003:003ef580       _cg_teamOverlayUserinfo    304aa580     <common>
 0003:003ef6a0       _cg_drawTeamOverlay        304aa6a0     <common>
 0003:003ef7c0       _cg_drawRewards            304aa7c0     <common>
 0003:003ef8e0       _cg_drawCrosshairNames     304aa8e0     <common>
 0003:003efa00       _cg_drawCrosshair          304aaa00     <common>
 0003:003efb20       _cg_drawAmmoWarning        304aab20     <common>
 0003:003efc40       _cg_drawIcons              304aac40     <common>
 0003:003efd60       _cg_draw3dIcons            304aad60     <common>
 0003:003efe80       _cg_drawSnapshot           304aae80     <common>
 0003:003effa0       _cg_drawFPS                304aafa0     <common>
 0003:003f00c0       _cg_drawTimer              304ab0c0     <common>
 0003:003f01e0       _cg_gibs                   304ab1e0     <common>
 0003:003f0300       _cg_shadows                304ab300     <common>
 0003:003f0420       _cg_swingSpeed             304ab420     <common>
 0003:003f0540       _cg_bobroll                304ab540     <common>
 0003:003f0660       _cg_bobpitch               304ab660     <common>
 0003:003f0780       _cg_bobup                  304ab780     <common>
 0003:003f08a0       _cg_runroll                304ab8a0     <common>
 0003:003f09c0       _cg_runpitch               304ab9c0     <common>
 0003:003f0ae0       _cg_centertime             304abae0     <common>
 0003:003f0c00       _cg_items                  304abc00     <common>
 0003:003f2400       _cg_weapons                304ad400     <common>
 0003:003f2c80       _cg_entities               304adc80     <common>
 0003:004a8ca0       _cg                        30563ca0     <common>
 0003:004c74e0       _cgs                       305824e0     <common>
 0003:004ecc00       _cg_pmove_msec             305a7c00     <common>
 0003:004ecd20       _cg_hudFiles               305a7d20     <common>
 0003:004ece30       _cg_freeLocalEntities      305a7e30     <common>
 0003:004ece40       _cg_activeLocalEntities    305a7e40     <common>
 0003:004ecf80       _cg_localEntities          305a7f80     <common>
 0003:00511780       _teamChat2                 305cc780     <common>
 0003:00511880       _teamChat1                 305cc880     <common>
 0003:00511980       _systemChat                305cc980     <common>
 0003:00511a80       _numSortedTeamPlayers      305cca80     <common>
 0003:00511aa0       _sortedTeamPlayers         305ccaa0     <common>
 0003:00511b20       _lagometer                 305ccb20     <common>
 0003:00512140       _pml                       305cd140     <common>
 0003:005121cc       _pm                        305cd1cc     <common>
 0003:005121d0       __pReportHookListW         305cd1d0     <common>
 0003:005121d4       __pReportHookList          305cd1d4     <common>
 0003:005121d8       __pfnReportHook            305cd1d8     <common>
 0003:005121dc       __nhandle                  305cd1dc     <common>
 0003:005121e0       ___unguarded_readlc_active 305cd1e0     <common>
 0003:005121e4       ___setlc_active            305cd1e4     <common>
 0003:005121e8       ___piob                    305cd1e8     <common>
 0003:005121ec       __nstream                  305cd1ec     <common>
 0003:00512200       __bufin                    305cd200     <common>
 0003:00513200       ___dyn_tls_init_callback   305ce200     <common>
 0003:00513204       ___onexitend               305ce204     <common>
 0003:00513208       ___onexitbegin             305ce208     <common>
 0003:0051320c       ___mbctype_initialized     305ce20c     <common>
 0003:00513210       ___env_initialized         305ce210     <common>
 0003:00513214       __pmatherr                 305ce214     <common>
 0003:00513220       _encodedKERNEL32Functions  305ce220     <common>
 0003:00513294       __debugger_hook_dummy      305ce294     <common>
 0003:00513298       ___use_sse2_mathfcns       305ce298     <common>
 0003:0051329c       __acmdln                   305ce29c     <common>

 entry point at        0001:00054e20

 Static symbols

 0000:ffa24000       .debug$S                   30000000     kernel32:KERNEL32.dll
 0000:ffa24000       .debug$S                   30000000     kernel32:KERNEL32.dll
 0000:ffa24000       .debug$S                   30000000     kernel32:KERNEL32.dll
 0000:ffa24000       .debug$S                   30000000     kernel32:KERNEL32.dll
 0000:ffa24000       .debug$S                   30000000     kernel32:KERNEL32.dll
 0000:ffa24000       .debug$S                   30000000     kernel32:KERNEL32.dll
 0000:ffa24000       .debug$S                   30000000     kernel32:KERNEL32.dll
 0000:ffa24000       .debug$S                   30000000     kernel32:KERNEL32.dll
 0000:ffa24000       .debug$S                   30000000     kernel32:KERNEL32.dll
 0000:ffa24000       .debug$S                   30000000     kernel32:KERNEL32.dll
 0000:ffa24000       .debug$S                   30000000     kernel32:KERNEL32.dll
 0000:ffa24000       .debug$S                   30000000     kernel32:KERNEL32.dll
 0000:ffa24000       .debug$S                   30000000     kernel32:KERNEL32.dll
 0000:ffa24000       .debug$S                   30000000     kernel32:KERNEL32.dll
 0000:ffa24000       .debug$S                   30000000     kernel32:KERNEL32.dll
 0000:ffa24000       .debug$S                   30000000     kernel32:KERNEL32.dll
 0000:ffa24000       .debug$S                   30000000     kernel32:KERNEL32.dll
 0000:ffa24000       .debug$S                   30000000     kernel32:KERNEL32.dll
 0000:ffa24000       .debug$S                   30000000     kernel32:KERNEL32.dll
 0000:ffa24000       .debug$S                   30000000     kernel32:KERNEL32.dll
 0000:ffa24000       .debug$S                   30000000     kernel32:KERNEL32.dll
 0000:ffa24000       .debug$S                   30000000     kernel32:KERNEL32.dll
 0000:ffa24000       .debug$S                   30000000     kernel32:KERNEL32.dll
 0000:ffa24000       .debug$S                   30000000     kernel32:KERNEL32.dll
 0000:ffa24000       .debug$S                   30000000     kernel32:KERNEL32.dll
 0000:ffa24000       .debug$S                   30000000     kernel32:KERNEL32.dll
 0000:ffa24000       .debug$S                   30000000     kernel32:KERNEL32.dll
 0000:ffa24000       .debug$S                   30000000     kernel32:KERNEL32.dll
 0000:ffa24000       .debug$S                   30000000     kernel32:KERNEL32.dll
 0000:ffa24000       .debug$S                   30000000     kernel32:KERNEL32.dll
 0000:ffa24000       .debug$S                   30000000     kernel32:KERNEL32.dll
 0000:ffa24000       .debug$S                   30000000     kernel32:KERNEL32.dll
 0000:ffa24000       .debug$S                   30000000     kernel32:KERNEL32.dll
 0000:ffa24000       .debug$S                   30000000     kernel32:KERNEL32.dll
 0000:ffa24000       .debug$S                   30000000     kernel32:KERNEL32.dll
 0000:ffa24000       .debug$S                   30000000     kernel32:KERNEL32.dll
 0000:ffa24000       .debug$S                   30000000     kernel32:KERNEL32.dll
 0000:ffa24000       .debug$S                   30000000     kernel32:KERNEL32.dll
 0000:ffa24000       .debug$S                   30000000     kernel32:KERNEL32.dll
 0000:ffa24000       .debug$S                   30000000     kernel32:KERNEL32.dll
 0000:ffa24000       .debug$S                   30000000     kernel32:KERNEL32.dll
 0000:ffa24000       .debug$S                   30000000     kernel32:KERNEL32.dll
 0000:ffa24000       .debug$S                   30000000     kernel32:KERNEL32.dll
 0000:ffa24000       .debug$S                   30000000     kernel32:KERNEL32.dll
 0000:ffa24000       .debug$S                   30000000     kernel32:KERNEL32.dll
 0000:ffa24000       .debug$S                   30000000     kernel32:KERNEL32.dll
 0000:ffa24000       .debug$S                   30000000     kernel32:KERNEL32.dll
 0000:ffa24000       .debug$S                   30000000     kernel32:KERNEL32.dll
 0000:ffa24000       .debug$S                   30000000     kernel32:KERNEL32.dll
 0000:ffa24000       .debug$S                   30000000     kernel32:KERNEL32.dll
 0000:ffa24000       .debug$S                   30000000     kernel32:KERNEL32.dll
 0000:ffa24000       .debug$S                   30000000     kernel32:KERNEL32.dll
 0000:ffa24000       .debug$S                   30000000     kernel32:KERNEL32.dll
 0000:ffa24000       .debug$S                   30000000     kernel32:KERNEL32.dll
 0000:ffa24000       .debug$S                   30000000     kernel32:KERNEL32.dll
 0000:ffa24000       .debug$S                   30000000     kernel32:KERNEL32.dll
 0000:ffa24000       .debug$S                   30000000     kernel32:KERNEL32.dll
 0000:ffa24000       .debug$S                   30000000     kernel32:KERNEL32.dll
 0000:ffa24000       .debug$S                   30000000     kernel32:KERNEL32.dll
 0000:ffa24000       .debug$S                   30000000     kernel32:KERNEL32.dll
 0000:ffa24000       .debug$S                   30000000     kernel32:KERNEL32.dll
 0000:ffa24000       .debug$S                   30000000     kernel32:KERNEL32.dll
 0000:ffa24000       .debug$S                   30000000     kernel32:KERNEL32.dll
 0000:ffa24000       .debug$S                   30000000     kernel32:KERNEL32.dll
 0000:ffa24000       .debug$S                   30000000     kernel32:KERNEL32.dll
 0000:ffa24000       .debug$S                   30000000     kernel32:KERNEL32.dll
 0000:ffa24000       .debug$S                   30000000     kernel32:KERNEL32.dll
 0000:ffa24000       .debug$S                   30000000     kernel32:KERNEL32.dll
 0000:ffa24000       .debug$S                   30000000     kernel32:KERNEL32.dll
 0000:ffa24000       .debug$S                   30000000     kernel32:KERNEL32.dll
 0000:ffa24000       .debug$S                   30000000     kernel32:KERNEL32.dll
 0000:ffa24000       .debug$S                   30000000     kernel32:KERNEL32.dll
 0000:ffa24000       .debug$S                   30000000     kernel32:KERNEL32.dll
 0000:ffa24000       .debug$S                   30000000     kernel32:KERNEL32.dll
 0000:ffa24000       .debug$S                   30000000     kernel32:KERNEL32.dll
 0000:ffa24000       .debug$S                   30000000     kernel32:KERNEL32.dll
 0000:ffa24000       .debug$S                   30000000     kernel32:KERNEL32.dll
 0000:ffa24000       .debug$S                   30000000     kernel32:KERNEL32.dll
 0000:ffa24000       .debug$S                   30000000     kernel32:KERNEL32.dll
 0000:ffa24000       .debug$S                   30000000     kernel32:KERNEL32.dll
 0000:ffa24000       .debug$S                   30000000     kernel32:KERNEL32.dll
 0000:ffa24000       .debug$S                   30000000     kernel32:KERNEL32.dll
 0000:ffa24000       .debug$S                   30000000     kernel32:KERNEL32.dll
 0001:0000033c       $LN33                      3000133c     bg_misc.obj
 0001:000007e8       $LN13                      300017e8     bg_misc.obj
 0001:00000b24       $LN12                      30001b24     bg_misc.obj
 0001:00001870       _PM_Accelerate             30002870 f   bg_pmove.obj
 0001:00001a60       _PM_AirMove                30002a60 f   bg_pmove.obj
 0001:00001c70       _PM_Animate                30002c70 f   bg_pmove.obj
 0001:00001cc0       _PM_BeginWeaponChange      30002cc0 f   bg_pmove.obj
 0001:00001d60       _PM_CheckDuck              30002d60 f   bg_pmove.obj
 0001:00002190       _PM_CheckJump              30003190 f   bg_pmove.obj
 0001:000022b0       _PM_CheckWaterJump         300032b0 f   bg_pmove.obj
 0001:000026a0       _PM_CmdScale               300036a0 f   bg_pmove.obj
 0001:000027b0       _PM_ContinueLegsAnim       300037b0 f   bg_pmove.obj
 0001:00002800       _PM_ContinueTorsoAnim      30003800 f   bg_pmove.obj
 0001:00002850       _PM_CorrectAllSolid        30003850 f   bg_pmove.obj
 0001:00002b10       _PM_CrashLand              30003b10 f   bg_pmove.obj
 0001:00002db0       _PM_DeadMove               30003db0 f   bg_pmove.obj
 0001:00002f10       _PM_DropTimers             30003f10 f   bg_pmove.obj
 0001:00003010       _PM_FinishWeaponChange     30004010 f   bg_pmove.obj
 0001:000030b0       _PM_FlyMove                300040b0 f   bg_pmove.obj
 0001:00003270       _PM_FootstepForSurface     30004270 f   bg_pmove.obj
 0001:000032b0       _PM_Footsteps              300042b0 f   bg_pmove.obj
 0001:00003570       _PM_ForceLegsAnim          30004570 f   bg_pmove.obj
 0001:000035a0       _PM_Friction               300045a0 f   bg_pmove.obj
 0001:00003870       _PM_GrappleMove            30004870 f   bg_pmove.obj
 0001:00003be0       _PM_GroundTrace            30004be0 f   bg_pmove.obj
 0001:00003f90       _PM_GroundTraceMissed      30004f90 f   bg_pmove.obj
 0001:00004150       _PM_NoclipMove             30005150 f   bg_pmove.obj
 0001:00004590       _PM_SetMovementDir         30005590 f   bg_pmove.obj
 0001:00004760       _PM_SetWaterLevel          30005760 f   bg_pmove.obj
 0001:00004960       _PM_StartLegsAnim          30005960 f   bg_pmove.obj
 0001:000049c0       _PM_StartTorsoAnim         300059c0 f   bg_pmove.obj
 0001:00004a10       _PM_TorsoAnimation         30005a10 f   bg_pmove.obj
 0001:00004b70       _PM_WalkMove               30005b70 f   bg_pmove.obj
 0001:000050d0       _PM_WaterEvents            300060d0 f   bg_pmove.obj
 0001:00005170       _PM_WaterJumpMove          30006170 f   bg_pmove.obj
 0001:00005210       _PM_WaterMove              30006210 f   bg_pmove.obj
 0001:000055a0       _PM_Weapon                 300065a0 f   bg_pmove.obj
 0001:00005a00       $LN39                      30006a00     bg_pmove.obj
 0001:000060a0       _VectorLength              300070a0 f   bg_pmove.obj
 0001:00006130       _CrossProduct              30007130 f   bg_slidemove.obj
 0001:00007930       _CG_SizeUp_f               30008930 f   cg_consolecmds.obj
 0001:00007970       _CG_SizeDown_f             30008970 f   cg_consolecmds.obj
 0001:000079b0       _CG_Viewpos_f              300089b0 f   cg_consolecmds.obj
 0001:00007a10       _CG_ScoresDown_f           30008a10 f   cg_consolecmds.obj
 0001:00007a80       _CG_ScoresUp_f             30008a80 f   cg_consolecmds.obj
 0001:00007ab0       _CG_TellTarget_f           30008ab0 f   cg_consolecmds.obj
 0001:00007b30       _CG_TellAttacker_f         30008b30 f   cg_consolecmds.obj
 0001:00007bb0       _CG_VoiceTellTarget_f      30008bb0 f   cg_consolecmds.obj
 0001:00007c30       _CG_VoiceTellAttacker_f    30008c30 f   cg_consolecmds.obj
 0001:00007cb0       _CG_StartOrbit_f           30008cb0 f   cg_consolecmds.obj
 0001:000080d0       _CG_Draw2D                 300090d0 f   cg_draw.obj
 0001:00008610       _CG_DrawAmmoWarning        30009610 f   cg_draw.obj
 0001:00008690       _CG_DrawAttacker           30009690 f   cg_draw.obj
 0001:00008860       _CG_DrawCenterString       30009860 f   cg_draw.obj
 0001:00008a40       _CG_DrawCrosshair          30009a40 f   cg_draw.obj
 0001:00008c80       _CG_DrawCrosshairNames     30009c80 f   cg_draw.obj
 0001:00008d70       _CG_DrawDisconnect         30009d70 f   cg_draw.obj
 0001:00008e90       _CG_DrawFPS                30009e90 f   cg_draw.obj
 0001:00008fc0       _CG_DrawField              30009fc0 f   cg_draw.obj
 0001:000091f4       $LN32                      3000a1f4     cg_draw.obj
 0001:000094d0       _CG_DrawFollow             3000a4d0 f   cg_draw.obj
 0001:000098a0       _CG_DrawHoldableItem       3000a8a0 f   cg_draw.obj
 0001:00009930       _CG_DrawIntermission       3000a930 f   cg_draw.obj
 0001:00009970       _CG_DrawLagometer          3000a970 f   cg_draw.obj
 0001:00009f20       _CG_DrawLowerLeft          3000af20 f   cg_draw.obj
 0001:00009f80       _CG_DrawLowerRight         3000af80 f   cg_draw.obj
 0001:0000a000       _CG_DrawPickupItem         3000b000 f   cg_draw.obj
 0001:0000a110       _CG_DrawPowerups           3000b110 f   cg_draw.obj
 0001:0000a590       _CG_DrawReward             3000b590 f   cg_draw.obj
 0001:0000a860       _CG_DrawScoreboard         3000b860 f   cg_draw.obj
 0001:0000a890       _CG_DrawScores             3000b890 f   cg_draw.obj
 0001:0000b220       _CG_DrawSnapshot           3000c220 f   cg_draw.obj
 0001:0000b2c0       _CG_DrawSpectator          3000c2c0 f   cg_draw.obj
 0001:0000b350       _CG_DrawStatusBar          3000c350 f   cg_draw.obj
 0001:0000b930       _CG_DrawStatusBarFlag      3000c930 f   cg_draw.obj
 0001:0000b990       _CG_DrawStatusBarHead      3000c990 f   cg_draw.obj
 0001:0000bf80       _CG_DrawTeamInfo           3000cf80 f   cg_draw.obj
 0001:0000c2d0       _CG_DrawTeamOverlay        3000d2d0 f   cg_draw.obj
 0001:0000c980       _CG_DrawTeamVote           3000d980 f   cg_draw.obj
 0001:0000ca80       _CG_DrawTimer              3000da80 f   cg_draw.obj
 0001:0000cb70       _CG_DrawTourneyScoreboard  3000db70 f   cg_draw.obj
 0001:0000cb90       _CG_DrawUpperRight         3000db90 f   cg_draw.obj
 0001:0000cc60       _CG_DrawVote               3000dc60 f   cg_draw.obj
 0001:0000cd20       _CG_DrawWarmup             3000dd20 f   cg_draw.obj
 0001:0000d0f0       _CG_ScanForCrosshairEntity 3000e0f0 f   cg_draw.obj
 0001:0000e180       _CG_TileClearBox           3000f180 f   cg_drawtools.obj
 0001:0000e3d0       _UI_DrawBannerString2      3000f3d0 f   cg_drawtools.obj
 0001:0000e9a0       _UI_DrawProportionalString2 3000f9a0 f   cg_drawtools.obj
 0001:000115b0       _CG_AddCEntity             300125b0 f   cg_ents.obj
 0001:000116a8       $LN18                      300126a8     cg_ents.obj
 0001:00011d10       _CG_CalcEntityLerpPositions 30012d10 f   cg_ents.obj
 0001:00011e20       _CG_EntityEffects          30012e20 f   cg_ents.obj
 0001:00011f40       _CG_General                30012f40 f   cg_ents.obj
 0001:000120d0       _CG_Grapple                300130d0 f   cg_ents.obj
 0001:00012320       _CG_InterpolateEntityPosition 30013320 f   cg_ents.obj
 0001:00012590       _CG_Item                   30013590 f   cg_ents.obj
 0001:000134d0       _CG_Missile                300144d0 f   cg_ents.obj
 0001:000138b0       _CG_Mover                  300148b0 f   cg_ents.obj
 0001:00013a70       _CG_Portal                 30014a70 f   cg_ents.obj
 0001:00014210       _CG_Speaker                30015210 f   cg_ents.obj
 0001:000142f0       _CG_TeamBase               300152f0 f   cg_ents.obj
 0001:00014460       _CrossProduct              30015460 f   cg_ents.obj
 0001:00015be0       $LN211                     30016be0     cg_event.obj
 0001:00015d10       $LN212                     30016d10     cg_event.obj
 0001:00015d50       _CG_ItemPickup             30016d50 f   cg_event.obj
 0001:00015dc0       _CG_Obituary               30016dc0 f   cg_event.obj
 0001:00016290       $LN71                      30017290     cg_event.obj
 0001:000162b4       $LN72                      300172b4     cg_event.obj
 0001:000162d8       $LN73                      300172d8     cg_event.obj
 0001:00016314       $LN70                      30017314     cg_event.obj
 0001:00016530       _CG_UseItem                30017530 f   cg_event.obj
 0001:00016b84       $LN24                      30017b84     cg_info.obj
 0001:00016ba0       _CG_DrawLoadingIcons       30017ba0 f   cg_info.obj
 0001:00016f50       _CG_AddExplosion           30017f50 f   cg_localents.obj
 0001:00017190       _CG_AddFallScaleFade       30018190 f   cg_localents.obj
 0001:00017758       $LN19                      30018758     cg_localents.obj
 0001:00017780       _CG_AddMoveScaleFade       30018780 f   cg_localents.obj
 0001:00017980       _CG_AddScaleFade           30018980 f   cg_localents.obj
 0001:00018250       _CG_AddSpriteExplosion     30019250 f   cg_localents.obj
 0001:00018c00       _CrossProduct              30019c00 f   cg_localents.obj
 0001:00018d10       _VectorLength              30019d10 f   cg_localents.obj
 0001:00018f70       _CG_ForceModelChange       30019f70 f   cg_main.obj
 0001:00019300       _CG_RegisterClients        3001a300 f   cg_main.obj
 0001:000194b0       _CG_RegisterGraphics       3001a4b0 f   cg_main.obj
 0001:00019de0       _CG_RegisterItemSounds     3001ade0 f   cg_main.obj
 0001:00019f40       _CG_RegisterSounds         3001af40 f   cg_main.obj
 0001:0001aaf8       $LN15                      3001baf8     cg_main.obj
 0001:00025960       _CrossProduct              30026960 f   cg_marks.obj
 0001:00025a70       _Distance                  30026a70 f   cg_marks.obj
 0001:00025f90       _VectorLength              30026f90 f   cg_marks.obj
 0001:00026020       _CG_AddPainTwitch          30027020 f   cg_players.obj
 0001:000261d0       _CG_ClearLerpFrame         300271d0 f   cg_players.obj
 0001:00026230       _CG_ColorFromString        30027230 f   cg_players.obj
 0001:00026350       _CG_CopyClientInfoModel    30027350 f   cg_players.obj
 0001:00026580       _CG_FileExists             30027580 f   cg_players.obj
 0001:000265c0       _CG_FindClientHeadFile     300275c0 f   cg_players.obj
 0001:00026830       _CG_FindClientModelFile    30027830 f   cg_players.obj
 0001:00026a70       _CG_HasteTrail             30027a70 f   cg_players.obj
 0001:00026e70       _CG_LoadClientInfo         30027e70 f   cg_players.obj
 0001:00027950       _CG_ParseAnimationFile     30028950 f   cg_players.obj
 0001:00028810       _CG_PlayerAngles           30029810 f   cg_players.obj
 0001:00028ed0       _CG_PlayerAnimation        30029ed0 f   cg_players.obj
 0001:00029050       _CG_PlayerFlag             3002a050 f   cg_players.obj
 0001:000297a0       _CG_PlayerFloatSprite      3002a7a0 f   cg_players.obj
 0001:000298f0       _CG_PlayerPowerups         3002a8f0 f   cg_players.obj
 0001:00029b90       _CG_PlayerShadow           3002ab90 f   cg_players.obj
 0001:00029dc0       _CG_PlayerSplash           3002adc0 f   cg_players.obj
 0001:0002a610       _CG_PlayerSprites          3002b610 f   cg_players.obj
 0001:0002a7a0       _CG_RegisterClientModelname 3002b7a0 f   cg_players.obj
 0001:0002ac90       _CG_RegisterClientSkin     3002bc90 f   cg_players.obj
 0001:0002b0a0       _CG_RunLerpFrame           3002c0a0 f   cg_players.obj
 0001:0002b340       _CG_ScanForExistingClientInfo 3002c340 f   cg_players.obj
 0001:0002b4b0       _CG_SetDeferredClientInfo  3002c4b0 f   cg_players.obj
 0001:0002b6b0       _CG_SetLerpFrameAnimation  3002c6b0 f   cg_players.obj
 0001:0002b740       _CG_SwingAngles            3002c740 f   cg_players.obj
 0001:0002b9a0       _CG_TrailItem              3002c9a0 f   cg_players.obj
 0001:0002cdd0       _VectorLength              3002ddd0 f   cg_playerstate.obj
 0001:0002ce60       _pushReward                3002de60 f   cg_playerstate.obj
 0001:0002cfe0       _CG_ClipMoveToEntities     3002dfe0 f   cg_predict.obj
 0001:0002d320       _CG_InterpolatePlayerState 3002e320 f   cg_predict.obj
 0001:0002ddc0       _CG_TouchItem              3002edc0 f   cg_predict.obj
 0001:0002df20       _CG_TouchTriggerPrediction 3002ef20 f   cg_predict.obj
 0001:0002e150       _VectorCompare             3002f150 f   cg_predict.obj
 0001:0002e1e0       _VectorLength              3002f1e0 f   cg_predict.obj
 0001:0002e270       _CG_CenterGiantLine        3002f270 f   cg_scoreboard.obj
 0001:0002e340       _CG_DrawClientScore        3002f340 f   cg_scoreboard.obj
 0001:0002f770       _CG_TeamScoreboard         30030770 f   cg_scoreboard.obj
 0001:0002f8b0       _CG_AddToTeamChat          300308b0 f   cg_servercmds.obj
 0001:0002fae0       _CG_ConfigStringModified   30030ae0 f   cg_servercmds.obj
 0001:000301e0       _CG_MapRestart             300311e0 f   cg_servercmds.obj
 0001:000302a0       _CG_ParseScores            300312a0 f   cg_servercmds.obj
 0001:000307c0       _CG_ParseTeamInfo          300317c0 f   cg_servercmds.obj
 0001:00030e20       _CG_ParseWarmup            30031e20 f   cg_servercmds.obj
 0001:00030eb0       _CG_RemoveChatEscapeChar   30031eb0 f   cg_servercmds.obj
 0001:00030f20       _CG_ServerCommand          30031f20 f   cg_servercmds.obj
 0001:00031a70       _CG_ReadNextSnapshot       30032a70 f   cg_snapshot.obj
 0001:00031b40       _CG_ResetEntity            30032b40 f   cg_snapshot.obj
 0001:00031d60       _CG_SetNextSnap            30032d60 f   cg_snapshot.obj
 0001:00031ee0       _CG_TransitionEntity       30032ee0 f   cg_snapshot.obj
 0001:00031f60       _CG_TransitionSnapshot     30032f60 f   cg_snapshot.obj
 0001:000331f0       _CG_AddTestModel           300341f0 f   cg_view.obj
 0001:000334f0       _CG_CalcFov                300344f0 f   cg_view.obj
 0001:00033800       _CG_CalcViewValues         30034800 f   cg_view.obj
 0001:00033c10       _CG_CalcVrect              30034c10 f   cg_view.obj
 0001:00033d00       _CG_DamageBlendBlob        30034d00 f   cg_view.obj
 0001:000343a0       _CG_OffsetFirstPersonView  300353a0 f   cg_view.obj
 0001:00034b50       _CG_OffsetThirdPersonView  30035b50 f   cg_view.obj
 0001:00035320       _CG_PlayBufferedSounds     30036320 f   cg_view.obj
 0001:000353b0       _CG_PowerupTimerSounds     300363b0 f   cg_view.obj
 0001:00035460       _CG_StepOffset             30036460 f   cg_view.obj
 0001:000365d0       _CG_AddWeaponWithPowerups  300375d0 f   cg_weapons.obj
 0001:000367f0       _CG_CalcMuzzlePoint        300377f0 f   cg_weapons.obj
 0001:00036b40       _CG_CalculateWeaponPosition 30037b40 f   cg_weapons.obj
 0001:00037500       _CG_GrenadeTrail           30038500 f   cg_weapons.obj
 0001:00037520       _CG_LightningBolt          30038520 f   cg_weapons.obj
 0001:00037cc0       _CG_MachineGunEjectBrass   30038cc0 f   cg_weapons.obj
 0001:000384a0       _CG_MachinegunSpinAngle    300394a0 f   cg_weapons.obj
 0001:000385e0       _CG_MapTorsoToWeaponFrame  300395e0 f   cg_weapons.obj
 0001:00038e38       $LN29                      30039e38     cg_weapons.obj
 0001:00038f60       _CG_PlasmaTrail            30039f60 f   cg_weapons.obj
 0001:0003b2dc       $LN32                      3003c2dc     cg_weapons.obj
 0001:0003b310       _CG_RocketTrail            3003c310 f   cg_weapons.obj
 0001:0003b530       _CG_ShotgunEjectBrass      3003c530 f   cg_weapons.obj
 0001:0003c080       _CG_ShotgunPattern         3003d080 f   cg_weapons.obj
 0001:0003c360       _CG_ShotgunPellet          3003d360 f   cg_weapons.obj
 0001:0003c500       _CG_SpawnRailTrail         3003d500 f   cg_weapons.obj
 0001:0003d200       _CG_WeaponSelectable       3003e200 f   cg_weapons.obj
 0001:0003d2e0       _CrossProduct              3003e2e0 f   cg_weapons.obj
 0001:0003d3f0       _Distance                  3003e3f0 f   cg_weapons.obj
 0001:0003d4c0       _VectorLength              3003e4c0 f   cg_weapons.obj
 0001:0003e510       _CrossProduct              3003f510 f   q_math.obj
 0001:00040060       _VectorLength              30041060 f   q_math.obj
 0001:000425e0       _SkipWhitespace            300435e0 f   q_shared.obj
 0001:00045230       _Controls_GetKeyAssignment 30046230 f   ui_shared.obj
 0001:00045500       _Display_CloseCinematics   30046500 f   ui_shared.obj
 0001:00046170       _Item_CacheContents        30047170 f   ui_shared.obj
 0001:000461a0       _Item_CorrectedTextRect    300471a0 f   ui_shared.obj
 0001:00046594       $LN22                      30047594     ui_shared.obj
 0001:0004a1f0       $LN56                      3004b1f0     ui_shared.obj
 0001:0004b458       $LN14                      3004c458     ui_shared.obj
 0001:0004b464       $LN13                      3004c464     ui_shared.obj
 0001:0004d2b0       _Menu_CacheContents        3004e2b0 f   ui_shared.obj
 0001:0004d430       _Menu_CloseCinematics      3004e430 f   ui_shared.obj
 0001:0004dcd8       $LN51                      3004ecd8     ui_shared.obj
 0001:0004dcf8       $LN50                      3004ecf8     ui_shared.obj
 0001:0004e2f0       _Menu_OverActiveItem       3004f2f0 f   ui_shared.obj
 0001:0004e970       _Menu_RunCloseScript       3004f970 f   ui_shared.obj
 0001:0004fda0       _Scroll_ListBox_AutoFunc   30050da0 f   ui_shared.obj
 0001:0004fe40       _Scroll_ListBox_ThumbFunc  30050e40 f   ui_shared.obj
 0001:00050180       _Scroll_Slider_ThumbFunc   30051180 f   ui_shared.obj
 0001:00050740       _Window_CacheContents      30051740 f   ui_shared.obj
 0001:000507d0       _Window_CloseCinematic     300517d0 f   ui_shared.obj
 0001:00051050       _hashForString             30052050 f   ui_shared.obj
 0001:000510c0       $$000000                   300520c0     LIBCMTD:cos.obj
 0001:000512f0       $$000000                   300522f0     LIBCMTD:sin.obj
 0001:000518d0       $$000000                   300528d0     LIBCMTD:sqrt.obj
 0001:00051990       $$000000                   30052990     LIBCMTD:memset.obj
 0001:00051e60       $$000000                   30052e60     LIBCMTD:strlen.obj
 0001:00051f40       $$000000                   30052f40     LIBCMTD:memcpy.obj
 0001:00052190       LeadUpVec                  30053190     LIBCMTD:memcpy.obj
 0001:0005220c       UnwindUpVec                3005320c     LIBCMTD:memcpy.obj
 0001:00052278       TrailUpVec                 30053278     LIBCMTD:memcpy.obj
 0001:0005231c       LeadDownVec                3005331c     LIBCMTD:memcpy.obj
 0001:000523a8       UnwindDownVec              300533a8     LIBCMTD:memcpy.obj
 0001:00052414       TrailDownVec               30053414     LIBCMTD:memcpy.obj
 0001:00052590       $$000000                   30053590     LIBCMTD:strcat.obj
 0001:000529e0       $$000000                   300539e0     LIBCMTD:strcmp.obj
 0001:00052a70       $$000000                   30053a70     LIBCMTD:floor_pentium4.obj
 0001:00052ba0       $$000000                   30053ba0     LIBCMTD:chkstk.obj
 0001:00052bd0       $$000000                   30053bd0     LIBCMTD:ftol2.obj
 0001:00052c80       $$000000                   30053c80     LIBCMTD:acos.obj
 0001:00052dd0       $$000000                   30053dd0     LIBCMTD:strchr.obj
 0001:00052f00       $$000000                   30053f00     LIBCMTD:strncpy.obj
 0001:00053030       $$000000                   30054030     LIBCMTD:strstr.obj
 0001:000532a0       $$000000                   300542a0     LIBCMTD:87ctriga.obj
 0001:000532c0       $$000000                   300542c0     LIBCMTD:tan.obj
 0001:00054020       _swprintf                  30055020 f   LIBCMTD:wassert.obj
 0001:000545a0       $$000000                   300555a0     LIBCMTD:memmove.obj
 0001:000547f0       LeadUpVec                  300557f0     LIBCMTD:memmove.obj
 0001:0005486c       UnwindUpVec                3005586c     LIBCMTD:memmove.obj
 0001:000548d8       TrailUpVec                 300558d8     LIBCMTD:memmove.obj
 0001:0005497c       LeadDownVec                3005597c     LIBCMTD:memmove.obj
 0001:00054a08       UnwindDownVec              30055a08     LIBCMTD:memmove.obj
 0001:00054a74       TrailDownVec               30055a74     LIBCMTD:memmove.obj
 0001:00054e50       ___DllMainCRTStartup       30055e50 f   LIBCMTD:dllcrt0.obj
 0001:000550b0       $$000000                   300560b0     LIBCMTD:cos_pentium4.obj
 0001:00055260       $$000000                   30056260     LIBCMTD:87disp.obj
 0001:00055430       $$000000                   30056430     LIBCMTD:common.obj
 0001:000555c0       $$000000                   300565c0     LIBCMTD:genexcep.obj
 0001:000558a0       __get_fname                300568a0 f   LIBCMTD:fpexcept.obj
 0001:0005625c       $LN55                      3005725c     LIBCMTD:fpexcept.obj
 0001:000568f0       $$000000                   300578f0     LIBCMTD:sin_pentium4.obj
 0001:00058164       $LN137                     30059164     LIBCMTD:strgtold.obj
 0001:00058194       $LN138                     30059194     LIBCMTD:strgtold.obj
 0001:000581a4       $LN134                     300591a4     LIBCMTD:strgtold.obj
 0001:000581e0       $LN139                     300591e0     LIBCMTD:strgtold.obj
 0001:000581ec       $LN135                     300591ec     LIBCMTD:strgtold.obj
 0001:00058228       $LN140                     30059228     LIBCMTD:strgtold.obj
 0001:00058234       $LN136                     30059234     LIBCMTD:strgtold.obj
 0001:00058920       ?CPtoLocaleName@@YAPB_WH@Z 30059920 f   LIBCMTD:mbctype.obj
 0001:00058994       $LN10                      30059994     LIBCMTD:mbctype.obj
 0001:000589a8       $LN9                       300599a8     LIBCMTD:mbctype.obj
 0001:000589c0       ?getSystemCP@@YAHH@Z       300599c0 f   LIBCMTD:mbctype.obj
 0001:00058ad0       ?setSBCS@@YAXPAUthreadmbcinfostruct@@@Z 30059ad0 f   LIBCMTD:mbctype.obj
 0001:00058bb0       ?setSBUpLow@@YAXPAUthreadmbcinfostruct@@@Z 30059bb0 f   LIBCMTD:mbctype.obj
 0001:0005b1b0       __cftoe2_l                 3005c1b0 f   LIBCMTD:cvt.obj
 0001:0005b810       __cftof2_l                 3005c810 f   LIBCMTD:cvt.obj
 0001:0005c230       __shift                    3005d230 f   LIBCMTD:cvt.obj
 0001:0005c5b0       ?strtoxq@@YA_KPAUlocaleinfo_struct@@PBDPAPBDHH@Z 3005d5b0 f   LIBCMTD:strtoq.obj
 0001:0005cbc0       ?strtoxl@@YAKPAUlocaleinfo_struct@@PBDPAPBDHH@Z 3005dbc0 f   LIBCMTD:strtol.obj
 0001:0005d1c0       ___IsPackagedAppHelper     3005e1c0 f   LIBCMTD:winapisupp.obj
 0001:0005f3a0       $LN171                     300603a0     LIBCMTD:output.obj
 0001:0005f3c0       $LN172                     300603c0     LIBCMTD:output.obj
 0001:0005f3d8       $LN167                     300603d8     LIBCMTD:output.obj
 0001:0005f3ec       $LN173                     300603ec     LIBCMTD:output.obj
 0001:0005f400       $LN168                     30060400     LIBCMTD:output.obj
 0001:0005f430       $LN174                     30060430     LIBCMTD:output.obj
 0001:0005f46c       $LN169                     3006046c     LIBCMTD:output.obj
 0001:0005f510       _write_char                30060510 f   LIBCMTD:output.obj
 0001:0005f5b0       _write_multi_char          300605b0 f   LIBCMTD:output.obj
 0001:0005f5f0       _write_string              300605f0 f   LIBCMTD:output.obj
 0001:00063378       $LN424                     30064378     LIBCMTD:outputp.obj
 0001:00063398       $LN425                     30064398     LIBCMTD:outputp.obj
 0001:000633b0       $LN420                     300643b0     LIBCMTD:outputp.obj
 0001:000633c4       $LN426                     300643c4     LIBCMTD:outputp.obj
 0001:000633d8       $LN421                     300643d8     LIBCMTD:outputp.obj
 0001:00063408       $LN427                     30064408     LIBCMTD:outputp.obj
 0001:00063444       $LN422                     30064444     LIBCMTD:outputp.obj
 0001:0006347c       $LN428                     3006447c     LIBCMTD:outputp.obj
 0001:000637b0       _write_char                300647b0 f   LIBCMTD:outputp.obj
 0001:00063850       _write_multi_char          30064850 f   LIBCMTD:outputp.obj
 0001:00063890       _write_string              30064890 f   LIBCMTD:outputp.obj
 0001:00064400       $LN68                      30065400     LIBCMTD:libm_error.obj
 0001:00064444       $LN67                      30065444     LIBCMTD:libm_error.obj
 0001:000644ec       $LN69                      300654ec     LIBCMTD:libm_error.obj
 0001:00064690       $$000000                   30065690     LIBCMTD:acos_pentium4.obj
 0001:00064bf0       $$000000                   30065bf0     LIBCMTD:87triga.obj
 0001:00064ca0       $$000000                   30065ca0     LIBCMTD:87cdisp.obj
 0001:00064f20       $$000000                   30065f20     LIBCMTD:tan_pentium4.obj
 0001:00066780       __initterm                 30067780 f   LIBCMTD:crt0dat.obj
 0001:00066810       _doexit                    30067810 f   LIBCMTD:crt0dat.obj
 0001:00066ba0       @x64tow_s@24               30067ba0 f   LIBCMTD:xtows.obj
 0001:00067110       _xtow_s@20                 30068110 f   LIBCMTD:xtows.obj
 0001:00067950       _flsall                    30068950 f   LIBCMTD:fflush.obj
 0001:00068b70       _ctrlevent_capture@4       30069b70 f   LIBCMTD:winsig.obj
 0001:00068f40       $LN41                      30069f40     LIBCMTD:winsig.obj
 0001:00068f58       $LN39                      30069f58     LIBCMTD:winsig.obj
 0001:00068f70       _siglookup                 30069f70 f   LIBCMTD:winsig.obj
 0001:00069330       $LN49                      3006a330     LIBCMTD:winsig.obj
 0001:00069344       $LN46                      3006a344     LIBCMTD:winsig.obj
 0001:0006935c       $LN50                      3006a35c     LIBCMTD:winsig.obj
 0001:00069364       $LN47                      3006a364     LIBCMTD:winsig.obj
 0001:00069f80       ?__crtLCMapStringA_stat@@YAHPAUlocaleinfo_struct@@PB_WKPBDHPADHHH@Z 3006af80 f   LIBCMTD:a_map.obj
 0001:0006a220       ?strncnt@@YAHPBDH@Z        3006b220 f   LIBCMTD:a_map.obj
 0001:0006a8e8       $LN16                      3006b8e8     LIBCMTD:wsetloca.obj
 0001:0006a900       __copytlocinfo_nolock      3006b900 f   LIBCMTD:wsetloca.obj
 0001:0006b5b0       __wsetlocale_get_all       3006c5b0 f   LIBCMTD:wsetloca.obj
 0001:0006b970       __wsetlocale_nolock        3006c970 f   LIBCMTD:wsetloca.obj
 0001:0006bdc0       __wsetlocale_set_cat       3006cdc0 f   LIBCMTD:wsetloca.obj
 0001:0006c3a0       _sync_legacy_variables_lk  3006d3a0 f   LIBCMTD:wsetloca.obj
 0001:0006c610       _xcptlookup                3006d610 f   LIBCMTD:winxfltr.obj
 0001:0006cdc0       _parse_cmdline             3006ddc0 f   LIBCMTD:stdargv.obj
 0001:0006d2f0       ?_CrtMemDumpAllObjectsSince_stat@@YAXPBU_CrtMemState@@PAUlocaleinfo_struct@@@Z 3006e2f0 f   LIBCMTD:dbgheap.obj
 0001:0006d600       ?__crtIsBadReadPtr@@YAHPBXI@Z 3006e600 f   LIBCMTD:dbgheap.obj
 0001:0006d730       _CheckBytes                3006e730 f   LIBCMTD:dbgheap.obj
 0001:0006dbc4       $LN51                      3006ebc4     LIBCMTD:dbgheap.obj
 0001:0006fa40       __heap_alloc_dbg_impl      30070a40 f   LIBCMTD:dbgheap.obj
 0001:000700e0       __nh_malloc_dbg_impl       300710e0 f   LIBCMTD:dbgheap.obj
 0001:00070160       __printMemBlockData        30071160 f   LIBCMTD:dbgheap.obj
 0001:00070480       _realloc_help              30071480 f   LIBCMTD:dbgheap.obj
 0001:00070ce0       _ValidateLocalCookies      30071ce0 f   LIBCMTD:chandler4.obj
 0001:000710d4       $LN19                      300720d4     LIBCMTD:87except.obj
 0001:00072510       _fix_grouping              30073510 f   LIBCMTD:initmon.obj
 0001:00072990       _fix_grouping              30073990 f   LIBCMTD:initnum.obj
 0001:00073450       __get_lc_time              30074450 f   LIBCMTD:inittime.obj
 0001:00074390       ?__crtGetStringTypeA_stat@@YAHPAUlocaleinfo_struct@@KPBDHPAGHH@Z 30075390 f   LIBCMTD:a_str.obj
 0001:000744f0       ?CatchGuardHandler@@YA?AW4_EXCEPTION_DISPOSITION@@PAUEHExceptionRecord@@PAUCatchGuardRN@@PAX2@Z 300754f0 f   LIBCMTD:_trnsctrl_.obj
 0001:00074540       ?TranslatorGuardHandler@@YA?AW4_EXCEPTION_DISPOSITION@@PAUEHExceptionRecord@@PAUTranslatorGuardRN@@PAX2@Z 30075540 f   LIBCMTD:_trnsctrl_.obj
 0001:00076f50       $$000000                   30077f50     LIBCMTD:strrchr.obj
 0001:00077920       $$000000                   30078920     LIBCMTD:lldiv.obj
 0001:000779d0       $$000000                   300789d0     LIBCMTD:llrem.obj
 0001:00077a90       $$000000                   30078a90     LIBCMTD:llshl.obj
 0001:00077ab0       $$000000                   30078ab0     LIBCMTD:ullshr.obj
 0001:00077c80       $$000000                   30078c80     LIBCMTD:llmul.obj
 0001:00077cc0       $$000000                   30078cc0     LIBCMTD:ulldiv.obj
 0001:00077d30       $$000000                   30078d30     LIBCMTD:ullrem.obj
 0001:0007b0f8       $LN180                     3007c0f8     LIBCMTD:outputs.obj
 0001:0007b118       $LN181                     3007c118     LIBCMTD:outputs.obj
 0001:0007b130       $LN176                     3007c130     LIBCMTD:outputs.obj
 0001:0007b144       $LN182                     3007c144     LIBCMTD:outputs.obj
 0001:0007b158       $LN177                     3007c158     LIBCMTD:outputs.obj
 0001:0007b188       $LN183                     3007c188     LIBCMTD:outputs.obj
 0001:0007b1c4       $LN178                     3007c1c4     LIBCMTD:outputs.obj
 0001:0007b200       _write_char                3007c200 f   LIBCMTD:outputs.obj
 0001:0007b2a0       _write_multi_char          3007c2a0 f   LIBCMTD:outputs.obj
 0001:0007b2e0       _write_string              3007c2e0 f   LIBCMTD:outputs.obj
 0001:0007b6b0       __onexit_nolock            3007c6b0 f   LIBCMTD:onexit.obj
 0001:0007dc00       $LN160                     3007ec00     LIBCMTD:woutput.obj
 0001:0007dc20       $LN161                     3007ec20     LIBCMTD:woutput.obj
 0001:0007dc38       $LN156                     3007ec38     LIBCMTD:woutput.obj
 0001:0007dc4c       $LN162                     3007ec4c     LIBCMTD:woutput.obj
 0001:0007dc60       $LN157                     3007ec60     LIBCMTD:woutput.obj
 0001:0007dc90       $LN163                     3007ec90     LIBCMTD:woutput.obj
 0001:0007dccc       $LN158                     3007eccc     LIBCMTD:woutput.obj
 0001:0007dd10       _write_char                3007ed10 f   LIBCMTD:woutput.obj
 0001:0007dd70       _write_multi_char          3007ed70 f   LIBCMTD:woutput.obj
 0001:0007ddb0       _write_string              3007edb0 f   LIBCMTD:woutput.obj
 0001:0007f348       $LN169                     30080348     LIBCMTD:woutputs.obj
 0001:0007f368       $LN170                     30080368     LIBCMTD:woutputs.obj
 0001:0007f380       $LN165                     30080380     LIBCMTD:woutputs.obj
 0001:0007f394       $LN171                     30080394     LIBCMTD:woutputs.obj
 0001:0007f3a8       $LN166                     300803a8     LIBCMTD:woutputs.obj
 0001:0007f3d8       $LN172                     300803d8     LIBCMTD:woutputs.obj
 0001:0007f414       $LN167                     30080414     LIBCMTD:woutputs.obj
 0001:0007f450       _write_char                30080450 f   LIBCMTD:woutputs.obj
 0001:0007f4b0       _write_multi_char          300804b0 f   LIBCMTD:woutputs.obj
 0001:0007f4f0       _write_string              300804f0 f   LIBCMTD:woutputs.obj
 0001:000830f8       $LN398                     300840f8     LIBCMTD:woutputp.obj
 0001:00083118       $LN399                     30084118     LIBCMTD:woutputp.obj
 0001:00083130       $LN394                     30084130     LIBCMTD:woutputp.obj
 0001:00083144       $LN400                     30084144     LIBCMTD:woutputp.obj
 0001:00083158       $LN395                     30084158     LIBCMTD:woutputp.obj
 0001:00083188       $LN401                     30084188     LIBCMTD:woutputp.obj
 0001:000831c4       $LN396                     300841c4     LIBCMTD:woutputp.obj
 0001:000831fc       $LN402                     300841fc     LIBCMTD:woutputp.obj
 0001:00083220       _write_char                30084220 f   LIBCMTD:woutputp.obj
 0001:00083280       _write_multi_char          30084280 f   LIBCMTD:woutputp.obj
 0001:000832c0       _write_string              300842c0 f   LIBCMTD:woutputp.obj
 0001:00083b20       ___crtEnumLocalesProc@4    30084b20 f   LIBCMTD:winapinls.obj
 0001:00084680       _cmpBYTE                   30085680 f   LIBCMTD:memcmp.obj
 0001:000846b0       _cmpDWORD                  300856b0 f   LIBCMTD:memcmp.obj
 0001:00084780       _cmpResult                 30085780 f   LIBCMTD:memcmp.obj
 0001:000847b0       _cmpWORD                   300857b0 f   LIBCMTD:memcmp.obj
 0001:000849d4       $LN22                      300859d4     LIBCMTD:memcmp.obj
 0001:000849f0       _unaligned_memcmp          300859f0 f   LIBCMTD:memcmp.obj
 0001:00085074       $LN79                      30086074     LIBCMTD:memcmp.obj
 0001:000852d0       _GetLocaleNameFromDefault  300862d0 f   LIBCMTD:getqloc.obj
 0001:00085370       _GetLocaleNameFromLangCountry 30086370 f   LIBCMTD:getqloc.obj
 0001:00085450       _GetLocaleNameFromLanguage 30086450 f   LIBCMTD:getqloc.obj
 0001:000854e0       _GetPrimaryLen             300864e0 f   LIBCMTD:getqloc.obj
 0001:00085560       _LangCountryEnumProcEx@12  30086560 f   LIBCMTD:getqloc.obj
 0001:00085ac0       _LanguageEnumProcEx@12     30086ac0 f   LIBCMTD:getqloc.obj
 0001:00085c00       _ProcessCodePage           30086c00 f   LIBCMTD:getqloc.obj
 0001:00085cb0       _TestDefaultCountry        30086cb0 f   LIBCMTD:getqloc.obj
 0001:00085d10       _TestDefaultLanguage       30086d10 f   LIBCMTD:getqloc.obj
 0001:00085d60       _TranslateName             30086d60 f   LIBCMTD:getqloc.obj
 0001:000860d0       _CountryEnumProc@4         300870d0 f   LIBCMTD:getqloc_downlevel.obj
 0001:00086210       _GetLcidFromCountry        30087210 f   LIBCMTD:getqloc_downlevel.obj
 0001:00086280       _GetLcidFromDefault        30087280 f   LIBCMTD:getqloc_downlevel.obj
 0001:000862c0       _GetLcidFromLangCountry    300872c0 f   LIBCMTD:getqloc_downlevel.obj
 0001:000863a0       _GetLcidFromLanguage       300873a0 f   LIBCMTD:getqloc_downlevel.obj
 0001:00086430       _GetPrimaryLen             30087430 f   LIBCMTD:getqloc_downlevel.obj
 0001:000864a0       _LangCountryEnumProc@4     300874a0 f   LIBCMTD:getqloc_downlevel.obj
 0001:00086940       _LanguageEnumProc@4        30087940 f   LIBCMTD:getqloc_downlevel.obj
 0001:00086b20       _LcidFromHexString         30087b20 f   LIBCMTD:getqloc_downlevel.obj
 0001:00086bb0       _ProcessCodePage           30087bb0 f   LIBCMTD:getqloc_downlevel.obj
 0001:00086c60       _TestDefaultCountry        30087c60 f   LIBCMTD:getqloc_downlevel.obj
 0001:00086cb0       _TestDefaultLanguage       30087cb0 f   LIBCMTD:getqloc_downlevel.obj
 0001:00086d40       _TranslateName             30087d40 f   LIBCMTD:getqloc_downlevel.obj
 0001:000870c0       $$000000                   300880c0     LIBCMTD:exsup4.obj
 0001:00087150       __unwind_handler4          30088150 f   LIBCMTD:exsup4.obj
 0001:00087220       ?x_ismbbtype_l@@YAHPAUlocaleinfo_struct@@IHH@Z 30088220 f   LIBCMTD:ismbbyte.obj
 0001:00087860       __is_LFH_enabled           30088860 f   LIBCMTD:expand.obj
 0001:00088600       $$000000                   30089600     LIBCMTD:lowhelpr.obj
 0001:00088820       ?CallCatchBlock@@YAPAXPAUEHExceptionRecord@@PAUEHRegistrationNode@@PAU_CONTEXT@@PBU_s_FuncInfo@@PAXHK@Z 30089820 f   LIBCMTD:frame.obj
 0001:00088ac0       ?CallUnexpected@@YAXPBU_s_ESTypeList@@@Z 30089ac0 f   LIBCMTD:frame.obj
 0001:00088b0a       __catch$?CallUnexpected@@YAXPBU_s_ESTypeList@@@Z$0 30089b0a f   LIBCMTD:frame.obj
 0001:00088b50       ?CatchIt@@YAXPAUEHExceptionRecord@@PAUEHRegistrationNode@@PAU_CONTEXT@@PAXPBU_s_FuncInfo@@PBU_s_HandlerType@@PBU_s_CatchableType@@PBU_s_TryBlockMapEntry@@H1E@Z 30089b50 f   LIBCMTD:frame.obj
 0001:00088c10       ?ExFilterRethrow@@YAHPAU_EXCEPTION_POINTERS@@@Z 30089c10 f   LIBCMTD:frame.obj
 0001:00088c80       ?FindHandler@@YAXPAUEHExceptionRecord@@PAUEHRegistrationNode@@PAU_CONTEXT@@PAXPBU_s_FuncInfo@@EH1@Z 30089c80 f   LIBCMTD:frame.obj
 0001:00089150       ?FindHandlerForForeignException@@YAXPAUEHExceptionRecord@@PAUEHRegistrationNode@@PAU_CONTEXT@@PAXPBU_s_FuncInfo@@HH1@Z 3008a150 f   LIBCMTD:frame.obj
 0001:000892e0       ?IsInExceptionSpec@@YAEPAUEHExceptionRecord@@PBU_s_ESTypeList@@@Z 3008a2e0 f   LIBCMTD:frame.obj
 0001:000893a0       ?Is_bad_exception_allowed@@YAEPBU_s_ESTypeList@@@Z 3008a3a0 f   LIBCMTD:frame.obj
 0001:0008aa30       @x64toa_s@24               3008ba30 f   LIBCMTD:xtoas.obj
 0001:0008af90       _xtoa_s@20                 3008bf90 f   LIBCMTD:xtoas.obj
 0001:0008bb60       ?wcsncnt@@YAIPB_WI@Z       3008cb60 f   LIBCMTD:wcstombs.obj
 0001:0008d490       ___abstract_cw_sse2        3008e490 f   LIBCMTD:ieee87.obj
 0001:0008d5e0       ___abstract_sw_sse2        3008e5e0 f   LIBCMTD:ieee87.obj
 0001:0008d670       ___clearfp_sse2            3008e670 f   LIBCMTD:ieee87.obj
 0001:0008d740       ___control87_sse2          3008e740 f   LIBCMTD:ieee87.obj
 0001:0008d7c0       ___fpreset_sse2            3008e7c0 f   LIBCMTD:ieee87.obj
 0001:0008d7e0       ___hw_cw_sse2              3008e7e0 f   LIBCMTD:ieee87.obj
 0001:0008d930       ___statusfp_sse2           3008e930 f   LIBCMTD:ieee87.obj
 0001:0008d950       __abstract_cw              3008e950 f   LIBCMTD:ieee87.obj
 0001:0008daa0       __abstract_sw              3008eaa0 f   LIBCMTD:ieee87.obj
 0001:0008dca0       __hw_cw                    3008eca0 f   LIBCMTD:ieee87.obj
 0001:0008f1a0       ?__crtGetLocaleInfoA_stat@@YAHPAUlocaleinfo_struct@@PB_WKPADH@Z 300901a0 f   LIBCMTD:a_loc.obj
 0001:0008f950       ?wcstoxl@@YAKPB_WPAPB_WHH@Z 30090950 f   LIBCMTD:wcstol.obj
 0001:00090860       $$000000                   30091860     LIBCMTD:exsup.obj
 0001:00090880       __unwind_handler           30091880 f   LIBCMTD:exsup.obj
 0001:00091b20       ?wcstoxq@@YA_KPAUlocaleinfo_struct@@PB_WPAPB_WHH@Z 30092b20 f   LIBCMTD:wcstoq.obj
 0001:00096f7c       $LN57                      30097f7c     LIBCMTD:undname.obj
 0001:00096fa8       $LN53                      30097fa8     LIBCMTD:undname.obj
 0001:00096fc8       $LN58                      30097fc8     LIBCMTD:undname.obj
 0001:00096ffc       $LN54                      30097ffc     LIBCMTD:undname.obj
 0001:00097058       $LN59                      30098058     LIBCMTD:undname.obj
 0001:00097068       $LN55                      30098068     LIBCMTD:undname.obj
 0001:00097088       $LN60                      30098088     LIBCMTD:undname.obj
 0001:00097090       $LN56                      30098090     LIBCMTD:undname.obj
 0001:00097200       $LN18                      30098200     LIBCMTD:undname.obj
 0001:00097220       $LN17                      30098220     LIBCMTD:undname.obj
 0001:00098290       $LN16                      30099290     LIBCMTD:undname.obj
 0001:000982b0       $LN15                      300992b0     LIBCMTD:undname.obj
 0001:00098444       $LN17                      30099444     LIBCMTD:undname.obj
 0001:00098464       $LN18                      30099464     LIBCMTD:undname.obj
 0001:0009846c       $LN16                      3009946c     LIBCMTD:undname.obj
 0001:000997d0       $LN62                      3009a7d0     LIBCMTD:undname.obj
 0001:000997ec       $LN59                      3009a7ec     LIBCMTD:undname.obj
 0001:0009984c       $LN63                      3009a84c     LIBCMTD:undname.obj
 0001:00099880       $LN60                      3009a880     LIBCMTD:undname.obj
 0001:000998e0       $LN64                      3009a8e0     LIBCMTD:undname.obj
 0001:000998f4       $LN65                      3009a8f4     LIBCMTD:undname.obj
 0001:000998fc       $LN61                      3009a8fc     LIBCMTD:undname.obj
 0001:00099c38       $LN28                      3009ac38     LIBCMTD:undname.obj
 0001:00099c4c       $LN26                      3009ac4c     LIBCMTD:undname.obj
 0001:00099c90       $LN29                      3009ac90     LIBCMTD:undname.obj
 0001:00099cb4       $LN27                      3009acb4     LIBCMTD:undname.obj
 0001:0009a624       $LN40                      3009b624     LIBCMTD:undname.obj
 0001:0009a63c       $LN39                      3009b63c     LIBCMTD:undname.obj
 0001:0009b2e4       $LN34                      3009c2e4     LIBCMTD:undname.obj
 0001:0009b308       $LN33                      3009c308     LIBCMTD:undname.obj
 0001:0009b35c       $LN35                      3009c35c     LIBCMTD:undname.obj
 0001:0009bf44       $LN118                     3009cf44     LIBCMTD:undname.obj
 0001:0009bf60       $LN119                     3009cf60     LIBCMTD:undname.obj
 0001:0009bf88       $LN116                     3009cf88     LIBCMTD:undname.obj
 0001:0009bfdc       $LN120                     3009cfdc     LIBCMTD:undname.obj
 0001:0009bff0       $LN117                     3009cff0     LIBCMTD:undname.obj
 0001:0009c044       $LN121                     3009d044     LIBCMTD:undname.obj
 0001:0009ca80       ?und_memcpy@@YAXPADPBDI@Z  3009da80 f   LIBCMTD:undname.obj
 0001:0009cac0       ?und_strlen@@YAIPBD@Z      3009dac0 f   LIBCMTD:undname.obj
 0001:0009cb00       ?und_strncmp@@YAIPBD0I@Z   3009db00 f   LIBCMTD:undname.obj
 0001:0009cfa0       __unwindfunclet$?getSystemCP@@YAHH@Z$0 3009dfa0 f   LIBCMTD:mbctype.obj
 0001:0009cfa8       __ehhandler$?getSystemCP@@YAHH@Z 3009dfa8 f   LIBCMTD:mbctype.obj
 0001:0009cfd0       __unwindfunclet$?strtoxq@@YA_KPAUlocaleinfo_struct@@PBDPAPBDHH@Z$0 3009dfd0 f   LIBCMTD:strtoq.obj
 0001:0009cfd8       __ehhandler$?strtoxq@@YA_KPAUlocaleinfo_struct@@PBDPAPBDHH@Z 3009dfd8 f   LIBCMTD:strtoq.obj
 0001:0009d000       __unwindfunclet$?strtoxl@@YAKPAUlocaleinfo_struct@@PBDPAPBDHH@Z$0 3009e000 f   LIBCMTD:strtol.obj
 0001:0009d008       __ehhandler$?strtoxl@@YAKPAUlocaleinfo_struct@@PBDPAPBDHH@Z 3009e008 f   LIBCMTD:strtol.obj
 0001:0009d030       __unwindfunclet$?x_ismbbtype_l@@YAHPAUlocaleinfo_struct@@IHH@Z$0 3009e030 f   LIBCMTD:ismbbyte.obj
 0001:0009d038       __ehhandler$?x_ismbbtype_l@@YAHPAUlocaleinfo_struct@@IHH@Z 3009e038 f   LIBCMTD:ismbbyte.obj
 0001:0009d060       __ehhandler$?CallUnexpected@@YAXPBU_s_ESTypeList@@@Z 3009e060 f   LIBCMTD:frame.obj
 0001:0009d080       __unwindfunclet$?wcstoxq@@YA_KPAUlocaleinfo_struct@@PB_WPAPB_WHH@Z$0 3009e080 f   LIBCMTD:wcstoq.obj
 0001:0009d088       __ehhandler$?wcstoxq@@YA_KPAUlocaleinfo_struct@@PB_WPAPB_WHH@Z 3009e088 f   LIBCMTD:wcstoq.obj
 0001:0009d0b0       __unwindfunclet$?make@DNameStatusNode@@SAPAV1@W4DNameStatus@@@Z$0 3009e0b0 f   LIBCMTD:undname.obj
 0001:0009d0be       __ehhandler$?make@DNameStatusNode@@SAPAV1@W4DNameStatus@@@Z 3009e0be f   LIBCMTD:undname.obj
 0002:0000015c       _pinit                     3009f15c     LIBCMTD:mathfcns.obj
 0002:00000160       _pinit                     3009f160     LIBCMTD:mbctype.obj
 0002:00000164       _pinit                     3009f164     LIBCMTD:cpu_disp.obj
 0002:00000168       _pinit                     3009f168     LIBCMTD:_file.obj
 0002:0000016c       _pinit                     3009f16c     LIBCMTD:onexit.obj
 0002:00000178       _pterm                     3009f178     LIBCMTD:wsetloca.obj
 0002:0000017c       _pterm                     3009f17c     LIBCMTD:initcon.obj
 0002:00000180       _pterm                     3009f180     LIBCMTD:_file.obj
 0002:00004d08       _validOrders               300a3d08     cg_servercmds.obj
 0002:00004d50       _numValidOrders            300a3d50     cg_servercmds.obj
 0002:00005e7c       _g_bindCount               300a4e7c     ui_shared.obj
 0002:00006598       _GS_ExceptionPointers      300a5598     LIBCMTD:gs_report.obj
 0002:00006690       _One                       300a5690     LIBCMTD:floor_pentium4.obj
 0002:000066a0       _Bns                       300a56a0     LIBCMTD:floor_pentium4.obj
 0002:000066b0       _NegOne                    300a56b0     LIBCMTD:floor_pentium4.obj
 0002:000066c0       _NegZero                   300a56c0     LIBCMTD:floor_pentium4.obj
 0002:000066d0       _S                         300a56d0     LIBCMTD:floor_pentium4.obj
 0002:000076b0       Ctable                     300a66b0     LIBCMTD:cos_pentium4.obj
 0002:00007eb0       SC_1                       300a6eb0     LIBCMTD:cos_pentium4.obj
 0002:00007ec0       SC_2                       300a6ec0     LIBCMTD:cos_pentium4.obj
 0002:00007ed0       SC_3                       300a6ed0     LIBCMTD:cos_pentium4.obj
 0002:00007ee0       SC_4                       300a6ee0     LIBCMTD:cos_pentium4.obj
 0002:00007ef0       PI32INV                    300a6ef0     LIBCMTD:cos_pentium4.obj
 0002:00007ef8       SHIFTER                    300a6ef8     LIBCMTD:cos_pentium4.obj
 0002:00007f00       P_2                        300a6f00     LIBCMTD:cos_pentium4.obj
 0002:00007f10       P_1                        300a6f10     LIBCMTD:cos_pentium4.obj
 0002:00007f18       P_3                        300a6f18     LIBCMTD:cos_pentium4.obj
 0002:00007f20       TWO_POW_55                 300a6f20     LIBCMTD:cos_pentium4.obj
 0002:00007f28       TWO_POW_M55                300a6f28     LIBCMTD:cos_pentium4.obj
 0002:00007f30       ALL_ONES                   300a6f30     LIBCMTD:cos_pentium4.obj
 0002:00007f38       NEG_ZERO                   300a6f38     LIBCMTD:cos_pentium4.obj
 0002:00007f40       ONE                        300a6f40     LIBCMTD:cos_pentium4.obj
 0002:00007f50       SIGN_MASK                  300a6f50     LIBCMTD:cos_pentium4.obj
 0002:00007f74       One                        300a6f74     LIBCMTD:87disp.obj
 0002:00007f7c       XAMtoTagTab                300a6f7c     LIBCMTD:87disp.obj
 0002:00007f90       One                        300a6f90     LIBCMTD:common.obj
 0002:00007fa4       DblMax                     300a6fa4     LIBCMTD:common.obj
 0002:00007fac       DblMin                     300a6fac     LIBCMTD:common.obj
 0002:00007fb4       IeeeAdjO                   300a6fb4     LIBCMTD:common.obj
 0002:00007fbc       IeeeAdjU                   300a6fbc     LIBCMTD:common.obj
 0002:00007fc4       _infinity                  300a6fc4     LIBCMTD:common.obj
 0002:00007fcc       _zero                      300a6fcc     LIBCMTD:common.obj
 0002:000080a0       Ctable                     300a70a0     LIBCMTD:sin_pentium4.obj
 0002:000088a0       SC_1                       300a78a0     LIBCMTD:sin_pentium4.obj
 0002:000088b0       SC_2                       300a78b0     LIBCMTD:sin_pentium4.obj
 0002:000088c0       SC_3                       300a78c0     LIBCMTD:sin_pentium4.obj
 0002:000088d0       SC_4                       300a78d0     LIBCMTD:sin_pentium4.obj
 0002:000088e0       PI32INV                    300a78e0     LIBCMTD:sin_pentium4.obj
 0002:000088e8       SHIFTER                    300a78e8     LIBCMTD:sin_pentium4.obj
 0002:000088f0       P_2                        300a78f0     LIBCMTD:sin_pentium4.obj
 0002:00008900       P_1                        300a7900     LIBCMTD:sin_pentium4.obj
 0002:00008908       P_3                        300a7908     LIBCMTD:sin_pentium4.obj
 0002:00008910       TWO_POW_55                 300a7910     LIBCMTD:sin_pentium4.obj
 0002:00008918       TWO_POW_M55                300a7918     LIBCMTD:sin_pentium4.obj
 0002:00008920       ALL_ONES                   300a7920     LIBCMTD:sin_pentium4.obj
 0002:00008928       NEG_ZERO                   300a7928     LIBCMTD:sin_pentium4.obj
 0002:00008930       ONE                        300a7930     LIBCMTD:sin_pentium4.obj
 0002:00008cc4       __mb_locale_names          300a7cc4     LIBCMTD:mbctype.obj
 0002:00008df8       __CrtDbgModeMsg            300a7df8     LIBCMTD:dbgrptw.obj
 0002:0000aaa8       _INF                       300a9aa8     LIBCMTD:libm_error.obj
 0002:0000aab8       _BIG                       300a9ab8     LIBCMTD:libm_error.obj
 0002:0000aac8       _ZERO                      300a9ac8     LIBCMTD:libm_error.obj
 0002:0000aad8       _INF_32                    300a9ad8     LIBCMTD:libm_error.obj
 0002:0000aae0       _NAN_32                    300a9ae0     LIBCMTD:libm_error.obj
 0002:0000aae8       _ZERO_32                   300a9ae8     LIBCMTD:libm_error.obj
 0002:0000aaf0       _libm_largef               300a9af0     LIBCMTD:libm_error.obj
 0002:0000aaf8       _libm_smallf               300a9af8     LIBCMTD:libm_error.obj
 0002:0000ab00       _libm_small                300a9b00     LIBCMTD:libm_error.obj
 0002:0000ab20       Shifter                    300a9b20     LIBCMTD:acos_pentium4.obj
 0002:0000ab30       Tbl_addr                   300a9b30     LIBCMTD:acos_pentium4.obj
 0002:0000ba30       T_table                    300aaa30     LIBCMTD:acos_pentium4.obj
 0002:0000c230       PI_BY_2                    300ab230     LIBCMTD:acos_pentium4.obj
 0002:0000c240       NEG_PI                     300ab240     LIBCMTD:acos_pentium4.obj
 0002:0000c250       PI                         300ab250     LIBCMTD:acos_pentium4.obj
 0002:0000c260       SIGNMASK                   300ab260     LIBCMTD:acos_pentium4.obj
 0002:0000c270       HALFMASK                   300ab270     LIBCMTD:acos_pentium4.obj
 0002:0000c280       HALFMASK2                  300ab280     LIBCMTD:acos_pentium4.obj
 0002:0000c290       cv                         300ab290     LIBCMTD:acos_pentium4.obj
 0002:0000c2b0       cv2                        300ab2b0     LIBCMTD:acos_pentium4.obj
 0002:0000c2f0       ABSVALMASK                 300ab2f0     LIBCMTD:acos_pentium4.obj
 0002:0000c2f8       TMASK                      300ab2f8     LIBCMTD:acos_pentium4.obj
 0002:0000c300       ONEMASK                    300ab300     LIBCMTD:acos_pentium4.obj
 0002:0000c308       ONE_BY_2                   300ab308     LIBCMTD:acos_pentium4.obj
 0002:0000c310       EMIN                       300ab310     LIBCMTD:acos_pentium4.obj
 0002:0000c318       MAX_ARG                    300ab318     LIBCMTD:acos_pentium4.obj
 0002:0000c320       MIN_ARG                    300ab320     LIBCMTD:acos_pentium4.obj
 0002:0000c328       INF                        300ab328     LIBCMTD:acos_pentium4.obj
 0002:0000c330       ZERO                       300ab330     LIBCMTD:acos_pentium4.obj
 0002:0000c338       ALPHA                      300ab338     LIBCMTD:acos_pentium4.obj
 0002:0000c390       DblMax                     300ab390     LIBCMTD:87cdisp.obj
 0002:0000c398       DblMin                     300ab398     LIBCMTD:87cdisp.obj
 0002:0000c3a0       IeeeAdjO                   300ab3a0     LIBCMTD:87cdisp.obj
 0002:0000c3a8       IeeeAdjU                   300ab3a8     LIBCMTD:87cdisp.obj
 0002:0000c3b0       _infinity                  300ab3b0     LIBCMTD:87cdisp.obj
 0002:0000c3b8       _zero                      300ab3b8     LIBCMTD:87cdisp.obj
 0002:0000c3c0       Ctable                     300ab3c0     LIBCMTD:tan_pentium4.obj
 0002:0000d9c0       PI32INV                    300ac9c0     LIBCMTD:tan_pentium4.obj
 0002:0000d9d0       SHIFTER                    300ac9d0     LIBCMTD:tan_pentium4.obj
 0002:0000d9e0       P_1                        300ac9e0     LIBCMTD:tan_pentium4.obj
 0002:0000d9f0       P_2                        300ac9f0     LIBCMTD:tan_pentium4.obj
 0002:0000da00       P_3                        300aca00     LIBCMTD:tan_pentium4.obj
 0002:0000da10       QQ_2                       300aca10     LIBCMTD:tan_pentium4.obj
 0002:0000da18       ONE                        300aca18     LIBCMTD:tan_pentium4.obj
 0002:0000da20       MASK_35                    300aca20     LIBCMTD:tan_pentium4.obj
 0002:0000da30       sign_mask                  300aca30     LIBCMTD:tan_pentium4.obj
 0002:0000da38       TWO_POW_55                 300aca38     LIBCMTD:tan_pentium4.obj
 0002:0000da40       TWO_POW_M55                300aca40     LIBCMTD:tan_pentium4.obj
 0002:0000da48       TWO_POW_M53                300aca48     LIBCMTD:tan_pentium4.obj
 0002:0000da50       INF                        300aca50     LIBCMTD:tan_pentium4.obj
 0002:0000e728       _rterrs                    300ad728     LIBCMTD:crt0msg.obj
 0002:0000f5b0       __first_127char            300ae5b0     LIBCMTD:wsetloca.obj
 0002:0001093c       _szBlockUseName            300af93c     LIBCMTD:dbgheap.obj
 0002:00017b44       __CrtDbgModeMsg            300b6b44     LIBCMTD:dbgrpt.obj
 0002:00018ad0       ?ExceptionTemplate@?1??_CxxThrowException@@9@8@4UEHExceptionRecord@@B 300b7ad0     LIBCMTD:throw.obj
 0002:00018e00       _tokenTable                300b7e00     LIBCMTD:undname.obj
 0002:00018e34       _rttiTable                 300b7e34     LIBCMTD:undname.obj
 0002:00018e48       _nameTable                 300b7e48     LIBCMTD:undname.obj
 0002:00019d80       __sehtable$__CRT_INIT@12   300b8d80     LIBCMTD:dllcrt0.obj
 0002:00019da0       __sehtable$___DllMainCRTStartup 300b8da0     LIBCMTD:dllcrt0.obj
 0002:00019dc0       __sehtable$___set_fpsr_sse2 300b8dc0     LIBCMTD:fpctrl.obj
 0002:00019de0       __sehtable$___updatetlocinfo 300b8de0     LIBCMTD:localref.obj
 0002:00019e00       __sehtable$___updatetmbcinfo 300b8e00     LIBCMTD:mbctype.obj
 0002:00019e20       __sehtable$__setmbcp       300b8e20     LIBCMTD:mbctype.obj
 0002:00019e3c       __unwindtable$?getSystemCP@@YAHH@Z 300b8e3c     LIBCMTD:mbctype.obj
 0002:00019e44       __ehfuncinfo$?getSystemCP@@YAHH@Z 300b8e44     LIBCMTD:mbctype.obj
 0002:00019e68       __sehtable$__freefls@4     300b8e68     LIBCMTD:tidtable.obj
 0002:00019e90       __sehtable$__initptd       300b8e90     LIBCMTD:tidtable.obj
 0002:00019eb8       __sehtable$__CrtSetReportHookW2 300b8eb8     LIBCMTD:dbgrptw.obj
 0002:00019ed4       __unwindtable$?strtoxq@@YA_KPAUlocaleinfo_struct@@PBDPAPBDHH@Z 300b8ed4     LIBCMTD:strtoq.obj
 0002:00019edc       __ehfuncinfo$?strtoxq@@YA_KPAUlocaleinfo_struct@@PBDPAPBDHH@Z 300b8edc     LIBCMTD:strtoq.obj
 0002:00019f00       __unwindtable$?strtoxl@@YAKPAUlocaleinfo_struct@@PBDPAPBDHH@Z 300b8f00     LIBCMTD:strtol.obj
 0002:00019f08       __ehfuncinfo$?strtoxl@@YAKPAUlocaleinfo_struct@@PBDPAPBDHH@Z 300b8f08     LIBCMTD:strtol.obj
 0002:00019f30       __sehtable$_doexit         300b8f30     LIBCMTD:crt0dat.obj
 0002:00019f50       __sehtable$_fflush         300b8f50     LIBCMTD:fflush.obj
 0002:00019f70       __sehtable$_flsall         300b8f70     LIBCMTD:fflush.obj
 0002:00019f98       __sehtable$_setvbuf        300b8f98     LIBCMTD:setvbuf.obj
 0002:00019fb8       __sehtable$_fwprintf       300b8fb8     LIBCMTD:fwprintf.obj
 0002:00019fd8       __sehtable$_signal         300b8fd8     LIBCMTD:winsig.obj
 0002:00019ff8       __sehtable$_raise          300b8ff8     LIBCMTD:winsig.obj
 0002:0001a018       __sehtable$_ctrlevent_capture@4 300b9018     LIBCMTD:winsig.obj
 0002:0001a038       __sehtable$__get_current_locale 300b9038     LIBCMTD:wsetloca.obj
 0002:0001a060       __sehtable$__free_locale   300b9060     LIBCMTD:wsetloca.obj
 0002:0001a088       __sehtable$__wsetlocale    300b9088     LIBCMTD:wsetloca.obj
 0002:0001a0c0       __sehtable$__locterm       300b90c0     LIBCMTD:wsetloca.obj
 0002:0001a0e0       __sehtable$__ioinit        300b90e0     LIBCMTD:ioinit.obj
 0002:0001a100       __sehtable$__realloc_dbg   300b9100     LIBCMTD:dbgheap.obj
 0002:0001a120       __sehtable$__expand_dbg    300b9120     LIBCMTD:dbgheap.obj
 0002:0001a140       __sehtable$__free_dbg      300b9140     LIBCMTD:dbgheap.obj
 0002:0001a160       __sehtable$__msize_dbg     300b9160     LIBCMTD:dbgheap.obj
 0002:0001a180       __sehtable$__CrtCheckMemory 300b9180     LIBCMTD:dbgheap.obj
 0002:0001a1a0       __sehtable$__CrtSetDbgFlag 300b91a0     LIBCMTD:dbgheap.obj
 0002:0001a1c0       __sehtable$__CrtDoForAllClientObjects 300b91c0     LIBCMTD:dbgheap.obj
 0002:0001a1e0       __sehtable$__CrtIsMemoryBlock 300b91e0     LIBCMTD:dbgheap.obj
 0002:0001a200       __sehtable$__CrtMemCheckpoint 300b9200     LIBCMTD:dbgheap.obj
 0002:0001a220       __sehtable$__CrtSetDbgBlockType 300b9220     LIBCMTD:dbgheap.obj
 0002:0001a240       __sehtable$__heap_alloc_dbg_impl 300b9240     LIBCMTD:dbgheap.obj
 0002:0001a260       __sehtable$?__crtIsBadReadPtr@@YAHPBXI@Z 300b9260     LIBCMTD:dbgheap.obj
 0002:0001a280       __sehtable$?_CrtMemDumpAllObjectsSince_stat@@YAXPBU_CrtMemState@@PAUlocaleinfo_struct@@@Z 300b9280     LIBCMTD:dbgheap.obj
 0002:0001a2a0       __sehtable$__mtinitlocknum 300b92a0     LIBCMTD:mlock.obj
 0002:0001a2c0       __sehtable$__VCrtDbgReportA 300b92c0     LIBCMTD:dbgrptt.obj
 0002:0001a2e8       __sehtable$__VCrtDbgReportW 300b92e8     LIBCMTD:dbgrptt.obj
 0002:0001a310       __sehtable$__write         300b9310     LIBCMTD:write.obj
 0002:0001a330       __sehtable$__lseeki64      300b9330     LIBCMTD:lseeki64.obj
 0002:0001a350       __sehtable$_printf         300b9350     LIBCMTD:printf.obj
 0002:0001a370       __sehtable$__IsNonwritableInCurrentImage 300b9370     LIBCMTD:pesect.obj
 0002:0001a390       __sehtable$__onexit        300b9390     LIBCMTD:onexit.obj
 0002:0001a3b0       __sehtable$?terminate@@YAXXZ 300b93b0     LIBCMTD:hooks.obj
 0002:0001a3d0       __sehtable$?_inconsistency@@YAXXZ 300b93d0     LIBCMTD:hooks.obj
 0002:0001a3f0       __sehtable$__fcloseall     300b93f0     LIBCMTD:closeall.obj
 0002:0001a410       __sehtable$__commit        300b9410     LIBCMTD:commit.obj
 0002:0001a430       __sehtable$_vfwprintf_helper 300b9430     LIBCMTD:vfwprint.obj
 0002:0001a44c       __unwindtable$?x_ismbbtype_l@@YAHPAUlocaleinfo_struct@@IHH@Z 300b944c     LIBCMTD:ismbbyte.obj
 0002:0001a454       __ehfuncinfo$?x_ismbbtype_l@@YAHPAUlocaleinfo_struct@@IHH@Z 300b9454     LIBCMTD:ismbbyte.obj
 0002:0001a478       __sehtable$__CrtSetReportHook2 300b9478     LIBCMTD:dbgrpt.obj
 0002:0001a498       __sehtable$___FrameUnwindToState 300b9498     LIBCMTD:frame.obj
 0002:0001a4c0       __sehtable$?CallCatchBlock@@YAPAXPAUEHExceptionRecord@@PAUEHRegistrationNode@@PAU_CONTEXT@@PBU_s_FuncInfo@@PAXHK@Z 300b94c0     LIBCMTD:frame.obj
 0002:0001a4e8       __sehtable$___BuildCatchObject 300b94e8     LIBCMTD:frame.obj
 0002:0001a508       __sehtable$___DestructExceptionObject 300b9508     LIBCMTD:frame.obj
 0002:0001a524       __catchsym$?CallUnexpected@@YAXPBU_s_ESTypeList@@@Z$2 300b9524     LIBCMTD:frame.obj
 0002:0001a534       __unwindtable$?CallUnexpected@@YAXPBU_s_ESTypeList@@@Z 300b9534     LIBCMTD:frame.obj
 0002:0001a544       __tryblocktable$?CallUnexpected@@YAXPBU_s_ESTypeList@@@Z 300b9544     LIBCMTD:frame.obj
 0002:0001a558       __ehfuncinfo$?CallUnexpected@@YAXPBU_s_ESTypeList@@@Z 300b9558     LIBCMTD:frame.obj
 0002:0001a580       __sehtable$___BuildCatchObjectHelper 300b9580     LIBCMTD:frame.obj
 0002:0001a5f0       __sehtable$__alloc_osfhnd  300b95f0     LIBCMTD:osfinfo.obj
 0002:0001a618       __sehtable$___lock_fhandle 300b9618     LIBCMTD:osfinfo.obj
 0002:0001a638       __sehtable$__open_osfhandle 300b9638     LIBCMTD:osfinfo.obj
 0002:0001a658       __sehtable$__putwch        300b9658     LIBCMTD:putwch.obj
 0002:0001a678       __sehtable$_vprintf_helper 300b9678     LIBCMTD:vprintf.obj
 0002:0001a698       __sehtable$_fclose         300b9698     LIBCMTD:fclose.obj
 0002:0001a6b8       __sehtable$_fputwc         300b96b8     LIBCMTD:fputwc.obj
 0002:0001a6d8       __sehtable$??3@YAXPAX@Z    300b96d8     LIBCMTD:dbgdel.obj
 0002:0001a6f8       __sehtable$__close         300b96f8     LIBCMTD:close.obj
 0002:0001a714       __unwindtable$?wcstoxq@@YA_KPAUlocaleinfo_struct@@PB_WPAPB_WHH@Z 300b9714     LIBCMTD:wcstoq.obj
 0002:0001a71c       __ehfuncinfo$?wcstoxq@@YA_KPAUlocaleinfo_struct@@PB_WPAPB_WHH@Z 300b971c     LIBCMTD:wcstoq.obj
 0002:0001a740       __sehtable$?_Name_base@type_info@@CAPBDPBV1@PAU__type_info_node@@@Z 300b9740     LIBCMTD:typname.obj
 0002:0001a760       __sehtable$?_Type_info_dtor@type_info@@CAXPAV1@@Z 300b9760     LIBCMTD:typname.obj
 0002:0001a780       __sehtable$?_Name_base_internal@type_info@@CAPBDPBV1@PAU__type_info_node@@@Z 300b9780     LIBCMTD:typname.obj
 0002:0001a7a0       __sehtable$?_Type_info_dtor_internal@type_info@@CAXPAV1@@Z 300b97a0     LIBCMTD:typname.obj
 0002:0001a7c0       __sehtable$___clean_type_info_names_internal 300b97c0     LIBCMTD:typname.obj
 0002:0001a7e0       __sehtable$___unDName      300b97e0     LIBCMTD:undname.obj
 0002:0001a800       __sehtable$___unDNameEx    300b9800     LIBCMTD:undname.obj
 0002:0001a81c       __unwindtable$?make@DNameStatusNode@@SAPAV1@W4DNameStatus@@@Z 300b981c     LIBCMTD:undname.obj
 0002:0001a824       __ehfuncinfo$?make@DNameStatusNode@@SAPAV1@W4DNameStatus@@@Z 300b9824     LIBCMTD:undname.obj
 0002:0001afde       .idata$6                   300b9fde     kernel32:KERNEL32.dll
 0002:0001aff0       .edata                     300b9ff0     cgamex86.exp
 0002:0001b018       rgpv                       300ba018     cgamex86.exp
 0002:0001b020       rgszName                   300ba020     cgamex86.exp
 0002:0001b028       rgwOrd                     300ba028     cgamex86.exp
 0002:0001b02c       szName                     300ba02c     cgamex86.exp
 0002:0001b039       $N00001                    300ba039     cgamex86.exp
 0002:0001b042       $N00002                    300ba042     cgamex86.exp
 0003:000008e8       _commands                  300bb8e8     cg_consolecmds.obj
 0003:000009a0       ?colors@?1??CG_DrawStatusBar@@9@9 300bb9a0     cg_draw.obj
 0003:000009e0       ?colors@?1??CG_DrawPowerups@@9@9 300bb9e0     cg_draw.obj
 0003:00000a08       ?red@?1??CG_TeamColor@@9@9 300bba08     cg_drawtools.obj
 0003:00000a18       ?blue@?1??CG_TeamColor@@9@9 300bba18     cg_drawtools.obj
 0003:00000a28       ?other@?1??CG_TeamColor@@9@9 300bba28     cg_drawtools.obj
 0003:00000a38       ?spectator@?1??CG_TeamColor@@9@9 300bba38     cg_drawtools.obj
 0003:00000a48       _propMap                   300bba48     cg_drawtools.obj
 0003:00001048       _propMapB                  300bc048     cg_drawtools.obj
 0003:00001180       ?seed@?1??CG_SmokePuff@@9@9 300bc180     cg_effects.obj
 0003:0000118c       _cvarTableSize             300bc18c     cg_main.obj
 0003:00001190       _cvarTable                 300bc190     cg_main.obj
 0003:00001720       ?sb_nums@?1??CG_RegisterGraphics@@9@9 300bc720     cg_main.obj
 0003:00001750       _shaderAnimNames           300bc750     cg_marks.obj
 0003:000017d0       _shaderAnimCounts          300bc7d0     cg_marks.obj
 0003:00001850       _shaderAnimSTRatio         300bc850     cg_marks.obj
 0003:00001958       ?movementOffsets@?1??CG_PlayerAngles@@9@9 300bc958     cg_players.obj
 0003:00001978       _syscall                   300bc978     cg_syscalls.obj
 0003:0000197c       ?mins@?1??CG_OffsetThirdPersonView@@9@9 300bc97c     cg_view.obj
 0003:00001988       ?maxs@?1??CG_OffsetThirdPersonView@@9@9 300bc988     cg_view.obj
 0003:00002288       _g_bindings                300bd288     ui_shared.obj
 0003:000028d4       ?staticNULL@?1??String_Alloc@@9@9 300bd8d4     ui_shared.obj
 0003:000028d8       _g_configcvars             300bd8d8     ui_shared.obj
 0003:00002da0       _NAME_                     300bdda0     LIBCMTD:cos.obj
 0003:00002db0       _NAME_                     300bddb0     LIBCMTD:sin.obj
 0003:00002dd0       _NAME_                     300bddd0     LIBCMTD:sqrt.obj
 0003:00002de0       _NAME_                     300bdde0     LIBCMTD:acos.obj
 0003:00002df0       _NAME_                     300bddf0     LIBCMTD:tan.obj
 0003:00002df8       __assertstring             300bddf8     LIBCMTD:wassert.obj
 0003:00002e48       _dotdotdot                 300bde48     LIBCMTD:wassert.obj
 0003:00002e4c       _newline                   300bde4c     LIBCMTD:wassert.obj
 0003:00002e50       _dblnewline                300bde50     LIBCMTD:wassert.obj
 0003:00002e60       ?_names@?1??_get_fname@@9@9 300bde60     LIBCMTD:fpexcept.obj
 0003:00002f70       _over                      300bdf70     LIBCMTD:fpctrl.obj
 0003:00002f7c       _under                     300bdf7c     LIBCMTD:fpctrl.obj
 0003:00002f88       ?__DAZ_ENABLED@?1??__set_fpsr_sse2@@9@9 300bdf88     LIBCMTD:fpctrl.obj
 0003:00002f90       _errtable                  300bdf90     LIBCMTD:dosmap.obj
 0003:000030f8       _ErrnoNoMem                300be0f8     LIBCMTD:dosmap.obj
 0003:000030fc       _DoserrorNoMem             300be0fc     LIBCMTD:dosmap.obj
 0003:00003100       ___rgctypeflag             300be100     LIBCMTD:mbctype.obj
 0003:00003108       ___rgcode_page_info        300be108     LIBCMTD:mbctype.obj
 0003:00003624       _dotdotdot                 300be624     LIBCMTD:dbgrptw.obj
 0003:00003890       ?isPackaged@?1??__crtIsPackagedApp@@9@9 300be890     LIBCMTD:winapisupp.obj
 0003:0000389c       _newcw                     300be89c     LIBCMTD:floor.obj
 0003:00003b28       __ctype_loc_style          300beb28     LIBCMTD:wsetloca.obj
 0003:00003b70       __lRequestCurr             300beb70     LIBCMTD:dbgheap.obj
 0003:00003b74       __bNoMansLandFill          300beb74     LIBCMTD:dbgheap.obj
 0003:00003b75       __bAlignLandFill           300beb75     LIBCMTD:dbgheap.obj
 0003:00003b76       __bDeadLandFill            300beb76     LIBCMTD:dbgheap.obj
 0003:00003b77       __bCleanLandFill           300beb77     LIBCMTD:dbgheap.obj
 0003:00003b88       _DoubleFormat              300beb88     LIBCMTD:intrncvt.obj
 0003:00003ba0       _FloatFormat               300beba0     LIBCMTD:intrncvt.obj
 0003:00003e78       __locktable                300bee78     LIBCMTD:mlock.obj
 0003:00004020       _dotdotdot                 300bf020     LIBCMTD:dbgrpt.obj
 0003:000041a4       ?previousTimes@?1??CG_DrawFPS@@9@9 300bf1a4     cg_draw.obj
 0003:000041b4       ?index@?1??CG_DrawFPS@@9@9 300bf1b4     cg_draw.obj
 0003:000041b8       ?previous@?1??CG_DrawFPS@@9@9 300bf1b8     cg_draw.obj
 0003:000041bc       ?color@?1??CG_FadeColor@@9@9 300bf1bc     cg_drawtools.obj
 0003:000041cc       ?lastPos@?1??CG_ScorePlum@@9@9 300bf1cc     cg_effects.obj
 0003:000041d8       ?str@?1??CG_PlaceString@@9@9 300bf1d8     cg_event.obj
 0003:00004218       _loadingPlayerIconCount    300bf218     cg_info.obj
 0003:0000421c       _loadingItemIconCount      300bf21c     cg_info.obj
 0003:00004220       _loadingPlayerIcons        300bf220     cg_info.obj
 0003:00004260       _loadingItemIcons          300bf260     cg_info.obj
 0003:000042c8       ?buffer@?1??CG_Argv@@9@9   300bf2c8     cg_main.obj
 0003:000046cc       _roll                      300bf6cc     cg_marks.obj
 0003:000046d0       _markTotal                 300bf6d0     cg_marks.obj
 0003:000046d4       _numShaderAnims            300bf6d4     cg_marks.obj
 0003:000046d8       _shaderAnims               300bf6d8     cg_marks.obj
 0003:000066d8       _cg_pmove                  300c16d8     cg_predict.obj
 0003:000067c0       _cg_numSolidEntities       300c17c0     cg_predict.obj
 0003:000067c4       _cg_numTriggerEntities     300c17c4     cg_predict.obj
 0003:000067c8       _cg_solidEntities          300c17c8     cg_predict.obj
 0003:00006bc8       _cg_triggerEntities        300c1bc8     cg_predict.obj
 0003:00006fc8       _localClient               300c1fc8     cg_scoreboard.obj
 0003:00006fd8       ?bops_initialized@?1??BoxOnPlaneSide@@9@9 300c1fd8     q_math.obj
 0003:00006fdc       ?Ljmptab@?1??BoxOnPlaneSide@@9@9 300c1fdc     q_math.obj
 0003:00006ffc       ?sr@?1??AngleVectors@@9@9  300c1ffc     q_math.obj
 0003:00007000       ?sp@?1??AngleVectors@@9@9  300c2000     q_math.obj
 0003:00007004       ?sy@?1??AngleVectors@@9@9  300c2004     q_math.obj
 0003:00007008       ?cr@?1??AngleVectors@@9@9  300c2008     q_math.obj
 0003:0000700c       ?cp@?1??AngleVectors@@9@9  300c200c     q_math.obj
 0003:00007010       ?cy@?1??AngleVectors@@9@9  300c2010     q_math.obj
 0003:00007018       ?index@?1??va@@9@9         300c2018     q_shared.obj
 0003:0000701c       ?valueindex@?1??Info_ValueForKey@@9@9 300c201c     q_shared.obj
 0003:00007020       _com_token                 300c2020     q_shared.obj
 0003:00007420       _com_parsename             300c2420     q_shared.obj
 0003:00007820       _com_lines                 300c2820     q_shared.obj
 0003:00007828       ?string@?1??COM_ParseError@@9@9 300c2828     q_shared.obj
 0003:00008828       ?string@?1??COM_ParseWarning@@9@9 300c3828     q_shared.obj
 0003:00009828       ?string@?1??va@@9@9        300c4828     q_shared.obj
 0003:00019228       ?value@?1??Info_ValueForKey@@9@9 300d4228     q_shared.obj
 0003:0001d228       ?inHandleKey@?9??Menu_HandleKey@@9@9 300d8228     ui_shared.obj
 0003:0001d22c       _captureFunc               300d822c     ui_shared.obj
 0003:0001d230       _captureData               300d8230     ui_shared.obj
 0003:0001d234       _itemCapture               300d8234     ui_shared.obj
 0003:0001d23c       _g_waitingForKey           300d823c     ui_shared.obj
 0003:0001d240       _g_editingField            300d8240     ui_shared.obj
 0003:0001d244       _g_bindItem                300d8244     ui_shared.obj
 0003:0001d248       _g_editItem                300d8248     ui_shared.obj
 0003:0001d254       _debugMode                 300d8254     ui_shared.obj
 0003:0001d258       _lastListBoxClickTime      300d8258     ui_shared.obj
 0003:0001d25c       _strPoolIndex              300d825c     ui_shared.obj
 0003:0001d260       _strHandleCount            300d8260     ui_shared.obj
 0003:0001d264       _scrollInfo                300d8264     ui_shared.obj
 0003:0001d284       _allocPoint                300d8284     ui_shared.obj
 0003:0001d288       _memoryPool                300d8288     ui_shared.obj
 0003:0011d288       _outOfMemory               301d8288     ui_shared.obj
 0003:0011d290       _strPool                   301d8290     ui_shared.obj
 0003:0017d290       _strHandle                 30238290     ui_shared.obj
 0003:0017f290       ?string@?1??PC_SourceWarning@@9@9 3023a290     ui_shared.obj
 0003:00180290       ?string@?1??PC_SourceError@@9@9 3023b290     ui_shared.obj
 0003:00181290       ?rect@?1??Item_CorrectedTextRect@@9@9 3023c290     ui_shared.obj
 0003:001812a8       _GS_ExceptionRecord        3023c2a8     LIBCMTD:gs_report.obj
 0003:001812f8       _GS_ContextRecord          3023c2f8     LIBCMTD:gs_report.obj
 0003:001815c4       _DebuggerWasPresent        3023c5c4     LIBCMTD:gs_report.obj
 0003:001815d0       ___proc_attached           3023c5d0     LIBCMTD:dllcrt0.obj
 0003:001815f0       _fSystemSet                3023c5f0     LIBCMTD:mbctype.obj
 0003:001815fc       __pmatherr_set             3023c5fc     LIBCMTD:libm_error.obj
 0003:00181618       ?fExit@?1??doexit@@9@9     3023c618     LIBCMTD:crt0dat.obj
 0003:00181640       _ctrlc_action              3023c640     LIBCMTD:winsig.obj
 0003:00181644       _ctrlbreak_action          3023c644     LIBCMTD:winsig.obj
 0003:00181648       _abort_action              3023c648     LIBCMTD:winsig.obj
 0003:0018164c       _term_action               3023c64c     LIBCMTD:winsig.obj
 0003:00181650       _ConsoleCtrlHandler_Installed 3023c650     LIBCMTD:winsig.obj
 0003:00181654       ?pfnMessageBox@?1??__crtMessageBoxW@@9@9 3023c654     LIBCMTD:crtmboxw.obj
 0003:00181658       ?pfnGetActiveWindow@?1??__crtMessageBoxW@@9@9 3023c658     LIBCMTD:crtmboxw.obj
 0003:0018165c       ?pfnGetLastActivePopup@?1??__crtMessageBoxW@@9@9 3023c65c     LIBCMTD:crtmboxw.obj
 0003:00181660       ?pfnGetProcessWindowStation@?1??__crtMessageBoxW@@9@9 3023c660     LIBCMTD:crtmboxw.obj
 0003:00181664       ?pfnGetUserObjectInformation@?1??__crtMessageBoxW@@9@9 3023c664     LIBCMTD:crtmboxw.obj
 0003:00181670       ?outmsg@?L@??_NMSG_WRITE@@9@9 3023c670     LIBCMTD:crt0msg.obj
 0003:00181da0       ?_pgmname@?1??_setargv@@9@9 3023cda0     LIBCMTD:stdargv.obj
 0003:00181eac       _check_frequency           3023ceac     LIBCMTD:dbgheap.obj
 0003:00181eb4       _check_counter             3023ceb4     LIBCMTD:dbgheap.obj
 0003:00181eb8       __lTotalAlloc              3023ceb8     LIBCMTD:dbgheap.obj
 0003:00181ebc       __lCurAlloc                3023cebc     LIBCMTD:dbgheap.obj
 0003:00181ec0       __lMaxAlloc                3023cec0     LIBCMTD:dbgheap.obj
 0003:00181ec4       __pFirstBlock              3023cec4     LIBCMTD:dbgheap.obj
 0003:00181ec8       __pLastBlock               3023cec8     LIBCMTD:dbgheap.obj
 0003:00181ed0       _lclcritsects              3023ced0     LIBCMTD:mlock.obj
 0003:00182044       ___enable_percent_n        3023d044     LIBCMTD:printf.obj
 0003:00182054       _g_pfnRtlGenRandom         3023d054     LIBCMTD:rand_s.obj
 0003:00182060       ___crtCallProc             3023d060     LIBCMTD:winapinls.obj
 0003:00182068       ___type_info_root_node     3023d068     LIBCMTD:typname.obj
 0003:00182098       _heap                      3023d098     LIBCMTD:undname.obj
 0003:001820b0       ?buf@?1??dbGetString@DName@@QBEPADXZ@4PADA 3023d0b0     LIBCMTD:undname.obj
 0004:00000060       $R000000                   305cf060     * linker generated manifest res *
