 uix86

 Timestamp is 51f195d6 (Thu Jul 25 16:17:10 2013)

 Preferred load address is 40000000

 Start         Length     Name                   Class
 0001:00000000 0008027eH .text                   CODE
 0001:00080280 00000139H .text$x                 CODE
 0002:00000000 00000158H .idata$5                DATA
 0002:00000158 00000004H .CRT$XCA                DATA
 0002:0000015c 00000004H .CRT$XCZ                DATA
 0002:00000160 00000004H .CRT$XIA                DATA
 0002:00000164 00000014H .CRT$XIC                DATA
 0002:00000178 00000004H .CRT$XIZ                DATA
 0002:0000017c 00000004H .CRT$XPA                DATA
 0002:00000180 00000008H .CRT$XPX                DATA
 0002:00000188 00000004H .CRT$XPXA               DATA
 0002:0000018c 00000004H .CRT$XPZ                DATA
 0002:00000190 00000004H .CRT$XTA                DATA
 0002:00000194 00000004H .CRT$XTZ                DATA
 0002:000001a0 000173b8H .rdata                  DATA
 0002:00017558 0000006cH .rdata$debug            DATA
 0002:000175c4 00000388H .rdata$r                DATA
 0002:00017950 00000030H .rdata$sxdata           DATA
 0002:00017980 00000004H .rtc$IAA                DATA
 0002:00017984 000000a8H .rtc$IMZ                DATA
 0002:00017a2c 00000004H .rtc$IZZ                DATA
 0002:00017a30 00000004H .rtc$TAA                DATA
 0002:00017a34 000000a8H .rtc$TMZ                DATA
 0002:00017adc 00000004H .rtc$TZZ                DATA
 0002:00017ae0 00000b08H .xdata$x                DATA
 0002:000185e8 00000014H .idata$2                DATA
 0002:000185fc 00000014H .idata$3                DATA
 0002:00018610 00000158H .idata$4                DATA
 0002:00018768 00000648H .idata$6                DATA
 0002:00018db0 00000056H .edata                  DATA
 0003:00000000 00003bf7H .data                   DATA
 0003:00003c00 000702bcH .bss                    DATA
 0004:00000000 00000058H .rsrc$01                DATA
 0004:00000060 00000180H .rsrc$02                DATA

  Address         Publics by Value              Rva+Base       Lib:Object

 0000:00000000       __except_list              00000000     <absolute>
 0000:0000000c       ___safe_se_handler_count   0000000c     <absolute>
 0000:00000000       ___ImageBase               40000000     <linker-defined>
 0001:00000000       _BG_AddPredictableEventToPlayerstate 40001000 f   bg_misc.obj
 0001:00000120       _BG_CanItemBeGrabbed       40001120 f   bg_misc.obj
 0001:000003e0       _BG_EvaluateTrajectory     400013e0 f   bg_misc.obj
 0001:000008d0       _BG_EvaluateTrajectoryDelta 400018d0 f   bg_misc.obj
 0001:00000c40       _BG_FindItem               40001c40 f   bg_misc.obj
 0001:00000cb0       _BG_FindItemForHoldable    40001cb0 f   bg_misc.obj
 0001:00000d40       _BG_FindItemForPowerup     40001d40 f   bg_misc.obj
 0001:00000de0       _BG_FindItemForWeapon      40001de0 f   bg_misc.obj
 0001:00000e60       _BG_PlayerStateToEntityState 40001e60 f   bg_misc.obj
 0001:000012e0       _BG_PlayerStateToEntityStateExtraPolate 400022e0 f   bg_misc.obj
 0001:00001770       _BG_PlayerTouchesItem      40002770 f   bg_misc.obj
 0001:00001910       _BG_TouchJumpPad           40002910 f   bg_misc.obj
 0001:00001aa0       _AddPointToBounds          40002aa0 f   q_math.obj
 0001:00001c30       _AngleDelta                40002c30 f   q_math.obj
 0001:00001c80       _AngleMod                  40002c80 f   q_math.obj
 0001:00001ce0       _AngleNormalize180         40002ce0 f   q_math.obj
 0001:00001d50       _AngleNormalize360         40002d50 f   q_math.obj
 0001:00001dc0       _AngleSubtract             40002dc0 f   q_math.obj
 0001:00001e50       _AngleVectors              40002e50 f   q_math.obj
 0001:00002170       _AnglesSubtract            40003170 f   q_math.obj
 0001:00002270       _AnglesToAxis              40003270 f   q_math.obj
 0001:000023c0       _AxisClear                 400033c0 f   q_math.obj
 0001:00002500       _AxisCopy                  40003500 f   q_math.obj
 0001:000026b0       _BoxOnPlaneSide            400036b0 f   q_math.obj
 0001:000028f0       _ByteToDir                 400038f0 f   q_math.obj
 0001:000029e0       _ClampChar                 400039e0 f   q_math.obj
 0001:00002a20       _ClampShort                40003a20 f   q_math.obj
 0001:00002a70       _ClearBounds               40003a70 f   q_math.obj
 0001:00002b30       _ColorBytes3               40003b30 f   q_math.obj
 0001:00002be0       _ColorBytes4               40003be0 f   q_math.obj
 0001:00002dd0       _DirToByte                 40003dd0 f   q_math.obj
 0001:00002ee0       _LerpAngle                 40003ee0 f   q_math.obj
 0001:00002f70       _MakeNormalVectors         40003f70 f   q_math.obj
 0001:00003160       _MatrixMultiply            40004160 f   q_math.obj
 0001:00003790       _NormalizeColor            40004790 f   q_math.obj
 0001:000038f0       _PerpendicularVector       400048f0 f   q_math.obj
 0001:00003a60       _PlaneFromPoints           40004a60 f   q_math.obj
 0001:00003cd0       _ProjectPointOnPlane       40004cd0 f   q_math.obj
 0001:00003f80       _Q_crandom                 40004f80 f   q_math.obj
 0001:00004000       _Q_fabs                    40005000 f   q_math.obj
 0001:00004040       _Q_log2                    40005040 f   q_math.obj
 0001:00004090       _Q_rand                    40005090 f   q_math.obj
 0001:000040d0       _Q_random                  400050d0 f   q_math.obj
 0001:00004130       _Q_rsqrt                   40005130 f   q_math.obj
 0001:000041d0       _RadiusFromBounds          400051d0 f   q_math.obj
 0001:000042e0       _RotateAroundDirection     400052e0 f   q_math.obj
 0001:00004450       _RotatePointAroundVector   40005450 f   q_math.obj
 0001:00004aa0       _SetPlaneSignbits          40005aa0 f   q_math.obj
 0001:00004b20       _Vector4Scale              40005b20 f   q_math.obj
 0001:00004ca0       _VectorNormalize           40005ca0 f   q_math.obj
 0001:00004df0       _VectorNormalize2          40005df0 f   q_math.obj
 0001:00004f90       _VectorRotate              40005f90 f   q_math.obj
 0001:00005160       __DotProduct               40006160 f   q_math.obj
 0001:00005200       __VectorAdd                40006200 f   q_math.obj
 0001:000052c0       __VectorCopy               400062c0 f   q_math.obj
 0001:00005340       __VectorMA                 40006340 f   q_math.obj
 0001:00005410       __VectorScale              40006410 f   q_math.obj
 0001:000054b0       __VectorSubtract           400064b0 f   q_math.obj
 0001:00005570       _vectoangles               40006570 f   q_math.obj
 0001:00005810       _COM_BeginParseSession     40006810 f   q_shared.obj
 0001:00005870       _COM_Compress              40006870 f   q_shared.obj
 0001:00005aa0       _COM_DefaultExtension      40006aa0 f   q_shared.obj
 0001:00005b90       _COM_GetCurrentParseLine   40006b90 f   q_shared.obj
 0001:00005bc0       _COM_MatchToken            40006bc0 f   q_shared.obj
 0001:00005c30       _COM_Parse                 40006c30 f   q_shared.obj
 0001:00005c70       _COM_ParseError            40006c70 f   q_shared.obj
 0001:00005cf0       _COM_ParseExt              40006cf0 f   q_shared.obj
 0001:00006000       _COM_ParseWarning          40007000 f   q_shared.obj
 0001:00006080       _COM_SkipPath              40007080 f   q_shared.obj
 0001:000060e0       _COM_StripExtension        400070e0 f   q_shared.obj
 0001:00006140       _Com_Clamp                 40007140 f   q_shared.obj
 0001:00006190       _Com_sprintf               40007190 f   q_shared.obj
 0001:00006280       _FloatNoSwap               40007280 f   q_shared.obj
 0001:000062b0       _FloatSwap                 400072b0 f   q_shared.obj
 0001:00006330       _Info_NextPair             40007330 f   q_shared.obj
 0001:00006430       _Info_RemoveKey            40007430 f   q_shared.obj
 0001:00006610       _Info_RemoveKey_Big        40007610 f   q_shared.obj
 0001:000067f0       _Info_SetValueForKey       400077f0 f   q_shared.obj
 0001:000069d0       _Info_SetValueForKey_Big   400079d0 f   q_shared.obj
 0001:00006ba0       _Info_Validate             40007ba0 f   q_shared.obj
 0001:00006c10       _Info_ValueForKey          40007c10 f   q_shared.obj
 0001:00006df0       _Long64NoSwap              40007df0 f   q_shared.obj
 0001:00006e20       _Long64Swap                40007e20 f   q_shared.obj
 0001:00006eb0       _LongNoSwap                40007eb0 f   q_shared.obj
 0001:00006ee0       _LongSwap                  40007ee0 f   q_shared.obj
 0001:00006f60       _Parse1DMatrix             40007f60 f   q_shared.obj
 0001:00007000       _Parse2DMatrix             40008000 f   q_shared.obj
 0001:00007090       _Parse3DMatrix             40008090 f   q_shared.obj
 0001:00007130       _Q_CleanStr                40008130 f   q_shared.obj
 0001:000071e0       _Q_PrintStrlen             400081e0 f   q_shared.obj
 0001:00007270       _Q_isalpha                 40008270 f   q_shared.obj
 0001:000072c0       _Q_islower                 400082c0 f   q_shared.obj
 0001:00007300       _Q_isprint                 40008300 f   q_shared.obj
 0001:00007340       _Q_isupper                 40008340 f   q_shared.obj
 0001:00007380       _Q_strcat                  40008380 f   q_shared.obj
 0001:00007400       _Q_stricmp                 40008400 f   q_shared.obj
 0001:00007470       _Q_stricmpn                40008470 f   q_shared.obj
 0001:00007580       _Q_strlwr                  40008580 f   q_shared.obj
 0001:000075f0       _Q_strncmp                 400085f0 f   q_shared.obj
 0001:00007690       _Q_strncpyz                40008690 f   q_shared.obj
 0001:00007730       _Q_strrchr                 40008730 f   q_shared.obj
 0001:000077b0       _Q_strupr                  400087b0 f   q_shared.obj
 0001:00007820       _ShortNoSwap               40008820 f   q_shared.obj
 0001:00007850       _ShortSwap                 40008850 f   q_shared.obj
 0001:000078a0       _SkipBracedSection         400088a0 f   q_shared.obj
 0001:00007950       _SkipRestOfLine            40008950 f   q_shared.obj
 0001:00007a50       _va                        40008a50 f   q_shared.obj
 0001:00007ad0       _UI_AddBotsMenu            40008ad0 f   ui_addbots.obj
 0001:00008510       _UI_AddBots_Cache          40009510 f   ui_addbots.obj
 0001:000085b0       _Com_Error                 400095b0 f   ui_atoms.obj
 0001:00008670       _Com_Printf                40009670 f   ui_atoms.obj
 0001:000087d0       _UI_AdjustFrom640          400097d0 f   ui_atoms.obj
 0001:00008860       _UI_Argv                   40009860 f   ui_atoms.obj
 0001:000088b0       _UI_Cache_f                400098b0 f   ui_atoms.obj
 0001:00008980       _UI_ClampCvar              40009980 f   ui_atoms.obj
 0001:000089d0       _UI_ConsoleCommand         400099d0 f   ui_atoms.obj
 0001:00008b30       _UI_CursorInRect           40009b30 f   ui_atoms.obj
 0001:00008b90       _UI_Cvar_VariableString    40009b90 f   ui_atoms.obj
 0001:00008be0       _UI_DrawBannerString       40009be0 f   ui_atoms.obj
 0001:00008fe0       _UI_DrawChar               40009fe0 f   ui_atoms.obj
 0001:00009090       _UI_DrawHandlePic          4000a090 f   ui_atoms.obj
 0001:000091f0       _UI_DrawNamedPic           4000a1f0 f   ui_atoms.obj
 0001:000092c0       _UI_DrawProportionalString 4000a2c0 f   ui_atoms.obj
 0001:00009940       _UI_DrawProportionalString_AutoWrapped 4000a940 f   ui_atoms.obj
 0001:00009b40       _UI_DrawRect               4000ab40 f   ui_atoms.obj
 0001:00009d90       _UI_DrawString             4000ad90 f   ui_atoms.obj
 0001:0000a370       _UI_DrawTextBox            4000b370 f   ui_atoms.obj
 0001:0000a450       _UI_FillRect               4000b450 f   ui_atoms.obj
 0001:0000a530       _UI_ForceMenuOff           4000b530 f   ui_atoms.obj
 0001:0000a5a0       _UI_Init                   4000b5a0 f   ui_atoms.obj
 0001:0000a680       _UI_IsFullscreen           4000b680 f   ui_atoms.obj
 0001:0000a6e0       _UI_KeyEvent               4000b6e0 f   ui_atoms.obj
 0001:0000a790       _UI_LerpColor              4000b790 f   ui_atoms.obj
 0001:0000a860       _UI_MouseEvent             4000b860 f   ui_atoms.obj
 0001:0000aa70       _UI_PopMenu                4000ba70 f   ui_atoms.obj
 0001:0000ab00       _UI_ProportionalSizeScale  4000bb00 f   ui_atoms.obj
 0001:0000ab40       _UI_ProportionalStringWidth 4000bb40 f   ui_atoms.obj
 0001:0000abd0       _UI_PushMenu               4000bbd0 f   ui_atoms.obj
 0001:0000ad10       _UI_Refresh                4000bd10 f   ui_atoms.obj
 0001:0000af30       _UI_SetActiveMenu          4000bf30 f   ui_atoms.obj
 0001:0000b000       _UI_SetColor               4000c000 f   ui_atoms.obj
 0001:0000b040       _UI_Shutdown               4000c040 f   ui_atoms.obj
 0001:0000b070       _UI_StartDemoLoop          4000c070 f   ui_atoms.obj
 0001:0000b0c0       _UI_UpdateScreen           4000c0c0 f   ui_atoms.obj
 0001:0000b100       _UI_CDKeyMenu              4000c100 f   ui_cdkey.obj
 0001:0000b150       _UI_CDKeyMenu_Cache        4000c150 f   ui_cdkey.obj
 0001:0000b7e0       _UI_CDKeyMenu_f            4000c7e0 f   ui_cdkey.obj
 0001:0000b820       _UI_CinematicsMenu         4000c820 f   ui_cinematics.obj
 0001:0000b8b0       _UI_CinematicsMenu_Cache   4000c8b0 f   ui_cinematics.obj
 0001:0000c130       _UI_CinematicsMenu_f       4000d130 f   ui_cinematics.obj
 0001:0000c1a0       _ConfirmMenu_Cache         4000d1a0 f   ui_confirm.obj
 0001:0000c560       _UI_ConfirmMenu            4000d560 f   ui_confirm.obj
 0001:0000c5b0       _UI_ConfirmMenu_Style      4000d5b0 f   ui_confirm.obj
 0001:0000c830       _UI_Message                4000d830 f   ui_confirm.obj
 0001:0000cf80       _UI_DrawConnectScreen      4000df80 f   ui_connect.obj
 0001:0000d2c0       _UI_KeyConnect             4000e2c0 f   ui_connect.obj
 0001:0000d5f0       _Controls_Cache            4000e5f0 f   ui_controls2.obj
 0001:000102f0       _UI_ControlsMenu           400112f0 f   ui_controls2.obj
 0001:00010340       _UI_CreditMenu             40011340 f   ui_credits.obj
 0001:00010810       _Demos_Cache               40011810 f   ui_demo2.obj
 0001:00010f00       _UI_DemosMenu              40011f00 f   ui_demo2.obj
 0001:00010fb0       _UI_DisplayOptionsMenu     40011fb0 f   ui_display.obj
 0001:00011010       _UI_DisplayOptionsMenu_Cache 40012010 f   ui_display.obj
 0001:00011690       _UI_Alloc                  40012690 f   ui_gameinfo.obj
 0001:00011700       _UI_CanShowTierVideo       40012700 f   ui_gameinfo.obj
 0001:00011800       _UI_GetArenaInfoByMap      40012800 f   ui_gameinfo.obj
 0001:00011890       _UI_GetArenaInfoByNumber   40012890 f   ui_gameinfo.obj
 0001:00011960       _UI_GetAwardLevel          40012960 f   ui_gameinfo.obj
 0001:00011a40       _UI_GetBestScore           40012a40 f   ui_gameinfo.obj
 0001:00011bc0       _UI_GetBotInfoByName       40012bc0 f   ui_gameinfo.obj
 0001:00011c50       _UI_GetBotInfoByNumber     40012c50 f   ui_gameinfo.obj
 0001:00011cc0       _UI_GetCurrentGame         40012cc0 f   ui_gameinfo.obj
 0001:00011e00       _UI_GetNumArenas           40012e00 f   ui_gameinfo.obj
 0001:00011e30       _UI_GetNumBots             40012e30 f   ui_gameinfo.obj
 0001:00011e60       _UI_GetNumSPArenas         40012e60 f   ui_gameinfo.obj
 0001:00011e90       _UI_GetNumSPTiers          40012e90 f   ui_gameinfo.obj
 0001:00011ed0       _UI_GetSpecialArenaInfo    40012ed0 f   ui_gameinfo.obj
 0001:00011f60       _UI_InitGameinfo           40012f60 f   ui_gameinfo.obj
 0001:00012000       _UI_InitMemory             40013000 f   ui_gameinfo.obj
 0001:00012a60       _UI_LogAwardData           40013a60 f   ui_gameinfo.obj
 0001:00012bb0       _UI_NewGame                40013bb0 f   ui_gameinfo.obj
 0001:00012c60       _UI_ParseInfos             40013c60 f   ui_gameinfo.obj
 0001:00012ee0       _UI_SPUnlockMedals_f       40013ee0 f   ui_gameinfo.obj
 0001:00012ff0       _UI_SPUnlock_f             40013ff0 f   ui_gameinfo.obj
 0001:00013150       _UI_SetBestScore           40014150 f   ui_gameinfo.obj
 0001:000132c0       _UI_ShowTierVideo          400142c0 f   ui_gameinfo.obj
 0001:000133e0       _UI_TierCompleted          400143e0 f   ui_gameinfo.obj
 0001:00013540       _InGame_Cache              40014540 f   ui_ingame.obj
 0001:00013580       _InGame_Event              40014580 f   ui_ingame.obj
 0001:00013690       _InGame_MenuInit           40014690 f   ui_ingame.obj
 0001:00013ea0       _UI_InGameMenu             40014ea0 f   ui_ingame.obj
 0001:00013f10       _UI_RegisterCvars          40014f10 f   ui_main.obj
 0001:00013fa0       _UI_UpdateCvars            40014fa0 f   ui_main.obj
 0001:00014010       _vmMain                    40015010 f   ui_main.obj
 0001:00014130       _ErrorMessage_Key          40015130 f   ui_menu.obj
 0001:00014180       _MainMenu_Cache            40015180 f   ui_menu.obj
 0001:00014770       _Main_MenuEvent            40015770 f   ui_menu.obj
 0001:00014860       _UI_MainMenu               40015860 f   ui_menu.obj
 0001:00014f00       _MField_CharEvent          40015f00 f   ui_mfield.obj
 0001:00015140       _MField_Clear              40016140 f   ui_mfield.obj
 0001:00015190       _MField_Draw               40016190 f   ui_mfield.obj
 0001:000153e0       _MField_KeyDownEvent       400163e0 f   ui_mfield.obj
 0001:00015640       _MField_Paste              40016640 f   ui_mfield.obj
 0001:00015710       _MenuField_Draw            40016710 f   ui_mfield.obj
 0001:000158c0       _MenuField_Init            400168c0 f   ui_mfield.obj
 0001:000159a0       _MenuField_Key             400169a0 f   ui_mfield.obj
 0001:00015ba0       _UI_ModsMenu               40016ba0 f   ui_mods.obj
 0001:00015bf0       _UI_ModsMenu_Cache         40016bf0 f   ui_mods.obj
 0001:00016260       _UI_NetworkOptionsMenu     40017260 f   ui_network.obj
 0001:000162c0       _UI_NetworkOptionsMenu_Cache 400172c0 f   ui_network.obj
 0001:000169d0       _Options_MenuInit          400179d0 f   ui_options.obj
 0001:00016de0       _SystemConfig_Cache        40017de0 f   ui_options.obj
 0001:00016e50       _UI_SystemConfigMenu       40017e50 f   ui_options.obj
 0001:000171f0       _PlayerModel_Cache         400181f0 f   ui_playermodel.obj
 0001:00018570       _UI_PlayerModelMenu        40019570 f   ui_playermodel.obj
 0001:000185e0       _UI_DrawPlayer             400195e0 f   ui_players.obj
 0001:000195c0       _UI_MachinegunSpinAngle    4001a5c0 f   ui_players.obj
 0001:0001a5b0       _UI_PlayerInfo_SetInfo     4001b5b0 f   ui_players.obj
 0001:0001a9f0       _UI_PlayerInfo_SetModel    4001b9f0 f   ui_players.obj
 0001:0001b590       _UI_RegisterClientModelname 4001c590 f   ui_players.obj
 0001:0001c090       _PlayerSettings_Cache      4001d090 f   ui_playersettings.obj
 0001:0001d060       _UI_PlayerSettingsMenu     4001e060 f   ui_playersettings.obj
 0001:0001d290       _Preferences_Cache         4001e290 f   ui_preferences.obj
 0001:0001df30       _UI_PreferencesMenu        4001ef30 f   ui_preferences.obj
 0001:0001e210       _Bitmap_Draw               4001f210 f   ui_qmenu.obj
 0001:0001e650       _Bitmap_Init               4001f650 f   ui_qmenu.obj
 0001:0001e730       _Menu_ActivateItem         4001f730 f   ui_qmenu.obj
 0001:0001e7a0       _Menu_AddItem              4001f7a0 f   ui_qmenu.obj
 0001:0001e980       _Menu_AdjustCursor         4001f980 f   ui_qmenu.obj
 0001:0001eaa0       _Menu_Cache                4001faa0 f   ui_qmenu.obj
 0001:0001ec50       _Menu_CursorMoved          4001fc50 f   ui_qmenu.obj
 0001:0001ed30       _Menu_DefaultKey           4001fd30 f   ui_qmenu.obj
 0001:0001f100       _Menu_Draw                 40020100 f   ui_qmenu.obj
 0001:0001f3c0       _Menu_ItemAtCursor         400203c0 f   ui_qmenu.obj
 0001:0001f410       _Menu_SetCursor            40020410 f   ui_qmenu.obj
 0001:0001f480       _Menu_SetCursorToItem      40020480 f   ui_qmenu.obj
 0001:0001fb60       _ScrollList_Draw           40020b60 f   ui_qmenu.obj
 0001:0001fe60       _ScrollList_Key            40020e60 f   ui_qmenu.obj
 0001:00021170       _UI_RemoveBotsMenu         40022170 f   ui_removebots.obj
 0001:00021a60       _UI_RemoveBots_Cache       40022a60 f   ui_removebots.obj
 0001:00021ae0       _Favorites_Add             40022ae0 f   ui_serverinfo.obj
 0001:00021c90       _ServerInfo_Cache          40022c90 f   ui_serverinfo.obj
 0001:00021f40       _UI_ServerInfoMenu         40022f40 f   ui_serverinfo.obj
 0001:000222c0       _ArenaServers_Cache        400232c0 f   ui_servers2.obj
 0001:00022eb0       _ArenaServers_InsertFavorites 40023eb0 f   ui_servers2.obj
 0001:00023010       _ArenaServers_LoadFavorites 40024010 f   ui_servers2.obj
 0001:000240e0       _ArenaServers_SaveChanges  400250e0 f   ui_servers2.obj
 0001:00024190       _ArenaServers_SetType      40025190 f   ui_servers2.obj
 0001:00024310       _ArenaServers_Sort         40025310 f   ui_servers2.obj
 0001:00024e10       _UI_ArenaServersMenu       40025e10 f   ui_servers2.obj
 0001:00024f40       _UI_SetupMenu              40025f40 f   ui_setup.obj
 0001:00024f90       _UI_SetupMenu_Cache        40025f90 f   ui_setup.obj
 0001:000255b0       _UI_SoundOptionsMenu       400265b0 f   ui_sound.obj
 0001:00025610       _UI_SoundOptionsMenu_Cache 40026610 f   ui_sound.obj
 0001:00025dd0       _UI_SPArena_Start          40026dd0 f   ui_sparena.obj
 0001:00025f10       _SpecifyServer_Cache       40026f10 f   ui_specifyserver.obj
 0001:000260c0       _SpecifyServer_MenuInit    400270c0 f   ui_specifyserver.obj
 0001:000263e0       _UI_SpecifyServerMenu      400273e0 f   ui_specifyserver.obj
 0001:000265e0       _UI_SPLevelMenu            400275e0 f   ui_splevel.obj
 0001:00026820       _UI_SPLevelMenu_Cache      40027820 f   ui_splevel.obj
 0001:00027e80       _UI_SPLevelMenu_ReInit     40028e80 f   ui_splevel.obj
 0001:00028960       _UI_SPLevelMenu_f          40029960 f   ui_splevel.obj
 0001:00028b50       _UI_SPPostgameMenu_Cache   40029b50 f   ui_sppostgame.obj
 0001:00029870       _UI_SPPostgameMenu_f       4002a870 f   ui_sppostgame.obj
 0001:00029f30       _Reset_Cache               4002af30 f   ui_spreset.obj
 0001:0002a0c0       _Reset_MenuEvent           4002b0c0 f   ui_spreset.obj
 0001:0002a250       _UI_ResetMenu              4002b250 f   ui_spreset.obj
 0001:0002a550       _UI_SPSkillMenu            4002b550 f   ui_spskill.obj
 0001:0002a600       _UI_SPSkillMenu_Cache      4002b600 f   ui_spskill.obj
 0001:0002b140       _ServerOptions_Cache       4002c140 f   ui_startserver.obj
 0001:0002cf10       _StartServer_Cache         4002df10 f   ui_startserver.obj
 0001:0002df40       _UI_BotSelectMenu          4002ef40 f   ui_startserver.obj
 0001:0002e180       _UI_BotSelectMenu_Cache    4002f180 f   ui_startserver.obj
 0001:0002edd0       _UI_StartServerMenu        4002fdd0 f   ui_startserver.obj
 0001:0002ee20       _PASSFLOAT                 4002fe20 f   ui_syscalls.obj
 0001:0002ee60       _dllEntry                  4002fe60 f   ui_syscalls.obj
 0001:0002ee90       _trap_Argc                 4002fe90 f   ui_syscalls.obj
 0001:0002eee0       _trap_Argv                 4002fee0 f   ui_syscalls.obj
 0001:0002ef40       _trap_CIN_DrawCinematic    4002ff40 f   ui_syscalls.obj
 0001:0002ef90       _trap_CIN_PlayCinematic    4002ff90 f   ui_syscalls.obj
 0001:0002eff0       _trap_CIN_RunCinematic     4002fff0 f   ui_syscalls.obj
 0001:0002f040       _trap_CIN_SetExtents       40030040 f   ui_syscalls.obj
 0001:0002f0a0       _trap_CIN_StopCinematic    400300a0 f   ui_syscalls.obj
 0001:0002f0f0       _trap_CM_LerpTag           400300f0 f   ui_syscalls.obj
 0001:0002f160       _trap_Cmd_ExecuteText      40030160 f   ui_syscalls.obj
 0001:0002f1b0       _trap_Cvar_Create          400301b0 f   ui_syscalls.obj
 0001:0002f210       _trap_Cvar_InfoStringBuffer 40030210 f   ui_syscalls.obj
 0001:0002f270       _trap_Cvar_Register        40030270 f   ui_syscalls.obj
 0001:0002f2d0       _trap_Cvar_Reset           400302d0 f   ui_syscalls.obj
 0001:0002f320       _trap_Cvar_Set             40030320 f   ui_syscalls.obj
 0001:0002f370       _trap_Cvar_SetValue        40030370 f   ui_syscalls.obj
 0001:0002f3d0       _trap_Cvar_Update          400303d0 f   ui_syscalls.obj
 0001:0002f420       _trap_Cvar_VariableStringBuffer 40030420 f   ui_syscalls.obj
 0001:0002f480       _trap_Cvar_VariableValue   40030480 f   ui_syscalls.obj
 0001:0002f4d0       _trap_Error                400304d0 f   ui_syscalls.obj
 0001:0002f520       _trap_FS_FCloseFile        40030520 f   ui_syscalls.obj
 0001:0002f570       _trap_FS_FOpenFile         40030570 f   ui_syscalls.obj
 0001:0002f5d0       _trap_FS_GetFileList       400305d0 f   ui_syscalls.obj
 0001:0002f630       _trap_FS_Read              40030630 f   ui_syscalls.obj
 0001:0002f690       _trap_FS_Seek              40030690 f   ui_syscalls.obj
 0001:0002f6f0       _trap_FS_Write             400306f0 f   ui_syscalls.obj
 0001:0002f750       _trap_GetCDKey             40030750 f   ui_syscalls.obj
 0001:0002f7a0       _trap_GetClientState       400307a0 f   ui_syscalls.obj
 0001:0002f7f0       _trap_GetClipboardData     400307f0 f   ui_syscalls.obj
 0001:0002f840       _trap_GetConfigString      40030840 f   ui_syscalls.obj
 0001:0002f8a0       _trap_GetGlconfig          400308a0 f   ui_syscalls.obj
 0001:0002f8f0       _trap_Key_ClearStates      400308f0 f   ui_syscalls.obj
 0001:0002f940       _trap_Key_GetBindingBuf    40030940 f   ui_syscalls.obj
 0001:0002f9a0       _trap_Key_GetCatcher       400309a0 f   ui_syscalls.obj
 0001:0002f9f0       _trap_Key_GetOverstrikeMode 400309f0 f   ui_syscalls.obj
 0001:0002fa40       _trap_Key_IsDown           40030a40 f   ui_syscalls.obj
 0001:0002fa90       _trap_Key_KeynumToStringBuf 40030a90 f   ui_syscalls.obj
 0001:0002faf0       _trap_Key_SetBinding       40030af0 f   ui_syscalls.obj
 0001:0002fb40       _trap_Key_SetCatcher       40030b40 f   ui_syscalls.obj
 0001:0002fb90       _trap_Key_SetOverstrikeMode 40030b90 f   ui_syscalls.obj
 0001:0002fbe0       _trap_LAN_AddServer        40030be0 f   ui_syscalls.obj
 0001:0002fc40       _trap_LAN_ClearPing        40030c40 f   ui_syscalls.obj
 0001:0002fc90       _trap_LAN_CompareServers   40030c90 f   ui_syscalls.obj
 0001:0002fcf0       _trap_LAN_GetPing          40030cf0 f   ui_syscalls.obj
 0001:0002fd50       _trap_LAN_GetPingInfo      40030d50 f   ui_syscalls.obj
 0001:0002fdb0       _trap_LAN_GetPingQueueCount 40030db0 f   ui_syscalls.obj
 0001:0002fe00       _trap_LAN_GetServerAddressString 40030e00 f   ui_syscalls.obj
 0001:0002fe60       _trap_LAN_GetServerCount   40030e60 f   ui_syscalls.obj
 0001:0002feb0       _trap_LAN_GetServerInfo    40030eb0 f   ui_syscalls.obj
 0001:0002ff10       _trap_LAN_GetServerPing    40030f10 f   ui_syscalls.obj
 0001:0002ff60       _trap_LAN_LoadCachedServers 40030f60 f   ui_syscalls.obj
 0001:0002ffb0       _trap_LAN_MarkServerVisible 40030fb0 f   ui_syscalls.obj
 0001:00030010       _trap_LAN_RemoveServer     40031010 f   ui_syscalls.obj
 0001:00030060       _trap_LAN_ResetPings       40031060 f   ui_syscalls.obj
 0001:000300b0       _trap_LAN_SaveCachedServers 400310b0 f   ui_syscalls.obj
 0001:00030100       _trap_LAN_ServerIsVisible  40031100 f   ui_syscalls.obj
 0001:00030150       _trap_LAN_ServerStatus     40031150 f   ui_syscalls.obj
 0001:000301b0       _trap_LAN_UpdateVisiblePings 400311b0 f   ui_syscalls.obj
 0001:00030200       _trap_MemoryRemaining      40031200 f   ui_syscalls.obj
 0001:00030250       _trap_Milliseconds         40031250 f   ui_syscalls.obj
 0001:000302a0       _trap_PC_AddGlobalDefine   400312a0 f   ui_syscalls.obj
 0001:000302f0       _trap_PC_FreeSource        400312f0 f   ui_syscalls.obj
 0001:00030340       _trap_PC_LoadSource        40031340 f   ui_syscalls.obj
 0001:00030390       _trap_PC_ReadToken         40031390 f   ui_syscalls.obj
 0001:000303e0       _trap_PC_SourceFileAndLine 400313e0 f   ui_syscalls.obj
 0001:00030440       _trap_Print                40031440 f   ui_syscalls.obj
 0001:00030490       _trap_R_AddLightToScene    40031490 f   ui_syscalls.obj
 0001:00030530       _trap_R_AddPolyToScene     40031530 f   ui_syscalls.obj
 0001:00030590       _trap_R_AddRefEntityToScene 40031590 f   ui_syscalls.obj
 0001:000305e0       _trap_R_ClearScene         400315e0 f   ui_syscalls.obj
 0001:00030630       _trap_R_DrawStretchPic     40031630 f   ui_syscalls.obj
 0001:00030720       _trap_R_ModelBounds        40031720 f   ui_syscalls.obj
 0001:00030780       _trap_R_RegisterFont       40031780 f   ui_syscalls.obj
 0001:000307e0       _trap_R_RegisterModel      400317e0 f   ui_syscalls.obj
 0001:00030830       _trap_R_RegisterShaderNoMip 40031830 f   ui_syscalls.obj
 0001:00030880       _trap_R_RegisterSkin       40031880 f   ui_syscalls.obj
 0001:000308d0       _trap_R_RemapShader        400318d0 f   ui_syscalls.obj
 0001:00030930       _trap_R_RenderScene        40031930 f   ui_syscalls.obj
 0001:00030980       _trap_R_SetColor           40031980 f   ui_syscalls.obj
 0001:000309d0       _trap_RealTime             400319d0 f   ui_syscalls.obj
 0001:00030a20       _trap_S_RegisterSound      40031a20 f   ui_syscalls.obj
 0001:00030a70       _trap_S_StartBackgroundTrack 40031a70 f   ui_syscalls.obj
 0001:00030ac0       _trap_S_StartLocalSound    40031ac0 f   ui_syscalls.obj
 0001:00030b10       _trap_S_StopBackgroundTrack 40031b10 f   ui_syscalls.obj
 0001:00030b60       _trap_SetCDKey             40031b60 f   ui_syscalls.obj
 0001:00030bb0       _trap_SetPbClStatus        40031bb0 f   ui_syscalls.obj
 0001:00030c00       _trap_UpdateScreen         40031c00 f   ui_syscalls.obj
 0001:00030c50       _trap_VerifyCDKey          40031c50 f   ui_syscalls.obj
 0001:00030ca0       _TeamMain_Cache            40031ca0 f   ui_team.obj
 0001:00030dd0       _TeamMain_MenuInit         40031dd0 f   ui_team.obj
 0001:00031120       _UI_TeamMainMenu           40032120 f   ui_team.obj
 0001:00031170       _UI_TeamOrdersMenu         40032170 f   ui_teamorders.obj
 0001:000314b0       _UI_TeamOrdersMenu_Cache   400324b0 f   ui_teamorders.obj
 0001:00031700       _UI_TeamOrdersMenu_Key     40032700 f   ui_teamorders.obj
 0001:00031c10       _UI_TeamOrdersMenu_f       40032c10 f   ui_teamorders.obj
 0001:00031d40       _DriverInfo_Cache          40032d40 f   ui_video.obj
 0001:00032360       _GraphicsOptions_Cache     40033360 f   ui_video.obj
 0001:00032710       _GraphicsOptions_MenuDraw  40033710 f   ui_video.obj
 0001:00032780       _GraphicsOptions_MenuInit  40033780 f   ui_video.obj
 0001:00033830       _UI_GraphicsOptionsMenu    40034830 f   ui_video.obj
 0001:00033890       _cos                       40034890 f   LIBCMTD:cos.obj
 0001:000338d0       __CIcos                    400348d0 f   LIBCMTD:cos.obj
 0001:0003390b       __CIcos_default            4003490b f   LIBCMTD:cos.obj
 0001:0003391f       __cos_default              4003491f     LIBCMTD:cos.obj
 0001:000339c0       _fabs                      400349c0 f   LIBCMTD:fabs.obj
 0001:00033ac0       _sin                       40034ac0 f   LIBCMTD:sin.obj
 0001:00033b00       __CIsin                    40034b00 f   LIBCMTD:sin.obj
 0001:00033b3b       __CIsin_default            40034b3b f   LIBCMTD:sin.obj
 0001:00033b4f       __sin_default              40034b4f     LIBCMTD:sin.obj
 0001:00033bf0       ??0_LocaleUpdate@@QAE@PAUlocaleinfo_struct@@@Z 40034bf0 f i LIBCMTD:atof.obj
 0001:00033cd0       ??1_LocaleUpdate@@QAE@XZ   40034cd0 f i LIBCMTD:atof.obj
 0001:00033d00       ?GetLocaleT@_LocaleUpdate@@QAEPAUlocaleinfo_struct@@XZ 40034d00 f i LIBCMTD:atof.obj
 0001:00033d10       ___STRINGTOLD              40034d10 f   LIBCMTD:atof.obj
 0001:00033d60       ___strgtold12              40034d60 f   LIBCMTD:atof.obj
 0001:00033db0       __atof_l                   40034db0 f   LIBCMTD:atof.obj
 0001:00033f00       _atof                      40034f00 f   LIBCMTD:atof.obj
 0001:00033f20       @_RTC_AllocaHelper@12      40034f20 f   LIBCMTD:stack.obj
 0001:00033f60       @_RTC_CheckStackVars2@12   40034f60 f   LIBCMTD:stack.obj
 0001:00034040       @_RTC_CheckStackVars@8     40035040 f   LIBCMTD:stack.obj
 0001:000340a0       __RTC_CheckEsp             400350a0 f   LIBCMTD:stack.obj
 0001:000340d0       @__security_check_cookie@4 400350d0 f   LIBCMTD:secchk.obj
 0001:000340e0       __RTC_InitBase             400350e0 f   LIBCMTD:init.obj
 0001:00034110       __RTC_Shutdown             40035110 f   LIBCMTD:init.obj
 0001:00034130       __fpmath                   40035130 f   LIBCMTD:fpinit.obj
 0001:00034150       ___setfflag                40035150 f   LIBCMTD:fpinit.obj
 0001:00034170       __cfltcvt_init             40035170 f   LIBCMTD:fpinit.obj
 0001:00034230       __invoke_watson_if_error   40035230 f i LIBCMTD:wassert.obj
 0001:00034260       __wassert                  40035260 f   LIBCMTD:wassert.obj
 0001:00034ea0       _atan2                     40035ea0 f   LIBCMTD:87ctriga.obj
 0001:00034eaa       __CIatan2                  40035eaa f   LIBCMTD:87ctriga.obj
 0001:00034ec0       __CIsqrt                   40035ec0 f   LIBCMTD:sqrt.obj
 0001:00034ed4       _sqrt                      40035ed4     LIBCMTD:sqrt.obj
 0001:00034f80       _memcpy                    40035f80 f   LIBCMTD:memcpy.obj
 0001:000355d0       _memset                    400365d0 f   LIBCMTD:memset.obj
 0001:00035660       ___raise_securityfailure   40036660 f   LIBCMTD:gs_report.obj
 0001:000356b0       ___report_gsfailure        400366b0 f   LIBCMTD:gs_report.obj
 0001:000357c0       ___report_rangecheckfailure 400367c0 f   LIBCMTD:gs_report.obj
 0001:000357d0       ___report_securityfailure  400367d0 f   LIBCMTD:gs_report.obj
 0001:000358b0       ___report_securityfailureEx 400368b0 f   LIBCMTD:gs_report.obj
 0001:000359e0       __vscprintf                400369e0 f   LIBCMTD:vsprintf.obj
 0001:00035a00       __vscprintf_helper         40036a00 f   LIBCMTD:vsprintf.obj
 0001:00035af0       __vscprintf_l              40036af0 f   LIBCMTD:vsprintf.obj
 0001:00035b10       __vscprintf_p              40036b10 f   LIBCMTD:vsprintf.obj
 0001:00035b30       __vscprintf_p_l            40036b30 f   LIBCMTD:vsprintf.obj
 0001:00035b50       __vsprintf_l               40036b50 f   LIBCMTD:vsprintf.obj
 0001:00035d10       _vsprintf                  40036d10 f   LIBCMTD:vsprintf.obj
 0001:00035d30       _strcpy                    40036d30 f   LIBCMTD:strcat.obj
 0001:00035d40       _strcat                    40036d40 f   LIBCMTD:strcat.obj
 0001:00035e30       _strcmp                    40036e30 f   LIBCMTD:strcmp.obj
 0001:00035ec0       _strlen                    40036ec0 f   LIBCMTD:strlen.obj
 0001:00035f50       _strchr                    40036f50 f   LIBCMTD:strchr.obj
 0001:00035fbe       ___from_strstr_to_strchr   40036fbe     LIBCMTD:strchr.obj
 0001:00036080       _strncpy                   40037080 f   LIBCMTD:strncpy.obj
 0001:000361b0       __toupper                  400371b0 f   LIBCMTD:toupper.obj
 0001:000361c0       __toupper_l                400371c0 f   LIBCMTD:toupper.obj
 0001:00036400       _toupper                   40037400 f   LIBCMTD:toupper.obj
 0001:00036450       __tolower                  40037450 f   LIBCMTD:tolower.obj
 0001:00036460       __tolower_l                40037460 f   LIBCMTD:tolower.obj
 0001:000366a0       _tolower                   400376a0 f   LIBCMTD:tolower.obj
 0001:000366f0       __chkstk                   400376f0 f   LIBCMTD:chkstk.obj
 0001:000366f0       __alloca_probe             400376f0     LIBCMTD:chkstk.obj
 0001:00036720       __atoi64                   40037720 f   LIBCMTD:atox.obj
 0001:00036740       __atoi64_l                 40037740 f   LIBCMTD:atox.obj
 0001:00036760       __atoi_l                   40037760 f   LIBCMTD:atox.obj
 0001:00036780       __atol_l                   40037780 f   LIBCMTD:atox.obj
 0001:000367a0       _atoi                      400377a0 f   LIBCMTD:atox.obj
 0001:000367c0       _atol                      400377c0 f   LIBCMTD:atox.obj
 0001:000367e0       _qsort                     400377e0 f   LIBCMTD:qsort.obj
 0001:00036cd0       __ftol2_sse                40037cd0 f   LIBCMTD:ftol2.obj
 0001:00036cd9       __ftol2_pentium4           40037cd9 f   LIBCMTD:ftol2.obj
 0001:00036cec       __ftol2_sse_excpt          40037cec f   LIBCMTD:ftol2.obj
 0001:00036d06       __ftol2                    40037d06 f   LIBCMTD:ftol2.obj
 0001:00036d80       _strstr                    40037d80 f   LIBCMTD:strstr.obj
 0001:00036ff0       _memmove                   40037ff0 f   LIBCMTD:memmove.obj
 0001:00037640       _tan                       40038640 f   LIBCMTD:tan.obj
 0001:00037680       __CItan                    40038680 f   LIBCMTD:tan.obj
 0001:000376bb       __CItan_default            400386bb f   LIBCMTD:tan.obj
 0001:000376cf       __tan_default              400386cf     LIBCMTD:tan.obj
 0001:00037770       _rand                      40038770 f   LIBCMTD:rand.obj
 0001:000377b0       _srand                     400387b0 f   LIBCMTD:rand.obj
 0001:000377c0       __CRT_INIT@12              400387c0 f   LIBCMTD:dllcrt0.obj
 0001:000379f0       __DllMainCRTStartup@12     400389f0 f   LIBCMTD:dllcrt0.obj
 0001:00037be0       ___DllXcptFilter           40038be0 f   LIBCMTD:dllcrt0.obj
 0001:00037c10       __sse2_mathfcns_init       40038c10 f   LIBCMTD:mathfcns.obj
 0001:00037c30       __set_SSE2_enable          40038c30 f   LIBCMTD:mathfcns.obj
 0001:00037c80       __CIcos_pentium4           40038c80 f   LIBCMTD:cos_pentium4.obj
 0001:00037c98       __cos_pentium4             40038c98     LIBCMTD:cos_pentium4.obj
 0001:00037e30       __trandisp1                40038e30 f   LIBCMTD:87disp.obj
 0001:00037e97       __trandisp2                40038e97 f   LIBCMTD:87disp.obj
 0001:00037f23       __rttospopde               40038f23     LIBCMTD:87disp.obj
 0001:00037f28       __rttospop                 40038f28     LIBCMTD:87disp.obj
 0001:00037f2a       __rtnospop                 40038f2a     LIBCMTD:87disp.obj
 0001:00037f2c       __rttosnpop                40038f2c     LIBCMTD:87disp.obj
 0001:00037f2d       __rtnospopde               40038f2d     LIBCMTD:87disp.obj
 0001:00037f34       __rtzeropop                40038f34     LIBCMTD:87disp.obj
 0001:00037f36       __rtzeronpop               40038f36     LIBCMTD:87disp.obj
 0001:00037f3b       __rtonepop                 40038f3b     LIBCMTD:87disp.obj
 0001:00037f3d       __rtonenpop                40038f3d     LIBCMTD:87disp.obj
 0001:00037f42       __tosnan1                  40038f42     LIBCMTD:87disp.obj
 0001:00037f6d       __nosnan2                  40038f6d     LIBCMTD:87disp.obj
 0001:00037f6f       __tosnan2                  40038f6f     LIBCMTD:87disp.obj
 0001:00037f97       __nan2                     40038f97     LIBCMTD:87disp.obj
 0001:00037fd6       __rtindfpop                40038fd6     LIBCMTD:87disp.obj
 0001:00037fd8       __rtindfnpop               40038fd8     LIBCMTD:87disp.obj
 0001:00037fe9       __rttosnpopde              40038fe9     LIBCMTD:87disp.obj
 0001:00037ff3       __rtchsifneg               40038ff3     LIBCMTD:87disp.obj
 0001:00038000       __twoToTOS                 40039000 f   LIBCMTD:common.obj
 0001:00038015       __load_CW                  40039015 f   LIBCMTD:common.obj
 0001:0003802c       __convertTOStoQNaN         4003902c f   LIBCMTD:common.obj
 0001:00038045       __fload_withFB             40039045 f   LIBCMTD:common.obj
 0001:00038088       __checkTOS_withFB          40039088 f   LIBCMTD:common.obj
 0001:0003809e       __fast_exit                4003909e f   LIBCMTD:common.obj
 0001:000380ab       __math_exit                400390ab f   LIBCMTD:common.obj
 0001:000380d5       __check_overflow_exit      400390d5 f   LIBCMTD:common.obj
 0001:000380e9       __check_range_exit         400390e9 f   LIBCMTD:common.obj
 0001:00038190       __startTwoArgErrorHandling 40039190 f   LIBCMTD:genexcep.obj
 0001:000381a7       __startOneArgErrorHandling 400391a7 f   LIBCMTD:genexcep.obj
 0001:000381f0       __errcode                  400391f0 f   LIBCMTD:fpexcept.obj
 0001:00038260       __except1                  40039260 f   LIBCMTD:fpexcept.obj
 0001:00038360       __except2                  40039360 f   LIBCMTD:fpexcept.obj
 0001:000384b0       __handle_exc               400394b0 f   LIBCMTD:fpexcept.obj
 0001:000387d0       __handle_qnan1             400397d0 f   LIBCMTD:fpexcept.obj
 0001:00038830       __handle_qnan2             40039830 f   LIBCMTD:fpexcept.obj
 0001:000388a0       __raise_exc                400398a0 f   LIBCMTD:fpexcept.obj
 0001:000388d0       __raise_exc_ex             400398d0 f   LIBCMTD:fpexcept.obj
 0001:00038e40       __raise_excf               40039e40 f   LIBCMTD:fpexcept.obj
 0001:00038e70       __set_errno_from_matherr   40039e70 f   LIBCMTD:fpexcept.obj
 0001:00038eb0       __umatherr                 40039eb0 f   LIBCMTD:fpexcept.obj
 0001:00038f50       __add_exp                  40039f50 f   LIBCMTD:util.obj
 0001:00038f80       __decomp                   40039f80 f   LIBCMTD:util.obj
 0001:000390a0       __get_exp                  4003a0a0 f   LIBCMTD:util.obj
 0001:000390d0       __set_bexp                 4003a0d0 f   LIBCMTD:util.obj
 0001:00039100       __set_exp                  4003a100 f   LIBCMTD:util.obj
 0001:00039140       __sptype                   4003a140 f   LIBCMTD:util.obj
 0001:000391c0       ___clrfp_sse2              4003a1c0 f   LIBCMTD:fpctrl.obj
 0001:00039200       ___ctrlfp_sse2             4003a200 f   LIBCMTD:fpctrl.obj
 0001:00039260       ___fclrf_sse2              4003a260 f   LIBCMTD:fpctrl.obj
 0001:00039280       ___get_fpsr_sse2           4003a280 f   LIBCMTD:fpctrl.obj
 0001:000392b0       ___set_fpsr_sse2           4003a2b0 f   LIBCMTD:fpctrl.obj
 0001:00039390       ___set_statfp_sse2         4003a390 f   LIBCMTD:fpctrl.obj
 0001:000393c0       ___statfp_sse2             4003a3c0 f   LIBCMTD:fpctrl.obj
 0001:000393f0       __clrfp                    4003a3f0 f   LIBCMTD:fpctrl.obj
 0001:00039410       __ctrlfp                   4003a410 f   LIBCMTD:fpctrl.obj
 0001:00039440       __set_statfp               4003a440 f   LIBCMTD:fpctrl.obj
 0001:000394b0       __statfp                   4003a4b0 f   LIBCMTD:fpctrl.obj
 0001:000394c0       __CIsin_pentium4           4003a4c0 f   LIBCMTD:sin_pentium4.obj
 0001:000394d8       __sin_pentium4             4003a4d8     LIBCMTD:sin_pentium4.obj
 0001:00039690       ?_invalid_parameter@@YAXPBG00II@Z 4003a690 f   LIBCMTD:invarg.obj
 0001:000396c0       ?_invoke_watson@@YAXPBG00II@Z 4003a6c0 f   LIBCMTD:invarg.obj
 0001:000396e0       __call_reportfault         4003a6e0 f   LIBCMTD:invarg.obj
 0001:00039840       __get_invalid_parameter_handler 4003a840 f   LIBCMTD:invarg.obj
 0001:00039870       __initp_misc_invarg        4003a870 f   LIBCMTD:invarg.obj
 0001:00039880       __invalid_parameter        4003a880 f   LIBCMTD:invarg.obj
 0001:000398e0       __invoke_watson            4003a8e0 f   LIBCMTD:invarg.obj
 0001:00039920       __set_invalid_parameter_handler 4003a920 f   LIBCMTD:invarg.obj
 0001:00039960       ___doserrno                4003a960 f   LIBCMTD:dosmap.obj
 0001:00039990       __dosmaperr                4003a990 f   LIBCMTD:dosmap.obj
 0001:000399c0       __errno                    4003a9c0 f   LIBCMTD:dosmap.obj
 0001:000399f0       __get_doserrno             4003a9f0 f   LIBCMTD:dosmap.obj
 0001:00039a80       __get_errno                4003aa80 f   LIBCMTD:dosmap.obj
 0001:00039b10       __get_errno_from_oserr     4003ab10 f   LIBCMTD:dosmap.obj
 0001:00039b90       __set_doserrno             4003ab90 f   LIBCMTD:dosmap.obj
 0001:00039bc0       __set_errno                4003abc0 f   LIBCMTD:dosmap.obj
 0001:00039bf0       __fltin2                   4003abf0 f   LIBCMTD:cfin.obj
 0001:00039cd0       ___STRINGTOLD_L            4003acd0 f   LIBCMTD:strgtold.obj
 0001:00039d40       ___addl                    4003ad40 f i LIBCMTD:strgtold.obj
 0001:00039d80       ___ld12mul                 4003ad80 f i LIBCMTD:strgtold.obj
 0001:0003a190       ___multtenpow12            4003b190 f i LIBCMTD:strgtold.obj
 0001:0003a270       ___shl_12                  4003b270 f i LIBCMTD:strgtold.obj
 0001:0003a2f0       ___shr_12                  4003b2f0 f i LIBCMTD:strgtold.obj
 0001:0003a370       ___strgtold12_l            4003b370 f   LIBCMTD:strgtold.obj
 0001:0003ae40       ___addlocaleref            4003be40 f   LIBCMTD:localref.obj
 0001:0003af60       ___freetlocinfo            4003bf60 f   LIBCMTD:localref.obj
 0001:0003b250       ___removelocaleref         4003c250 f   LIBCMTD:localref.obj
 0001:0003b370       ___updatetlocinfo          4003c370 f   LIBCMTD:localref.obj
 0001:0003b440       __updatetlocinfoEx_nolock  4003c440 f   LIBCMTD:localref.obj
 0001:0003b4c0       ___initmbctable            4003c4c0 f   LIBCMTD:mbctype.obj
 0001:0003bae0       ___updatetmbcinfo          4003cae0 f   LIBCMTD:mbctype.obj
 0001:0003bbf0       __getmbcp                  4003cbf0 f   LIBCMTD:mbctype.obj
 0001:0003bc60       __setmbcp                  4003cc60 f   LIBCMTD:mbctype.obj
 0001:0003bf00       __setmbcp_nolock           4003cf00 f   LIBCMTD:mbctype.obj
 0001:0003c280       __chvalidator              4003d280 f   LIBCMTD:isctype.obj
 0001:0003c2d0       __chvalidator_l            4003d2d0 f   LIBCMTD:isctype.obj
 0001:0003c390       __isctype                  4003d390 f   LIBCMTD:isctype.obj
 0001:0003c3d0       __isctype_l                4003d3d0 f   LIBCMTD:isctype.obj
 0001:0003c520       ___get_flsindex            4003d520 f   LIBCMTD:tidtable.obj
 0001:0003c530       ___threadhandle            4003d530 f   LIBCMTD:tidtable.obj
 0001:0003c540       ___threadid                4003d540 f   LIBCMTD:tidtable.obj
 0001:0003c550       __freefls@4                4003d550 f   LIBCMTD:tidtable.obj
 0001:0003c750       __freeptd                  4003d750 f   LIBCMTD:tidtable.obj
 0001:0003c790       __getptd                   4003d790 f   LIBCMTD:tidtable.obj
 0001:0003c7c0       __getptd_noexit            4003d7c0 f   LIBCMTD:tidtable.obj
 0001:0003c870       __initptd                  4003d870 f   LIBCMTD:tidtable.obj
 0001:0003c9b0       __mtinit                   4003d9b0 f   LIBCMTD:tidtable.obj
 0001:0003ca60       __mtterm                   4003da60 f   LIBCMTD:tidtable.obj
 0001:0003ca90       ?_CrtDbgReportW@@YAHHPBGH00ZZ 4003da90 f   LIBCMTD:dbgrptw.obj
 0001:0003cae0       __CrtDbgReportW            4003dae0 f   LIBCMTD:dbgrptw.obj
 0001:0003cb30       __CrtDbgReportWV           4003db30 f i LIBCMTD:dbgrptw.obj
 0001:0003cb60       __CrtSetReportHookW2       4003db60 f   LIBCMTD:dbgrptw.obj
 0001:0003ceb0       ___crtMessageWindowW       4003deb0 f   LIBCMTD:dbgrptw.obj
 0001:0003d360       __invoke_watson_if_oneof   4003e360 f i LIBCMTD:dbgrptw.obj
 0001:0003d4f0       ?_RTC_AllocaFailure@@YAXPAXPAU_RTC_ALLOCA_NODE@@H@Z 4003e4f0 f   LIBCMTD:error.obj
 0001:0003d660       ?_RTC_Failure@@YAXPAXH@Z   4003e660 f   LIBCMTD:error.obj
 0001:0003d6b0       ?_RTC_StackFailure@@YAXPAXPBD@Z 4003e6b0 f   LIBCMTD:error.obj
 0001:0003da10       __RTC_UninitUse            4003ea10 f   LIBCMTD:error.obj
 0001:0003db10       ?_RTC_GetErrorFunc@@YAP6AHHPBDH00ZZPBX@Z 4003eb10 f   LIBCMTD:userapi.obj
 0001:0003db20       ?_RTC_GetErrorFuncW@@YAP6AHHPB_WH00ZZPBX@Z 4003eb20 f   LIBCMTD:userapi.obj
 0001:0003db30       __RTC_GetErrDesc           4003eb30 f   LIBCMTD:userapi.obj
 0001:0003db50       __RTC_NumErrors            4003eb50 f   LIBCMTD:userapi.obj
 0001:0003db60       __RTC_SetErrorFunc         4003eb60 f   LIBCMTD:userapi.obj
 0001:0003db80       __RTC_SetErrorFuncW        4003eb80 f   LIBCMTD:userapi.obj
 0001:0003dba0       __RTC_SetErrorType         4003eba0 f   LIBCMTD:userapi.obj
 0001:0003dbd0       __CRT_RTC_INIT             4003ebd0 f   LIBCMTD:chkesp.obj
 0001:0003dbe0       __CRT_RTC_INITW            4003ebe0 f   LIBCMTD:chkesp.obj
 0001:0003dbf0       __chkesp                   4003ebf0 f   LIBCMTD:chkesp.obj
 0001:0003dc30       ?strrchr@@YAPADPADH@Z      4003ec30 f i LIBCMTD:cvt.obj
 0001:0003dc50       __cfltcvt                  4003ec50 f   LIBCMTD:cvt.obj
 0001:0003dc80       __cfltcvt_l                4003ec80 f   LIBCMTD:cvt.obj
 0001:0003dd40       __cftoa                    4003ed40 f   LIBCMTD:cvt.obj
 0001:0003dd70       __cftoa_l                  4003ed70 f   LIBCMTD:cvt.obj
 0001:0003e5e0       __cftoe                    4003f5e0 f   LIBCMTD:cvt.obj
 0001:0003ea20       __cftoe_l                  4003fa20 f   LIBCMTD:cvt.obj
 0001:0003ec50       __cftof                    4003fc50 f   LIBCMTD:cvt.obj
 0001:0003ef00       __cftof_l                  4003ff00 f   LIBCMTD:cvt.obj
 0001:0003f100       __cftog                    40040100 f   LIBCMTD:cvt.obj
 0001:0003f130       __cftog_l                  40040130 f   LIBCMTD:cvt.obj
 0001:0003f3c0       __cropzeros                400403c0 f   LIBCMTD:cvt.obj
 0001:0003f3e0       __cropzeros_l              400403e0 f   LIBCMTD:cvt.obj
 0001:0003f500       __fassign                  40040500 f   LIBCMTD:cvt.obj
 0001:0003f520       __fassign_l                40040520 f   LIBCMTD:cvt.obj
 0001:0003f570       __forcdecpt                40040570 f   LIBCMTD:cvt.obj
 0001:0003f590       __forcdecpt_l              40040590 f   LIBCMTD:cvt.obj
 0001:0003f660       __positive                 40040660 f   LIBCMTD:cvt.obj
 0001:0003f6c0       __setdefaultprecision      400406c0 f   LIBCMTD:fp8.obj
 0001:0003f700       __initp_misc_cfltcvt_tab   40040700 f   LIBCMTD:cmiscdat.obj
 0001:0003f740       _memcpy_s                  40040740 f   LIBCMTD:memcpy_s.obj
 0001:0003f910       _wcscat_s                  40040910 f   LIBCMTD:wcscat_s.obj
 0001:0003fd20       _wcscpy_s                  40040d20 f   LIBCMTD:wcscpy_s.obj
 0001:00040030       _wcslen                    40041030 f   LIBCMTD:wcslen.obj
 0001:00040070       _wcsncat_s                 40041070 f   LIBCMTD:wcsncat_s.obj
 0001:00040560       ___copy_path_to_wide_string 40041560 f   LIBCMTD:crt0dat.obj
 0001:00040750       ___crtCorExitProcess       40041750 f   LIBCMTD:crt0dat.obj
 0001:00040790       ___crtExitProcess          40041790 f   LIBCMTD:crt0dat.obj
 0001:000407b0       ___freeCrtMemory           400417b0 f   LIBCMTD:crt0dat.obj
 0001:00040980       __amsg_exit                40041980 f   LIBCMTD:crt0dat.obj
 0001:000409a0       __c_exit                   400419a0 f   LIBCMTD:crt0dat.obj
 0001:000409c0       __cexit                    400419c0 f   LIBCMTD:crt0dat.obj
 0001:000409e0       __cinit                    400419e0 f   LIBCMTD:crt0dat.obj
 0001:00040a80       __exit                     40041a80 f   LIBCMTD:crt0dat.obj
 0001:00040aa0       __get_pgmptr               40041aa0 f   LIBCMTD:crt0dat.obj
 0001:00040bc0       __get_wpgmptr              40041bc0 f   LIBCMTD:crt0dat.obj
 0001:00040ce0       __init_pointers            40041ce0 f   LIBCMTD:crt0dat.obj
 0001:00040d70       __initterm_e               40041d70 f   LIBCMTD:crt0dat.obj
 0001:00040db0       __lockexit                 40041db0 f   LIBCMTD:crt0dat.obj
 0001:00040dc0       __unlockexit               40041dc0 f   LIBCMTD:crt0dat.obj
 0001:00040fd0       _exit                      40041fd0 f   LIBCMTD:crt0dat.obj
 0001:00040ff0       __set_abort_behavior       40041ff0 f   LIBCMTD:abort.obj
 0001:00041020       _abort                     40042020 f   LIBCMTD:abort.obj
 0001:00041090       ___set_app_type            40042090 f   LIBCMTD:errmode.obj
 0001:000410a0       __set_error_mode           400420a0 f   LIBCMTD:errmode.obj
 0001:000415a0       __i64tow_s                 400425a0 f   LIBCMTD:xtows.obj
 0001:000415f0       __itow_s                   400425f0 f   LIBCMTD:xtows.obj
 0001:00041650       __ltow_s                   40042650 f   LIBCMTD:xtows.obj
 0001:00041690       __ui64tow_s                40042690 f   LIBCMTD:xtows.obj
 0001:000416b0       __ultow_s                  400426b0 f   LIBCMTD:xtows.obj
 0001:00041ad0       ___initstdio               40042ad0 f   LIBCMTD:_file.obj
 0001:00041ba0       ___endstdio                40042ba0 f   LIBCMTD:_file.obj
 0001:00041be0       ___iob_func                40042be0 f   LIBCMTD:_file.obj
 0001:00041bf0       __lock_file                40042bf0 f   LIBCMTD:_file.obj
 0001:00041c50       __lock_file2               40042c50 f   LIBCMTD:_file.obj
 0001:00041c90       __unlock_file              40042c90 f   LIBCMTD:_file.obj
 0001:00041cf0       __unlock_file2             40042cf0 f   LIBCMTD:_file.obj
 0001:00041d30       __fflush_nolock            40042d30 f   LIBCMTD:fflush.obj
 0001:00041da0       __flush                    40042da0 f   LIBCMTD:fflush.obj
 0001:00041e60       __flushall                 40042e60 f   LIBCMTD:fflush.obj
 0001:00041e70       _fflush                    40042e70 f   LIBCMTD:fflush.obj
 0001:000420b0       _setvbuf                   400430b0 f   LIBCMTD:setvbuf.obj
 0001:000423b0       __fwprintf_l               400433b0 f   LIBCMTD:fwprintf.obj
 0001:000423e0       __fwprintf_p               400433e0 f   LIBCMTD:fwprintf.obj
 0001:00042410       __fwprintf_p_l             40043410 f   LIBCMTD:fwprintf.obj
 0001:00042440       __fwprintf_s_l             40043440 f   LIBCMTD:fwprintf.obj
 0001:00042470       _fwprintf                  40043470 f   LIBCMTD:fwprintf.obj
 0001:00042620       _fwprintf_s                40043620 f   LIBCMTD:fwprintf.obj
 0001:00042650       __vsnwprintf_s             40043650 f   LIBCMTD:vswprnc.obj
 0001:00042680       __vsnwprintf_s_l           40043680 f   LIBCMTD:vswprnc.obj
 0001:00042a60       __vswprintf_c              40043a60 f   LIBCMTD:vswprnc.obj
 0001:00042ab0       __vswprintf_c_l            40043ab0 f   LIBCMTD:vswprnc.obj
 0001:00042b00       __vswprintf_helper         40043b00 f   LIBCMTD:vswprnc.obj
 0001:00042d70       __vswprintf_p              40043d70 f   LIBCMTD:vswprnc.obj
 0001:00042dc0       __vswprintf_p_l            40043dc0 f   LIBCMTD:vswprnc.obj
 0001:00042e10       __vswprintf_s_l            40043e10 f   LIBCMTD:vswprnc.obj
 0001:000430a0       _vswprintf_s               400440a0 f   LIBCMTD:vswprnc.obj
 0001:000430c0       ___fpecode                 400440c0 f   LIBCMTD:winsig.obj
 0001:000430d0       ___get_sigabrt             400440d0 f   LIBCMTD:winsig.obj
 0001:000430f0       ___pxcptinfoptrs           400440f0 f   LIBCMTD:winsig.obj
 0001:00043100       __initp_misc_winsig        40044100 f   LIBCMTD:winsig.obj
 0001:00043220       _raise                     40044220 f   LIBCMTD:winsig.obj
 0001:00043590       _signal                    40044590 f   LIBCMTD:winsig.obj
 0001:00043940       ___crtMessageBoxW          40044940 f   LIBCMTD:crtmboxw.obj
 0001:00043c50       ___crtMessageBoxWaitThreadW@4 40044c50 f   LIBCMTD:crtmboxw.obj
 0001:00043c90       __FF_MSGBANNER             40044c90 f   LIBCMTD:crt0msg.obj
 0001:00043ce0       __GET_RTERRMSG             40044ce0 f   LIBCMTD:crt0msg.obj
 0001:00043d20       __NMSG_WRITE               40044d20 f   LIBCMTD:crt0msg.obj
 0001:000440fc       __fFATN2                   400450fc     LIBCMTD:87triga.obj
 0001:0004414c       __rtpiby2                  4004514c     LIBCMTD:87triga.obj
 0001:00044190       __cintrindisp2             40045190 f   LIBCMTD:87cdisp.obj
 0001:000441ce       __cintrindisp1             400451ce f   LIBCMTD:87cdisp.obj
 0001:0004420b       __ctrandisp2               4004520b f   LIBCMTD:87cdisp.obj
 0001:0004439a       __ctrandisp1               4004539a f   LIBCMTD:87cdisp.obj
 0001:000443cd       __fload                    400453cd f   LIBCMTD:87cdisp.obj
 0001:00044410       ___isa_available_init      40045410 f   LIBCMTD:cpu_disp.obj
 0001:00044610       __VEC_memset               40045610 f   LIBCMTD:p4_memset.obj
 0001:000446e0       __CrtDefaultAllocHook      400456e0 f   LIBCMTD:dbghook.obj
 0001:000446f0       __crt_debugger_hook        400456f0 f   LIBCMTD:dbghook.obj
 0001:00044750       ___crtCloseThreadpoolTimer 40045750 f   LIBCMTD:winapisupp.obj
 0001:00044780       ___crtCloseThreadpoolWait  40045780 f   LIBCMTD:winapisupp.obj
 0001:000447b0       ___crtCreateSemaphoreExW@24 400457b0 f   LIBCMTD:winapisupp.obj
 0001:00044810       ___crtCreateSymbolicLinkW  40045810 f   LIBCMTD:winapisupp.obj
 0001:00044850       ___crtCreateThreadpoolTimer 40045850 f   LIBCMTD:winapisupp.obj
 0001:00044890       ___crtCreateThreadpoolWait 40045890 f   LIBCMTD:winapisupp.obj
 0001:000448d0       ___crtFlsAlloc             400458d0 f   LIBCMTD:winapisupp.obj
 0001:00044900       ___crtFlsFree              40045900 f   LIBCMTD:winapisupp.obj
 0001:00044940       ___crtFlsGetValue          40045940 f   LIBCMTD:winapisupp.obj
 0001:00044980       ___crtFlsSetValue          40045980 f   LIBCMTD:winapisupp.obj
 0001:000449c0       ___crtFlushProcessWriteBuffers 400459c0 f   LIBCMTD:winapisupp.obj
 0001:000449f0       ___crtFreeLibraryWhenCallbackReturns 400459f0 f   LIBCMTD:winapisupp.obj
 0001:00044a20       ___crtGetCurrentProcessorNumber 40045a20 f   LIBCMTD:winapisupp.obj
 0001:00044a50       ___crtGetLogicalProcessorInformation 40045a50 f   LIBCMTD:winapisupp.obj
 0001:00044a90       ___crtGetShowWindowMode    40045a90 f   LIBCMTD:winapisupp.obj
 0001:00044ac0       ___crtInitializeCriticalSectionEx 40045ac0 f   LIBCMTD:winapisupp.obj
 0001:00044b10       ___crtIsPackagedApp        40045b10 f   LIBCMTD:winapisupp.obj
 0001:00044b50       ___crtLoadWinApiPointers   40045b50 f   LIBCMTD:winapisupp.obj
 0001:00044f60       ___crtSetThreadStackGuarantee 40045f60 f   LIBCMTD:winapisupp.obj
 0001:00044f90       ___crtSetThreadpoolTimer   40045f90 f   LIBCMTD:winapisupp.obj
 0001:00044fd0       ___crtSetThreadpoolWait    40045fd0 f   LIBCMTD:winapisupp.obj
 0001:00045000       ___crtSetUnhandledExceptionFilter 40046000 f   LIBCMTD:winapisupp.obj
 0001:00045010       ___crtTerminateProcess     40046010 f   LIBCMTD:winapisupp.obj
 0001:00045030       ___crtUnhandledException   40046030 f   LIBCMTD:winapisupp.obj
 0001:00045050       ___crtWaitForThreadpoolTimerCallbacks 40046050 f   LIBCMTD:winapisupp.obj
 0001:00045080       __flsbuf                   40046080 f   LIBCMTD:_flsbuf.obj
 0001:00045350       __output_l                 40046350 f   LIBCMTD:output.obj
 0001:000469f0       _get_int64_arg             400479f0 f i LIBCMTD:output.obj
 0001:00046a10       _get_int_arg               40047a10 f i LIBCMTD:output.obj
 0001:00046a30       _get_short_arg             40047a30 f i LIBCMTD:output.obj
 0001:00046c10       __output_p_l               40047c10 f   LIBCMTD:outputp.obj
 0001:0004aa00       __validate_param_reuseA    4004ba00 f   LIBCMTD:outputp.obj
 0001:0004acf0       _get_crtdouble_arg         4004bcf0 f i LIBCMTD:outputp.obj
 0001:0004aeb0       ___iswcsym                 4004beb0 f i LIBCMTD:_wctype.obj
 0001:0004aef0       ___iswcsymf                4004bef0 f i LIBCMTD:_wctype.obj
 0001:0004af30       __isleadbyte_l             4004bf30 f i LIBCMTD:_wctype.obj
 0001:0004af80       __iswalnum_l               4004bf80 f i LIBCMTD:_wctype.obj
 0001:0004afa0       __iswalpha_l               4004bfa0 f i LIBCMTD:_wctype.obj
 0001:0004afc0       __iswcntrl_l               4004bfc0 f i LIBCMTD:_wctype.obj
 0001:0004afe0       __iswcsym_l                4004bfe0 f i LIBCMTD:_wctype.obj
 0001:0004b020       __iswcsymf_l               4004c020 f i LIBCMTD:_wctype.obj
 0001:0004b060       __iswdigit_l               4004c060 f i LIBCMTD:_wctype.obj
 0001:0004b080       __iswgraph_l               4004c080 f i LIBCMTD:_wctype.obj
 0001:0004b0a0       __iswlower_l               4004c0a0 f i LIBCMTD:_wctype.obj
 0001:0004b0c0       __iswprint_l               4004c0c0 f i LIBCMTD:_wctype.obj
 0001:0004b0e0       __iswpunct_l               4004c0e0 f i LIBCMTD:_wctype.obj
 0001:0004b100       __iswspace_l               4004c100 f i LIBCMTD:_wctype.obj
 0001:0004b120       __iswupper_l               4004c120 f i LIBCMTD:_wctype.obj
 0001:0004b140       __iswxdigit_l              4004c140 f i LIBCMTD:_wctype.obj
 0001:0004b160       _isleadbyte                4004c160 f i LIBCMTD:_wctype.obj
 0001:0004b180       _iswalnum                  4004c180 f i LIBCMTD:_wctype.obj
 0001:0004b1a0       _iswalpha                  4004c1a0 f i LIBCMTD:_wctype.obj
 0001:0004b1c0       _iswascii                  4004c1c0 f i LIBCMTD:_wctype.obj
 0001:0004b1f0       _iswcntrl                  4004c1f0 f i LIBCMTD:_wctype.obj
 0001:0004b210       _iswdigit                  4004c210 f i LIBCMTD:_wctype.obj
 0001:0004b230       _iswgraph                  4004c230 f i LIBCMTD:_wctype.obj
 0001:0004b250       _iswlower                  4004c250 f i LIBCMTD:_wctype.obj
 0001:0004b270       _iswprint                  4004c270 f i LIBCMTD:_wctype.obj
 0001:0004b290       _iswpunct                  4004c290 f i LIBCMTD:_wctype.obj
 0001:0004b2b0       _iswspace                  4004c2b0 f i LIBCMTD:_wctype.obj
 0001:0004b2d0       _iswupper                  4004c2d0 f i LIBCMTD:_wctype.obj
 0001:0004b2f0       _iswxdigit                 4004c2f0 f i LIBCMTD:_wctype.obj
 0001:0004b600       __MarkAllocaS              4004c600 f i LIBCMTD:a_map.obj
 0001:0004b620       ___crtLCMapStringA         4004c620 f   LIBCMTD:a_map.obj
 0001:0004b680       __freea                    4004c680 f i LIBCMTD:a_map.obj
 0001:0004b6f0       ___init_dummy              4004c6f0 f   LIBCMTD:wsetloca.obj
 0001:0004b700       __locterm                  4004c700 f   LIBCMTD:wsetloca.obj
 0001:0004b790       ____setlc_active_func      4004c790 f   LIBCMTD:wsetloca.obj
 0001:0004b7a0       ____unguarded_readlc_active_add_func 4004c7a0 f   LIBCMTD:wsetloca.obj
 0001:0004b7b0       ___copy_locale_name        4004c7b0 f   LIBCMTD:wsetloca.obj
 0001:0004b850       ___create_locale           4004c850 f   LIBCMTD:wsetloca.obj
 0001:0004b870       ___free_locale             4004c870 f   LIBCMTD:wsetloca.obj
 0001:0004b890       ___get_current_locale      4004c890 f   LIBCMTD:wsetloca.obj
 0001:0004b8a0       ___lc_lctowcs              4004c8a0 f   LIBCMTD:wsetloca.obj
 0001:0004b950       ___lc_wcstolc              4004c950 f   LIBCMTD:wsetloca.obj
 0001:0004bb70       __configthreadlocale       4004cb70 f   LIBCMTD:wsetloca.obj
 0001:0004bcd0       __create_locale            4004ccd0 f   LIBCMTD:wsetloca.obj
 0001:0004bd40       __expandlocale             4004cd40 f   LIBCMTD:wsetloca.obj
 0001:0004c230       __free_locale              4004d230 f   LIBCMTD:wsetloca.obj
 0001:0004c360       __get_current_locale       4004d360 f   LIBCMTD:wsetloca.obj
 0001:0004c480       __wcreate_locale           4004d480 f   LIBCMTD:wsetloca.obj
 0001:0004c660       __wcscats                  4004d660 f   LIBCMTD:wsetloca.obj
 0001:0004c6e0       __wsetlocale               4004d6e0 f   LIBCMTD:wsetloca.obj
 0001:0004dca0       __strtoi64                 4004eca0 f   LIBCMTD:strtoq.obj
 0001:0004dcf0       __strtoi64_l               4004ecf0 f   LIBCMTD:strtoq.obj
 0001:0004dd10       __strtoui64                4004ed10 f   LIBCMTD:strtoq.obj
 0001:0004dd60       __strtoui64_l              4004ed60 f   LIBCMTD:strtoq.obj
 0001:0004e280       __strtol_l                 4004f280 f   LIBCMTD:strtol.obj
 0001:0004e2a0       __strtoul_l                4004f2a0 f   LIBCMTD:strtol.obj
 0001:0004e2c0       _strtol                    4004f2c0 f   LIBCMTD:strtol.obj
 0001:0004e310       _strtoul                   4004f310 f   LIBCMTD:strtol.obj
 0001:0004e360       __CItan_pentium4           4004f360 f   LIBCMTD:tan_pentium4.obj
 0001:0004e378       __tan_pentium4             4004f378     LIBCMTD:tan_pentium4.obj
 0001:0004e5c0       __XcptFilter               4004f5c0 f   LIBCMTD:winxfltr.obj
 0001:0004e7c0       ___CppXcptFilter           4004f7c0 f   LIBCMTD:winxfltr.obj
 0001:0004e850       __get_heap_handle          4004f850 f   LIBCMTD:heapinit.obj
 0001:0004e890       __heap_init                4004f890 f   LIBCMTD:heapinit.obj
 0001:0004e8c0       __heap_term                4004f8c0 f   LIBCMTD:heapinit.obj
 0001:0004e8d0       __ioinit                   4004f8d0 f   LIBCMTD:ioinit.obj
 0001:0004edb0       __ioterm                   4004fdb0 f   LIBCMTD:ioinit.obj
 0001:0004ee50       __set_pgmptr               4004fe50 f i LIBCMTD:stdargv.obj
 0001:0004ee60       __setargv                  4004fe60 f   LIBCMTD:stdargv.obj
 0001:0004f330       __setenvp                  40050330 f   LIBCMTD:stdenvp.obj
 0001:0004f960       __CrtCheckMemory           40050960 f   LIBCMTD:dbgheap.obj
 0001:0004fdc0       __CrtDoForAllClientObjects 40050dc0 f   LIBCMTD:dbgheap.obj
 0001:0004fef0       __CrtDumpMemoryLeaks       40050ef0 f   LIBCMTD:dbgheap.obj
 0001:0004ff90       __CrtGetAllocHook          40050f90 f   LIBCMTD:dbgheap.obj
 0001:0004ffa0       __CrtGetCheckCount         40050fa0 f   LIBCMTD:dbgheap.obj
 0001:0004ffb0       __CrtGetDumpClient         40050fb0 f   LIBCMTD:dbgheap.obj
 0001:0004ffc0       __CrtIsMemoryBlock         40050fc0 f   LIBCMTD:dbgheap.obj
 0001:00050130       __CrtIsValidHeapPointer    40051130 f   LIBCMTD:dbgheap.obj
 0001:00050170       __CrtIsValidPointer        40051170 f   LIBCMTD:dbgheap.obj
 0001:000501a0       __CrtMemCheckpoint         400511a0 f   LIBCMTD:dbgheap.obj
 0001:000503d0       __CrtMemDifference         400513d0 f   LIBCMTD:dbgheap.obj
 0001:00050630       __CrtMemDumpAllObjectsSince 40051630 f   LIBCMTD:dbgheap.obj
 0001:00050670       __CrtMemDumpStatistics     40051670 f   LIBCMTD:dbgheap.obj
 0001:00050790       __CrtReportBlockType       40051790 f   LIBCMTD:dbgheap.obj
 0001:000507c0       __CrtSetAllocHook          400517c0 f   LIBCMTD:dbgheap.obj
 0001:000507e0       __CrtSetBreakAlloc         400517e0 f   LIBCMTD:dbgheap.obj
 0001:00050800       __CrtSetCheckCount         40051800 f   LIBCMTD:dbgheap.obj
 0001:00050820       __CrtSetDbgBlockType       40051820 f   LIBCMTD:dbgheap.obj
 0001:00050910       __CrtSetDbgFlag            40051910 f   LIBCMTD:dbgheap.obj
 0001:00050a60       __CrtSetDebugFillThreshold 40051a60 f   LIBCMTD:dbgheap.obj
 0001:00050a80       __CrtSetDumpClient         40051a80 f   LIBCMTD:dbgheap.obj
 0001:00050aa0       __aligned_free             40051aa0 f   LIBCMTD:dbgheap.obj
 0001:00050ac0       __aligned_free_dbg         40051ac0 f   LIBCMTD:dbgheap.obj
 0001:00050b70       __aligned_malloc           40051b70 f   LIBCMTD:dbgheap.obj
 0001:00050b90       __aligned_malloc_dbg       40051b90 f   LIBCMTD:dbgheap.obj
 0001:00050bb0       __aligned_msize            40051bb0 f   LIBCMTD:dbgheap.obj
 0001:00050bd0       __aligned_msize_dbg        40051bd0 f   LIBCMTD:dbgheap.obj
 0001:00050cf0       __aligned_offset_malloc    40051cf0 f   LIBCMTD:dbgheap.obj
 0001:00050d10       __aligned_offset_malloc_dbg 40051d10 f   LIBCMTD:dbgheap.obj
 0001:00050ef0       __aligned_offset_realloc   40051ef0 f   LIBCMTD:dbgheap.obj
 0001:00050f20       __aligned_offset_realloc_dbg 40051f20 f   LIBCMTD:dbgheap.obj
 0001:00051230       __aligned_offset_recalloc  40052230 f   LIBCMTD:dbgheap.obj
 0001:00051260       __aligned_offset_recalloc_dbg 40052260 f   LIBCMTD:dbgheap.obj
 0001:00051320       __aligned_realloc          40052320 f   LIBCMTD:dbgheap.obj
 0001:00051340       __aligned_realloc_dbg      40052340 f   LIBCMTD:dbgheap.obj
 0001:00051370       __aligned_recalloc         40052370 f   LIBCMTD:dbgheap.obj
 0001:000513a0       __aligned_recalloc_dbg     400523a0 f   LIBCMTD:dbgheap.obj
 0001:000513d0       __calloc_dbg               400523d0 f   LIBCMTD:dbgheap.obj
 0001:00051430       __calloc_dbg_impl          40052430 f   LIBCMTD:dbgheap.obj
 0001:000514b0       __expand                   400524b0 f   LIBCMTD:dbgheap.obj
 0001:000514e0       __expand_dbg               400524e0 f   LIBCMTD:dbgheap.obj
 0001:00051600       __free_dbg                 40052600 f   LIBCMTD:dbgheap.obj
 0001:00051680       __free_dbg_nolock          40052680 f   LIBCMTD:dbgheap.obj
 0001:00051b80       __free_nolock              40052b80 f   LIBCMTD:dbgheap.obj
 0001:00051ba0       __heap_alloc               40052ba0 f   LIBCMTD:dbgheap.obj
 0001:00051bc0       __heap_alloc_dbg           40052bc0 f   LIBCMTD:dbgheap.obj
 0001:00051fe0       __malloc_dbg               40052fe0 f   LIBCMTD:dbgheap.obj
 0001:00052010       __msize                    40053010 f   LIBCMTD:dbgheap.obj
 0001:00052030       __msize_dbg                40053030 f   LIBCMTD:dbgheap.obj
 0001:00052240       __nh_malloc                40053240 f   LIBCMTD:dbgheap.obj
 0001:00052260       __nh_malloc_dbg            40053260 f   LIBCMTD:dbgheap.obj
 0001:000524f0       __realloc_dbg              400534f0 f   LIBCMTD:dbgheap.obj
 0001:00052580       __recalloc                 40053580 f   LIBCMTD:dbgheap.obj
 0001:000525b0       __recalloc_dbg             400535b0 f   LIBCMTD:dbgheap.obj
 0001:00052c70       ___security_init_cookie    40053c70 f   LIBCMTD:gs_support.obj
 0001:00052d50       _DllMain@12                40053d50 f   LIBCMTD:dllmain.obj
 0001:00052d60       ___crtGetEnvironmentStringsA 40053d60 f   LIBCMTD:a_env.obj
 0001:00052e60       __RTC_Initialize           40053e60 f   LIBCMTD:initsect.obj
 0001:00052e90       __RTC_Terminate            40053e90 f   LIBCMTD:initsect.obj
 0001:00052f20       __except_handler4          40053f20 f   LIBCMTD:chandler4.obj
 0001:000530e0       __87except                 400540e0 f   LIBCMTD:87except.obj
 0001:000532e0       __matherr                  400542e0 f   LIBCMTD:matherr.obj
 0001:000532f0       __CopyMan                  400542f0 f i LIBCMTD:intrncvt.obj
 0001:00053340       __FillZeroMan              40054340 f i LIBCMTD:intrncvt.obj
 0001:00053370       __IncMan                   40054370 f i LIBCMTD:intrncvt.obj
 0001:00053420       __IsZeroMan                40054420 f i LIBCMTD:intrncvt.obj
 0001:00053460       __RoundMan                 40054460 f i LIBCMTD:intrncvt.obj
 0001:00053540       __ShrMan                   40054540 f i LIBCMTD:intrncvt.obj
 0001:00053630       __ZeroTail                 40054630 f i LIBCMTD:intrncvt.obj
 0001:000536c0       __ld12cvt                  400546c0 f i LIBCMTD:intrncvt.obj
 0001:00053980       __ld12tod                  40054980 f   LIBCMTD:intrncvt.obj
 0001:000539a0       __ld12tof                  400549a0 f   LIBCMTD:intrncvt.obj
 0001:000539c0       __ld12told                 400549c0 f   LIBCMTD:intrncvt.obj
 0001:00053ac0       ___add_12                  40054ac0 f i LIBCMTD:mantold.obj
 0001:00053b70       ___mtold12                 40054b70 f   LIBCMTD:mantold.obj
 0001:00053cc0       __lock                     40054cc0 f   LIBCMTD:mlock.obj
 0001:00053d00       __lockerr_exit             40054d00 f   LIBCMTD:mlock.obj
 0001:00053d30       __mtdeletelocks            40054d30 f   LIBCMTD:mlock.obj
 0001:00053df0       __mtinitlocknum            40054df0 f   LIBCMTD:mlock.obj
 0001:00053f10       __mtinitlocks              40054f10 f   LIBCMTD:mlock.obj
 0001:00053f90       __unlock                   40054f90 f   LIBCMTD:mlock.obj
 0001:00053fb0       ___free_lconv_mon          40054fb0 f   LIBCMTD:initmon.obj
 0001:00054160       ___init_monetary           40055160 f   LIBCMTD:initmon.obj
 0001:00054770       ___free_lconv_num          40055770 f   LIBCMTD:initnum.obj
 0001:00054820       ___init_numeric            40055820 f   LIBCMTD:initnum.obj
 0001:00054bf0       ___free_lc_time            40055bf0 f   LIBCMTD:inittime.obj
 0001:00055520       ___init_time               40056520 f   LIBCMTD:inittime.obj
 0001:00056520       _localeconv                40057520 f   LIBCMTD:lconv.obj
 0001:00056680       ___crtGetStringTypeA       40057680 f   LIBCMTD:a_str.obj
 0001:000567d0       ?_CallCatchBlock2@@YAPAXPAUEHRegistrationNode@@PBU_s_FuncInfo@@PAXHK@Z 400577d0 f   LIBCMTD:_trnsctrl_.obj
 0001:00056840       ?_CallMemberFunction0@@YGXPAX0@Z 40057840 f   LIBCMTD:_trnsctrl_.obj
 0001:00056850       ?_CallMemberFunction1@@YGXPAX00@Z 40057850 f   LIBCMTD:_trnsctrl_.obj
 0001:00056860       ?_CallMemberFunction2@@YGXPAX00H@Z 40057860 f   LIBCMTD:_trnsctrl_.obj
 0001:00056870       ?_CallSETranslator@@YAHPAUEHExceptionRecord@@PAUEHRegistrationNode@@PAX2PBU_s_FuncInfo@@H1@Z 40057870 f   LIBCMTD:_trnsctrl_.obj
 0001:00056960       ?_GetRangeOfTrysToCheck@@YAPBU_s_TryBlockMapEntry@@PBU_s_FuncInfo@@HHPAI1@Z 40057960 f   LIBCMTD:_trnsctrl_.obj
 0001:000569f0       ?_JumpToContinuation@@YGXPAXPAUEHRegistrationNode@@@Z 400579f0 f   LIBCMTD:_trnsctrl_.obj
 0001:00056a30       ?_UnwindNestedFrames@@YGXPAUEHRegistrationNode@@PAUEHExceptionRecord@@@Z 40057a30 f   LIBCMTD:_trnsctrl_.obj
 0001:00056a90       __CreateFrameInfo          40057a90 f   LIBCMTD:_trnsctrl_.obj
 0001:00056ac0       __FindAndUnlinkFrame       40057ac0 f   LIBCMTD:_trnsctrl_.obj
 0001:00056b20       __IsExceptionObjectToBeDestroyed 40057b20 f   LIBCMTD:_trnsctrl_.obj
 0001:00056b50       ___CxxFrameHandler         40057b50 f   LIBCMTD:_trnsctrl_.obj
 0001:00056b90       ___CxxFrameHandler2        40057b90 f   LIBCMTD:_trnsctrl_.obj
 0001:00056bd0       ___CxxFrameHandler3        40057bd0 f   LIBCMTD:_trnsctrl_.obj
 0001:00056c10       ___CxxLongjmpUnwind@4      40057c10 f   LIBCMTD:_trnsctrl_.obj
 0001:00056c40       ___swprintf_l              40057c40 f   LIBCMTD:swprintf.obj
 0001:00056c70       __scwprintf                40057c70 f   LIBCMTD:swprintf.obj
 0001:00056c90       __scwprintf_l              40057c90 f   LIBCMTD:swprintf.obj
 0001:00056cc0       __scwprintf_p              40057cc0 f   LIBCMTD:swprintf.obj
 0001:00056ce0       __scwprintf_p_l            40057ce0 f   LIBCMTD:swprintf.obj
 0001:00056d10       __snwprintf_s              40057d10 f   LIBCMTD:swprintf.obj
 0001:00056d40       __snwprintf_s_l            40057d40 f   LIBCMTD:swprintf.obj
 0001:00056d70       __swprintf                 40057d70 f   LIBCMTD:swprintf.obj
 0001:00056f90       __swprintf_p               40057f90 f   LIBCMTD:swprintf.obj
 0001:00056fc0       __swprintf_p_l             40057fc0 f   LIBCMTD:swprintf.obj
 0001:00056ff0       __swprintf_s_l             40057ff0 f   LIBCMTD:swprintf.obj
 0001:00057020       _swprintf_s                40058020 f   LIBCMTD:swprintf.obj
 0001:00057050       __CrtDbgBreak              40058050 f   LIBCMTD:dbgrptt.obj
 0001:00057060       __CrtGetReportHook         40058060 f   LIBCMTD:dbgrptt.obj
 0001:00057070       __CrtSetReportFile         40058070 f   LIBCMTD:dbgrptt.obj
 0001:00057170       __CrtSetReportHook         40058170 f   LIBCMTD:dbgrptt.obj
 0001:00057190       __CrtSetReportMode         40058190 f   LIBCMTD:dbgrptt.obj
 0001:000572d0       __VCrtDbgReportA           400582d0 f   LIBCMTD:dbgrptt.obj
 0001:00057b50       __VCrtDbgReportW           40058b50 f   LIBCMTD:dbgrptt.obj
 0001:000584c0       ___pctype_func             400594c0 f   LIBCMTD:ctype.obj
 0001:00058510       ___pwctype_func            40059510 f   LIBCMTD:ctype.obj
 0001:00058950       ?_RTC_GetSrcLine@@YAHPAEPA_WKPAH1K@Z 40059950 f   LIBCMTD:pdblkup.obj
 0001:00058c00       __CrtDbgReport             40059c00 f   LIBCMTD:dbgrpt.obj
 0001:00058c50       __CrtDbgReportV            40059c50 f i LIBCMTD:dbgrpt.obj
 0001:00058c80       __CrtSetReportHook2        40059c80 f   LIBCMTD:dbgrpt.obj
 0001:00058fd0       ___crtMessageWindowA       40059fd0 f   LIBCMTD:dbgrpt.obj
 0001:00059470       ___isascii                 4005a470 f i LIBCMTD:_ctype.obj
 0001:000594a0       ___iscsym                  4005a4a0 f i LIBCMTD:_ctype.obj
 0001:000594e0       ___iscsymf                 4005a4e0 f i LIBCMTD:_ctype.obj
 0001:00059520       ___toascii                 4005a520 f i LIBCMTD:_ctype.obj
 0001:00059530       __isalnum_l                4005a530 f i LIBCMTD:_ctype.obj
 0001:000595b0       __isalpha_l                4005a5b0 f i LIBCMTD:_ctype.obj
 0001:00059630       __iscntrl_l                4005a630 f i LIBCMTD:_ctype.obj
 0001:000596b0       __iscsym_l                 4005a6b0 f i LIBCMTD:_ctype.obj
 0001:000596f0       __iscsymf_l                4005a6f0 f i LIBCMTD:_ctype.obj
 0001:00059730       __isdigit_l                4005a730 f i LIBCMTD:_ctype.obj
 0001:000597b0       __isgraph_l                4005a7b0 f i LIBCMTD:_ctype.obj
 0001:00059830       __islower_l                4005a830 f i LIBCMTD:_ctype.obj
 0001:000598b0       __isprint_l                4005a8b0 f i LIBCMTD:_ctype.obj
 0001:00059930       __ispunct_l                4005a930 f i LIBCMTD:_ctype.obj
 0001:000599b0       __isspace_l                4005a9b0 f i LIBCMTD:_ctype.obj
 0001:00059a30       __isupper_l                4005aa30 f i LIBCMTD:_ctype.obj
 0001:00059ab0       __isxdigit_l               4005aab0 f i LIBCMTD:_ctype.obj
 0001:00059b30       _isalnum                   4005ab30 f i LIBCMTD:_ctype.obj
 0001:00059b70       _isalpha                   4005ab70 f i LIBCMTD:_ctype.obj
 0001:00059bb0       _iscntrl                   4005abb0 f i LIBCMTD:_ctype.obj
 0001:00059be0       _isdigit                   4005abe0 f i LIBCMTD:_ctype.obj
 0001:00059c10       _isgraph                   4005ac10 f i LIBCMTD:_ctype.obj
 0001:00059c50       _islower                   4005ac50 f i LIBCMTD:_ctype.obj
 0001:00059c80       _isprint                   4005ac80 f i LIBCMTD:_ctype.obj
 0001:00059cc0       _ispunct                   4005acc0 f i LIBCMTD:_ctype.obj
 0001:00059cf0       _isspace                   4005acf0 f i LIBCMTD:_ctype.obj
 0001:00059d20       _isupper                   4005ad20 f i LIBCMTD:_ctype.obj
 0001:00059d50       _isxdigit                  4005ad50 f i LIBCMTD:_ctype.obj
 0001:00059d90       _strcpy_s                  4005ad90 f   LIBCMTD:strcpy_s.obj
 0001:0005a090       _strrchr                   4005b090 f   LIBCMTD:strrchr.obj
 0001:0005a1d0       __fptostr                  4005b1d0 f   LIBCMTD:_fptostr.obj
 0001:0005a4f0       __atodbl                   4005b4f0 f   LIBCMTD:atodbl.obj
 0001:0005a510       __atodbl_l                 4005b510 f   LIBCMTD:atodbl.obj
 0001:0005a610       __atoflt                   4005b610 f   LIBCMTD:atodbl.obj
 0001:0005a630       __atoflt_l                 4005b630 f   LIBCMTD:atodbl.obj
 0001:0005a730       __atoldbl                  4005b730 f   LIBCMTD:atodbl.obj
 0001:0005a750       __atoldbl_l                4005b750 f   LIBCMTD:atodbl.obj
 0001:0005a850       ___dtold                   4005b850 f   LIBCMTD:cfout.obj
 0001:0005a9b0       __fltout2                  4005b9b0 f   LIBCMTD:cfout.obj
 0001:0005aa60       __alldiv                   4005ba60 f   LIBCMTD:lldiv.obj
 0001:0005ab10       __allrem                   4005bb10 f   LIBCMTD:llrem.obj
 0001:0005abd0       __allshl                   4005bbd0 f   LIBCMTD:llshl.obj
 0001:0005abf0       __aullshr                  4005bbf0 f   LIBCMTD:ullshr.obj
 0001:0005ac10       __get_output_format        4005bc10 f   LIBCMTD:outputformat.obj
 0001:0005ac20       __set_output_format        4005bc20 f   LIBCMTD:outputformat.obj
 0001:0005acc0       __controlfp_s              4005bcc0 f   LIBCMTD:contrlfp.obj
 0001:0005adb0       __fptrap                   4005bdb0 f   LIBCMTD:crt0fp.obj
 0001:0005adc0       __FindPESection            4005bdc0 f   LIBCMTD:pesect.obj
 0001:0005ae40       __IsNonwritableInCurrentImage 4005be40 f   LIBCMTD:pesect.obj
 0001:0005af70       __ValidateImageBase        4005bf70 f   LIBCMTD:pesect.obj
 0001:0005afd0       ___onexitinit              4005bfd0 f   LIBCMTD:onexit.obj
 0001:0005b030       __onexit                   4005c030 f   LIBCMTD:onexit.obj
 0001:0005b1f0       _atexit                    4005c1f0 f   LIBCMTD:onexit.obj
 0001:0005b220       ?_inconsistency@@YAXXZ     4005c220 f   LIBCMTD:hooks.obj
 0001:0005b2b0       ?terminate@@YAXXZ          4005c2b0 f   LIBCMTD:hooks.obj
 0001:0005b330       ?unexpected@@YAXXZ         4005c330 f   LIBCMTD:hooks.obj
 0001:0005b360       __initp_eh_hooks           4005c360 f   LIBCMTD:hooks.obj
 0001:0005b380       ?_query_new_handler@@YAP6AHI@ZXZ 4005c380 f   LIBCMTD:handler.obj
 0001:0005b3a0       ?_set_new_handler@@YAP6AHI@ZH@Z 4005c3a0 f   LIBCMTD:handler.obj
 0001:0005b3e0       ?_set_new_handler@@YAP6AHI@ZP6AHI@Z@Z 4005c3e0 f   LIBCMTD:handler.obj
 0001:0005b420       __callnewh                 4005c420 f   LIBCMTD:handler.obj
 0001:0005b460       __initp_heap_handler       4005c460 f   LIBCMTD:handler.obj
 0001:0005b470       ___getlocaleinfo           4005c470 f   LIBCMTD:inithelp.obj
 0001:0005b770       __initp_misc_purevirt      4005c770 f   LIBCMTD:inithelp.obj
 0001:0005b780       __initp_misc_rand_s        4005c780 f   LIBCMTD:rand_s.obj
 0001:0005b790       _rand_s                    4005c790 f   LIBCMTD:rand_s.obj
 0001:0005ba00       __ftbuf                    4005ca00 f   LIBCMTD:_sftbuf.obj
 0001:0005ba90       __stbuf                    4005ca90 f   LIBCMTD:_sftbuf.obj
 0001:0005bc00       __aulldiv                  4005cc00 f   LIBCMTD:ulldiv.obj
 0001:0005bc70       __aullrem                  4005cc70 f   LIBCMTD:ullrem.obj
 0001:0005bcf0       __fcloseall                4005ccf0 f   LIBCMTD:closeall.obj
 0001:0005be20       __fileno                   4005ce20 f   LIBCMTD:fileno.obj
 0001:0005beb0       __commit                   4005ceb0 f   LIBCMTD:commit.obj
 0001:0005c0f0       __write                    4005d0f0 f   LIBCMTD:write.obj
 0001:0005c340       __write_nolock             4005d340 f   LIBCMTD:write.obj
 0001:0005d0d0       __freebuf                  4005e0d0 f   LIBCMTD:_freebuf.obj
 0001:0005d160       __vfwprintf_l              4005e160 f   LIBCMTD:vfwprint.obj
 0001:0005d190       __vfwprintf_p              4005e190 f   LIBCMTD:vfwprint.obj
 0001:0005d1b0       __vfwprintf_p_l            4005e1b0 f   LIBCMTD:vfwprint.obj
 0001:0005d1e0       __vfwprintf_s_l            4005e1e0 f   LIBCMTD:vfwprint.obj
 0001:0005d210       _vfwprintf                 4005e210 f   LIBCMTD:vfwprint.obj
 0001:0005d230       _vfwprintf_helper          4005e230 f   LIBCMTD:vfwprint.obj
 0001:0005d3d0       _vfwprintf_s               4005e3d0 f   LIBCMTD:vfwprint.obj
 0001:0005d3f0       __woutput_l                4005e3f0 f   LIBCMTD:woutput.obj
 0001:0005e9d0       __woutput_s_l              4005f9d0 f   LIBCMTD:woutputs.obj
 0001:00060110       __validate_param_reuseW    40061110 f   LIBCMTD:woutputp.obj
 0001:000603f0       __woutput_p_l              400613f0 f   LIBCMTD:woutputp.obj
 0001:00063ee0       _wcsncpy_s                 40064ee0 f   LIBCMTD:wcsncpy_s.obj
 0001:00064310       __isatty                   40065310 f   LIBCMTD:isatty.obj
 0001:000643d0       __lseeki64                 400653d0 f   LIBCMTD:lseeki64.obj
 0001:00064640       __lseeki64_nolock          40065640 f   LIBCMTD:lseeki64.obj
 0001:00064710       __getbuf                   40065710 f   LIBCMTD:_getbuf.obj
 0001:000647e0       __get_printf_count_output  400657e0 f   LIBCMTD:printf.obj
 0001:00064810       __printf_l                 40065810 f   LIBCMTD:printf.obj
 0001:00064840       __printf_p                 40065840 f   LIBCMTD:printf.obj
 0001:00064860       __printf_p_l               40065860 f   LIBCMTD:printf.obj
 0001:00064890       __printf_s_l               40065890 f   LIBCMTD:printf.obj
 0001:000648c0       __set_printf_count_output  400658c0 f   LIBCMTD:printf.obj
 0001:00064920       _printf                    40065920 f   LIBCMTD:printf.obj
 0001:00064a90       _printf_s                  40065a90 f   LIBCMTD:printf.obj
 0001:00064ab0       __wctomb_l                 40065ab0 f   LIBCMTD:wctomb.obj
 0001:00064b30       __wctomb_s_l               40065b30 f   LIBCMTD:wctomb.obj
 0001:00064e80       _wctomb                    40065e80 f   LIBCMTD:wctomb.obj
 0001:00064ed0       _wctomb_s                  40065ed0 f   LIBCMTD:wctomb.obj
 0001:00064ef0       __output_s_l               40065ef0 f   LIBCMTD:outputs.obj
 0001:00066890       __iswctype_l               40067890 f   LIBCMTD:iswctype.obj
 0001:000668b0       _is_wctype                 400678b0 f   LIBCMTD:iswctype.obj
 0001:000668d0       _iswctype                  400678d0 f   LIBCMTD:iswctype.obj
 0001:00066930       _free                      40067930 f   LIBCMTD:dbgfree.obj
 0001:00066950       _malloc                    40067950 f   LIBCMTD:dbgmalloc.obj
 0001:00066980       _GetTableIndexFromLcid     40067980 f   LIBCMTD:winapinls.obj
 0001:000669f0       _GetTableIndexFromLocaleName 400679f0 f   LIBCMTD:winapinls.obj
 0001:00066a80       ___crtCompareStringEx      40067a80 f   LIBCMTD:winapinls.obj
 0001:00066af0       ___crtDownlevelLCIDToLocaleName 40067af0 f   LIBCMTD:winapinls.obj
 0001:00066bc0       ___crtDownlevelLocaleNameToLCID 40067bc0 f   LIBCMTD:winapinls.obj
 0001:00066c20       ___crtEnumSystemLocalesEx  40067c20 f   LIBCMTD:winapinls.obj
 0001:00066c90       ___crtGetDateFormatEx      40067c90 f   LIBCMTD:winapinls.obj
 0001:00066d00       ___crtGetLocaleInfoEx      40067d00 f   LIBCMTD:winapinls.obj
 0001:00066d60       ___crtGetTimeFormatEx      40067d60 f   LIBCMTD:winapinls.obj
 0001:00066dd0       ___crtGetUserDefaultLocaleName 40067dd0 f   LIBCMTD:winapinls.obj
 0001:00066e20       ___crtIsValidLocaleName    40067e20 f   LIBCMTD:winapinls.obj
 0001:00066e60       ___crtLCMapStringEx        40067e60 f   LIBCMTD:winapinls.obj
 0001:00066ed0       ___wcsnicmp_ascii          40067ed0 f   LIBCMTD:winapinls.obj
 0001:00066fa0       ___init_collate            40067fa0 f   LIBCMTD:initcoll.obj
 0001:00066fb0       ____lc_codepage_func       40067fb0 f   LIBCMTD:initctyp.obj
 0001:00067000       ____lc_collate_cp_func     40068000 f   LIBCMTD:initctyp.obj
 0001:00067050       ____lc_locale_name_func    40068050 f   LIBCMTD:initctyp.obj
 0001:000670a0       ____mb_cur_max_func        400680a0 f   LIBCMTD:initctyp.obj
 0001:000670f0       ____mb_cur_max_l_func      400680f0 f   LIBCMTD:initctyp.obj
 0001:00067120       ___init_ctype              40068120 f   LIBCMTD:initctyp.obj
 0001:00067910       _memcmp                    40068910 f   LIBCMTD:memcmp.obj
 0001:000681e0       _wcscmp                    400691e0 f   LIBCMTD:wcscmp.obj
 0001:00068240       _wcscspn                   40069240 f   LIBCMTD:wcscspn.obj
 0001:000682b0       _wcsnlen                   400692b0 f   LIBCMTD:wcslen_s.obj
 0001:000682f0       _wcsncmp                   400692f0 f   LIBCMTD:wcsncmp.obj
 0001:00068350       _wcspbrk                   40069350 f   LIBCMTD:wcspbrk.obj
 0001:00068ef0       ___get_qualified_locale    40069ef0 f   LIBCMTD:getqloc.obj
 0001:00069ed0       ___get_qualified_locale_downlevel 4006aed0 f   LIBCMTD:getqloc_downlevel.obj
 0001:0006a1a0       __allmul                   4006b1a0 f   LIBCMTD:llmul.obj
 0001:0006a1e0       __local_unwind4            4006b1e0 f   LIBCMTD:exsup4.obj
 0001:0006a2b6       __seh_longjmp_unwind4@4    4006b2b6 f   LIBCMTD:exsup4.obj
 0001:0006a2d2       @_EH4_CallFilterFunc@8     4006b2d2 f   LIBCMTD:exsup4.obj
 0001:0006a2e9       @_EH4_TransferToHandler@8  4006b2e9 f   LIBCMTD:exsup4.obj
 0001:0006a302       @_EH4_GlobalUnwind2@8      4006b302 f   LIBCMTD:exsup4.obj
 0001:0006a31b       @_EH4_LocalUnwind@16       4006b31b f   LIBCMTD:exsup4.obj
 0001:0006a400       __ismbbalnum               4006b400 f   LIBCMTD:ismbbyte.obj
 0001:0006a420       __ismbbalnum_l             4006b420 f   LIBCMTD:ismbbyte.obj
 0001:0006a440       __ismbbalpha               4006b440 f   LIBCMTD:ismbbyte.obj
 0001:0006a460       __ismbbalpha_l             4006b460 f   LIBCMTD:ismbbyte.obj
 0001:0006a480       __ismbbgraph               4006b480 f   LIBCMTD:ismbbyte.obj
 0001:0006a4a0       __ismbbgraph_l             4006b4a0 f   LIBCMTD:ismbbyte.obj
 0001:0006a4c0       __ismbbkalnum              4006b4c0 f   LIBCMTD:ismbbyte.obj
 0001:0006a4e0       __ismbbkalnum_l            4006b4e0 f   LIBCMTD:ismbbyte.obj
 0001:0006a500       __ismbbkana                4006b500 f   LIBCMTD:ismbbyte.obj
 0001:0006a520       __ismbbkana_l              4006b520 f   LIBCMTD:ismbbyte.obj
 0001:0006a590       __ismbbkprint              4006b590 f   LIBCMTD:ismbbyte.obj
 0001:0006a5b0       __ismbbkprint_l            4006b5b0 f   LIBCMTD:ismbbyte.obj
 0001:0006a5d0       __ismbbkpunct              4006b5d0 f   LIBCMTD:ismbbyte.obj
 0001:0006a5f0       __ismbbkpunct_l            4006b5f0 f   LIBCMTD:ismbbyte.obj
 0001:0006a610       __ismbblead                4006b610 f   LIBCMTD:ismbbyte.obj
 0001:0006a630       __ismbblead_l              4006b630 f   LIBCMTD:ismbbyte.obj
 0001:0006a650       __ismbbprint               4006b650 f   LIBCMTD:ismbbyte.obj
 0001:0006a670       __ismbbprint_l             4006b670 f   LIBCMTD:ismbbyte.obj
 0001:0006a690       __ismbbpunct               4006b690 f   LIBCMTD:ismbbyte.obj
 0001:0006a6b0       __ismbbpunct_l             4006b6b0 f   LIBCMTD:ismbbyte.obj
 0001:0006a6d0       __ismbbtrail               4006b6d0 f   LIBCMTD:ismbbyte.obj
 0001:0006a6f0       __ismbbtrail_l             4006b6f0 f   LIBCMTD:ismbbyte.obj
 0001:0006a710       __free_base                4006b710 f   LIBCMTD:free.obj
 0001:0006a760       __realloc_base             4006b760 f   LIBCMTD:realloc.obj
 0001:0006a860       __expand_base              4006b860 f   LIBCMTD:expand.obj
 0001:0006a9d0       __heapchk                  4006b9d0 f   LIBCMTD:heapchk.obj
 0001:0006aa00       __heapset                  4006ba00 f   LIBCMTD:heapchk.obj
 0001:0006aa10       __scprintf                 4006ba10 f   LIBCMTD:sprintf.obj
 0001:0006aa30       __scprintf_l               4006ba30 f   LIBCMTD:sprintf.obj
 0001:0006aa60       __scprintf_p               4006ba60 f   LIBCMTD:sprintf.obj
 0001:0006aa80       __scprintf_p_l             4006ba80 f   LIBCMTD:sprintf.obj
 0001:0006aab0       __snprintf_s               4006bab0 f   LIBCMTD:sprintf.obj
 0001:0006aae0       __snprintf_s_l             4006bae0 f   LIBCMTD:sprintf.obj
 0001:0006ab10       __sprintf_l                4006bb10 f   LIBCMTD:sprintf.obj
 0001:0006ab40       __sprintf_p                4006bb40 f   LIBCMTD:sprintf.obj
 0001:0006ab70       __sprintf_p_l              4006bb70 f   LIBCMTD:sprintf.obj
 0001:0006aba0       __sprintf_s_l              4006bba0 f   LIBCMTD:sprintf.obj
 0001:0006abd0       _sprintf                   4006bbd0 f   LIBCMTD:sprintf.obj
 0001:0006ad90       _sprintf_s                 4006bd90 f   LIBCMTD:sprintf.obj
 0001:0006adc0       __heap_alloc_base          4006bdc0 f i LIBCMTD:malloc.obj
 0001:0006ae20       __malloc_base              4006be20 f   LIBCMTD:malloc.obj
 0001:0006aeb0       __CallSettingFrame@12      4006beb0 f   LIBCMTD:lowhelpr.obj
 0001:0006aed7       __NLG_Return               4006bed7     LIBCMTD:lowhelpr.obj
 0001:0006af00       ___DestructExceptionObject 4006bf00 f   LIBCMTD:frame.obj
 0001:0006b020       ??0bad_exception@std@@QAE@ABV01@@Z 4006c020 f i LIBCMTD:frame.obj
 0001:0006b050       ??0bad_exception@std@@QAE@PBD@Z 4006c050 f i LIBCMTD:frame.obj
 0001:0006b080       ??1bad_exception@std@@UAE@XZ 4006c080 f i LIBCMTD:frame.obj
 0001:0006b0a0       ??_Ebad_exception@std@@UAEPAXI@Z 4006c0a0 f i LIBCMTD:frame.obj
 0001:0006b0a0       ??_Gbad_exception@std@@UAEPAXI@Z 4006c0a0 f i LIBCMTD:frame.obj
 0001:0006bca0       ?__uncaught_exception@@YA_NXZ 4006cca0 f   LIBCMTD:frame.obj
 0001:0006bcd0       ?_is_exception_typeof@@YAHABVtype_info@@PAU_EXCEPTION_POINTERS@@@Z 4006ccd0 f   LIBCMTD:frame.obj
 0001:0006bdb0       ___AdjustPointer           4006cdb0 f   LIBCMTD:frame.obj
 0001:0006be00       ___BuildCatchObject        4006ce00 f   LIBCMTD:frame.obj
 0001:0006bf10       ___BuildCatchObjectHelper  4006cf10 f   LIBCMTD:frame.obj
 0001:0006c190       ___CxxDetectRethrow        4006d190 f   LIBCMTD:frame.obj
 0001:0006c210       ___CxxExceptionFilter      4006d210 f   LIBCMTD:frame.obj
 0001:0006c410       ___CxxQueryExceptionSize   4006d410 f   LIBCMTD:frame.obj
 0001:0006c420       ___CxxRegisterExceptionObject 4006d420 f   LIBCMTD:frame.obj
 0001:0006c560       ___CxxUnregisterExceptionObject 4006d560 f   LIBCMTD:frame.obj
 0001:0006c6e0       ___FrameUnwindFilter       4006d6e0 f   LIBCMTD:frame.obj
 0001:0006c760       ___FrameUnwindToState      4006d760 f   LIBCMTD:frame.obj
 0001:0006c8e0       ___InternalCxxFrameHandler 4006d8e0 f   LIBCMTD:frame.obj
 0001:0006ca50       ___TypeMatch               4006da50 f   LIBCMTD:frame.obj
 0001:0006cb10       ___vswprintf_l             4006db10 f   LIBCMTD:vswprint.obj
 0001:0006cb30       __vscwprintf               4006db30 f   LIBCMTD:vswprint.obj
 0001:0006cb50       __vscwprintf_helper        4006db50 f   LIBCMTD:vswprint.obj
 0001:0006cc40       __vscwprintf_l             4006dc40 f   LIBCMTD:vswprint.obj
 0001:0006cc60       __vscwprintf_p             4006dc60 f   LIBCMTD:vswprint.obj
 0001:0006cc80       __vscwprintf_p_l           4006dc80 f   LIBCMTD:vswprint.obj
 0001:0006cca0       __vswprintf                4006dca0 f   LIBCMTD:vswprint.obj
 0001:0006ccc0       __vswprintf_l              4006dcc0 f   LIBCMTD:vswprint.obj
 0001:0006cee0       _strcat_s                  4006dee0 f   LIBCMTD:strcat_s.obj
 0001:0006d710       __i64toa_s                 4006e710 f   LIBCMTD:xtoas.obj
 0001:0006d760       __itoa_s                   4006e760 f   LIBCMTD:xtoas.obj
 0001:0006d7c0       __ltoa_s                   4006e7c0 f   LIBCMTD:xtoas.obj
 0001:0006d800       __ui64toa_s                4006e800 f   LIBCMTD:xtoas.obj
 0001:0006d820       __ultoa_s                  4006e820 f   LIBCMTD:xtoas.obj
 0001:0006dc20       __mbstowcs_l               4006ec20 f   LIBCMTD:mbstowcs.obj
 0001:0006dc40       __mbstowcs_l_helper        4006ec40 f   LIBCMTD:mbstowcs.obj
 0001:0006dfd0       __mbstowcs_s_l             4006efd0 f   LIBCMTD:mbstowcs.obj
 0001:0006e390       _mbstowcs                  4006f390 f   LIBCMTD:mbstowcs.obj
 0001:0006e3e0       _mbstowcs_s                4006f3e0 f   LIBCMTD:mbstowcs.obj
 0001:0006e470       __wcstombs_l               4006f470 f   LIBCMTD:wcstombs.obj
 0001:0006e490       __wcstombs_l_helper        4006f490 f   LIBCMTD:wcstombs.obj
 0001:0006e9a0       __wcstombs_s_l             4006f9a0 f   LIBCMTD:wcstombs.obj
 0001:0006ed00       _wcstombs                  4006fd00 f   LIBCMTD:wcstombs.obj
 0001:0006ed20       _wcstombs_s                4006fd20 f   LIBCMTD:wcstombs.obj
 0001:0006ed50       __vsnprintf_c              4006fd50 f   LIBCMTD:vsnprnc.obj
 0001:0006eda0       __vsnprintf_c_l            4006fda0 f   LIBCMTD:vsnprnc.obj
 0001:0006edf0       __vsnprintf_helper         4006fdf0 f   LIBCMTD:vsnprnc.obj
 0001:0006eff0       __vsnprintf_s              4006fff0 f   LIBCMTD:vsnprnc.obj
 0001:0006f020       __vsnprintf_s_l            40070020 f   LIBCMTD:vsnprnc.obj
 0001:0006f3e0       __vsprintf_p               400703e0 f   LIBCMTD:vsnprnc.obj
 0001:0006f430       __vsprintf_p_l             40070430 f   LIBCMTD:vsnprnc.obj
 0001:0006f480       __vsprintf_s_l             40070480 f   LIBCMTD:vsnprnc.obj
 0001:0006f710       _vsprintf_s                40070710 f   LIBCMTD:vsnprnc.obj
 0001:0006f730       __wmakepath_s              40070730 f   LIBCMTD:wmakepath_s.obj
 0001:0006faf0       __wsplitpath_s             40070af0 f   LIBCMTD:wsplitpath_s.obj
 0001:00070130       _$I10_OUTPUT               40071130 f   LIBCMTD:x10fout.obj
 0001:00070940       ___control87_2             40071940 f   LIBCMTD:ieee87.obj
 0001:00070de0       __clearfp                  40071de0 f   LIBCMTD:ieee87.obj
 0001:00070e20       __control87                40071e20 f i LIBCMTD:ieee87.obj
 0001:00070ed0       __controlfp                40071ed0 f   LIBCMTD:ieee87.obj
 0001:00070ef0       __fpreset                  40071ef0 f   LIBCMTD:ieee87.obj
 0001:000710b0       __set_controlfp            400720b0 f   LIBCMTD:ieee87.obj
 0001:00071140       __statusfp                 40072140 f   LIBCMTD:ieee87.obj
 0001:00071180       __statusfp2                40072180 f   LIBCMTD:ieee87.obj
 0001:000711c0       _strncpy_s                 400721c0 f   LIBCMTD:strncpy_s.obj
 0001:000716f0       ___crtGetLocaleInfoA       400726f0 f   LIBCMTD:a_loc.obj
 0001:00071740       __fclose_nolock            40072740 f   LIBCMTD:fclose.obj
 0001:00071850       _fclose                    40072850 f   LIBCMTD:fclose.obj
 0001:00071970       ___lock_fhandle            40072970 f   LIBCMTD:osfinfo.obj
 0001:00071a60       __alloc_osfhnd             40072a60 f   LIBCMTD:osfinfo.obj
 0001:00071d00       __free_osfhnd              40072d00 f   LIBCMTD:osfinfo.obj
 0001:00071df0       __get_osfhandle            40072df0 f   LIBCMTD:osfinfo.obj
 0001:00071f90       __open_osfhandle           40072f90 f   LIBCMTD:osfinfo.obj
 0001:000721c0       __set_osfhnd               400731c0 f   LIBCMTD:osfinfo.obj
 0001:00072290       __unlock_fhandle           40073290 f   LIBCMTD:osfinfo.obj
 0001:000722c0       __mbtowc_l                 400732c0 f   LIBCMTD:mbtowc.obj
 0001:00072500       _mbtowc                    40073500 f   LIBCMTD:mbtowc.obj
 0001:00072520       __putwch                   40073520 f   LIBCMTD:putwch.obj
 0001:000725b0       __putwch_nolock            400735b0 f   LIBCMTD:putwch.obj
 0001:00072600       __fputwc_nolock            40073600 f   LIBCMTD:fputwc.obj
 0001:000728f0       _fputwc                    400738f0 f   LIBCMTD:fputwc.obj
 0001:00072a00       _putwc                     40073a00 f   LIBCMTD:fputwc.obj
 0001:00072de0       __wcstol_l                 40073de0 f   LIBCMTD:wcstol.obj
 0001:00072e00       __wcstoul_l                40073e00 f   LIBCMTD:wcstol.obj
 0001:00072e20       _wcstol                    40073e20 f   LIBCMTD:wcstol.obj
 0001:00072e40       _wcstoul                   40073e40 f   LIBCMTD:wcstol.obj
 0001:00072e60       __vprintf_l                40073e60 f   LIBCMTD:vprintf.obj
 0001:00072e80       __vprintf_p                40073e80 f   LIBCMTD:vprintf.obj
 0001:00072ea0       __vprintf_p_l              40073ea0 f   LIBCMTD:vprintf.obj
 0001:00072ec0       __vprintf_s_l              40073ec0 f   LIBCMTD:vprintf.obj
 0001:00072ee0       _vprintf                   40073ee0 f   LIBCMTD:vprintf.obj
 0001:00072f00       _vprintf_helper            40073f00 f   LIBCMTD:vprintf.obj
 0001:00073040       _vprintf_s                 40074040 f   LIBCMTD:vprintf.obj
 0001:00073060       __wtoi                     40074060 f   LIBCMTD:wtox.obj
 0001:00073080       __wtoi64                   40074080 f   LIBCMTD:wtox.obj
 0001:000730a0       __wtoi64_l                 400740a0 f   LIBCMTD:wtox.obj
 0001:000730c0       __wtoi_l                   400740c0 f   LIBCMTD:wtox.obj
 0001:000730e0       __wtol                     400740e0 f   LIBCMTD:wtox.obj
 0001:00073100       __wtol_l                   40074100 f   LIBCMTD:wtox.obj
 0001:00073120       _wcschr                    40074120 f   LIBCMTD:wcschr.obj
 0001:000732a0       __wcsicmp                  400742a0 f   LIBCMTD:wcsicmp.obj
 0001:00073470       __wcsicmp_l                40074470 f   LIBCMTD:wcsicmp.obj
 0001:000736e0       __wcsnicmp                 400746e0 f   LIBCMTD:wcsnicmp.obj
 0001:000738d0       __wcsnicmp_l               400748d0 f   LIBCMTD:wcsnicmp.obj
 0001:00073b30       __global_unwind2           40074b30 f   LIBCMTD:exsup.obj
 0001:00073b95       __local_unwind2            40074b95 f   LIBCMTD:exsup.obj
 0001:00073c19       __abnormal_termination     40074c19 f   LIBCMTD:exsup.obj
 0001:00073c3c       __NLG_Notify1              40074c3c f   LIBCMTD:exsup.obj
 0001:00073c45       __NLG_Notify               40074c45 f   LIBCMTD:exsup.obj
 0001:00073c5c       __NLG_Dispatch2            40074c5c     LIBCMTD:exsup.obj
 0001:00073c5c       __NLG_Dispatch             40074c5c     LIBCMTD:exsup.obj
 0001:00073c64       __NLG_Call                 40074c64 f   LIBCMTD:exsup.obj
 0001:00073c66       __NLG_Return2              40074c66     LIBCMTD:exsup.obj
 0001:00073c70       ??3@YAXPAX@Z               40074c70 f   LIBCMTD:dbgdel.obj
 0001:00073d60       ?_ValidateExecute@@YAHP6GHXZ@Z 40074d60 f   LIBCMTD:validate.obj
 0001:00073d80       ?_ValidateRead@@YAHPBXI@Z  40074d80 f   LIBCMTD:validate.obj
 0001:00073da0       ?_ValidateWrite@@YAHPAXI@Z 40074da0 f   LIBCMTD:validate.obj
 0001:00073dc0       ??0type_info@@AAE@ABV0@@Z  40074dc0 f   LIBCMTD:typinfo.obj
 0001:00073de0       ??1type_info@@UAE@XZ       40074de0 f   LIBCMTD:typinfo.obj
 0001:00073e00       ??4type_info@@AAEAAV0@ABV0@@Z 40074e00 f   LIBCMTD:typinfo.obj
 0001:00073e10       ??8type_info@@QBE_NABV0@@Z 40074e10 f   LIBCMTD:typinfo.obj
 0001:00073e50       ??9type_info@@QBE_NABV0@@Z 40074e50 f   LIBCMTD:typinfo.obj
 0001:00073e90       ??_Etype_info@@UAEPAXI@Z   40074e90 f i LIBCMTD:typinfo.obj
 0001:00073e90       ??_Gtype_info@@UAEPAXI@Z   40074e90 f i LIBCMTD:typinfo.obj
 0001:00073ec0       ?_name_internal_method@type_info@@QBEPBDPAU__type_info_node@@@Z 40074ec0 f   LIBCMTD:typinfo.obj
 0001:00073ee0       ?_type_info_dtor_internal_method@type_info@@QAEXXZ 40074ee0 f   LIBCMTD:typinfo.obj
 0001:00073f00       ?before@type_info@@QBE_NABV1@@Z 40074f00 f   LIBCMTD:typinfo.obj
 0001:00073f40       ?name@type_info@@QBEPBDPAU__type_info_node@@@Z 40074f40 f   LIBCMTD:typinfo.obj
 0001:00073f60       ?raw_name@type_info@@QBEPBDXZ 40074f60 f   LIBCMTD:typinfo.obj
 0001:00073f80       ??0__non_rtti_object@std@@QAE@ABV01@@Z 40074f80 f   LIBCMTD:stdexcpt.obj
 0001:00073fb0       ??0__non_rtti_object@std@@QAE@PBD@Z 40074fb0 f   LIBCMTD:stdexcpt.obj
 0001:00073fe0       ??0bad_cast@std@@QAE@ABV01@@Z 40074fe0 f   LIBCMTD:stdexcpt.obj
 0001:00074010       ??0bad_cast@std@@QAE@PBD@Z 40075010 f   LIBCMTD:stdexcpt.obj
 0001:00074040       ??0bad_typeid@std@@QAE@ABV01@@Z 40075040 f   LIBCMTD:stdexcpt.obj
 0001:00074070       ??0bad_typeid@std@@QAE@PBD@Z 40075070 f   LIBCMTD:stdexcpt.obj
 0001:000740a0       ??0exception@std@@QAE@ABQBD@Z 400750a0 f   LIBCMTD:stdexcpt.obj
 0001:000740e0       ??0exception@std@@QAE@ABQBDH@Z 400750e0 f   LIBCMTD:stdexcpt.obj
 0001:00074110       ??0exception@std@@QAE@ABV01@@Z 40075110 f   LIBCMTD:stdexcpt.obj
 0001:00074150       ??0exception@std@@QAE@XZ   40075150 f   LIBCMTD:stdexcpt.obj
 0001:00074180       ??1__non_rtti_object@std@@UAE@XZ 40075180 f   LIBCMTD:stdexcpt.obj
 0001:000741a0       ??1bad_cast@std@@UAE@XZ    400751a0 f   LIBCMTD:stdexcpt.obj
 0001:000741c0       ??1bad_typeid@std@@UAE@XZ  400751c0 f   LIBCMTD:stdexcpt.obj
 0001:000741e0       ??1exception@std@@UAE@XZ   400751e0 f   LIBCMTD:stdexcpt.obj
 0001:00074200       ??4exception@std@@QAEAAV01@ABV01@@Z 40075200 f   LIBCMTD:stdexcpt.obj
 0001:00074250       ??_E__non_rtti_object@std@@UAEPAXI@Z 40075250 f i LIBCMTD:stdexcpt.obj
 0001:00074250       ??_G__non_rtti_object@std@@UAEPAXI@Z 40075250 f i LIBCMTD:stdexcpt.obj
 0001:00074280       ??_Ebad_cast@std@@UAEPAXI@Z 40075280 f i LIBCMTD:stdexcpt.obj
 0001:00074280       ??_Gbad_cast@std@@UAEPAXI@Z 40075280 f i LIBCMTD:stdexcpt.obj
 0001:000742b0       ??_Ebad_typeid@std@@UAEPAXI@Z 400752b0 f i LIBCMTD:stdexcpt.obj
 0001:000742b0       ??_Gbad_typeid@std@@UAEPAXI@Z 400752b0 f i LIBCMTD:stdexcpt.obj
 0001:000742e0       ??_Eexception@std@@UAEPAXI@Z 400752e0 f i LIBCMTD:stdexcpt.obj
 0001:000742e0       ??_Gexception@std@@UAEPAXI@Z 400752e0 f i LIBCMTD:stdexcpt.obj
 0001:00074310       ?_Copy_str@exception@std@@AAEXPBD@Z 40075310 f   LIBCMTD:stdexcpt.obj
 0001:00074370       ?_Tidy@exception@std@@AAEXXZ 40075370 f   LIBCMTD:stdexcpt.obj
 0001:000743b0       ?what@exception@std@@UBEPBDXZ 400753b0 f   LIBCMTD:stdexcpt.obj
 0001:000743e0       __CxxThrowException@8      400753e0 f   LIBCMTD:throw.obj
 0001:00074470       __close                    40075470 f   LIBCMTD:close.obj
 0001:000746a0       __close_nolock             400756a0 f   LIBCMTD:close.obj
 0001:00074780       ___termconout              40075780 f   LIBCMTD:initcon.obj
 0001:000747b0       ___initconout              400757b0 f   LIBCMTD:initcon.obj
 0001:000747e0       __flswbuf                  400757e0 f   LIBCMTD:_flswbuf.obj
 0001:00074ad0       __wchartodigit             40075ad0 f   LIBCMTD:wchtodig.obj
 0001:00075340       __wcstoi64                 40076340 f   LIBCMTD:wcstoq.obj
 0001:00075390       __wcstoi64_l               40076390 f   LIBCMTD:wcstoq.obj
 0001:000753b0       __wcstoui64                400763b0 f   LIBCMTD:wcstoq.obj
 0001:00075400       __wcstoui64_l              40076400 f   LIBCMTD:wcstoq.obj
 0001:00075420       __towlower_l               40076420 f   LIBCMTD:towlower.obj
 0001:00075570       _towlower                  40076570 f   LIBCMTD:towlower.obj
 0001:00075590       ?_Name_base@type_info@@CAPBDPBV1@PAU__type_info_node@@@Z 40076590 f   LIBCMTD:typname.obj
 0001:00075740       ?_Name_base_internal@type_info@@CAPBDPBV1@PAU__type_info_node@@@Z 40076740 f   LIBCMTD:typname.obj
 0001:00075900       ?_Type_info_dtor@type_info@@CAXPAV1@@Z 40076900 f   LIBCMTD:typname.obj
 0001:00075a10       ?_Type_info_dtor_internal@type_info@@CAXPAV1@@Z 40076a10 f   LIBCMTD:typname.obj
 0001:00075b20       ___clean_type_info_names_internal 40076b20 f   LIBCMTD:typname.obj
 0001:00075bd0       ___unDNameHelper           40076bd0 f   LIBCMTD:typname.obj
 0001:00075c10       ___crtLCMapStringW         40076c10 f   LIBCMTD:w_map.obj
 0001:00075c50       ??0Block@_HeapManager@@QAE@XZ 40076c50 f i LIBCMTD:undname.obj
 0001:00075c70       ??0DName@@QAE@AAPBDD@Z     40076c70 f   LIBCMTD:undname.obj
 0001:00075f30       ??0DName@@QAE@ABV0@@Z      40076f30 f i LIBCMTD:undname.obj
 0001:00075f50       ??0DName@@QAE@D@Z          40076f50 f   LIBCMTD:undname.obj
 0001:00076030       ??0DName@@QAE@PAV0@@Z      40077030 f   LIBCMTD:undname.obj
 0001:00076170       ??0DName@@QAE@PBD@Z        40077170 f   LIBCMTD:undname.obj
 0001:00076260       ??0DName@@QAE@W4DNameStatus@@@Z 40077260 f   LIBCMTD:undname.obj
 0001:00076380       ??0DName@@QAE@XZ           40077380 f i LIBCMTD:undname.obj
 0001:00076440       ??0DName@@QAE@_J@Z         40077440 f   LIBCMTD:undname.obj
 0001:000765c0       ??0DName@@QAE@_K@Z         400775c0 f   LIBCMTD:undname.obj
 0001:00076700       ??0DNameNode@@IAE@XZ       40077700 f   LIBCMTD:undname.obj
 0001:00076720       ??0DNameStatusNode@@AAE@W4DNameStatus@@@Z 40077720 f   LIBCMTD:undname.obj
 0001:00076770       ??0Replicator@@QAE@XZ      40077770 f i LIBCMTD:undname.obj
 0001:00076790       ??0UnDecorator@@QAE@PADPBDHP6APADJ@ZK@Z 40077790 f i LIBCMTD:undname.obj
 0001:00076830       ??0charNode@@QAE@D@Z       40077830 f   LIBCMTD:undname.obj
 0001:00076860       ??0pDNameNode@@QAE@PAVDName@@@Z 40077860 f   LIBCMTD:undname.obj
 0001:000768c0       ??0pairNode@@QAE@PAVDNameNode@@0@Z 400778c0 f   LIBCMTD:undname.obj
 0001:00076900       ??0pcharNode@@QAE@PBDH@Z   40077900 f   LIBCMTD:undname.obj
 0001:000769a0       ??2@YAPAXIAAV_HeapManager@@H@Z 400779a0 f i LIBCMTD:undname.obj
 0001:000769c0       ??4DName@@QAEAAV0@ABV0@@Z  400779c0 f   LIBCMTD:undname.obj
 0001:000769e0       ??4DName@@QAEAAV0@D@Z      400779e0 f i LIBCMTD:undname.obj
 0001:00076ac0       ??4DName@@QAEAAV0@PAV0@@Z  40077ac0 f   LIBCMTD:undname.obj
 0001:00076bf0       ??4DName@@QAEAAV0@PBD@Z    40077bf0 f   LIBCMTD:undname.obj
 0001:00076cd0       ??4DName@@QAEAAV0@W4DNameStatus@@@Z 40077cd0 f   LIBCMTD:undname.obj
 0001:00076dd0       ??AReplicator@@QBE?AVDName@@H@Z 40077dd0 f   LIBCMTD:undname.obj
 0001:00076e40       ??BUnDecorator@@QAEPADXZ   40077e40 f i LIBCMTD:undname.obj
 0001:000770d0       ??H@YA?AVDName@@DABV0@@Z   400780d0 f i LIBCMTD:undname.obj
 0001:00077100       ??H@YA?AVDName@@PBDABV0@@Z 40078100 f i LIBCMTD:undname.obj
 0001:00077130       ??H@YA?AVDName@@W4DNameStatus@@ABV0@@Z 40078130 f i LIBCMTD:undname.obj
 0001:00077160       ??HDName@@QBE?AV0@ABV0@@Z  40078160 f   LIBCMTD:undname.obj
 0001:000771a0       ??HDName@@QBE?AV0@D@Z      400781a0 f   LIBCMTD:undname.obj
 0001:000771e0       ??HDName@@QBE?AV0@PAV0@@Z  400781e0 f   LIBCMTD:undname.obj
 0001:00077220       ??HDName@@QBE?AV0@PBD@Z    40078220 f   LIBCMTD:undname.obj
 0001:00077260       ??HDName@@QBE?AV0@W4DNameStatus@@@Z 40078260 f   LIBCMTD:undname.obj
 0001:000772a0       ??YDName@@QAEAAV0@ABV0@@Z  400782a0 f   LIBCMTD:undname.obj
 0001:00077310       ??YDName@@QAEAAV0@D@Z      40078310 f   LIBCMTD:undname.obj
 0001:00077390       ??YDName@@QAEAAV0@PAV0@@Z  40078390 f   LIBCMTD:undname.obj
 0001:00077440       ??YDName@@QAEAAV0@PBD@Z    40078440 f   LIBCMTD:undname.obj
 0001:000774e0       ??YDName@@QAEAAV0@W4DNameStatus@@@Z 400784e0 f   LIBCMTD:undname.obj
 0001:00077540       ??YReplicator@@QAEAAV0@ABVDName@@@Z 40078540 f   LIBCMTD:undname.obj
 0001:000775d0       ??_5DName@@QAEAAV0@ABV0@@Z 400785d0 f   LIBCMTD:undname.obj
 0001:00077630       ?Constructor@_HeapManager@@QAEXP6APAXI@ZP6AXPAX@Z@Z 40078630 f i LIBCMTD:undname.obj
 0001:00077670       ?Destructor@_HeapManager@@QAEXXZ 40078670 f i LIBCMTD:undname.obj
 0001:000776c0       ?UScore@UnDecorator@@SAPBDW4Tokens@@@Z 400786c0 f   LIBCMTD:undname.obj
 0001:000776f0       ?append@DName@@AAEXPAVDNameNode@@@Z 400786f0 f   LIBCMTD:undname.obj
 0001:00077780       ?composeDeclaration@UnDecorator@@CA?AVDName@@ABV2@@Z 40078780 f i LIBCMTD:undname.obj
 0001:00079400       ?dbGetString@DName@@QBEPADXZ 4007a400 f   LIBCMTD:undname.obj
 0001:00079420       ?doAccessSpecifiers@UnDecorator@@SAHXZ 4007a420 f i LIBCMTD:undname.obj
 0001:00079450       ?doAllocationLanguage@UnDecorator@@SAHXZ 4007a450 f i LIBCMTD:undname.obj
 0001:00079480       ?doAllocationModel@UnDecorator@@SAHXZ 4007a480 f i LIBCMTD:undname.obj
 0001:000794b0       ?doEcsu@UnDecorator@@SAHXZ 4007a4b0 f i LIBCMTD:undname.obj
 0001:000794e0       ?doEllipsis@UnDecorator@@SAHXZ 4007a4e0 f i LIBCMTD:undname.obj
 0001:00079510       ?doFunctionReturns@UnDecorator@@SAHXZ 4007a510 f i LIBCMTD:undname.obj
 0001:00079540       ?doMSKeywords@UnDecorator@@SAHXZ 4007a540 f i LIBCMTD:undname.obj
 0001:00079570       ?doMemberTypes@UnDecorator@@SAHXZ 4007a570 f i LIBCMTD:undname.obj
 0001:000795a0       ?doNameOnly@UnDecorator@@SAHXZ 4007a5a0 f i LIBCMTD:undname.obj
 0001:000795b0       ?doNoIdentCharCheck@UnDecorator@@SAHXZ 4007a5b0 f i LIBCMTD:undname.obj
 0001:000795c0       ?doPchar@DName@@AAEXPBDH@Z 4007a5c0 f   LIBCMTD:undname.obj
 0001:00079700       ?doPtr64@UnDecorator@@SAHXZ 4007a700 f i LIBCMTD:undname.obj
 0001:00079730       ?doRestrictionSpec@UnDecorator@@SAHXZ 4007a730 f i LIBCMTD:undname.obj
 0001:00079760       ?doThisTypes@UnDecorator@@SAHXZ 4007a760 f i LIBCMTD:undname.obj
 0001:00079790       ?doThrowTypes@UnDecorator@@SAHXZ 4007a790 f i LIBCMTD:undname.obj
 0001:000797c0       ?doTypeOnly@UnDecorator@@SAHXZ 4007a7c0 f i LIBCMTD:undname.obj
 0001:000797d0       ?doUnderScore@UnDecorator@@SAHXZ 4007a7d0 f i LIBCMTD:undname.obj
 0001:00079800       ?getArgumentList@UnDecorator@@CA?AVDName@@XZ 4007a800 f   LIBCMTD:undname.obj
 0001:00079950       ?getArgumentTypes@UnDecorator@@CA?AVDName@@XZ 4007a950 f   LIBCMTD:undname.obj
 0001:00079ab0       ?getArrayType@UnDecorator@@CA?AVDName@@ABV2@@Z 4007aab0 f i LIBCMTD:undname.obj
 0001:00079cf0       ?getBasedType@UnDecorator@@CA?AVDName@@XZ 4007acf0 f   LIBCMTD:undname.obj
 0001:00079dc0       ?getBasicDataType@UnDecorator@@CA?AVDName@@ABV2@@Z 4007adc0 f   LIBCMTD:undname.obj
 0001:0007a380       ?getCallIndex@UnDecorator@@CA?AVDName@@XZ 4007b380 f i LIBCMTD:undname.obj
 0001:0007a3a0       ?getCallingConvention@UnDecorator@@CA?AVDName@@XZ 4007b3a0 f   LIBCMTD:undname.obj
 0001:0007a510       ?getDataIndirectType@UnDecorator@@CA?AVDName@@ABV2@PBD0H@Z 4007b510 f   LIBCMTD:undname.obj
 0001:0007ac20       ?getDataIndirectType@UnDecorator@@CA?AVDName@@XZ 4007bc20 f i LIBCMTD:undname.obj
 0001:0007ac60       ?getDataType@UnDecorator@@CA?AVDName@@PAV2@@Z 4007bc60 f   LIBCMTD:undname.obj
 0001:0007ad80       ?getDecoratedName@UnDecorator@@CA?AVDName@@XZ 4007bd80 f   LIBCMTD:undname.obj
 0001:0007b0b0       ?getDimension@UnDecorator@@CA?AVDName@@_N@Z 4007c0b0 f   LIBCMTD:undname.obj
 0001:0007b360       ?getDispatchTarget@UnDecorator@@CA?AVDName@@XZ 4007c360 f   LIBCMTD:undname.obj
 0001:0007b400       ?getDisplacement@UnDecorator@@CA?AVDName@@XZ 4007c400 f i LIBCMTD:undname.obj
 0001:0007b420       ?getECSUDataType@UnDecorator@@CA?AVDName@@XZ 4007c420 f   LIBCMTD:undname.obj
 0001:0007b5f0       ?getECSUName@UnDecorator@@CA?AVDName@@XZ 4007c5f0 f i LIBCMTD:undname.obj
 0001:0007b610       ?getEnumType@UnDecorator@@CA?AVDName@@XZ 4007c610 f i LIBCMTD:undname.obj
 0001:0007b760       ?getExtendedDataIndirectType@UnDecorator@@CA?AVDName@@AAPBDAA_NH@Z 4007c760 f   LIBCMTD:undname.obj
 0001:0007b9b0       ?getExternalDataType@UnDecorator@@CA?AVDName@@ABV2@@Z 4007c9b0 f i LIBCMTD:undname.obj
 0001:0007ba40       ?getFunctionIndirectType@UnDecorator@@CA?AVDName@@ABV2@@Z 4007ca40 f   LIBCMTD:undname.obj
 0001:0007beb0       ?getGuardNumber@UnDecorator@@CA?AVDName@@XZ 4007ceb0 f i LIBCMTD:undname.obj
 0001:0007bed0       ?getLastChar@DName@@QBEDXZ 4007ced0 f i LIBCMTD:undname.obj
 0001:0007bf00       ?getLastChar@DNameStatusNode@@UBEDXZ 4007cf00 f i LIBCMTD:undname.obj
 0001:0007bf30       ?getLastChar@charNode@@UBEDXZ 4007cf30 f i LIBCMTD:undname.obj
 0001:0007bf50       ?getLastChar@pDNameNode@@UBEDXZ 4007cf50 f i LIBCMTD:undname.obj
 0001:0007bf80       ?getLastChar@pairNode@@UBEDXZ 4007cf80 f i LIBCMTD:undname.obj
 0001:0007bfd0       ?getLastChar@pcharNode@@UBEDXZ 4007cfd0 f i LIBCMTD:undname.obj
 0001:0007c010       ?getLexicalFrame@UnDecorator@@CA?AVDName@@XZ 4007d010 f i LIBCMTD:undname.obj
 0001:0007c050       ?getMemory@_HeapManager@@QAEPAXIH@Z 4007d050 f   LIBCMTD:undname.obj
 0001:0007c160       ?getNumberOfDimensions@UnDecorator@@CAHXZ 4007d160 f   LIBCMTD:undname.obj
 0001:0007c260       ?getOperatorName@UnDecorator@@CA?AVDName@@_NPA_N@Z 4007d260 f i LIBCMTD:undname.obj
 0001:0007cbf0       ?getPointerType@UnDecorator@@CA?AVDName@@ABV2@0@Z 4007dbf0 f i LIBCMTD:undname.obj
 0001:0007cc20       ?getPointerTypeArray@UnDecorator@@CA?AVDName@@ABV2@0@Z 4007dc20 f i LIBCMTD:undname.obj
 0001:0007cc50       ?getPrimaryDataType@UnDecorator@@CA?AVDName@@ABV2@@Z 4007dc50 f   LIBCMTD:undname.obj
 0001:0007cff0       ?getPtrRefDataType@UnDecorator@@CA?AVDName@@ABV2@H@Z 4007dff0 f i LIBCMTD:undname.obj
 0001:0007d130       ?getPtrRefType@UnDecorator@@CA?AVDName@@ABV2@0PBD@Z 4007e130 f   LIBCMTD:undname.obj
 0001:0007d2a0       ?getReferenceType@UnDecorator@@CA?AVDName@@ABV2@0PBD@Z 4007e2a0 f i LIBCMTD:undname.obj
 0001:0007d2c0       ?getRestrictionSpec@UnDecorator@@CA?AVDName@@XZ 4007e2c0 f   LIBCMTD:undname.obj
 0001:0007d410       ?getReturnType@UnDecorator@@CA?AVDName@@PAV2@@Z 4007e410 f   LIBCMTD:undname.obj
 0001:0007d460       ?getScope@UnDecorator@@CA?AVDName@@XZ 4007e460 f   LIBCMTD:undname.obj
 0001:0007d950       ?getScopedName@UnDecorator@@CA?AVDName@@XZ 4007e950 f   LIBCMTD:undname.obj
 0001:0007da70       ?getSignedDimension@UnDecorator@@CA?AVDName@@XZ 4007ea70 f   LIBCMTD:undname.obj
 0001:0007daf0       ?getStorageConvention@UnDecorator@@CA?AVDName@@XZ 4007eaf0 f i LIBCMTD:undname.obj
 0001:0007db10       ?getString@DName@@QBEPADPAD0@Z 4007eb10 f i LIBCMTD:undname.obj
 0001:0007db50       ?getString@DName@@QBEPADPADH@Z 4007eb50 f i LIBCMTD:undname.obj
 0001:0007dbe0       ?getString@DNameStatusNode@@UBEPADPAD0@Z 4007ebe0 f i LIBCMTD:undname.obj
 0001:0007dc20       ?getString@charNode@@UBEPADPAD0@Z 4007ec20 f i LIBCMTD:undname.obj
 0001:0007dc50       ?getString@pDNameNode@@UBEPADPAD0@Z 4007ec50 f i LIBCMTD:undname.obj
 0001:0007dc90       ?getString@pairNode@@UBEPADPAD0@Z 4007ec90 f i LIBCMTD:undname.obj
 0001:0007dcf0       ?getString@pcharNode@@UBEPADPAD0@Z 4007ecf0 f i LIBCMTD:undname.obj
 0001:0007dd20       ?getStringEncoding@UnDecorator@@CA?AVDName@@PADH@Z 4007ed20 f   LIBCMTD:undname.obj
 0001:0007de30       ?getStringHelper@@YAPADPAD00H@Z 4007ee30 f i LIBCMTD:undname.obj
 0001:0007de70       ?getSymbolName@UnDecorator@@CA?AVDName@@XZ 4007ee70 f i LIBCMTD:undname.obj
 0001:0007df00       ?getTemplateArgumentList@UnDecorator@@CA?AVDName@@XZ 4007ef00 f   LIBCMTD:undname.obj
 0001:0007e180       ?getTemplateConstant@UnDecorator@@CA?AVDName@@XZ 4007f180 f   LIBCMTD:undname.obj
 0001:0007e650       ?getTemplateName@UnDecorator@@CA?AVDName@@_N@Z 4007f650 f   LIBCMTD:undname.obj
 0001:0007e820       ?getThisType@UnDecorator@@CA?AVDName@@XZ 4007f820 f i LIBCMTD:undname.obj
 0001:0007e860       ?getThrowTypes@UnDecorator@@CA?AVDName@@XZ 4007f860 f   LIBCMTD:undname.obj
 0001:0007e910       ?getTypeEncoding@UnDecorator@@CAHXZ 4007f910 f i LIBCMTD:undname.obj
 0001:0007f350       ?getVCallThunkType@UnDecorator@@CA?AVDName@@XZ 40080350 f i LIBCMTD:undname.obj
 0001:0007f3b0       ?getVbTableType@UnDecorator@@CA?AVDName@@ABV2@@Z 400803b0 f i LIBCMTD:undname.obj
 0001:0007f3d0       ?getVdispMapType@UnDecorator@@CA?AVDName@@ABV2@@Z 400803d0 f i LIBCMTD:undname.obj
 0001:0007f440       ?getVfTableType@UnDecorator@@CA?AVDName@@ABV2@@Z 40080440 f i LIBCMTD:undname.obj
 0001:0007f600       ?getZName@UnDecorator@@CA?AVDName@@_N0@Z 40080600 f   LIBCMTD:undname.obj
 0001:0007f8b0       ?haveTemplateParameters@UnDecorator@@SAHXZ 400808b0 f i LIBCMTD:undname.obj
 0001:0007f8c0       ?isArray@DName@@QBEHXZ     400808c0 f i LIBCMTD:undname.obj
 0001:0007f8e0       ?isComArray@DName@@QBEHXZ  400808e0 f i LIBCMTD:undname.obj
 0001:0007f900       ?isEmpty@DName@@QBEHXZ     40080900 f i LIBCMTD:undname.obj
 0001:0007f930       ?isFull@Replicator@@QBEHXZ 40080930 f i LIBCMTD:undname.obj
 0001:0007f960       ?isNoTE@DName@@QBEHXZ      40080960 f i LIBCMTD:undname.obj
 0001:0007f980       ?isPinPtr@DName@@QBEHXZ    40080980 f i LIBCMTD:undname.obj
 0001:0007f9a0       ?isPtrRef@DName@@QBEHXZ    400809a0 f i LIBCMTD:undname.obj
 0001:0007f9c0       ?isUDC@DName@@QBEHXZ       400809c0 f i LIBCMTD:undname.obj
 0001:0007fa00       ?isUDTThunk@DName@@QBEHXZ  40080a00 f i LIBCMTD:undname.obj
 0001:0007fa40       ?isVCallThunk@DName@@QBEHXZ 40080a40 f i LIBCMTD:undname.obj
 0001:0007fa60       ?isValid@DName@@QBEHXZ     40080a60 f i LIBCMTD:undname.obj
 0001:0007faa0       ?length@DName@@QBEHXZ      40080aa0 f i LIBCMTD:undname.obj
 0001:0007fad0       ?length@DNameStatusNode@@UBEHXZ 40080ad0 f i LIBCMTD:undname.obj
 0001:0007faf0       ?length@charNode@@UBEHXZ   40080af0 f i LIBCMTD:undname.obj
 0001:0007fb00       ?length@pDNameNode@@UBEHXZ 40080b00 f i LIBCMTD:undname.obj
 0001:0007fb30       ?length@pairNode@@UBEHXZ   40080b30 f i LIBCMTD:undname.obj
 0001:0007fb80       ?length@pcharNode@@UBEHXZ  40080b80 f i LIBCMTD:undname.obj
 0001:0007fba0       ?make@DNameStatusNode@@SAPAV1@W4DNameStatus@@@Z 40080ba0 f i LIBCMTD:undname.obj
 0001:0007fc50       ?setIsArray@DName@@QAEXXZ  40080c50 f i LIBCMTD:undname.obj
 0001:0007fc70       ?setIsComArray@DName@@QAEXXZ 40080c70 f i LIBCMTD:undname.obj
 0001:0007fc90       ?setIsNoTE@DName@@QAEXXZ   40080c90 f i LIBCMTD:undname.obj
 0001:0007fcb0       ?setIsPinPtr@DName@@QAEXXZ 40080cb0 f i LIBCMTD:undname.obj
 0001:0007fcd0       ?setIsUDC@DName@@QAEXXZ    40080cd0 f i LIBCMTD:undname.obj
 0001:0007fd00       ?setIsVCallThunk@DName@@QAEXXZ 40080d00 f i LIBCMTD:undname.obj
 0001:0007fd20       ?setPtrRef@DName@@QAEAAV1@XZ 40080d20 f i LIBCMTD:undname.obj
 0001:0007fd40       ?status@DName@@QBE?AW4DNameStatus@@XZ 40080d40 f i LIBCMTD:undname.obj
 0001:0007fe40       ___unDName                 40080e40 f   LIBCMTD:undname.obj
 0001:0007ff10       ___unDNameEx               40080f10 f   LIBCMTD:undname.obj
 0001:0007fff0       __get_purecall_handler     40080ff0 f   LIBCMTD:purevirt.obj
 0001:00080010       __purecall                 40081010 f   LIBCMTD:purevirt.obj
 0001:00080050       __set_purecall_handler     40081050 f   LIBCMTD:purevirt.obj
 0001:00080080       _GetStdHandle@4            40081080 f   kernel32:KERNEL32.dll
 0001:00080086       _GetFileType@4             40081086 f   kernel32:KERNEL32.dll
 0001:0008008c       _GetModuleFileNameW@12     4008108c f   kernel32:KERNEL32.dll
 0001:00080092       _GetModuleHandleExW@12     40081092 f   kernel32:KERNEL32.dll
 0001:00080098       _WriteConsoleW@20          40081098 f   kernel32:KERNEL32.dll
 0001:0008009e       _IsDebuggerPresent@0       4008109e f   kernel32:KERNEL32.dll
 0001:000800a4       _IsProcessorFeaturePresent@4 400810a4 f   kernel32:KERNEL32.dll
 0001:000800aa       _GetCommandLineA@0         400810aa f   kernel32:KERNEL32.dll
 0001:000800b0       _GetCurrentThreadId@0      400810b0 f   kernel32:KERNEL32.dll
 0001:000800b6       _RaiseException@16         400810b6 f   kernel32:KERNEL32.dll
 0001:000800bc       _EncodePointer@4           400810bc f   kernel32:KERNEL32.dll
 0001:000800c2       _DecodePointer@4           400810c2 f   kernel32:KERNEL32.dll
 0001:000800c8       _InterlockedIncrement@4    400810c8 f   kernel32:KERNEL32.dll
 0001:000800ce       _InterlockedDecrement@4    400810ce f   kernel32:KERNEL32.dll
 0001:000800d4       _IsValidCodePage@4         400810d4 f   kernel32:KERNEL32.dll
 0001:000800da       _GetACP@0                  400810da f   kernel32:KERNEL32.dll
 0001:000800e0       _GetOEMCP@0                400810e0 f   kernel32:KERNEL32.dll
 0001:000800e6       _GetCPInfo@8               400810e6 f   kernel32:KERNEL32.dll
 0001:000800ec       _GetLastError@0            400810ec f   kernel32:KERNEL32.dll
 0001:000800f2       _SetLastError@4            400810f2 f   kernel32:KERNEL32.dll
 0001:000800f8       _GetCurrentThread@0        400810f8 f   kernel32:KERNEL32.dll
 0001:000800fe       _GetProcAddress@8          400810fe f   kernel32:KERNEL32.dll
 0001:00080104       _LoadLibraryExW@12         40081104 f   kernel32:KERNEL32.dll
 0001:0008010a       _lstrlenA@4                4008110a f   kernel32:KERNEL32.dll
 0001:00080110       _LoadLibraryW@4            40081110 f   kernel32:KERNEL32.dll
 0001:00080116       _MultiByteToWideChar@24    40081116 f   kernel32:KERNEL32.dll
 0001:0008011c       _WideCharToMultiByte@32    4008111c f   kernel32:KERNEL32.dll
 0001:00080122       _ExitProcess@4             40081122 f   kernel32:KERNEL32.dll
 0001:00080128       _AreFileApisANSI@0         40081128 f   kernel32:KERNEL32.dll
 0001:0008012e       _EnterCriticalSection@4    4008112e f   kernel32:KERNEL32.dll
 0001:00080134       _LeaveCriticalSection@4    40081134 f   kernel32:KERNEL32.dll
 0001:0008013a       _SetConsoleCtrlHandler@8   4008113a f   kernel32:KERNEL32.dll
 0001:00080140       _OutputDebugStringW@4      40081140 f   kernel32:KERNEL32.dll
 0001:00080146       _WaitForSingleObjectEx@12  40081146 f   kernel32:KERNEL32.dll
 0001:0008014c       _CreateThread@24           4008114c f   kernel32:KERNEL32.dll
 0001:00080152       _WriteFile@20              40081152 f   kernel32:KERNEL32.dll
 0001:00080158       _UnhandledExceptionFilter@4 40081158 f   kernel32:KERNEL32.dll
 0001:0008015e       _SetUnhandledExceptionFilter@4 4008115e f   kernel32:KERNEL32.dll
 0001:00080164       _InitializeCriticalSectionAndSpinCount@8 40081164 f   kernel32:KERNEL32.dll
 0001:0008016a       _GetCurrentProcess@0       4008116a f   kernel32:KERNEL32.dll
 0001:00080170       _TerminateProcess@8        40081170 f   kernel32:KERNEL32.dll
 0001:00080176       _TlsAlloc@0                40081176 f   kernel32:KERNEL32.dll
 0001:0008017c       _TlsGetValue@4             4008117c f   kernel32:KERNEL32.dll
 0001:00080182       _TlsSetValue@8             40081182 f   kernel32:KERNEL32.dll
 0001:00080188       _TlsFree@4                 40081188 f   kernel32:KERNEL32.dll
 0001:0008018e       _GetStartupInfoW@4         4008118e f   kernel32:KERNEL32.dll
 0001:00080194       _GetModuleHandleW@4        40081194 f   kernel32:KERNEL32.dll
 0001:0008019a       _CreateSemaphoreW@16       4008119a f   kernel32:KERNEL32.dll
 0001:000801a0       _GetProcessHeap@0          400811a0 f   kernel32:KERNEL32.dll
 0001:000801a6       _DeleteCriticalSection@4   400811a6 f   kernel32:KERNEL32.dll
 0001:000801ac       _GetModuleFileNameA@12     400811ac f   kernel32:KERNEL32.dll
 0001:000801b2       _HeapValidate@12           400811b2 f   kernel32:KERNEL32.dll
 0001:000801b8       _GetSystemInfo@4           400811b8 f   kernel32:KERNEL32.dll
 0001:000801be       _QueryPerformanceCounter@4 400811be f   kernel32:KERNEL32.dll
 0001:000801c4       _GetCurrentProcessId@0     400811c4 f   kernel32:KERNEL32.dll
 0001:000801ca       _GetSystemTimeAsFileTime@4 400811ca f   kernel32:KERNEL32.dll
 0001:000801d0       _GetEnvironmentStringsW@0  400811d0 f   kernel32:KERNEL32.dll
 0001:000801d6       _FreeEnvironmentStringsW@4 400811d6 f   kernel32:KERNEL32.dll
 0001:000801dc       _FatalAppExitA@8           400811dc f   kernel32:KERNEL32.dll
 0001:000801e2       _GetStringTypeW@16         400811e2 f   kernel32:KERNEL32.dll
 0001:000801e8       _RtlUnwind@16              400811e8 f   kernel32:KERNEL32.dll
 0001:000801ee       _OutputDebugStringA@4      400811ee f   kernel32:KERNEL32.dll
 0001:000801f4       _HeapAlloc@12              400811f4 f   kernel32:KERNEL32.dll
 0001:000801fa       _HeapFree@12               400811fa f   kernel32:KERNEL32.dll
 0001:00080200       _VirtualQuery@12           40081200 f   kernel32:KERNEL32.dll
 0001:00080206       _FreeLibrary@4             40081206 f   kernel32:KERNEL32.dll
 0001:0008020c       _InterlockedExchange@8     4008120c f   kernel32:KERNEL32.dll
 0001:00080212       _FlushFileBuffers@4        40081212 f   kernel32:KERNEL32.dll
 0001:00080218       _GetConsoleCP@0            40081218 f   kernel32:KERNEL32.dll
 0001:0008021e       _GetConsoleMode@8          4008121e f   kernel32:KERNEL32.dll
 0001:00080224       _SetFilePointerEx@20       40081224 f   kernel32:KERNEL32.dll
 0001:0008022a       _GetDateFormatW@24         4008122a f   kernel32:KERNEL32.dll
 0001:00080230       _GetTimeFormatW@24         40081230 f   kernel32:KERNEL32.dll
 0001:00080236       _CompareStringW@24         40081236 f   kernel32:KERNEL32.dll
 0001:0008023c       _LCMapStringW@24           4008123c f   kernel32:KERNEL32.dll
 0001:00080242       _GetLocaleInfoW@16         40081242 f   kernel32:KERNEL32.dll
 0001:00080248       _IsValidLocale@8           40081248 f   kernel32:KERNEL32.dll
 0001:0008024e       _GetUserDefaultLCID@0      4008124e f   kernel32:KERNEL32.dll
 0001:00080254       _EnumSystemLocalesW@8      40081254 f   kernel32:KERNEL32.dll
 0001:0008025a       _HeapReAlloc@16            4008125a f   kernel32:KERNEL32.dll
 0001:00080260       _HeapSize@12               40081260 f   kernel32:KERNEL32.dll
 0001:00080266       _HeapQueryInformation@20   40081266 f   kernel32:KERNEL32.dll
 0001:0008026c       _SetStdHandle@8            4008126c f   kernel32:KERNEL32.dll
 0001:00080272       _CloseHandle@4             40081272 f   kernel32:KERNEL32.dll
 0001:00080278       _CreateFileW@28            40081278 f   kernel32:KERNEL32.dll
 0002:00000000       __imp__GetStdHandle@4      40082000     kernel32:KERNEL32.dll
 0002:00000004       __imp__GetFileType@4       40082004     kernel32:KERNEL32.dll
 0002:00000008       __imp__GetModuleFileNameW@12 40082008     kernel32:KERNEL32.dll
 0002:0000000c       __imp__GetModuleHandleExW@12 4008200c     kernel32:KERNEL32.dll
 0002:00000010       __imp__WriteConsoleW@20    40082010     kernel32:KERNEL32.dll
 0002:00000014       __imp__IsDebuggerPresent@0 40082014     kernel32:KERNEL32.dll
 0002:00000018       __imp__IsProcessorFeaturePresent@4 40082018     kernel32:KERNEL32.dll
 0002:0000001c       __imp__GetCommandLineA@0   4008201c     kernel32:KERNEL32.dll
 0002:00000020       __imp__GetCurrentThreadId@0 40082020     kernel32:KERNEL32.dll
 0002:00000024       __imp__RaiseException@16   40082024     kernel32:KERNEL32.dll
 0002:00000028       __imp__EncodePointer@4     40082028     kernel32:KERNEL32.dll
 0002:0000002c       __imp__DecodePointer@4     4008202c     kernel32:KERNEL32.dll
 0002:00000030       __imp__InterlockedIncrement@4 40082030     kernel32:KERNEL32.dll
 0002:00000034       __imp__InterlockedDecrement@4 40082034     kernel32:KERNEL32.dll
 0002:00000038       __imp__IsValidCodePage@4   40082038     kernel32:KERNEL32.dll
 0002:0000003c       __imp__GetACP@0            4008203c     kernel32:KERNEL32.dll
 0002:00000040       __imp__GetOEMCP@0          40082040     kernel32:KERNEL32.dll
 0002:00000044       __imp__GetCPInfo@8         40082044     kernel32:KERNEL32.dll
 0002:00000048       __imp__GetLastError@0      40082048     kernel32:KERNEL32.dll
 0002:0000004c       __imp__SetLastError@4      4008204c     kernel32:KERNEL32.dll
 0002:00000050       __imp__GetCurrentThread@0  40082050     kernel32:KERNEL32.dll
 0002:00000054       __imp__GetProcAddress@8    40082054     kernel32:KERNEL32.dll
 0002:00000058       __imp__LoadLibraryExW@12   40082058     kernel32:KERNEL32.dll
 0002:0000005c       __imp__lstrlenA@4          4008205c     kernel32:KERNEL32.dll
 0002:00000060       __imp__LoadLibraryW@4      40082060     kernel32:KERNEL32.dll
 0002:00000064       __imp__MultiByteToWideChar@24 40082064     kernel32:KERNEL32.dll
 0002:00000068       __imp__WideCharToMultiByte@32 40082068     kernel32:KERNEL32.dll
 0002:0000006c       __imp__ExitProcess@4       4008206c     kernel32:KERNEL32.dll
 0002:00000070       __imp__AreFileApisANSI@0   40082070     kernel32:KERNEL32.dll
 0002:00000074       __imp__EnterCriticalSection@4 40082074     kernel32:KERNEL32.dll
 0002:00000078       __imp__LeaveCriticalSection@4 40082078     kernel32:KERNEL32.dll
 0002:0000007c       __imp__SetConsoleCtrlHandler@8 4008207c     kernel32:KERNEL32.dll
 0002:00000080       __imp__OutputDebugStringW@4 40082080     kernel32:KERNEL32.dll
 0002:00000084       __imp__WaitForSingleObjectEx@12 40082084     kernel32:KERNEL32.dll
 0002:00000088       __imp__CreateThread@24     40082088     kernel32:KERNEL32.dll
 0002:0000008c       __imp__WriteFile@20        4008208c     kernel32:KERNEL32.dll
 0002:00000090       __imp__UnhandledExceptionFilter@4 40082090     kernel32:KERNEL32.dll
 0002:00000094       __imp__SetUnhandledExceptionFilter@4 40082094     kernel32:KERNEL32.dll
 0002:00000098       __imp__InitializeCriticalSectionAndSpinCount@8 40082098     kernel32:KERNEL32.dll
 0002:0000009c       __imp__GetCurrentProcess@0 4008209c     kernel32:KERNEL32.dll
 0002:000000a0       __imp__TerminateProcess@8  400820a0     kernel32:KERNEL32.dll
 0002:000000a4       __imp__TlsAlloc@0          400820a4     kernel32:KERNEL32.dll
 0002:000000a8       __imp__TlsGetValue@4       400820a8     kernel32:KERNEL32.dll
 0002:000000ac       __imp__TlsSetValue@8       400820ac     kernel32:KERNEL32.dll
 0002:000000b0       __imp__TlsFree@4           400820b0     kernel32:KERNEL32.dll
 0002:000000b4       __imp__GetStartupInfoW@4   400820b4     kernel32:KERNEL32.dll
 0002:000000b8       __imp__GetModuleHandleW@4  400820b8     kernel32:KERNEL32.dll
 0002:000000bc       __imp__CreateSemaphoreW@16 400820bc     kernel32:KERNEL32.dll
 0002:000000c0       __imp__GetProcessHeap@0    400820c0     kernel32:KERNEL32.dll
 0002:000000c4       __imp__DeleteCriticalSection@4 400820c4     kernel32:KERNEL32.dll
 0002:000000c8       __imp__GetModuleFileNameA@12 400820c8     kernel32:KERNEL32.dll
 0002:000000cc       __imp__HeapValidate@12     400820cc     kernel32:KERNEL32.dll
 0002:000000d0       __imp__GetSystemInfo@4     400820d0     kernel32:KERNEL32.dll
 0002:000000d4       __imp__QueryPerformanceCounter@4 400820d4     kernel32:KERNEL32.dll
 0002:000000d8       __imp__GetCurrentProcessId@0 400820d8     kernel32:KERNEL32.dll
 0002:000000dc       __imp__GetSystemTimeAsFileTime@4 400820dc     kernel32:KERNEL32.dll
 0002:000000e0       __imp__GetEnvironmentStringsW@0 400820e0     kernel32:KERNEL32.dll
 0002:000000e4       __imp__FreeEnvironmentStringsW@4 400820e4     kernel32:KERNEL32.dll
 0002:000000e8       __imp__FatalAppExitA@8     400820e8     kernel32:KERNEL32.dll
 0002:000000ec       __imp__GetStringTypeW@16   400820ec     kernel32:KERNEL32.dll
 0002:000000f0       __imp__RtlUnwind@16        400820f0     kernel32:KERNEL32.dll
 0002:000000f4       __imp__OutputDebugStringA@4 400820f4     kernel32:KERNEL32.dll
 0002:000000f8       __imp__HeapAlloc@12        400820f8     kernel32:KERNEL32.dll
 0002:000000fc       __imp__HeapFree@12         400820fc     kernel32:KERNEL32.dll
 0002:00000100       __imp__VirtualQuery@12     40082100     kernel32:KERNEL32.dll
 0002:00000104       __imp__FreeLibrary@4       40082104     kernel32:KERNEL32.dll
 0002:00000108       __imp__InterlockedExchange@8 40082108     kernel32:KERNEL32.dll
 0002:0000010c       __imp__FlushFileBuffers@4  4008210c     kernel32:KERNEL32.dll
 0002:00000110       __imp__GetConsoleCP@0      40082110     kernel32:KERNEL32.dll
 0002:00000114       __imp__GetConsoleMode@8    40082114     kernel32:KERNEL32.dll
 0002:00000118       __imp__SetFilePointerEx@20 40082118     kernel32:KERNEL32.dll
 0002:0000011c       __imp__GetDateFormatW@24   4008211c     kernel32:KERNEL32.dll
 0002:00000120       __imp__GetTimeFormatW@24   40082120     kernel32:KERNEL32.dll
 0002:00000124       __imp__CompareStringW@24   40082124     kernel32:KERNEL32.dll
 0002:00000128       __imp__LCMapStringW@24     40082128     kernel32:KERNEL32.dll
 0002:0000012c       __imp__GetLocaleInfoW@16   4008212c     kernel32:KERNEL32.dll
 0002:00000130       __imp__IsValidLocale@8     40082130     kernel32:KERNEL32.dll
 0002:00000134       __imp__GetUserDefaultLCID@0 40082134     kernel32:KERNEL32.dll
 0002:00000138       __imp__EnumSystemLocalesW@8 40082138     kernel32:KERNEL32.dll
 0002:0000013c       __imp__HeapReAlloc@16      4008213c     kernel32:KERNEL32.dll
 0002:00000140       __imp__HeapSize@12         40082140     kernel32:KERNEL32.dll
 0002:00000144       __imp__HeapQueryInformation@20 40082144     kernel32:KERNEL32.dll
 0002:00000148       __imp__SetStdHandle@8      40082148     kernel32:KERNEL32.dll
 0002:0000014c       __imp__CloseHandle@4       4008214c     kernel32:KERNEL32.dll
 0002:00000150       __imp__CreateFileW@28      40082150     kernel32:KERNEL32.dll
 0002:00000154       \177KERNEL32_NULL_THUNK_DATA 40082154     kernel32:KERNEL32.dll
 0002:00000158       ___xc_a                    40082158     LIBCMTD:crt0init.obj
 0002:0000015c       ___xc_z                    4008215c     LIBCMTD:crt0init.obj
 0002:00000160       ___xi_a                    40082160     LIBCMTD:crt0init.obj
 0002:00000178       ___xi_z                    40082178     LIBCMTD:crt0init.obj
 0002:0000017c       ___xp_a                    4008217c     LIBCMTD:crt0init.obj
 0002:0000018c       ___xp_z                    4008218c     LIBCMTD:crt0init.obj
 0002:00000190       ___xt_a                    40082190     LIBCMTD:crt0init.obj
 0002:00000194       ___xt_z                    40082194     LIBCMTD:crt0init.obj
 0002:000001d8       ??_C@_07JFMDDPHJ@EV_NONE?$AA@ 400821d8     bg_misc.obj
 0002:000001e0       ??_C@_0M@HLKBOJPO@EV_FOOTSTEP?$AA@ 400821e0     bg_misc.obj
 0002:000001ec       ??_C@_0BC@DIJMAMMI@EV_FOOTSTEP_METAL?$AA@ 400821ec     bg_misc.obj
 0002:00000200       ??_C@_0O@HLJHKIDH@EV_FOOTSPLASH?$AA@ 40082200     bg_misc.obj
 0002:00000210       ??_C@_0M@NPJBGELA@EV_FOOTWADE?$AA@ 40082210     bg_misc.obj
 0002:0000021c       ??_C@_07FFIIIPLH@EV_SWIM?$AA@ 4008221c     bg_misc.obj
 0002:00000224       ??_C@_09OLFOHJNB@EV_STEP_4?$AA@ 40082224     bg_misc.obj
 0002:00000230       ??_C@_09EHOLDGNN@EV_STEP_8?$AA@ 40082230     bg_misc.obj
 0002:0000023c       ??_C@_0L@BKIECKKB@EV_STEP_12?$AA@ 4008223c     bg_misc.obj
 0002:00000248       ??_C@_0L@HOOIOPKF@EV_STEP_16?$AA@ 40082248     bg_misc.obj
 0002:00000254       ??_C@_0O@EAFDHAJM@EV_FALL_SHORT?$AA@ 40082254     bg_misc.obj
 0002:00000264       ??_C@_0P@MGFLMCKC@EV_FALL_MEDIUM?$AA@ 40082264     bg_misc.obj
 0002:00000274       ??_C@_0M@LKJJNJOM@EV_FALL_FAR?$AA@ 40082274     bg_misc.obj
 0002:00000280       ??_C@_0M@BPNFGBOJ@EV_JUMP_PAD?$AA@ 40082280     bg_misc.obj
 0002:0000028c       ??_C@_07GKBEHGAP@EV_JUMP?$AA@ 4008228c     bg_misc.obj
 0002:00000294       ??_C@_0P@GCDBKPMP@EV_WATER_TOUCH?$AA@ 40082294     bg_misc.obj
 0002:000002a4       ??_C@_0P@LHDMOIIG@EV_WATER_LEAVE?$AA@ 400822a4     bg_misc.obj
 0002:000002b4       ??_C@_0P@MIAIODEJ@EV_WATER_UNDER?$AA@ 400822b4     bg_misc.obj
 0002:000002c4       ??_C@_0P@NIPCJOBG@EV_WATER_CLEAR?$AA@ 400822c4     bg_misc.obj
 0002:000002d4       ??_C@_0P@BGIOEPCB@EV_ITEM_PICKUP?$AA@ 400822d4     bg_misc.obj
 0002:000002e4       ??_C@_0BG@KFILGAMN@EV_GLOBAL_ITEM_PICKUP?$AA@ 400822e4     bg_misc.obj
 0002:000002fc       ??_C@_09NMIICG@EV_NOAMMO?$AA@ 400822fc     bg_misc.obj
 0002:00000308       ??_C@_0BB@ENKPHJLP@EV_CHANGE_WEAPON?$AA@ 40082308     bg_misc.obj
 0002:0000031c       ??_C@_0P@PFJPAFGH@EV_FIRE_WEAPON?$AA@ 4008231c     bg_misc.obj
 0002:0000032c       ??_C@_0N@CGCBJKGD@EV_USE_ITEM0?$AA@ 4008232c     bg_misc.obj
 0002:0000033c       ??_C@_0N@DPDKKLCC@EV_USE_ITEM1?$AA@ 4008233c     bg_misc.obj
 0002:0000034c       ??_C@_0N@BEBHPIOB@EV_USE_ITEM2?$AA@ 4008234c     bg_misc.obj
 0002:0000035c       ??_C@_0N@NAMMJKA@EV_USE_ITEM3?$AA@ 4008235c     bg_misc.obj
 0002:0000036c       ??_C@_0N@ECENFPGH@EV_USE_ITEM4?$AA@ 4008236c     bg_misc.obj
 0002:0000037c       ??_C@_0N@FLFGGOCG@EV_USE_ITEM5?$AA@ 4008237c     bg_misc.obj
 0002:0000038c       ??_C@_0N@HAHLDNOF@EV_USE_ITEM6?$AA@ 4008238c     bg_misc.obj
 0002:0000039c       ??_C@_0N@GJGAAMKE@EV_USE_ITEM7?$AA@ 4008239c     bg_misc.obj
 0002:000003ac       ??_C@_0N@OOPIBAGL@EV_USE_ITEM8?$AA@ 400823ac     bg_misc.obj
 0002:000003bc       ??_C@_0N@PHODCBCK@EV_USE_ITEM9?$AA@ 400823bc     bg_misc.obj
 0002:000003cc       ??_C@_0O@KBJENLM@EV_USE_ITEM10?$AA@ 400823cc     bg_misc.obj
 0002:000003dc       ??_C@_0O@BDACHMPN@EV_USE_ITEM11?$AA@ 400823dc     bg_misc.obj
 0002:000003ec       ??_C@_0O@DICPCPDO@EV_USE_ITEM12?$AA@ 400823ec     bg_misc.obj
 0002:000003fc       ??_C@_0O@CBDEBOHP@EV_USE_ITEM13?$AA@ 400823fc     bg_misc.obj
 0002:0000040c       ??_C@_0O@GOHFIILI@EV_USE_ITEM14?$AA@ 4008240c     bg_misc.obj
 0002:0000041c       ??_C@_0O@HHGOLJPJ@EV_USE_ITEM15?$AA@ 4008241c     bg_misc.obj
 0002:0000042c       ??_C@_0BA@GJNCODNG@EV_ITEM_RESPAWN?$AA@ 4008242c     bg_misc.obj
 0002:0000043c       ??_C@_0M@ECGFPIMP@EV_ITEM_POP?$AA@ 4008243c     bg_misc.obj
 0002:00000448       ??_C@_0BG@HBBJKNDP@EV_PLAYER_TELEPORT_IN?$AA@ 40082448     bg_misc.obj
 0002:00000460       ??_C@_0BH@FNNILPIN@EV_PLAYER_TELEPORT_OUT?$AA@ 40082460     bg_misc.obj
 0002:00000478       ??_C@_0BC@ECIIAFLJ@EV_GRENADE_BOUNCE?$AA@ 40082478     bg_misc.obj
 0002:0000048c       ??_C@_0BB@LJGGMAII@EV_GENERAL_SOUND?$AA@ 4008248c     bg_misc.obj
 0002:000004a0       ??_C@_0BA@JAMKLOPJ@EV_GLOBAL_SOUND?$AA@ 400824a0     bg_misc.obj
 0002:000004b0       ??_C@_0BF@DDOIKLHD@EV_GLOBAL_TEAM_SOUND?$AA@ 400824b0     bg_misc.obj
 0002:000004c8       ??_C@_0BE@KBABEJMP@EV_BULLET_HIT_FLESH?$AA@ 400824c8     bg_misc.obj
 0002:000004dc       ??_C@_0BD@MFLMCLPN@EV_BULLET_HIT_WALL?$AA@ 400824dc     bg_misc.obj
 0002:000004f0       ??_C@_0P@JFMFNBMO@EV_MISSILE_HIT?$AA@ 400824f0     bg_misc.obj
 0002:00000500       ??_C@_0BA@CAHALNAE@EV_MISSILE_MISS?$AA@ 40082500     bg_misc.obj
 0002:00000510       ??_C@_0BG@LPAHEABB@EV_MISSILE_MISS_METAL?$AA@ 40082510     bg_misc.obj
 0002:00000528       ??_C@_0N@HMLLJFGF@EV_RAILTRAIL?$AA@ 40082528     bg_misc.obj
 0002:00000538       ??_C@_0L@LHBIHDML@EV_SHOTGUN?$AA@ 40082538     bg_misc.obj
 0002:00000544       ??_C@_09ICDIPKFJ@EV_BULLET?$AA@ 40082544     bg_misc.obj
 0002:00000550       ??_C@_07EMHHKOOH@EV_PAIN?$AA@ 40082550     bg_misc.obj
 0002:00000558       ??_C@_09JPFBHKII@EV_DEATH1?$AA@ 40082558     bg_misc.obj
 0002:00000564       ??_C@_09LEHMCJEL@EV_DEATH2?$AA@ 40082564     bg_misc.obj
 0002:00000570       ??_C@_09KNGHBIAK@EV_DEATH3?$AA@ 40082570     bg_misc.obj
 0002:0000057c       ??_C@_0M@PPLCDPP@EV_OBITUARY?$AA@ 4008257c     bg_misc.obj
 0002:00000588       ??_C@_0BA@HLHGHIIE@EV_POWERUP_QUAD?$AA@ 40082588     bg_misc.obj
 0002:00000598       ??_C@_0BG@CHAMNADK@EV_POWERUP_BATTLESUIT?$AA@ 40082598     bg_misc.obj
 0002:000005b0       ??_C@_0BB@EGIJIDAN@EV_POWERUP_REGEN?$AA@ 400825b0     bg_misc.obj
 0002:000005c4       ??_C@_0O@JLGFLKBE@EV_GIB_PLAYER?$AA@ 400825c4     bg_misc.obj
 0002:000005d4       ??_C@_0N@GAJBP@EV_SCOREPLUM?$AA@ 400825d4     bg_misc.obj
 0002:000005e4       ??_C@_0BI@KNJAKDGK@EV_PROXIMITY_MINE_STICK?$AA@ 400825e4     bg_misc.obj
 0002:000005fc       ??_C@_0BK@PIFCIJEJ@EV_PROXIMITY_MINE_TRIGGER?$AA@ 400825fc     bg_misc.obj
 0002:00000618       ??_C@_0M@KACLGFEA@EV_KAMIKAZE?$AA@ 40082618     bg_misc.obj
 0002:00000624       ??_C@_0BC@LMKNBBLF@EV_OBELISKEXPLODE?$AA@ 40082624     bg_misc.obj
 0002:00000638       ??_C@_0BA@NHKGBGBA@EV_INVUL_IMPACT?$AA@ 40082638     bg_misc.obj
 0002:00000648       ??_C@_09GLJGDJEJ@EV_JUICED?$AA@ 40082648     bg_misc.obj
 0002:00000654       ??_C@_0BB@HHACOGHI@EV_LIGHTNINGBOLT?$AA@ 40082654     bg_misc.obj
 0002:00000668       ??_C@_0O@PBPAKHP@EV_DEBUG_LINE?$AA@ 40082668     bg_misc.obj
 0002:00000678       ??_C@_0BE@OHJHDFJH@EV_STOPLOOPINGSOUND?$AA@ 40082678     bg_misc.obj
 0002:0000068c       ??_C@_08GBKLDCBE@EV_TAUNT?$AA@ 4008268c     bg_misc.obj
 0002:00000695       ??_C@_00CNPNBAHC@?$AA@     40082695     bg_misc.obj
 0002:00000698       ??_C@_0BB@DDGIAABK@item_armor_shard?$AA@ 40082698     bg_misc.obj
 0002:000006ac       ??_C@_0BI@DECNCEGL@sound?1misc?1ar1_pkup?4wav?$AA@ 400826ac     bg_misc.obj
 0002:000006c4       ??_C@_0CA@NOFOCCIK@models?1powerups?1armor?1shard?4md3?$AA@ 400826c4     bg_misc.obj
 0002:000006e4       ??_C@_0CH@NEKDLKN@models?1powerups?1armor?1shard_sphe@ 400826e4     bg_misc.obj
 0002:0000070c       ??_C@_0BC@LPFHDODA@icons?1iconr_shard?$AA@ 4008270c     bg_misc.obj
 0002:00000720       ??_C@_0M@PJIPIDNH@Armor?5Shard?$AA@ 40082720     bg_misc.obj
 0002:0000072c       ??_C@_0BC@FPPLPJIL@item_armor_combat?$AA@ 4008272c     bg_misc.obj
 0002:00000740       ??_C@_0BI@KNMPECGK@sound?1misc?1ar2_pkup?4wav?$AA@ 40082740     bg_misc.obj
 0002:00000758       ??_C@_0CE@PHKMKHKB@models?1powerups?1armor?1armor_yel?4@ 40082758     bg_misc.obj
 0002:0000077c       ??_C@_0BD@BKPFMPMP@icons?1iconr_yellow?$AA@ 4008277c     bg_misc.obj
 0002:00000790       ??_C@_05JOOFIMIN@Armor?$AA@ 40082790     bg_misc.obj
 0002:00000798       ??_C@_0BA@EKKMHIH@item_armor_body?$AA@ 40082798     bg_misc.obj
 0002:000007a8       ??_C@_0CE@EGJFDJJK@models?1powerups?1armor?1armor_red?4@ 400827a8     bg_misc.obj
 0002:000007cc       ??_C@_0BA@CEJNPBJG@icons?1iconr_red?$AA@ 400827cc     bg_misc.obj
 0002:000007dc       ??_C@_0M@ICCAHGAD@Heavy?5Armor?$AA@ 400827dc     bg_misc.obj
 0002:000007e8       ??_C@_0BC@DOHAFEBI@item_health_small?$AA@ 400827e8     bg_misc.obj
 0002:000007fc       ??_C@_0BJ@BIFHONLM@sound?1items?1s_health?4wav?$AA@ 400827fc     bg_misc.obj
 0002:00000818       ??_C@_0CH@JKNLMIJB@models?1powerups?1health?1small_cro@ 40082818     bg_misc.obj
 0002:00000840       ??_C@_0CI@MPAPPIIE@models?1powerups?1health?1small_sph@ 40082840     bg_misc.obj
 0002:00000868       ??_C@_0BC@IMNPBGFF@icons?1iconh_green?$AA@ 40082868     bg_misc.obj
 0002:0000087c       ??_C@_08IAIFJOAI@5?5Health?$AA@ 4008287c     bg_misc.obj
 0002:00000888       ??_C@_0M@KCNAKNNL@item_health?$AA@ 40082888     bg_misc.obj
 0002:00000894       ??_C@_0BJ@OLHMCLBI@sound?1items?1n_health?4wav?$AA@ 40082894     bg_misc.obj
 0002:000008b0       ??_C@_0CI@NAEMLIB@models?1powerups?1health?1medium_cr@ 400828b0     bg_misc.obj
 0002:000008d8       ??_C@_0CJ@NCCPDHOD@models?1powerups?1health?1medium_sp@ 400828d8     bg_misc.obj
 0002:00000904       ??_C@_0BD@CDBLAHCA@icons?1iconh_yellow?$AA@ 40082904     bg_misc.obj
 0002:00000918       ??_C@_09OJAALANF@25?5Health?$AA@ 40082918     bg_misc.obj
 0002:00000924       ??_C@_0BC@JGDLKFIO@item_health_large?$AA@ 40082924     bg_misc.obj
 0002:00000938       ??_C@_0BJ@ILCAJOFD@sound?1items?1l_health?4wav?$AA@ 40082938     bg_misc.obj
 0002:00000954       ??_C@_0CH@NHFAKEFE@models?1powerups?1health?1large_cro@ 40082954     bg_misc.obj
 0002:0000097c       ??_C@_0CI@CEEMEFNH@models?1powerups?1health?1large_sph@ 4008297c     bg_misc.obj
 0002:000009a4       ??_C@_0BA@IGNANAGL@icons?1iconh_red?$AA@ 400829a4     bg_misc.obj
 0002:000009b4       ??_C@_09EBELOOOD@50?5Health?$AA@ 400829b4     bg_misc.obj
 0002:000009c0       ??_C@_0BB@PBGAONGH@item_health_mega?$AA@ 400829c0     bg_misc.obj
 0002:000009d4       ??_C@_0BJ@FGLGEHNG@sound?1items?1m_health?4wav?$AA@ 400829d4     bg_misc.obj
 0002:000009f0       ??_C@_0CG@PDJMMGME@models?1powerups?1health?1mega_cros@ 400829f0     bg_misc.obj
 0002:00000a18       ??_C@_0CH@NEGHBKPB@models?1powerups?1health?1mega_sphe@ 40082a18     bg_misc.obj
 0002:00000a40       ??_C@_0BB@EGPGIMOM@icons?1iconh_mega?$AA@ 40082a40     bg_misc.obj
 0002:00000a54       ??_C@_0M@IOJDMPNO@Mega?5Health?$AA@ 40082a54     bg_misc.obj
 0002:00000a60       ??_C@_0BA@CLDPODJE@weapon_gauntlet?$AA@ 40082a60     bg_misc.obj
 0002:00000a70       ??_C@_0BG@BBKFHONL@sound?1misc?1w_pkup?4wav?$AA@ 40082a70     bg_misc.obj
 0002:00000a88       ??_C@_0CG@PFPPJBAC@models?1weapons2?1gauntlet?1gauntle@ 40082a88     bg_misc.obj
 0002:00000ab0       ??_C@_0BF@PMEPIOCM@icons?1iconw_gauntlet?$AA@ 40082ab0     bg_misc.obj
 0002:00000ac8       ??_C@_08ELAHAPJB@Gauntlet?$AA@ 40082ac8     bg_misc.obj
 0002:00000ad4       ??_C@_0P@ILAKNOAG@weapon_shotgun?$AA@ 40082ad4     bg_misc.obj
 0002:00000ae4       ??_C@_0CE@CJGCHKCN@models?1weapons2?1shotgun?1shotgun?4@ 40082ae4     bg_misc.obj
 0002:00000b08       ??_C@_0BE@PGLFIIOH@icons?1iconw_shotgun?$AA@ 40082b08     bg_misc.obj
 0002:00000b1c       ??_C@_07DGIAOJJ@Shotgun?$AA@ 40082b1c     bg_misc.obj
 0002:00000b24       ??_C@_0BC@HHBNPFPN@weapon_machinegun?$AA@ 40082b24     bg_misc.obj
 0002:00000b38       ??_C@_0CK@BBPFNIFO@models?1weapons2?1machinegun?1machi@ 40082b38     bg_misc.obj
 0002:00000b64       ??_C@_0BH@GIACBLNI@icons?1iconw_machinegun?$AA@ 40082b64     bg_misc.obj
 0002:00000b7c       ??_C@_0L@KDNGMPND@Machinegun?$AA@ 40082b7c     bg_misc.obj
 0002:00000b88       ??_C@_0BH@DGCCJPLM@weapon_grenadelauncher?$AA@ 40082b88     bg_misc.obj
 0002:00000ba0       ??_C@_0CG@INCGOMDL@models?1weapons2?1grenadel?1grenade@ 40082ba0     bg_misc.obj
 0002:00000bc8       ??_C@_0BE@JNFKJHKD@icons?1iconw_grenade?$AA@ 40082bc8     bg_misc.obj
 0002:00000bdc       ??_C@_0BB@GIEOMMBO@Grenade?5Launcher?$AA@ 40082bdc     bg_misc.obj
 0002:00000bf0       ??_C@_0EG@LFEMOCGK@sound?1weapons?1grenade?1hgrenb1a?4w@ 40082bf0     bg_misc.obj
 0002:00000c38       ??_C@_0BG@HJKONAJE@weapon_rocketlauncher?$AA@ 40082c38     bg_misc.obj
 0002:00000c50       ??_C@_0CE@GGGFLKKE@models?1weapons2?1rocketl?1rocketl?4@ 40082c50     bg_misc.obj
 0002:00000c74       ??_C@_0BD@MKMDIEGB@icons?1iconw_rocket?$AA@ 40082c74     bg_misc.obj
 0002:00000c88       ??_C@_0BA@DJIGCIDL@Rocket?5Launcher?$AA@ 40082c88     bg_misc.obj
 0002:00000c98       ??_C@_0BB@OCCEAFCD@weapon_lightning?$AA@ 40082c98     bg_misc.obj
 0002:00000cac       ??_C@_0CI@MNAFJDPO@models?1weapons2?1lightning?1lightn@ 40082cac     bg_misc.obj
 0002:00000cd4       ??_C@_0BG@CHEJEOPA@icons?1iconw_lightning?$AA@ 40082cd4     bg_misc.obj
 0002:00000cec       ??_C@_0O@HOCKKNKE@Lightning?5Gun?$AA@ 40082cec     bg_misc.obj
 0002:00000cfc       ??_C@_0P@FEPBKEBF@weapon_railgun?$AA@ 40082cfc     bg_misc.obj
 0002:00000d0c       ??_C@_0CE@JHJFFEBE@models?1weapons2?1railgun?1railgun?4@ 40082d0c     bg_misc.obj
 0002:00000d30       ??_C@_0BE@CJEOPCPE@icons?1iconw_railgun?$AA@ 40082d30     bg_misc.obj
 0002:00000d44       ??_C@_07NMJDHEIK@Railgun?$AA@ 40082d44     bg_misc.obj
 0002:00000d4c       ??_C@_0BB@LBHAKENA@weapon_plasmagun?$AA@ 40082d4c     bg_misc.obj
 0002:00000d60       ??_C@_0CC@EHGHEDND@models?1weapons2?1plasma?1plasma?4md@ 40082d60     bg_misc.obj
 0002:00000d84       ??_C@_0BD@NADHMFK@icons?1iconw_plasma?$AA@ 40082d84     bg_misc.obj
 0002:00000d98       ??_C@_0L@JFFCGJF@Plasma?5Gun?$AA@ 40082d98     bg_misc.obj
 0002:00000da4       ??_C@_0L@JBGNLNGG@weapon_bfg?$AA@ 40082da4     bg_misc.obj
 0002:00000db0       ??_C@_0BM@HHDGGOHP@models?1weapons2?1bfg?1bfg?4md3?$AA@ 40082db0     bg_misc.obj
 0002:00000dcc       ??_C@_0BA@NCCNKCA@icons?1iconw_bfg?$AA@ 40082dcc     bg_misc.obj
 0002:00000ddc       ??_C@_06PNKEMFGD@BFG10K?$AA@ 40082ddc     bg_misc.obj
 0002:00000de4       ??_C@_0BF@MEMGGPGH@weapon_grapplinghook?$AA@ 40082de4     bg_misc.obj
 0002:00000dfc       ??_C@_0CE@LFAGANA@models?1weapons2?1grapple?1grapple?4@ 40082dfc     bg_misc.obj
 0002:00000e20       ??_C@_0BE@DPKNJNBE@icons?1iconw_grapple?$AA@ 40082e20     bg_misc.obj
 0002:00000e34       ??_C@_0P@CFJPDDC@Grappling?5Hook?$AA@ 40082e34     bg_misc.obj
 0002:00000e44       ??_C@_0M@NLICANGB@ammo_shells?$AA@ 40082e44     bg_misc.obj
 0002:00000e50       ??_C@_0BH@DPAADLFH@sound?1misc?1am_pkup?4wav?$AA@ 40082e50     bg_misc.obj
 0002:00000e68       ??_C@_0CD@MBAGJHDE@models?1powerups?1ammo?1shotgunam?4m@ 40082e68     bg_misc.obj
 0002:00000e8c       ??_C@_0BE@NMAFHJEI@icons?1icona_shotgun?$AA@ 40082e8c     bg_misc.obj
 0002:00000ea0       ??_C@_06PBPEPGGL@Shells?$AA@ 40082ea0     bg_misc.obj
 0002:00000ea8       ??_C@_0N@NHCMDNIK@ammo_bullets?$AA@ 40082ea8     bg_misc.obj
 0002:00000eb8       ??_C@_0CG@OLENEOKN@models?1powerups?1ammo?1machineguna@ 40082eb8     bg_misc.obj
 0002:00000ee0       ??_C@_0BH@HMOAGCNP@icons?1icona_machinegun?$AA@ 40082ee0     bg_misc.obj
 0002:00000ef8       ??_C@_07DHNDKCGP@Bullets?$AA@ 40082ef8     bg_misc.obj
 0002:00000f00       ??_C@_0O@CMJIOKCF@ammo_grenades?$AA@ 40082f00     bg_misc.obj
 0002:00000f10       ??_C@_0CD@HNOBKKLC@models?1powerups?1ammo?1grenadeam?4m@ 40082f10     bg_misc.obj
 0002:00000f34       ??_C@_0BE@LHOKGGAM@icons?1icona_grenade?$AA@ 40082f34     bg_misc.obj
 0002:00000f48       ??_C@_08PMBIADEN@Grenades?$AA@ 40082f48     bg_misc.obj
 0002:00000f54       ??_C@_0L@LLNMBAJC@ammo_cells?$AA@ 40082f54     bg_misc.obj
 0002:00000f60       ??_C@_0CC@FGLALJGN@models?1powerups?1ammo?1plasmaam?4md@ 40082f60     bg_misc.obj
 0002:00000f84       ??_C@_0BD@NCNJEHKB@icons?1icona_plasma?$AA@ 40082f84     bg_misc.obj
 0002:00000f98       ??_C@_05KCAMIOGJ@Cells?$AA@ 40082f98     bg_misc.obj
 0002:00000fa0       ??_C@_0P@NBJHKAMD@ammo_lightning?$AA@ 40082fa0     bg_misc.obj
 0002:00000fb0       ??_C@_0CF@HDAADIIL@models?1powerups?1ammo?1lightningam@ 40082fb0     bg_misc.obj
 0002:00000fd8       ??_C@_0BG@MEGMAGOM@icons?1icona_lightning?$AA@ 40082fd8     bg_misc.obj
 0002:00000ff0       ??_C@_09JCCOMJEA@Lightning?$AA@ 40082ff0     bg_misc.obj
 0002:00000ffc       ??_C@_0N@CLEPKBOE@ammo_rockets?$AA@ 40082ffc     bg_misc.obj
 0002:0000100c       ??_C@_0CC@KCOEDLFM@models?1powerups?1ammo?1rocketam?4md@ 4008300c     bg_misc.obj
 0002:00001030       ??_C@_0BD@BFBJLPJK@icons?1icona_rocket?$AA@ 40083030     bg_misc.obj
 0002:00001044       ??_C@_07MLLADOAB@Rockets?$AA@ 40083044     bg_misc.obj
 0002:0000104c       ??_C@_0L@JEFOIHIM@ammo_slugs?$AA@ 4008304c     bg_misc.obj
 0002:00001058       ??_C@_0CD@CAJEPMME@models?1powerups?1ammo?1railgunam?4m@ 40083058     bg_misc.obj
 0002:0000107c       ??_C@_0BE@DPOADFL@icons?1icona_railgun?$AA@ 4008307c     bg_misc.obj
 0002:00001090       ??_C@_05INIOBJHH@Slugs?$AA@ 40083090     bg_misc.obj
 0002:00001098       ??_C@_08EHEJHGBG@ammo_bfg?$AA@ 40083098     bg_misc.obj
 0002:000010a4       ??_C@_0BP@BOBKFIKJ@models?1powerups?1ammo?1bfgam?4md3?$AA@ 400830a4     bg_misc.obj
 0002:000010c4       ??_C@_0BA@NIKNDLKG@icons?1icona_bfg?$AA@ 400830c4     bg_misc.obj
 0002:000010d4       ??_C@_08LIBOGPIN@Bfg?5Ammo?$AA@ 400830d4     bg_misc.obj
 0002:000010e0       ??_C@_0BE@GNEKBMLB@holdable_teleporter?$AA@ 400830e0     bg_misc.obj
 0002:000010f4       ??_C@_0BJ@PNIOAJDI@sound?1items?1holdable?4wav?$AA@ 400830f4     bg_misc.obj
 0002:00001110       ??_C@_0CI@FHEOFFOB@models?1powerups?1holdable?1telepor@ 40083110     bg_misc.obj
 0002:00001138       ??_C@_0BB@HCFICFKF@icons?1teleporter?$AA@ 40083138     bg_misc.obj
 0002:0000114c       ??_C@_0BE@PCKJDFFA@Personal?5Teleporter?$AA@ 4008314c     bg_misc.obj
 0002:00001160       ??_C@_0BA@PDDMBOCP@holdable_medkit?$AA@ 40083160     bg_misc.obj
 0002:00001170       ??_C@_0CE@NKMJILL@models?1powerups?1holdable?1medkit?4@ 40083170     bg_misc.obj
 0002:00001194       ??_C@_0CL@LOBKLABC@models?1powerups?1holdable?1medkit_@ 40083194     bg_misc.obj
 0002:000011c0       ??_C@_0N@PNMDFAPK@icons?1medkit?$AA@ 400831c0     bg_misc.obj
 0002:000011d0       ??_C@_06JDLGEHAD@Medkit?$AA@ 400831d0     bg_misc.obj
 0002:000011d8       ??_C@_0BL@GLIFPGGG@sound?1items?1use_medkit?4wav?$AA@ 400831d8     bg_misc.obj
 0002:000011f4       ??_C@_09MDKNIFFH@item_quad?$AA@ 400831f4     bg_misc.obj
 0002:00001200       ??_C@_0BL@GLEJLOCA@sound?1items?1quaddamage?4wav?$AA@ 40083200     bg_misc.obj
 0002:0000121c       ??_C@_0CB@HIFGFDGN@models?1powerups?1instant?1quad?4md3@ 4008321c     bg_misc.obj
 0002:00001240       ??_C@_0CG@JNMBMLHJ@models?1powerups?1instant?1quad_rin@ 40083240     bg_misc.obj
 0002:00001268       ??_C@_0L@DICHEOBB@icons?1quad?$AA@ 40083268     bg_misc.obj
 0002:00001274       ??_C@_0M@KOJLOALK@Quad?5Damage?$AA@ 40083274     bg_misc.obj
 0002:00001280       ??_C@_0DA@PPPPKFJI@sound?1items?1damage2?4wav?5sound?1it@ 40083280     bg_misc.obj
 0002:000012b0       ??_C@_0M@HBCGNAN@item_enviro?$AA@ 400832b0     bg_misc.obj
 0002:000012bc       ??_C@_0BI@DEKBIKDD@sound?1items?1protect?4wav?$AA@ 400832bc     bg_misc.obj
 0002:000012d4       ??_C@_0CD@JLGNIGLA@models?1powerups?1instant?1enviro?4m@ 400832d4     bg_misc.obj
 0002:000012f8       ??_C@_0CI@KAEDJDGE@models?1powerups?1instant?1enviro_r@ 400832f8     bg_misc.obj
 0002:00001320       ??_C@_0BB@MGICBJOH@icons?1envirosuit?$AA@ 40083320     bg_misc.obj
 0002:00001334       ??_C@_0M@ONKEJEFE@Battle?5Suit?$AA@ 40083334     bg_misc.obj
 0002:00001340       ??_C@_0DA@OCPACKGN@sound?1items?1airout?4wav?5sound?1ite@ 40083340     bg_misc.obj
 0002:00001370       ??_C@_0L@LKMJKIEF@item_haste?$AA@ 40083370     bg_misc.obj
 0002:0000137c       ??_C@_0BG@IJMEPCOI@sound?1items?1haste?4wav?$AA@ 4008337c     bg_misc.obj
 0002:00001394       ??_C@_0CC@NKPAJCMI@models?1powerups?1instant?1haste?4md@ 40083394     bg_misc.obj
 0002:000013b8       ??_C@_0CH@KKDDKNEF@models?1powerups?1instant?1haste_ri@ 400833b8     bg_misc.obj
 0002:000013e0       ??_C@_0M@CFINMGCL@icons?1haste?$AA@ 400833e0     bg_misc.obj
 0002:000013ec       ??_C@_05HOIAGEJD@Speed?$AA@ 400833ec     bg_misc.obj
 0002:000013f4       ??_C@_0L@MMHNJJPH@item_invis?$AA@ 400833f4     bg_misc.obj
 0002:00001400       ??_C@_0BN@OJBEBLGB@sound?1items?1invisibility?4wav?$AA@ 40083400     bg_misc.obj
 0002:00001420       ??_C@_0CC@HBONCEML@models?1powerups?1instant?1invis?4md@ 40083420     bg_misc.obj
 0002:00001444       ??_C@_0CH@IMIHJDNC@models?1powerups?1instant?1invis_ri@ 40083444     bg_misc.obj
 0002:0000146c       ??_C@_0M@FDDJPHJJ@icons?1invis?$AA@ 4008346c     bg_misc.obj
 0002:00001478       ??_C@_0N@LCCEENAK@Invisibility?$AA@ 40083478     bg_misc.obj
 0002:00001488       ??_C@_0L@MMGPPPDM@item_regen?$AA@ 40083488     bg_misc.obj
 0002:00001494       ??_C@_0BN@OBGKHNFF@sound?1items?1regeneration?4wav?$AA@ 40083494     bg_misc.obj
 0002:000014b4       ??_C@_0CC@OEAPIKIN@models?1powerups?1instant?1regen?4md@ 400834b4     bg_misc.obj
 0002:000014d8       ??_C@_0CH@FANACKJM@models?1powerups?1instant?1regen_ri@ 400834d8     bg_misc.obj
 0002:00001500       ??_C@_0M@FDCLJBFC@icons?1regen?$AA@ 40083500     bg_misc.obj
 0002:0000150c       ??_C@_0N@CBPBLBHG@Regeneration?$AA@ 4008350c     bg_misc.obj
 0002:0000151c       ??_C@_0BG@LHDLOKKN@sound?1items?1regen?4wav?$AA@ 4008351c     bg_misc.obj
 0002:00001534       ??_C@_0M@MBNKEMMH@item_flight?$AA@ 40083534     bg_misc.obj
 0002:00001540       ??_C@_0BH@COLFHEAE@sound?1items?1flight?4wav?$AA@ 40083540     bg_misc.obj
 0002:00001558       ??_C@_0CD@MKDGJOMG@models?1powerups?1instant?1flight?4m@ 40083558     bg_misc.obj
 0002:0000157c       ??_C@_0CI@IADFFEDP@models?1powerups?1instant?1flight_r@ 4008357c     bg_misc.obj
 0002:000015a4       ??_C@_0N@GLEPEEPG@icons?1flight?$AA@ 400835a4     bg_misc.obj
 0002:000015b4       ??_C@_06FDKFDAP@Flight?$AA@ 400835b4     bg_misc.obj
 0002:000015bc       ??_C@_0BB@JNMMCIHG@team_CTF_redflag?$AA@ 400835bc     bg_misc.obj
 0002:000015d0       ??_C@_0BI@PEHEOJEO@models?1flags?1r_flag?4md3?$AA@ 400835d0     bg_misc.obj
 0002:000015e8       ??_C@_0BB@EMIEBEOP@icons?1iconf_red1?$AA@ 400835e8     bg_misc.obj
 0002:000015fc       ??_C@_08GAOGPIJL@Red?5Flag?$AA@ 400835fc     bg_misc.obj
 0002:00001608       ??_C@_0BC@NLKCOFAB@team_CTF_blueflag?$AA@ 40083608     bg_misc.obj
 0002:0000161c       ??_C@_0BI@FKICCNIF@models?1flags?1b_flag?4md3?$AA@ 4008361c     bg_misc.obj
 0002:00001634       ??_C@_0BB@EMIIAFKA@icons?1iconf_blu1?$AA@ 40083634     bg_misc.obj
 0002:00001648       ??_C@_09MDBFHCAB@Blue?5Flag?$AA@ 40083648     bg_misc.obj
 0002:00001654       ??_C@_0BH@MFGKJDLM@HoldableItem?5not?5found?$AA@ 40083654     bg_misc.obj
 0002:0000166c       ??_C@_0CB@DEACFJO@Couldn?8t?5find?5item?5for?5weapon?5?$CFi@ 4008366c     bg_misc.obj
 0002:00001690       ??_C@_0CI@MFONMA@BG_CanItemBeGrabbed?3?5index?5out?5o@ 40083690     bg_misc.obj
 0002:000016b8       ??_C@_0BM@NECGLAIF@BG_CanItemBeGrabbed?3?5IT_BAD?$AA@ 400836b8     bg_misc.obj
 0002:000016d4       ??_C@_0CG@HNLFCMEK@BG_CanItemBeGrabbed?3?5unknown?5enu@ 400836d4     bg_misc.obj
 0002:000016fc       ??_C@_0CK@DNBGNAED@BG_EvaluateTrajectory?3?5unknown?5t@ 400836fc     bg_misc.obj
 0002:00001728       ??_C@_0CP@MCFPOIMF@BG_EvaluateTrajectoryDelta?3?5unkn@ 40083728     bg_misc.obj
 0002:00001758       ??_C@_0L@MNPDPHLD@showevents?$AA@ 40083758     bg_misc.obj
 0002:00001764       ??_C@_0DA@KOPJLGJF@Cgame?5event?5svt?5?$CF5d?5?9?$DO?5?$CF5d?3?5num?5@ 40083764     bg_misc.obj
 0002:00001794       __real@00000000            40083794     bg_misc.obj
 0002:00001798       __real@0000000000000000    40083798     bg_misc.obj
 0002:000017a0       __real@3f50624dd2f1a9fc    400837a0     bg_misc.obj
 0002:000017a8       __real@3fe0000000000000    400837a8     bg_misc.obj
 0002:000017b0       __real@40000000            400837b0     bg_misc.obj
 0002:000017b4       __real@40490fdb            400837b4     bg_misc.obj
 0002:000017b8       __real@4079000000000000    400837b8     bg_misc.obj
 0002:000017c0       __real@42100000            400837c0     bg_misc.obj
 0002:000017c4       __real@42300000            400837c4     bg_misc.obj
 0002:000017c8       __real@42340000            400837c8     bg_misc.obj
 0002:000017cc       __real@44480000            400837cc     bg_misc.obj
 0002:000017d0       __real@c2100000            400837d0     bg_misc.obj
 0002:000017d4       __real@c2480000            400837d4     bg_misc.obj
 0002:000017d8       ??_C@_1IE@CGOOEJBB@?$AAc?$AA?3?$AA?2?$AAu?$AAs?$AAe?$AAr?$AAs?$AA?2?$AAa?$AAn?$AAd?$AAy?$AA?2?$AAd?$AAo?$AAc?$AAu?$AAm?$AAe?$AAn?$AAt?$AAs?$AA?2?$AAg?$AAi?$AAt?$AAh?$AAu?$AAb?$AA?2?$AAq@ 400837d8     q_math.obj
 0002:0000185c       ??_C@_1DE@EJPCDGJI@?$AAQ?$AA_?$AAf?$AAa?$AAb?$AAs?$AA?$CI?$AAi?$AAn?$AAv?$AA_?$AAd?$AAe?$AAn?$AAo?$AAm?$AA?$CJ?$AA?5?$AA?$CB?$AA?$DN?$AA?5?$AA0?$AA?4?$AA0?$AAf?$AA?$AA@ 4008385c     q_math.obj
 0002:00001890       __real@3c8efa35            40083890     q_math.obj
 0002:00001894       __real@3f000000            40083894     q_math.obj
 0002:00001898       __real@3f76800000000000    40083898     q_math.obj
 0002:000018a0       __real@3f800000            400838a0     q_math.obj
 0002:000018a4       __real@3fc00000            400838a4     q_math.obj
 0002:000018a8       __real@4000000000000000    400838a8     q_math.obj
 0002:000018b0       __real@400921fb60000000    400838b0     q_math.obj
 0002:000018b8       __real@4066800000000000    400838b8     q_math.obj
 0002:000018c0       __real@4066c16c16c16c17    400838c0     q_math.obj
 0002:000018c8       __real@4076800000000000    400838c8     q_math.obj
 0002:000018d0       __real@42b40000            400838d0     q_math.obj
 0002:000018d4       __real@43340000            400838d4     q_math.obj
 0002:000018d8       __real@437f0000            400838d8     q_math.obj
 0002:000018dc       __real@43870000            400838dc     q_math.obj
 0002:000018e0       __real@43b40000            400838e0     q_math.obj
 0002:000018e4       __real@47800000            400838e4     q_math.obj
 0002:000018e8       __real@47c34f80            400838e8     q_math.obj
 0002:000018ec       __real@bf800000            400838ec     q_math.obj
 0002:000018f0       __real@c3340000            400838f0     q_math.obj
 0002:000018f4       __real@c7c34f80            400838f4     q_math.obj
 0002:00001900       __xmm@80000000000000008000000000000000 40083900     q_math.obj
 0002:00001910       __xmm@80000000800000008000000080000000 40083910     q_math.obj
 0002:00001920       ??_C@_04HDOCAJNK@?$CFs?$CFs?$AA@ 40083920     q_shared.obj
 0002:00001928       ??_C@_02DKCKIIND@?$CFs?$AA@ 40083928     q_shared.obj
 0002:0000192c       ??_C@_0BI@KPLEBEJF@ERROR?3?5?$CFs?0?5line?5?$CFd?3?5?$CFs?6?$AA@ 4008392c     q_shared.obj
 0002:00001944       ??_C@_0BK@DJMKDJBL@WARNING?3?5?$CFs?0?5line?5?$CFd?3?5?$CFs?6?$AA@ 40083944     q_shared.obj
 0002:00001960       ??_C@_0BF@BFEJCABG@MatchToken?3?5?$CFs?5?$CB?$DN?5?$CFs?$AA@ 40083960     q_shared.obj
 0002:00001978       ??_C@_01ODHLEDKK@?$CI?$AA@ 40083978     q_shared.obj
 0002:0000197c       ??_C@_01PKGAHCOL@?$CJ?$AA@ 4008397c     q_shared.obj
 0002:00001980       ??_C@_0BG@EKAPNPCH@Q_strncpyz?3?5NULL?5dest?$AA@ 40083980     q_shared.obj
 0002:00001998       ??_C@_0BF@BJHHBLMD@Q_strncpyz?3?5NULL?5src?$AA@ 40083998     q_shared.obj
 0002:000019b0       ??_C@_0BJ@OLBOPICM@Q_strncpyz?3?5destsize?5?$DM?51?$AA@ 400839b0     q_shared.obj
 0002:000019cc       ??_C@_0BN@EFOOAHFL@Q_strcat?3?5already?5overflowed?$AA@ 400839cc     q_shared.obj
 0002:000019ec       ??_C@_0CC@GMEFDOKA@Com_sprintf?3?5overflowed?5bigbuffe@ 400839ec     q_shared.obj
 0002:00001a10       ??_C@_0CD@GIPJKOOD@Com_sprintf?3?5overflow?5of?5?$CFi?5in?5?$CF@ 40083a10     q_shared.obj
 0002:00001a34       ??_C@_0CG@FLHABLN@Info_ValueForKey?3?5oversize?5infos@ 40083a34     q_shared.obj
 0002:00001a5c       ??_C@_0CE@HMPLGKDK@Info_RemoveKey?3?5oversize?5infostr@ 40083a5c     q_shared.obj
 0002:00001a80       ??_C@_0CI@CPIEPBLO@Info_RemoveKey_Big?3?5oversize?5inf@ 40083a80     q_shared.obj
 0002:00001aa8       ??_C@_0CJ@CEEBDGNA@Info_SetValueForKey?3?5oversize?5in@ 40083aa8     q_shared.obj
 0002:00001ad4       ??_C@_0CD@JIDDAEOO@Can?8t?5use?5keys?5or?5values?5with?5a?5@ 40083ad4     q_shared.obj
 0002:00001af8       ??_C@_0CL@JCFAGLFD@Can?8t?5use?5keys?5or?5values?5with?5a?5@ 40083af8     q_shared.obj
 0002:00001b24       ??_C@_0CD@MGFMEBLE@Can?8t?5use?5keys?5or?5values?5with?5a?5@ 40083b24     q_shared.obj
 0002:00001b48       ??_C@_06NELKLDPM@?2?$CFs?2?$CFs?$AA@ 40083b48     q_shared.obj
 0002:00001b50       ??_C@_0BN@CAOBGKLE@Info?5string?5length?5exceeded?6?$AA@ 40083b50     q_shared.obj
 0002:00001b70       ??_C@_0CB@EMDOOGBI@BIG?5Info?5string?5length?5exceeded?6@ 40083b70     q_shared.obj
 0002:00001b94       ??_C@_09GPGFHLKM@I?5Can?5Win?$AA@ 40083b94     ui_addbots.obj
 0002:00001ba0       ??_C@_0M@FGHDCADO@Bring?5It?5On?$AA@ 40083ba0     ui_addbots.obj
 0002:00001bac       ??_C@_0P@MHOBBMFM@Hurt?5Me?5Plenty?$AA@ 40083bac     ui_addbots.obj
 0002:00001bbc       ??_C@_08HKEHKPDB@Hardcore?$AA@ 40083bbc     ui_addbots.obj
 0002:00001bc8       ??_C@_0L@NBCMGFN@Nightmare?$CB?$AA@ 40083bc8     ui_addbots.obj
 0002:00001bd4       ??_C@_04HJMOFLDF@Free?$AA@ 40083bd4     ui_addbots.obj
 0002:00001bdc       ??_C@_03PADCEAKC@Red?$AA@  40083bdc     ui_addbots.obj
 0002:00001be0       ??_C@_04CAKOHOCJ@Blue?$AA@ 40083be0     ui_addbots.obj
 0002:00001be8       ??_C@_0BE@KFNEHFLD@addbot?5?$CFs?5?$CFi?5?$CFs?5?$CFi?6?$AA@ 40083be8     ui_addbots.obj
 0002:00001bfc       ??_C@_04MEMAJGDJ@name?$AA@ 40083bfc     ui_addbots.obj
 0002:00001c04       ??_C@_08NBEHKPOH@ADD?5BOTS?$AA@ 40083c04     ui_addbots.obj
 0002:00001c10       ??_C@_0BF@HLNONHFG@menu?1art?1addbotframe?$AA@ 40083c10     ui_addbots.obj
 0002:00001c28       ??_C@_0L@GFINLBEC@g_gametype?$AA@ 40083c28     ui_addbots.obj
 0002:00001c34       ??_C@_0BH@NPPCFHDG@menu?1art?1arrows_vert_0?$AA@ 40083c34     ui_addbots.obj
 0002:00001c4c       ??_C@_0BJ@ENBLAFB@menu?1art?1arrows_vert_top?$AA@ 40083c4c     ui_addbots.obj
 0002:00001c68       ??_C@_0BJ@BFMPHNBG@menu?1art?1arrows_vert_bot?$AA@ 40083c68     ui_addbots.obj
 0002:00001c84       ??_C@_06JDCLJNII@Skill?3?$AA@ 40083c84     ui_addbots.obj
 0002:00001c8c       ??_C@_09OGEBNCBM@g_spSkill?$AA@ 40083c8c     ui_addbots.obj
 0002:00001c98       ??_C@_06DMFGEGAL@Team?3?5?$AA@ 40083c98     ui_addbots.obj
 0002:00001ca0       ??_C@_0BC@FKMEIGG@menu?1art?1accept_0?$AA@ 40083ca0     ui_addbots.obj
 0002:00001cb4       ??_C@_0BC@BMLHHJCH@menu?1art?1accept_1?$AA@ 40083cb4     ui_addbots.obj
 0002:00001cc8       ??_C@_0BA@GDKDIMAH@menu?1art?1back_0?$AA@ 40083cc8     ui_addbots.obj
 0002:00001cd8       ??_C@_0BA@HKLILNEG@menu?1art?1back_1?$AA@ 40083cd8     ui_addbots.obj
 0002:00001ce8       __real@40800000            40083ce8     ui_addbots.obj
 0002:00001cec       __real@42940000            40083cec     ui_addbots.obj
 0002:00001cf0       __real@42ae0000            40083cf0     ui_addbots.obj
 0002:00001cf4       __real@43a60000            40083cf4     ui_addbots.obj
 0002:00001cf8       __real@43e90000            40083cf8     ui_addbots.obj
 0002:00001cfc       ??_C@_03LFLJCHJK@d1?6?$AA@ 40083cfc     ui_atoms.obj
 0002:00001d00       ??_C@_0CB@IBJOBHCA@UI_PushMenu?3?5menu?5stack?5overflow@ 40083d00     ui_atoms.obj
 0002:00001d24       ??_C@_0CB@NOICFLLI@UI_PopMenu?3?5menu?5stack?5underflow@ 40083d24     ui_atoms.obj
 0002:00001d48       ??_C@_01GBGANLPD@0?$AA@    40083d48     ui_atoms.obj
 0002:00001d4c       ??_C@_09DIABHAFB@cl_paused?$AA@ 40083d4c     ui_atoms.obj
 0002:00001d58       ??_C@_05FAEIHPAI@quit?6?$AA@ 40083d58     ui_atoms.obj
 0002:00001d60       ??_C@_0O@KMFADKH@Insert?5the?5CD?$AA@ 40083d60     ui_atoms.obj
 0002:00001d70       ??_C@_0L@JPCPFP@Bad?5CD?5Key?$AA@ 40083d70     ui_atoms.obj
 0002:00001d7c       ??_C@_01HIHLOKLC@1?$AA@    40083d7c     ui_atoms.obj
 0002:00001d80       ??_C@_0BP@DCKAJADL@UI_SetActiveMenu?3?5bad?5enum?5?$CFd?6?$AA@ 40083d80     ui_atoms.obj
 0002:00001da0       ??_C@_0M@DGFHKGAK@levelselect?$AA@ 40083da0     ui_atoms.obj
 0002:00001dac       ??_C@_08FNKAODFI@postgame?$AA@ 40083dac     ui_atoms.obj
 0002:00001db8       ??_C@_08OEBEDBJL@ui_cache?$AA@ 40083db8     ui_atoms.obj
 0002:00001dc4       ??_C@_0O@ECFJDFKB@ui_cinematics?$AA@ 40083dc4     ui_atoms.obj
 0002:00001dd4       ??_C@_0O@DJEGGJPO@ui_teamOrders?$AA@ 40083dd4     ui_atoms.obj
 0002:00001de4       ??_C@_0M@GCJEHMGM@iamacheater?$AA@ 40083de4     ui_atoms.obj
 0002:00001df0       ??_C@_0L@FJKOKNMG@iamamonkey?$AA@ 40083df0     ui_atoms.obj
 0002:00001dfc       ??_C@_08HOPFIAK@ui_cdkey?$AA@ 40083dfc     ui_atoms.obj
 0002:00001e08       ??_C@_07CGOLGDBM@?$CI?$CFd?0?$CFd?$CJ?$AA@ 40083e08     ui_atoms.obj
 0002:00001e10       __real@3dd80000            40083e10     ui_atoms.obj
 0002:00001e14       __real@3e100000            40083e14     ui_atoms.obj
 0002:00001e18       __real@3f400000            40083e18     ui_atoms.obj
 0002:00001e20       __real@3f61111111111111    40083e20     ui_atoms.obj
 0002:00001e28       __real@3fb0000000000000    40083e28     ui_atoms.obj
 0002:00001e30       __real@3fe6666666666666    40083e30     ui_atoms.obj
 0002:00001e38       __real@3fe999999999999a    40083e38     ui_atoms.obj
 0002:00001e40       __real@3ff0000000000000    40083e40     ui_atoms.obj
 0002:00001e48       __real@3ff5555555555555    40083e48     ui_atoms.obj
 0002:00001e50       __real@40400000            40083e50     ui_atoms.obj
 0002:00001e54       __real@41000000            40083e54     ui_atoms.obj
 0002:00001e58       __real@41800000            40083e58     ui_atoms.obj
 0002:00001e5c       __real@41d80000            40083e5c     ui_atoms.obj
 0002:00001e60       __real@42000000            40083e60     ui_atoms.obj
 0002:00001e64       __real@43800000            40083e64     ui_atoms.obj
 0002:00001e68       __real@43f00000            40083e68     ui_atoms.obj
 0002:00001e6c       __real@44200000            40083e6c     ui_atoms.obj
 0002:00001e70       ??_C@_0BJ@EMNJPCIG@Please?5enter?5your?5CD?5Key?$AA@ 40083e70     ui_cdkey.obj
 0002:00001e8c       ??_C@_0CK@ICDCGJCP@The?5CD?5Key?5appears?5to?5be?5valid?0?5@ 40083e8c     ui_cdkey.obj
 0002:00001eb8       ??_C@_0BI@DJFDENGL@The?5CD?5Key?5is?5not?5valid?$AA@ 40083eb8     ui_cdkey.obj
 0002:00001ed0       ??_C@_0BA@LAMCFMKH@ui_cdkeychecked?$AA@ 40083ed0     ui_cdkey.obj
 0002:00001ee0       ??_C@_06BDEFFOBB@CD?5KEY?$AA@ 40083ee0     ui_cdkey.obj
 0002:00001ee8       ??_C@_0BD@DDEDPIHI@menu?1art?1cut_frame?$AA@ 40083ee8     ui_cdkey.obj
 0002:00001efc       ??_C@_07NHHFFCAL@CD?5Key?3?$AA@ 40083efc     ui_cdkey.obj
 0002:00001f04       ??_C@_06HPKCLDCP@idlogo?$AA@ 40083f04     ui_cinematics.obj
 0002:00001f0c       ??_C@_05BGIJDFHP@intro?$AA@ 40083f0c     ui_cinematics.obj
 0002:00001f14       ??_C@_05NHHMLIAK@tier1?$AA@ 40083f14     ui_cinematics.obj
 0002:00001f1c       ??_C@_05PMFBOLMJ@tier2?$AA@ 40083f1c     ui_cinematics.obj
 0002:00001f24       ??_C@_05OFEKNKII@tier3?$AA@ 40083f24     ui_cinematics.obj
 0002:00001f2c       ??_C@_05KKALEMEP@tier4?$AA@ 40083f2c     ui_cinematics.obj
 0002:00001f34       ??_C@_05LDBAHNAO@tier5?$AA@ 40083f34     ui_cinematics.obj
 0002:00001f3c       ??_C@_05JIDNCOMN@tier6?$AA@ 40083f3c     ui_cinematics.obj
 0002:00001f44       ??_C@_05IBCGBPIM@tier7?$AA@ 40083f44     ui_cinematics.obj
 0002:00001f4c       ??_C@_03JBJLGPFL@end?$AA@  40083f4c     ui_cinematics.obj
 0002:00001f50       ??_C@_0BB@ECLHOHCI@ui_cinematics?5?$CFi?$AA@ 40083f50     ui_cinematics.obj
 0002:00001f64       ??_C@_07MCHHMPMB@nextmap?$AA@ 40083f64     ui_cinematics.obj
 0002:00001f6c       ??_C@_0CF@GPBADIOC@disconnect?$DL?5cinematic?5demoEnd?4Ro@ 40083f6c     ui_cinematics.obj
 0002:00001f94       ??_C@_0BO@LKEMHEAH@disconnect?$DL?5cinematic?5?$CFs?4RoQ?6?$AA@ 40083f94     ui_cinematics.obj
 0002:00001fb4       ??_C@_0L@OHENIHEJ@CINEMATICS?$AA@ 40083fb4     ui_cinematics.obj
 0002:00001fc0       ??_C@_0BC@KKGBIKBF@menu?1art?1frame2_l?$AA@ 40083fc0     ui_cinematics.obj
 0002:00001fd4       ??_C@_0BC@GMJFBKCE@menu?1art?1frame1_r?$AA@ 40083fd4     ui_cinematics.obj
 0002:00001fe8       ??_C@_07EHKHJIKA@ID?5LOGO?$AA@ 40083fe8     ui_cinematics.obj
 0002:00001ff0       ??_C@_05NNBPNCDB@INTRO?$AA@ 40083ff0     ui_cinematics.obj
 0002:00001ff8       ??_C@_06PEAGGCMP@Tier?51?$AA@ 40083ff8     ui_cinematics.obj
 0002:00002000       ??_C@_06NPCLDBAM@Tier?52?$AA@ 40084000     ui_cinematics.obj
 0002:00002008       ??_C@_06MGDAAAEN@Tier?53?$AA@ 40084008     ui_cinematics.obj
 0002:00002010       ??_C@_06IJHBJGIK@Tier?54?$AA@ 40084010     ui_cinematics.obj
 0002:00002018       ??_C@_06JAGKKHML@Tier?55?$AA@ 40084018     ui_cinematics.obj
 0002:00002020       ??_C@_06LLEHPEAI@Tier?56?$AA@ 40084020     ui_cinematics.obj
 0002:00002028       ??_C@_06KCFMMFEJ@Tier?57?$AA@ 40084028     ui_cinematics.obj
 0002:00002030       ??_C@_03JMGAKCCH@END?$AA@  40084030     ui_cinematics.obj
 0002:00002034       ??_C@_01KMDKNFGN@?1?$AA@   40084034     ui_confirm.obj
 0002:00002038       ??_C@_06BEMOOEJ@YES?1NO?$AA@ 40084038     ui_confirm.obj
 0002:00002040       ??_C@_03IPHJCBHH@YES?$AA@  40084040     ui_confirm.obj
 0002:00002044       ??_C@_02NFLNFON@NO?$AA@    40084044     ui_confirm.obj
 0002:00002048       ??_C@_02GIPFHKNO@OK?$AA@   40084048     ui_confirm.obj
 0002:0000204c       __real@42ec0000            4008404c     ui_confirm.obj
 0002:00002050       __real@430e0000            40084050     ui_confirm.obj
 0002:00002054       __real@43b38000            40084054     ui_confirm.obj
 0002:00002058       ??_C@_02DPKJAMEF@?$CFd?$AA@ 40084058     ui_connect.obj
 0002:0000205c       ??_C@_08HIJIBFNH@?4?$CF02d?5GB?$AA@ 4008405c     ui_connect.obj
 0002:00002068       ??_C@_08HFAPJAAB@?4?$CF02d?5MB?$AA@ 40084068     ui_connect.obj
 0002:00002074       ??_C@_05GLFMPLMM@?$CFd?5KB?$AA@ 40084074     ui_connect.obj
 0002:0000207c       ??_C@_08FFCBIDLK@?$CFd?5bytes?$AA@ 4008407c     ui_connect.obj
 0002:00002088       ??_C@_0N@KMBELJJB@?$CFd?5hr?5?$CFd?5min?$AA@ 40084088     ui_connect.obj
 0002:00002098       ??_C@_0O@NMPKHNPG@?$CFd?5min?5?$CFd?5sec?$AA@ 40084098     ui_connect.obj
 0002:000020a8       ??_C@_06NEPEGKCP@?$CFd?5sec?$AA@ 400840a8     ui_connect.obj
 0002:000020b0       ??_C@_0BA@IMGLJLPN@cl_downloadSize?$AA@ 400840b0     ui_connect.obj
 0002:000020c0       ??_C@_0BB@FAHDFBEE@cl_downloadCount?$AA@ 400840c0     ui_connect.obj
 0002:000020d4       ??_C@_0BA@CHCCPCBI@cl_downloadTime?$AA@ 400840d4     ui_connect.obj
 0002:000020e4       ??_C@_09KPPELEEE@?$CFs?5?$CI?$CFd?$CF?$CF?$CJ?$AA@ 400840e4     ui_connect.obj
 0002:000020f0       ??_C@_0L@MBCOHHKN@estimating?$AA@ 400840f0     ui_connect.obj
 0002:000020fc       ??_C@_0BC@MJEFMDAL@?$CI?$CFs?5of?5?$CFs?5copied?$CJ?$AA@ 400840fc     ui_connect.obj
 0002:00002110       ??_C@_0M@EJKJHDLE@?$CI?$CFs?5copied?$CJ?$AA@ 40084110     ui_connect.obj
 0002:0000211c       ??_C@_06OIEFGAOD@?$CFs?1Sec?$AA@ 4008411c     ui_connect.obj
 0002:00002124       ??_C@_07KMNEBLH@mapname?$AA@ 40084124     ui_connect.obj
 0002:0000212c       ??_C@_0L@OKBLGMCB@Loading?5?$CFs?$AA@ 4008412c     ui_connect.obj
 0002:00002138       ??_C@_0BB@NIDAOAIN@Connecting?5to?5?$CFs?$AA@ 40084138     ui_connect.obj
 0002:0000214c       ??_C@_04GJFDDCGE@motd?$AA@ 4008414c     ui_connect.obj
 0002:00002154       ??_C@_0BI@OIGNBFGC@Awaiting?5challenge?4?4?4?$CFi?$AA@ 40084154     ui_connect.obj
 0002:0000216c       ??_C@_0BJ@EMLKBDFN@Awaiting?5connection?4?4?4?$CFi?$AA@ 4008416c     ui_connect.obj
 0002:00002188       ??_C@_0BA@MIMGFFNE@cl_downloadName?$AA@ 40084188     ui_connect.obj
 0002:00002198       ??_C@_0BG@PBGJCCMP@Awaiting?5gamestate?4?4?4?$AA@ 40084198     ui_connect.obj
 0002:000021b0       ??_C@_0M@MNJNCGPD@disconnect?6?$AA@ 400841b0     ui_connect.obj
 0002:000021bc       ??_C@_07PNHLECKB@?$CLscores?$AA@ 400841bc     ui_controls2.obj
 0002:000021c4       ??_C@_0M@LDALJCGJ@show?5scores?$AA@ 400841c4     ui_controls2.obj
 0002:000021d0       ??_C@_08GFFBPDLD@?$CLbutton2?$AA@ 400841d0     ui_controls2.obj
 0002:000021dc       ??_C@_08LBAPKDBK@use?5item?$AA@ 400841dc     ui_controls2.obj
 0002:000021e8       ??_C@_06JIDIHCBO@?$CLspeed?$AA@ 400841e8     ui_controls2.obj
 0002:000021f0       ??_C@_0L@HOHELDEP@run?5?1?5walk?$AA@ 400841f0     ui_controls2.obj
 0002:000021fc       ??_C@_08KKEOHAPB@?$CLforward?$AA@ 400841fc     ui_controls2.obj
 0002:00002208       ??_C@_0N@MGNPBNMD@walk?5forward?$AA@ 40084208     ui_controls2.obj
 0002:00002218       ??_C@_05IPKGNIPH@?$CLback?$AA@ 40084218     ui_controls2.obj
 0002:00002220       ??_C@_09DLEDHJHA@backpedal?$AA@ 40084220     ui_controls2.obj
 0002:0000222c       ??_C@_09IPJNFGKP@?$CLmoveleft?$AA@ 4008422c     ui_controls2.obj
 0002:00002238       ??_C@_09IILINGBE@step?5left?$AA@ 40084238     ui_controls2.obj
 0002:00002244       ??_C@_0L@FMBJCMEG@?$CLmoveright?$AA@ 40084244     ui_controls2.obj
 0002:00002250       ??_C@_0L@KNGDMC@step?5right?$AA@ 40084250     ui_controls2.obj
 0002:0000225c       ??_C@_07CKGNAPCP@?$CLmoveup?$AA@ 4008425c     ui_controls2.obj
 0002:00002264       ??_C@_09NLMKCKFC@up?5?1?5jump?$AA@ 40084264     ui_controls2.obj
 0002:00002270       ??_C@_09HNJJMOJG@?$CLmovedown?$AA@ 40084270     ui_controls2.obj
 0002:0000227c       ??_C@_0O@HHCHKOIG@down?5?1?5crouch?$AA@ 4008427c     ui_controls2.obj
 0002:0000228c       ??_C@_05HEGFDNLE@?$CLleft?$AA@ 4008428c     ui_controls2.obj
 0002:00002294       ??_C@_09DMIAAGIP@turn?5left?$AA@ 40084294     ui_controls2.obj
 0002:000022a0       ??_C@_06NGIHBNMB@?$CLright?$AA@ 400842a0     ui_controls2.obj
 0002:000022a8       ??_C@_0L@GHMEBBNO@turn?5right?$AA@ 400842a8     ui_controls2.obj
 0002:000022b4       ??_C@_07CHKKNAEO@?$CLstrafe?$AA@ 400842b4     ui_controls2.obj
 0002:000022bc       ??_C@_0BA@LGNODEIF@sidestep?5?1?5turn?$AA@ 400842bc     ui_controls2.obj
 0002:000022cc       ??_C@_07BDFIGFL@?$CLlookup?$AA@ 400842cc     ui_controls2.obj
 0002:000022d4       ??_C@_07KKBACOMO@look?5up?$AA@ 400842d4     ui_controls2.obj
 0002:000022dc       ??_C@_09KCKOGCLI@?$CLlookdown?$AA@ 400842dc     ui_controls2.obj
 0002:000022e8       ??_C@_09HGJFJMBI@look?5down?$AA@ 400842e8     ui_controls2.obj
 0002:000022f4       ??_C@_06OBEGBCAL@?$CLmlook?$AA@ 400842f4     ui_controls2.obj
 0002:000022fc       ??_C@_0L@JDBIPPCE@mouse?5look?$AA@ 400842fc     ui_controls2.obj
 0002:00002308       ??_C@_0L@FHIBDANG@centerview?$AA@ 40084308     ui_controls2.obj
 0002:00002314       ??_C@_0M@GCIKDKPP@center?5view?$AA@ 40084314     ui_controls2.obj
 0002:00002320       ??_C@_05GAKJCNGF@?$CLzoom?$AA@ 40084320     ui_controls2.obj
 0002:00002328       ??_C@_09IEBMBNLF@zoom?5view?$AA@ 40084328     ui_controls2.obj
 0002:00002334       ??_C@_08NFHIAPM@weapon?51?$AA@ 40084334     ui_controls2.obj
 0002:00002340       ??_C@_08MJPGINDC@gauntlet?$AA@ 40084340     ui_controls2.obj
 0002:0000234c       ??_C@_08CGHKNDDP@weapon?52?$AA@ 4008434c     ui_controls2.obj
 0002:00002358       ??_C@_0L@CFEKEAAE@machinegun?$AA@ 40084358     ui_controls2.obj
 0002:00002364       ??_C@_08DPGBOCHO@weapon?53?$AA@ 40084364     ui_controls2.obj
 0002:00002370       ??_C@_07PKBOGMMP@shotgun?$AA@ 40084370     ui_controls2.obj
 0002:00002378       ??_C@_08HACAHELJ@weapon?54?$AA@ 40084378     ui_controls2.obj
 0002:00002384       ??_C@_0BB@MEBMHMEH@grenade?5launcher?$AA@ 40084384     ui_controls2.obj
 0002:00002398       ??_C@_08GJDLEFPI@weapon?55?$AA@ 40084398     ui_controls2.obj
 0002:000023a4       ??_C@_0BA@KMEINBOF@rocket?5launcher?$AA@ 400843a4     ui_controls2.obj
 0002:000023b4       ??_C@_08ECBGBGDL@weapon?56?$AA@ 400843b4     ui_controls2.obj
 0002:000023c0       ??_C@_09NNHDMKJA@lightning?$AA@ 400843c0     ui_controls2.obj
 0002:000023cc       ??_C@_08FLANCHHK@weapon?57?$AA@ 400843cc     ui_controls2.obj
 0002:000023d8       ??_C@_07CFOFBGNM@railgun?$AA@ 400843d8     ui_controls2.obj
 0002:000023e0       ??_C@_08NMJFDLLF@weapon?58?$AA@ 400843e0     ui_controls2.obj
 0002:000023ec       ??_C@_0L@CPPLAGHM@plasma?5gun?$AA@ 400843ec     ui_controls2.obj
 0002:000023f8       ??_C@_08MFIOAKPE@weapon?59?$AA@ 400843f8     ui_controls2.obj
 0002:00002404       ??_C@_03CEIJJIOF@BFG?$AA@  40084404     ui_controls2.obj
 0002:00002408       ??_C@_07MAODEHGM@?$CLattack?$AA@ 40084408     ui_controls2.obj
 0002:00002410       ??_C@_06JMLBDJHL@attack?$AA@ 40084410     ui_controls2.obj
 0002:00002418       ??_C@_08DMEBPOGB@weapprev?$AA@ 40084418     ui_controls2.obj
 0002:00002424       ??_C@_0M@ENEBAAHC@prev?5weapon?$AA@ 40084424     ui_controls2.obj
 0002:00002430       ??_C@_08IJHOKAF@weapnext?$AA@ 40084430     ui_controls2.obj
 0002:0000243c       ??_C@_0M@NDADMNAG@next?5weapon?$AA@ 4008443c     ui_controls2.obj
 0002:00002448       ??_C@_08HMEKMCPC@?$CLbutton3?$AA@ 40084448     ui_controls2.obj
 0002:00002454       ??_C@_07LIHKAGE@gesture?$AA@ 40084454     ui_controls2.obj
 0002:0000245c       ??_C@_0M@JINOELJH@messagemode?$AA@ 4008445c     ui_controls2.obj
 0002:00002468       ??_C@_04BLJLMHHG@chat?$AA@ 40084468     ui_controls2.obj
 0002:00002470       ??_C@_0N@IDIDIMNN@messagemode2?$AA@ 40084470     ui_controls2.obj
 0002:00002480       ??_C@_0M@GLMHMHHN@chat?5?9?5team?$AA@ 40084480     ui_controls2.obj
 0002:0000248c       ??_C@_0N@JKJILNJM@messagemode3?$AA@ 4008448c     ui_controls2.obj
 0002:0000249c       ??_C@_0O@EJLCMBHG@chat?5?9?5target?$AA@ 4008449c     ui_controls2.obj
 0002:000024ac       ??_C@_0N@NFNJCLFL@messagemode4?$AA@ 400844ac     ui_controls2.obj
 0002:000024bc       ??_C@_0BA@CGKMCLGE@chat?5?9?5attacker?$AA@ 400844bc     ui_controls2.obj
 0002:000024cc       ??_C@_06HFMKGFEH@cl_run?$AA@ 400844cc     ui_controls2.obj
 0002:000024d4       ??_C@_07JIEGLHEC@m_pitch?$AA@ 400844d4     ui_controls2.obj
 0002:000024dc       ??_C@_0O@JKEEFDLF@cg_autoswitch?$AA@ 400844dc     ui_controls2.obj
 0002:000024ec       ??_C@_0M@JFLMCFNC@sensitivity?$AA@ 400844ec     ui_controls2.obj
 0002:000024f8       ??_C@_0M@MJEIGFNL@in_joystick?$AA@ 400844f8     ui_controls2.obj
 0002:00002504       ??_C@_0O@CDIHIFMG@joy_threshold?$AA@ 40084504     ui_controls2.obj
 0002:00002514       ??_C@_08BEMLPELN@m_filter?$AA@ 40084514     ui_controls2.obj
 0002:00002520       ??_C@_0M@HDIJIOFC@cl_freelook?$AA@ 40084520     ui_controls2.obj
 0002:0000252c       ??_C@_03BBKEAIF@?$DP?$DP?$DP?$AA@ 4008452c     ui_controls2.obj
 0002:00002530       ??_C@_04FJKIFICP@?5or?5?$AA@ 40084530     ui_controls2.obj
 0002:00002538       ??_C@_0CJ@FKHJELGI@Waiting?5for?5new?5key?5?4?4?4?5ESCAPE?5t@ 40084538     ui_controls2.obj
 0002:00002564       ??_C@_0BP@NCHELFFL@Press?5ENTER?5or?5CLICK?5to?5change?$AA@ 40084564     ui_controls2.obj
 0002:00002584       ??_C@_0BJ@MAPAIIP@Press?5BACKSPACE?5to?5clear?$AA@ 40084584     ui_controls2.obj
 0002:000025a0       ??_C@_0CC@OPGJGILN@Use?5Arrow?5Keys?5or?5CLICK?5to?5chang@ 400845a0     ui_controls2.obj
 0002:000025c4       ??_C@_05NCCFOPHA@model?$AA@ 400845c4     ui_controls2.obj
 0002:000025cc       ??_C@_0M@LMHCNBPD@in_restart?6?$AA@ 400845cc     ui_controls2.obj
 0002:000025d8       ??_C@_0BN@DCBFLHLN@WARNING?3?5This?5will?5reset?5all?$AA@ 400845d8     ui_controls2.obj
 0002:000025f8       ??_C@_0CC@IJGIPEKE@controls?5to?5their?5default?5values@ 400845f8     ui_controls2.obj
 0002:0000261c       ??_C@_0BB@CLCNLIC@SET?5TO?5DEFAULTS?$DP?$AA@ 4008461c     ui_controls2.obj
 0002:00002630       ??_C@_08OEMNOOOE@CONTROLS?$AA@ 40084630     ui_controls2.obj
 0002:0000263c       ??_C@_04POCKJPC@LOOK?$AA@  4008463c     ui_controls2.obj
 0002:00002644       ??_C@_04LPPGDFDD@MOVE?$AA@ 40084644     ui_controls2.obj
 0002:0000264c       ??_C@_05MKMCCNEL@SHOOT?$AA@ 4008464c     ui_controls2.obj
 0002:00002654       ??_C@_04MKAMAPIC@MISC?$AA@ 40084654     ui_controls2.obj
 0002:0000265c       ??_C@_09KCPFIDCO@free?5look?$AA@ 4008465c     ui_controls2.obj
 0002:00002668       ??_C@_0N@BNPBCJKB@invert?5mouse?$AA@ 40084668     ui_controls2.obj
 0002:00002678       ??_C@_0N@HOKAAMME@smooth?5mouse?$AA@ 40084678     ui_controls2.obj
 0002:00002688       ??_C@_0L@BLIPKMDK@always?5run?$AA@ 40084688     ui_controls2.obj
 0002:00002694       ??_C@_0BD@MLDNMDJI@autoswitch?5weapons?$AA@ 40084694     ui_controls2.obj
 0002:000026a8       ??_C@_0M@EIBCCPPO@mouse?5speed?$AA@ 400846a8     ui_controls2.obj
 0002:000026b4       ??_C@_08KLNCIBHI@joystick?$AA@ 400846b4     ui_controls2.obj
 0002:000026c0       ??_C@_0BD@DLLHGDOC@joystick?5threshold?$AA@ 400846c0     ui_controls2.obj
 0002:000026d4       __real@3d4ccccd            400846d4     ui_controls2.obj
 0002:000026d8       __real@41f00000            400846d8     ui_controls2.obj
 0002:000026dc       __real@43160000            400846dc     ui_controls2.obj
 0002:000026e0       __real@c2340000            400846e0     ui_controls2.obj
 0002:000026e4       ??_C@_0BA@EKBHANL@id?5Software?5is?3?$AA@ 400846e4     ui_credits.obj
 0002:000026f4       ??_C@_0M@DOFGOGDJ@Programming?$AA@ 400846f4     ui_credits.obj
 0002:00002700       ??_C@_0CJ@EOEPEKAD@John?5Carmack?0?5Robert?5A?4?5Duffy?0?5J@ 40084700     ui_credits.obj
 0002:0000272c       ??_C@_03OBDFBPHH@Art?$AA@  4008472c     ui_credits.obj
 0002:00002730       ??_C@_0BN@FELIAJAG@Adrian?5Carmack?0?5Kevin?5Cloud?0?$AA@ 40084730     ui_credits.obj
 0002:00002750       ??_C@_0CL@LOJNPFLN@Kenneth?5Scott?0?5Seneca?5Menard?0?5Fr@ 40084750     ui_credits.obj
 0002:0000277c       ??_C@_0O@ELIGNNLM@Game?5Designer?$AA@ 4008477c     ui_credits.obj
 0002:0000278c       ??_C@_0O@LHFDKAL@Graeme?5Devine?$AA@ 4008478c     ui_credits.obj
 0002:0000279c       ??_C@_0N@KDPCLLMO@Level?5Design?$AA@ 4008479c     ui_credits.obj
 0002:000027ac       ??_C@_0CM@GNJCJPLL@Tim?5Willits?0?5Christian?5Antkow?0?5P@ 400847ac     ui_credits.obj
 0002:000027d8       ??_C@_03FGKKMLNB@CEO?$AA@  400847d8     ui_credits.obj
 0002:000027dc       ??_C@_0BB@PBCMLDEB@Todd?5Hollenshead?$AA@ 400847dc     ui_credits.obj
 0002:000027f0       ??_C@_0CB@FEDJJDJC@Director?5of?5Business?5Development@ 400847f0     ui_credits.obj
 0002:00002814       ??_C@_0P@LDLNMDAA@Marty?5Stratton?$AA@ 40084814     ui_credits.obj
 0002:00002824       ??_C@_0BG@JAFKCLEC@Biz?5Assist?5and?5id?5Mom?$AA@ 40084824     ui_credits.obj
 0002:0000283c       ??_C@_0O@BEKGHJOG@Donna?5Jackson?$AA@ 4008483c     ui_credits.obj
 0002:0000284c       ??_C@_0BH@KNJDHMDL@Development?5Assistance?$AA@ 4008484c     ui_credits.obj
 0002:00002864       ??_C@_09FCLGFKGB@Eric?5Webb?$AA@ 40084864     ui_credits.obj
 0002:00002870       ??_C@_0EH@HFFMAPCN@To?5order?3?51?9800?9idgames?5?5?5?5?5www?4@ 40084870     ui_credits.obj
 0002:000028b8       ??_C@_0EF@PMDKNDNE@Quake?5III?5Arena?$CIc?$CJ?51999?92000?0?5Id@ 400848b8     ui_credits.obj
 0002:00002900       __real@4034400000000000    40084900     ui_credits.obj
 0002:00002908       __real@403b566666666667    40084908     ui_credits.obj
 0002:00002910       __real@403cc147ae147ae0    40084910     ui_credits.obj
 0002:00002918       ??_C@_08GJMEELAH@demo?5?$CFs?6?$AA@ 40084918     ui_demo2.obj
 0002:00002924       ??_C@_05MJMJIFJF@DEMOS?$AA@ 40084924     ui_demo2.obj
 0002:0000292c       ??_C@_0BH@KJFHOEPA@menu?1art?1arrows_horz_0?$AA@ 4008492c     ui_demo2.obj
 0002:00002944       ??_C@_0BK@IMMLKPFN@menu?1art?1arrows_horz_left?$AA@ 40084944     ui_demo2.obj
 0002:00002960       ??_C@_0BL@PKJOJIP@menu?1art?1arrows_horz_right?$AA@ 40084960     ui_demo2.obj
 0002:0000297c       ??_C@_0BA@KPKMNOEK@menu?1art?1play_0?$AA@ 4008497c     ui_demo2.obj
 0002:0000298c       ??_C@_0BA@LGLHOPAL@menu?1art?1play_1?$AA@ 4008498c     ui_demo2.obj
 0002:0000299c       ??_C@_08FCFPNNHF@protocol?$AA@ 4008499c     ui_demo2.obj
 0002:000029a8       ??_C@_05BAIDJFLA@dm_?$CFd?$AA@ 400849a8     ui_demo2.obj
 0002:000029b0       ??_C@_05CFPGCNL@demos?$AA@ 400849b0     ui_demo2.obj
 0002:000029b8       ??_C@_0BA@PADAMLGP@No?5Demos?5Found?4?$AA@ 400849b8     ui_demo2.obj
 0002:000029c8       ??_C@_04EHAMMEJA@?4dm3?$AA@ 400849c8     ui_demo2.obj
 0002:000029d0       ??_C@_07OFDDGDHB@r_gamma?$AA@ 400849d0     ui_display.obj
 0002:000029d8       ??_C@_0M@NABCNGBA@cg_viewsize?$AA@ 400849d8     ui_display.obj
 0002:000029e4       ??_C@_0N@NDDADDDK@SYSTEM?5SETUP?$AA@ 400849e4     ui_display.obj
 0002:000029f4       ??_C@_08DHCBDOCP@GRAPHICS?$AA@ 400849f4     ui_display.obj
 0002:00002a00       ??_C@_07JPHDIPNG@DISPLAY?$AA@ 40084a00     ui_display.obj
 0002:00002a08       ??_C@_05MEGDOMG@SOUND?$AA@ 40084a08     ui_display.obj
 0002:00002a10       ??_C@_07BCBHNHNG@NETWORK?$AA@ 40084a10     ui_display.obj
 0002:00002a18       ??_C@_0M@JJFNOGDJ@Brightness?3?$AA@ 40084a18     ui_display.obj
 0002:00002a24       ??_C@_0N@OHKAMPON@Screen?5Size?3?$AA@ 40084a24     ui_display.obj
 0002:00002a34       __real@40a00000            40084a34     ui_display.obj
 0002:00002a38       __real@41200000            40084a38     ui_display.obj
 0002:00002a3c       __real@41a00000            40084a3c     ui_display.obj
 0002:00002a40       ??_C@_01HCONENDN@?$HL?$AA@ 40084a40     ui_gameinfo.obj
 0002:00002a44       ??_C@_0BI@BMEIBPEH@Missing?5?$HL?5in?5info?5file?6?$AA@ 40084a44     ui_gameinfo.obj
 0002:00002a5c       ??_C@_0BE@IKMJLADL@Max?5infos?5exceeded?6?$AA@ 40084a5c     ui_gameinfo.obj
 0002:00002a70       ??_C@_0BN@HAJDHEGK@Unexpected?5end?5of?5info?5file?6?$AA@ 40084a70     ui_gameinfo.obj
 0002:00002a90       ??_C@_01CELHOKLL@?$HN?$AA@ 40084a90     ui_gameinfo.obj
 0002:00002a94       ??_C@_06CBHGEMFM@?$DMNULL?$DO?$AA@ 40084a94     ui_gameinfo.obj
 0002:00002a9c       ??_C@_05BJJDEFHJ@?2num?2?$AA@ 40084a9c     ui_gameinfo.obj
 0002:00002aa4       ??_C@_0BG@BJEIGKLP@?$FO1file?5not?5found?3?5?$CFs?6?$AA@ 40084aa4     ui_gameinfo.obj
 0002:00002abc       ??_C@_0CO@OKDDPLPD@?$FO1file?5too?5large?3?5?$CFs?5is?5?$CFi?0?5max?5@ 40084abc     ui_gameinfo.obj
 0002:00002aec       ??_C@_0N@BFDKEKMB@g_arenasFile?$AA@ 40084aec     ui_gameinfo.obj
 0002:00002afc       ??_C@_0BD@KEINBKFE@scripts?1arenas?4txt?$AA@ 40084afc     ui_gameinfo.obj
 0002:00002b10       ??_C@_06IPPMLGON@?4arena?$AA@ 40084b10     ui_gameinfo.obj
 0002:00002b18       ??_C@_07OMEBBDEO@scripts?$AA@ 40084b18     ui_gameinfo.obj
 0002:00002b20       ??_C@_08IDJEBFOJ@scripts?1?$AA@ 40084b20     ui_gameinfo.obj
 0002:00002b2c       ??_C@_0BC@MIFKOHOA@?$CFi?5arenas?5parsed?6?$AA@ 40084b2c     ui_gameinfo.obj
 0002:00002b40       ??_C@_0DJ@KGDBIAGM@?$FO3WARNING?3?5not?5anough?5memory?5in?5@ 40084b40     ui_gameinfo.obj
 0002:00002b7c       ??_C@_02IKAHHCAI@?$CFi?$AA@ 40084b7c     ui_gameinfo.obj
 0002:00002b80       ??_C@_03IHCLBPIC@num?$AA@  40084b80     ui_gameinfo.obj
 0002:00002b84       ??_C@_04GPMDFGEJ@type?$AA@ 40084b84     ui_gameinfo.obj
 0002:00002b8c       ??_C@_06EJFMBPJF@single?$AA@ 40084b8c     ui_gameinfo.obj
 0002:00002b94       ??_C@_07BELCMIIP@special?$AA@ 40084b94     ui_gameinfo.obj
 0002:00002b9c       ??_C@_0DB@PAFINDJB@?$CFi?5arenas?5ignored?5to?5make?5count?5@ 40084b9c     ui_gameinfo.obj
 0002:00002bd0       ??_C@_0BM@EGGEMJDP@?$FO1Invalid?5arena?5number?3?5?$CFi?6?$AA@ 40084bd0     ui_gameinfo.obj
 0002:00002bec       ??_C@_03HBNNNHNM@map?$AA@  40084bec     ui_gameinfo.obj
 0002:00002bf0       ??_C@_0DH@HCLMODLL@?$FO3WARNING?3?5not?5anough?5memory?5in?5@ 40084bf0     ui_gameinfo.obj
 0002:00002c28       ??_C@_0L@IDJNDIMJ@g_botsFile?$AA@ 40084c28     ui_gameinfo.obj
 0002:00002c34       ??_C@_0BB@LMBKKAOC@scripts?1bots?4txt?$AA@ 40084c34     ui_gameinfo.obj
 0002:00002c48       ??_C@_04NONLJGOA@?4bot?$AA@ 40084c48     ui_gameinfo.obj
 0002:00002c50       ??_C@_0BA@KCNHFFOD@?$CFi?5bots?5parsed?6?$AA@ 40084c50     ui_gameinfo.obj
 0002:00002c60       ??_C@_0BK@DFMGEDHJ@?$FO1Invalid?5bot?5number?3?5?$CFi?6?$AA@ 40084c60     ui_gameinfo.obj
 0002:00002c7c       ??_C@_0N@NACDPIOL@g_spScores?$CFi?$AA@ 40084c7c     ui_gameinfo.obj
 0002:00002c8c       ??_C@_03CFPCDMLN@l?$CFi?$AA@ 40084c8c     ui_gameinfo.obj
 0002:00002c90       ??_C@_0CD@GMMHFJDB@?$FO1Bad?5award?5?$CFi?5in?5UI_LogAwardDat@ 40084c90     ui_gameinfo.obj
 0002:00002cb4       ??_C@_0L@BKAFECHK@g_spAwards?$AA@ 40084cb4     ui_gameinfo.obj
 0002:00002cc0       ??_C@_03NHJIOEGA@a?$CFi?$AA@ 40084cc0     ui_gameinfo.obj
 0002:00002cc4       ??_C@_08FACPJMEJ@training?$AA@ 40084cc4     ui_gameinfo.obj
 0002:00002cd0       ??_C@_05FPBGKCKL@final?$AA@ 40084cd0     ui_gameinfo.obj
 0002:00002cd8       ??_C@_0L@IINLIMGG@g_spVideos?$AA@ 40084cd8     ui_gameinfo.obj
 0002:00002ce4       ??_C@_06EPBCEOOE@tier?$CFi?$AA@ 40084ce4     ui_gameinfo.obj
 0002:00002cec       ??_C@_0M@FJCOBCEM@g_spScores1?$AA@ 40084cec     ui_gameinfo.obj
 0002:00002cf8       ??_C@_0M@HCADEBIP@g_spScores2?$AA@ 40084cf8     ui_gameinfo.obj
 0002:00002d04       ??_C@_0M@GLBIHAMO@g_spScores3?$AA@ 40084d04     ui_gameinfo.obj
 0002:00002d10       ??_C@_0M@CEFJOGAJ@g_spScores4?$AA@ 40084d10     ui_gameinfo.obj
 0002:00002d1c       ??_C@_0M@DNECNHEI@g_spScores5?$AA@ 40084d1c     ui_gameinfo.obj
 0002:00002d28       ??_C@_0CG@OGBFHGMF@All?5levels?5unlocked?5at?5skill?5lev@ 40084d28     ui_gameinfo.obj
 0002:00002d50       ??_C@_03GNABGMEE@100?$AA@  40084d50     ui_gameinfo.obj
 0002:00002d54       ??_C@_0BM@KMJIGNKO@All?5levels?5unlocked?5at?5100?6?$AA@ 40084d54     ui_gameinfo.obj
 0002:00002d70       ??_C@_0M@KDAJBLAP@fs_restrict?$AA@ 40084d70     ui_gameinfo.obj
 0002:00002d7c       ??_C@_0P@BKKOFHJN@map_restart?50?6?$AA@ 40084d7c     ui_ingame.obj
 0002:00002d8c       ??_C@_0P@FNJPAKFA@RESTART?5ARENA?$DP?$AA@ 40084d8c     ui_ingame.obj
 0002:00002d9c       ??_C@_0L@MFHLOCCE@EXIT?5GAME?$DP?$AA@ 40084d9c     ui_ingame.obj
 0002:00002da8       ??_C@_05JLPDBANI@START?$AA@ 40084da8     ui_ingame.obj
 0002:00002db0       ??_C@_0L@MPAGGMDN@sv_running?$AA@ 40084db0     ui_ingame.obj
 0002:00002dbc       ??_C@_0L@BKCPIMBP@bot_enable?$AA@ 40084dbc     ui_ingame.obj
 0002:00002dc8       ??_C@_0M@KLGGHI@REMOVE?5BOTS?$AA@ 40084dc8     ui_ingame.obj
 0002:00002dd4       ??_C@_0M@LHIJAJHF@TEAM?5ORDERS?$AA@ 40084dd4     ui_ingame.obj
 0002:00002de0       ??_C@_01PFHFFBPC@t?$AA@    40084de0     ui_ingame.obj
 0002:00002de4       ??_C@_05MAJHNKMG@SETUP?$AA@ 40084de4     ui_ingame.obj
 0002:00002dec       ??_C@_0M@CLDMOMOH@SERVER?5INFO?$AA@ 40084dec     ui_ingame.obj
 0002:00002df8       ??_C@_0O@EBHHHPMH@RESTART?5ARENA?$AA@ 40084df8     ui_ingame.obj
 0002:00002e08       ??_C@_0M@GKDOHNK@RESUME?5GAME?$AA@ 40084e08     ui_ingame.obj
 0002:00002e14       ??_C@_0M@HBNHOENI@LEAVE?5ARENA?$AA@ 40084e14     ui_ingame.obj
 0002:00002e20       ??_C@_09HHLPLHIF@EXIT?5GAME?$AA@ 40084e20     ui_ingame.obj
 0002:00002e2c       ??_C@_0BB@GEGILEGG@ui_ffa_fraglimit?$AA@ 40084e2c     ui_main.obj
 0002:00002e40       ??_C@_02PIBHCBOA@20?$AA@   40084e40     ui_main.obj
 0002:00002e44       ??_C@_0BB@KJJGDNHJ@ui_ffa_timelimit?$AA@ 40084e44     ui_main.obj
 0002:00002e58       ??_C@_0BF@NFPEGMOB@ui_tourney_fraglimit?$AA@ 40084e58     ui_main.obj
 0002:00002e70       ??_C@_0BF@BIAKOFPO@ui_tourney_timelimit?$AA@ 40084e70     ui_main.obj
 0002:00002e88       ??_C@_02IHCGGLPM@15?$AA@   40084e88     ui_main.obj
 0002:00002e8c       ??_C@_0BC@JFOHFEHA@ui_team_fraglimit?$AA@ 40084e8c     ui_main.obj
 0002:00002ea0       ??_C@_0BC@FIBJNNGP@ui_team_timelimit?$AA@ 40084ea0     ui_main.obj
 0002:00002eb4       ??_C@_0BB@LCPLFLFK@ui_team_friendly?$AA@ 40084eb4     ui_main.obj
 0002:00002ec8       ??_C@_0BE@FLADFGIH@ui_ctf_capturelimit?$AA@ 40084ec8     ui_main.obj
 0002:00002edc       ??_C@_01KJLJFBPL@8?$AA@    40084edc     ui_main.obj
 0002:00002ee0       ??_C@_0BB@INPGKJAK@ui_ctf_timelimit?$AA@ 40084ee0     ui_main.obj
 0002:00002ef4       ??_C@_02PJNFELNH@30?$AA@   40084ef4     ui_main.obj
 0002:00002ef8       ??_C@_0BA@DNMONKHI@ui_ctf_friendly?$AA@ 40084ef8     ui_main.obj
 0002:00002f08       ??_C@_01FDFGLJHB@2?$AA@    40084f08     ui_main.obj
 0002:00002f0c       ??_C@_0P@NKIEGNLF@ui_spSelection?$AA@ 40084f0c     ui_main.obj
 0002:00002f1c       ??_C@_0BB@KIFEKFLJ@ui_browserMaster?$AA@ 40084f1c     ui_main.obj
 0002:00002f30       ??_C@_0BD@POMFLHHE@ui_browserGameType?$AA@ 40084f30     ui_main.obj
 0002:00002f44       ??_C@_0BC@OHDOHLCL@ui_browserSortKey?$AA@ 40084f44     ui_main.obj
 0002:00002f58       ??_C@_01FAMBOPH@4?$AA@     40084f58     ui_main.obj
 0002:00002f5c       ??_C@_0BD@FNCPJHJM@ui_browserShowFull?$AA@ 40084f5c     ui_main.obj
 0002:00002f70       ??_C@_0BE@NJOHIGEF@ui_browserShowEmpty?$AA@ 40084f70     ui_main.obj
 0002:00002f84       ??_C@_0N@GADGJPHJ@cg_brassTime?$AA@ 40084f84     ui_main.obj
 0002:00002f94       ??_C@_04NOOEDIPE@2500?$AA@ 40084f94     ui_main.obj
 0002:00002f9c       ??_C@_0BB@KBADOJHA@cg_drawCrosshair?$AA@ 40084f9c     ui_main.obj
 0002:00002fb0       ??_C@_0BG@PFLNOEEN@cg_drawCrosshairNames?$AA@ 40084fb0     ui_main.obj
 0002:00002fc8       ??_C@_08OCDFECFG@cg_marks?$AA@ 40084fc8     ui_main.obj
 0002:00002fd4       ??_C@_07MMCENALP@server1?$AA@ 40084fd4     ui_main.obj
 0002:00002fdc       ??_C@_07OHAJIDHM@server2?$AA@ 40084fdc     ui_main.obj
 0002:00002fe4       ??_C@_07POBCLCDN@server3?$AA@ 40084fe4     ui_main.obj
 0002:00002fec       ??_C@_07LBFDCEPK@server4?$AA@ 40084fec     ui_main.obj
 0002:00002ff4       ??_C@_07KIEIBFLL@server5?$AA@ 40084ff4     ui_main.obj
 0002:00002ffc       ??_C@_07IDGFEGHI@server6?$AA@ 40084ffc     ui_main.obj
 0002:00003004       ??_C@_07JKHOHHDJ@server7?$AA@ 40085004     ui_main.obj
 0002:0000300c       ??_C@_07BNOGGLPG@server8?$AA@ 4008500c     ui_main.obj
 0002:00003014       ??_C@_07EPNFKLH@server9?$AA@ 40085014     ui_main.obj
 0002:0000301c       ??_C@_08IEFELMDO@server10?$AA@ 4008501c     ui_main.obj
 0002:00003028       ??_C@_08JNEPINHP@server11?$AA@ 40085028     ui_main.obj
 0002:00003034       ??_C@_08LGGCNOLM@server12?$AA@ 40085034     ui_main.obj
 0002:00003040       ??_C@_08KPHJOPPN@server13?$AA@ 40085040     ui_main.obj
 0002:0000304c       ??_C@_08OADIHJDK@server14?$AA@ 4008504c     ui_main.obj
 0002:00003058       ??_C@_08PJCDEIHL@server15?$AA@ 40085058     ui_main.obj
 0002:00003064       ??_C@_08NCAOBLLI@server16?$AA@ 40085064     ui_main.obj
 0002:00003070       ??_C@_0M@PLGKGDEK@missionpack?$AA@ 40085070     ui_menu.obj
 0002:0000307c       ??_C@_07FMAMAFJE@fs_game?$AA@ 4008507c     ui_menu.obj
 0002:00003084       ??_C@_0N@PGDAKNHB@vid_restart?$DL?$AA@ 40085084     ui_menu.obj
 0002:00003094       ??_C@_0CF@OBMAIKJP@models?1mapobjects?1banner?1banner5@ 40085094     ui_menu.obj
 0002:000030bc       ??_C@_0BB@GDGLAKGE@com_errorMessage?$AA@ 400850bc     ui_menu.obj
 0002:000030d0       ??_C@_0CJ@NOMALNHL@DEMO?5?5?5?5?5?5FOR?5MATURE?5AUDIENCES?5?5@ 400850d0     ui_menu.obj
 0002:000030fc       ??_C@_08GEJGLEOK@$modlist?$AA@ 400850fc     ui_menu.obj
 0002:00003108       ??_C@_0O@JEEKIFAP@sv_killserver?$AA@ 40085108     ui_menu.obj
 0002:00003118       ??_C@_0O@PGOHDKAD@SINGLE?5PLAYER?$AA@ 40085118     ui_menu.obj
 0002:00003128       ??_C@_0M@MIOALCPG@MULTIPLAYER?$AA@ 40085128     ui_menu.obj
 0002:00003134       ??_C@_0L@CJDLOGFG@TEAM?5ARENA?$AA@ 40085134     ui_menu.obj
 0002:00003140       ??_C@_04LMMMPHPK@MODS?$AA@ 40085140     ui_menu.obj
 0002:00003148       ??_C@_04GOLNGIJ@EXIT?$AA@  40085148     ui_menu.obj
 0002:00003150       __real@4014000000000000    40085150     ui_menu.obj
 0002:00003158       __real@4033b00000000000    40085158     ui_menu.obj
 0002:00003160       __real@42700000            40085160     ui_menu.obj
 0002:00003164       __real@42f00000            40085164     ui_menu.obj
 0002:00003168       __real@43960000            40085168     ui_menu.obj
 0002:0000316c       __real@459c4000            4008516c     ui_menu.obj
 0002:00003170       __real@c2000000            40085170     ui_menu.obj
 0002:00003174       ??_C@_0BM@MHAABCMH@drawLen?5?$DO?$DN?5MAX_STRING_CHARS?$AA@ 40085174     ui_mfield.obj
 0002:00003190       ??_C@_0BA@BCJLLOOC@Quake?5III?5Arena?$AA@ 40085190     ui_mods.obj
 0002:000031a0       ??_C@_0BA@CLFBEEBN@?$CFi?5mods?5parsed?6?$AA@ 400851a0     ui_mods.obj
 0002:000031b0       ??_C@_0BA@CLDFNFBM@menu?1art?1load_0?$AA@ 400851b0     ui_mods.obj
 0002:000031c0       ??_C@_0BA@DCCOOEFN@menu?1art?1load_1?$AA@ 400851c0     ui_mods.obj
 0002:000031d0       ??_C@_08KBHNAIKN@?$DM?$DN?528?48K?$AA@ 400851d0     ui_network.obj
 0002:000031dc       ??_C@_05FJNEDOOI@33?46K?$AA@ 400851dc     ui_network.obj
 0002:000031e4       ??_C@_03CKCFCHJM@56K?$AA@  400851e4     ui_network.obj
 0002:000031e8       ??_C@_04KMOPNFAB@ISDN?$AA@ 400851e8     ui_network.obj
 0002:000031f0       ??_C@_0P@BCJCMNMH@LAN?1Cable?1xDSL?$AA@ 400851f0     ui_network.obj
 0002:00003200       ??_C@_04HCCHHEEF@rate?$AA@ 40085200     ui_network.obj
 0002:00003208       ??_C@_0L@NIIDFHCI@Data?5Rate?3?$AA@ 40085208     ui_network.obj
 0002:00003214       __real@451c4000            40085214     ui_network.obj
 0002:00003218       __real@453b8000            40085218     ui_network.obj
 0002:0000321c       __real@457a0000            4008521c     ui_network.obj
 0002:00003220       __real@46c35000            40085220     ui_network.obj
 0002:00003224       ??_C@_0BK@PIDNLHLM@menu?1art?1opponents_select?$AA@ 40085224     ui_playermodel.obj
 0002:00003240       ??_C@_0BM@FCPIJIMO@menu?1art?1opponents_selected?$AA@ 40085240     ui_playermodel.obj
 0002:0000325c       ??_C@_0BC@LINECFPL@menu?1art?1frame1_l?$AA@ 4008525c     ui_playermodel.obj
 0002:00003270       ??_C@_0BN@IIHBFDFN@menu?1art?1player_models_ports?$AA@ 40085270     ui_playermodel.obj
 0002:00003290       ??_C@_0BF@MLACCOHH@menu?1art?1gs_arrows_0?$AA@ 40085290     ui_playermodel.obj
 0002:000032a8       ??_C@_0BF@NNAMDMCP@menu?1art?1gs_arrows_l?$AA@ 400852a8     ui_playermodel.obj
 0002:000032c0       ??_C@_0BF@JENADPA@menu?1art?1gs_arrows_r?$AA@ 400852c0     ui_playermodel.obj
 0002:000032d8       ??_C@_09DHBBGOBJ@headmodel?$AA@ 400852d8     ui_playermodel.obj
 0002:000032e4       ??_C@_0L@KEDOKIKJ@team_model?$AA@ 400852e4     ui_playermodel.obj
 0002:000032f0       ??_C@_0P@JMIBMNM@team_headmodel?$AA@ 400852f0     ui_playermodel.obj
 0002:00003300       ??_C@_0BA@OFNOMKGE@models?1players?1?$AA@ 40085300     ui_playermodel.obj
 0002:00003310       ??_C@_05KDHLENLH@icon_?$AA@ 40085310     ui_playermodel.obj
 0002:00003318       ??_C@_0L@NFMCJAMJ@LOW?5MEMORY?$AA@ 40085318     ui_playermodel.obj
 0002:00003324       ??_C@_0BA@BMAIBDM@com_buildscript?$AA@ 40085324     ui_playermodel.obj
 0002:00003334       ??_C@_0P@KAKFFEJE@models?1players?$AA@ 40085334     ui_playermodel.obj
 0002:00003344       ??_C@_01LFCBOECM@?4?$AA@   40085344     ui_playermodel.obj
 0002:00003348       ??_C@_02DJGKEECL@?4?4?$AA@ 40085348     ui_playermodel.obj
 0002:0000334c       ??_C@_03LJIJAGL@tga?$AA@   4008534c     ui_playermodel.obj
 0002:00003350       ??_C@_0BC@EALEMOON@models?1players?1?$CFs?$AA@ 40085350     ui_playermodel.obj
 0002:00003364       ??_C@_0BF@PKIKNPLA@models?1players?1?$CFs?1?$CFs?$AA@ 40085364     ui_playermodel.obj
 0002:0000337c       ??_C@_0CC@LFEJONN@sound?1player?1announce?1?$CFs_wins?4wa@ 4008537c     ui_playermodel.obj
 0002:000033a0       ??_C@_0N@IFJKMCNN@PLAYER?5MODEL?$AA@ 400853a0     ui_playermodel.obj
 0002:000033b0       ??_C@_0M@GGMINFPA@_barrel?4md3?$AA@ 400853b0     ui_players.obj
 0002:000033bc       ??_C@_0L@DAPODOKF@_flash?4md3?$AA@ 400853bc     ui_players.obj
 0002:000033c8       ??_C@_0BJ@OHDPKGG@Bad?5animation?5number?3?5?$CFi?$AA@ 400853c8     ui_players.obj
 0002:000033e4       ??_C@_09FJEJHBEN@tag_torso?$AA@ 400853e4     ui_players.obj
 0002:000033f0       ??_C@_08PGAPCFON@tag_head?$AA@ 400853f0     ui_players.obj
 0002:000033fc       ??_C@_0L@FGMMEJDC@tag_weapon?$AA@ 400853fc     ui_players.obj
 0002:00003408       ??_C@_0L@EKFDHKMA@tag_barrel?$AA@ 40085408     ui_players.obj
 0002:00003414       ??_C@_09FNBKMGLL@tag_flash?$AA@ 40085414     ui_players.obj
 0002:00003420       ??_C@_0BB@NCNCDGDJ@sprites?1balloon3?$AA@ 40085420     ui_players.obj
 0002:00003434       ??_C@_0CA@DMIICINO@models?1players?1?$CFs?1lower_?$CFs?4skin?$AA@ 40085434     ui_players.obj
 0002:00003454       ??_C@_0CA@BDIDHBJC@models?1players?1?$CFs?1upper_?$CFs?4skin?$AA@ 40085454     ui_players.obj
 0002:00003474       ??_C@_0BP@FBJLNJB@models?1players?1?$CFs?1head_?$CFs?4skin?$AA@ 40085474     ui_players.obj
 0002:00003494       ??_C@_0BC@NFDFKMPA@File?5?$CFs?5too?5long?6?$AA@ 40085494     ui_players.obj
 0002:000034a8       ??_C@_09IPEFJHNA@footsteps?$AA@ 400854a8     ui_players.obj
 0002:000034b4       ??_C@_0L@JPPMCFBB@headoffset?$AA@ 400854b4     ui_players.obj
 0002:000034c0       ??_C@_03OMLNFKE@sex?$AA@   400854c0     ui_players.obj
 0002:000034c4       ??_C@_0BK@CGODILEM@unknown?5token?5?8?$CFs?8?5is?5?$CFs?6?$AA@ 400854c4     ui_players.obj
 0002:000034e0       ??_C@_0CB@CMKGLJDL@Error?5parsing?5animation?5file?3?5?$CFs@ 400854e0     ui_players.obj
 0002:00003504       ??_C@_07DLHCIBDH@default?$AA@ 40085504     ui_players.obj
 0002:0000350c       ??_C@_0BM@MMDCMNND@models?1players?1?$CFs?1lower?4md3?$AA@ 4008550c     ui_players.obj
 0002:00003528       ??_C@_0BO@KKNKOPB@Failed?5to?5load?5model?5file?5?$CFs?6?$AA@ 40085528     ui_players.obj
 0002:00003548       ??_C@_0BM@GODFODEI@models?1players?1?$CFs?1upper?4md3?$AA@ 40085548     ui_players.obj
 0002:00003564       ??_C@_0BL@MHNDFDC@models?1players?1?$CFs?1head?4md3?$AA@ 40085564     ui_players.obj
 0002:00003580       ??_C@_0CD@MNIIJFIK@Failed?5to?5load?5skin?5file?3?5?$CFs?5?3?5?$CF@ 40085580     ui_players.obj
 0002:000035a4       ??_C@_0CA@MLIOIMKH@models?1players?1?$CFs?1animation?4cfg?$AA@ 400855a4     ui_players.obj
 0002:000035c4       ??_C@_0CC@BDJGDBLP@Failed?5to?5load?5animation?5file?5?$CFs@ 400855c4     ui_players.obj
 0002:000035e8       __real@3dcccccd            400855e8     ui_players.obj
 0002:000035ec       __real@3e99999a            400855ec     ui_players.obj
 0002:000035f0       __real@3f19999a            400855f0     ui_players.obj
 0002:000035f4       __real@3f333333            400855f4     ui_players.obj
 0002:000035f8       __real@3f666666            400855f8     ui_players.obj
 0002:00003600       __real@3f847ae147ae147b    40085600     ui_players.obj
 0002:00003608       __real@3fd0000000000000    40085608     ui_players.obj
 0002:00003610       __real@3fe8000000000000    40085610     ui_players.obj
 0002:00003618       __real@404c000000000000    40085618     ui_players.obj
 0002:00003620       __real@41700000            40085620     ui_players.obj
 0002:00003624       __real@41b00000            40085624     ui_players.obj
 0002:00003628       __real@41c80000            40085628     ui_players.obj
 0002:0000362c       __real@42200000            4008562c     ui_players.obj
 0002:00003630       __real@42400000            40085630     ui_players.obj
 0002:00003634       __real@42c80000            40085634     ui_players.obj
 0002:00003638       __real@42e52ee0            40085638     ui_players.obj
 0002:0000363c       __real@43fa0000            4008563c     ui_players.obj
 0002:00003640       __real@447a0000            40085640     ui_players.obj
 0002:00003648       __real@bfe0000000000000    40085648     ui_players.obj
 0002:00003650       __real@c1800000            40085650     ui_players.obj
 0002:00003654       __real@c1b00000            40085654     ui_players.obj
 0002:00003658       __real@c1c00000            40085658     ui_players.obj
 0002:0000365c       __real@c3b40000            4008565c     ui_players.obj
 0002:00003660       ??_C@_04OHJIHAFH@None?$AA@ 40085660     ui_playersettings.obj
 0002:00003668       ??_C@_02IJDFDKEE@95?$AA@   40085668     ui_playersettings.obj
 0002:0000366c       ??_C@_02PEECMOAB@90?$AA@   4008566c     ui_playersettings.obj
 0002:00003670       ??_C@_02IIPHFAHD@85?$AA@   40085670     ui_playersettings.obj
 0002:00003674       ??_C@_02PFIAKEDG@80?$AA@   40085674     ui_playersettings.obj
 0002:00003678       ??_C@_02IDKLBHEO@75?$AA@   40085678     ui_playersettings.obj
 0002:0000367c       ??_C@_02PONMODAL@70?$AA@   4008567c     ui_playersettings.obj
 0002:00003680       ??_C@_02ICGJHNHJ@65?$AA@   40085680     ui_playersettings.obj
 0002:00003684       ??_C@_02PPBOIJDM@60?$AA@   40085684     ui_playersettings.obj
 0002:00003688       ??_C@_02IACPMDCA@55?$AA@   40085688     ui_playersettings.obj
 0002:0000368c       ??_C@_02PNFIDHGF@50?$AA@   4008568c     ui_playersettings.obj
 0002:00003690       ??_C@_02IBONKJBH@45?$AA@   40085690     ui_playersettings.obj
 0002:00003694       ??_C@_02PMJKFNFC@40?$AA@   40085694     ui_playersettings.obj
 0002:00003698       ??_C@_02IEKCLPJC@35?$AA@   40085698     ui_playersettings.obj
 0002:0000369c       ??_C@_02IFGANFKF@25?$AA@   4008569c     ui_playersettings.obj
 0002:000036a0       ??_C@_02PKFBJPLJ@10?$AA@   400856a0     ui_playersettings.obj
 0002:000036a4       ??_C@_01BMBHCPLG@5?$AA@    400856a4     ui_playersettings.obj
 0002:000036a8       ??_C@_04FABLJDN@Name?$AA@  400856a8     ui_playersettings.obj
 0002:000036b0       ??_C@_08PDIKAFKP@Handicap?$AA@ 400856b0     ui_playersettings.obj
 0002:000036bc       ??_C@_07OCMADDOO@Effects?$AA@ 400856bc     ui_playersettings.obj
 0002:000036c4       ??_C@_08HBHLIHAM@handicap?$AA@ 400856c4     ui_playersettings.obj
 0002:000036d0       ??_C@_06IPMAANOD@color1?$AA@ 400856d0     ui_playersettings.obj
 0002:000036d8       ??_C@_0BA@GBLJJEAH@PLAYER?5SETTINGS?$AA@ 400856d8     ui_playersettings.obj
 0002:000036e8       ??_C@_0BB@MLHODMKG@menu?1art?1model_0?$AA@ 400856e8     ui_playersettings.obj
 0002:000036fc       ??_C@_0BB@NCGFANOH@menu?1art?1model_1?$AA@ 400856fc     ui_playersettings.obj
 0002:00003710       ??_C@_0BB@OMABGHIG@menu?1art?1fx_base?$AA@ 40085710     ui_playersettings.obj
 0002:00003724       ??_C@_0BA@NNOEOMD@menu?1art?1fx_red?$AA@ 40085724     ui_playersettings.obj
 0002:00003734       ??_C@_0BA@BCAGEDMK@menu?1art?1fx_yel?$AA@ 40085734     ui_playersettings.obj
 0002:00003744       ??_C@_0BA@IJJPLEBB@menu?1art?1fx_grn?$AA@ 40085744     ui_playersettings.obj
 0002:00003754       ??_C@_0BB@ECKDFOKE@menu?1art?1fx_teal?$AA@ 40085754     ui_playersettings.obj
 0002:00003768       ??_C@_0BB@BKOGMDOJ@menu?1art?1fx_blue?$AA@ 40085768     ui_playersettings.obj
 0002:0000377c       ??_C@_0BB@LIJKJPJD@menu?1art?1fx_cyan?$AA@ 4008577c     ui_playersettings.obj
 0002:00003790       ??_C@_0BC@GAPGDHHF@menu?1art?1fx_white?$AA@ 40085790     ui_playersettings.obj
 0002:000037a4       __real@41400000            400857a4     ui_playersettings.obj
 0002:000037a8       __real@43000000            400857a8     ui_playersettings.obj
 0002:000037ac       ??_C@_03MCADLMAF@off?$AA@  400857ac     ui_preferences.obj
 0002:000037b0       ??_C@_0M@HODKCDKD@upper?5right?$AA@ 400857b0     ui_preferences.obj
 0002:000037bc       ??_C@_0M@DAFJNPLK@lower?5right?$AA@ 400857bc     ui_preferences.obj
 0002:000037c8       ??_C@_0L@MJPLEHPL@lower?5left?$AA@ 400857c8     ui_preferences.obj
 0002:000037d4       ??_C@_0P@CCFIBNOJ@cg_simpleItems?$AA@ 400857d4     ui_preferences.obj
 0002:000037e4       ??_C@_0P@CEODIJEF@r_dynamiclight?$AA@ 400857e4     ui_preferences.obj
 0002:000037f4       ??_C@_09DKHGHCIK@r_fastsky?$AA@ 400857f4     ui_preferences.obj
 0002:00003800       ??_C@_08BHIHIACG@r_finish?$AA@ 40085800     ui_preferences.obj
 0002:0000380c       ??_C@_0O@LOLNKIFC@cg_forcemodel?$AA@ 4008580c     ui_preferences.obj
 0002:0000381c       ??_C@_0BD@BNGDPIGC@cg_drawTeamOverlay?$AA@ 4008581c     ui_preferences.obj
 0002:00003830       ??_C@_0BB@MLOALJHK@cl_allowDownload?$AA@ 40085830     ui_preferences.obj
 0002:00003844       ??_C@_0BB@MOCFKELF@sv_allowDownload?$AA@ 40085844     ui_preferences.obj
 0002:00003858       ??_C@_0N@EFHMGAKH@GAME?5OPTIONS?$AA@ 40085858     ui_preferences.obj
 0002:00003868       ??_C@_0L@CBOMHPOM@Crosshair?3?$AA@ 40085868     ui_preferences.obj
 0002:00003874       ??_C@_0O@DKGOGFHA@Simple?5Items?3?$AA@ 40085874     ui_preferences.obj
 0002:00003884       ??_C@_0BA@MOALOGBI@Marks?5on?5Walls?3?$AA@ 40085884     ui_preferences.obj
 0002:00003894       ??_C@_0BA@OACCMJMM@Ejecting?5Brass?3?$AA@ 40085894     ui_preferences.obj
 0002:000038a4       ??_C@_0BA@GDKPAAKM@Dynamic?5Lights?3?$AA@ 400858a4     ui_preferences.obj
 0002:000038b4       ??_C@_0BB@MFOJJLJF@Identify?5Target?3?$AA@ 400858b4     ui_preferences.obj
 0002:000038c8       ??_C@_0BC@NKOPHMLB@High?5Quality?5Sky?3?$AA@ 400858c8     ui_preferences.obj
 0002:000038dc       ??_C@_0BC@BOKMJDNL@Sync?5Every?5Frame?3?$AA@ 400858dc     ui_preferences.obj
 0002:000038f0       ??_C@_0BF@GCDJDBAL@Force?5Player?5Models?3?$AA@ 400858f0     ui_preferences.obj
 0002:00003908       ??_C@_0BD@MACAIKI@Draw?5Team?5Overlay?3?$AA@ 40085908     ui_preferences.obj
 0002:0000391c       ??_C@_0BH@PGGOLEBA@Automatic?5Downloading?3?$AA@ 4008591c     ui_preferences.obj
 0002:00003934       ??_C@_0BD@PPPBDMEH@gfx?12d?1crosshair?$CFc?$AA@ 40085934     ui_preferences.obj
 0002:00003948       __real@41c00000            40085948     ui_preferences.obj
 0002:0000394c       ??_C@_02LIELOMNJ@on?$AA@   4008594c     ui_qmenu.obj
 0002:00003950       ??_C@_0BO@FHPPBPOM@Menu_AddItem?3?5excessive?5items?$AA@ 40085950     ui_qmenu.obj
 0002:00003970       ??_C@_0BL@MJGFCHJK@Menu_Init?3?5unknown?5type?5?$CFd?$AA@ 40085970     ui_qmenu.obj
 0002:0000398c       ??_C@_0BL@HJMNLJGA@Menu_Draw?3?5unknown?5type?5?$CFd?$AA@ 4008598c     ui_qmenu.obj
 0002:000039a8       ??_C@_0M@FHKEBODE@screenshot?6?$AA@ 400859a8     ui_qmenu.obj
 0002:000039b4       ??_C@_0BA@FILGFBEK@gfx?12d?1bigchars?$AA@ 400859b4     ui_qmenu.obj
 0002:000039c4       ??_C@_0BI@JNLIGCIJ@menu?1art?1font1_prop?4tga?$AA@ 400859c4     ui_qmenu.obj
 0002:000039dc       ??_C@_0BM@PPJDNIIP@menu?1art?1font1_prop_glo?4tga?$AA@ 400859dc     ui_qmenu.obj
 0002:000039f8       ??_C@_0BI@EFKAEII@menu?1art?1font2_prop?4tga?$AA@ 400859f8     ui_qmenu.obj
 0002:00003a10       ??_C@_0BD@CHEDBJDN@menu?1art?13_cursor2?$AA@ 40085a10     ui_qmenu.obj
 0002:00003a24       ??_C@_0BD@JKAGIECN@menu?1art?1switch_on?$AA@ 40085a24     ui_qmenu.obj
 0002:00003a38       ??_C@_0BE@HIPBMHGI@menu?1art?1switch_off?$AA@ 40085a38     ui_qmenu.obj
 0002:00003a4c       ??_C@_05PMAELIEO@white?$AA@ 40085a4c     ui_qmenu.obj
 0002:00003a54       ??_C@_0BA@DECDOIG@menubackRagePro?$AA@ 40085a54     ui_qmenu.obj
 0002:00003a64       ??_C@_08EHPLOJ@menuback?$AA@ 40085a64     ui_qmenu.obj
 0002:00003a70       ??_C@_0P@LKDNBGGB@menubacknologo?$AA@ 40085a70     ui_qmenu.obj
 0002:00003a80       ??_C@_0BF@HAJHOOJJ@sound?1misc?1menu1?4wav?$AA@ 40085a80     ui_qmenu.obj
 0002:00003a98       ??_C@_0BF@PGADJMDH@sound?1misc?1menu2?4wav?$AA@ 40085a98     ui_qmenu.obj
 0002:00003ab0       ??_C@_0BF@DNFPEPJC@sound?1misc?1menu3?4wav?$AA@ 40085ab0     ui_qmenu.obj
 0002:00003ac8       ??_C@_0BF@CAFKHPCK@sound?1misc?1menu4?4wav?$AA@ 40085ac8     ui_qmenu.obj
 0002:00003ae0       ??_C@_0BJ@EFMFEOAN@sound?1weapons?1change?4wav?$AA@ 40085ae0     ui_qmenu.obj
 0002:00003afc       ??_C@_0BB@GNPCMHPH@menu?1art?1slider2?$AA@ 40085afc     ui_qmenu.obj
 0002:00003b10       ??_C@_0BG@FPAOLDNJ@menu?1art?1sliderbutt_0?$AA@ 40085b10     ui_qmenu.obj
 0002:00003b28       ??_C@_0BG@EGBFICJI@menu?1art?1sliderbutt_1?$AA@ 40085b28     ui_qmenu.obj
 0002:00003b40       __real@41900000            40085b40     ui_qmenu.obj
 0002:00003b44       __real@42900000            40085b44     ui_qmenu.obj
 0002:00003b48       __real@42a00000            40085b48     ui_qmenu.obj
 0002:00003b4c       __real@42c00000            40085b4c     ui_qmenu.obj
 0002:00003b50       ??_C@_01EFFIKLCJ@n?$AA@    40085b50     ui_removebots.obj
 0002:00003b54       ??_C@_0P@DLOLPLNB@clientkick?5?$CFi?6?$AA@ 40085b54     ui_removebots.obj
 0002:00003b64       ??_C@_0O@OCOCOONB@sv_maxclients?$AA@ 40085b64     ui_removebots.obj
 0002:00003b74       ??_C@_05ODMCMJAJ@skill?$AA@ 40085b74     ui_removebots.obj
 0002:00003b7c       ??_C@_0BC@GCDJOCHN@menu?1art?1delete_0?$AA@ 40085b7c     ui_removebots.obj
 0002:00003b90       ??_C@_0BC@HLCCNDDM@menu?1art?1delete_1?$AA@ 40085b90     ui_removebots.obj
 0002:00003ba4       ??_C@_0BI@OBPNNDLP@cl_currentServerAddress?$AA@ 40085ba4     ui_serverinfo.obj
 0002:00003bbc       ??_C@_08EBKMCPMC@server?$CFd?$AA@ 40085bbc     ui_serverinfo.obj
 0002:00003bc8       ??_C@_01JLIPDDHJ@?3?$AA@   40085bc8     ui_serverinfo.obj
 0002:00003bcc       ??_C@_0BB@FKEOFDAA@ADD?5TO?5FAVORITES?$AA@ 40085bcc     ui_serverinfo.obj
 0002:00003be0       ??_C@_05IEALKJIG@Local?$AA@ 40085be0     ui_servers2.obj
 0002:00003be8       ??_C@_08LDBMAAPD@Internet?$AA@ 40085be8     ui_servers2.obj
 0002:00003bf4       ??_C@_09KPJDHMFB@Favorites?$AA@ 40085bf4     ui_servers2.obj
 0002:00003c00       ??_C@_03HFJGAJFE@All?$AA@  40085c00     ui_servers2.obj
 0002:00003c04       ??_C@_0N@PCEMCJC@Free?5For?5All?$AA@ 40085c04     ui_servers2.obj
 0002:00003c14       ??_C@_0BA@KHHNIIJE@Team?5Deathmatch?$AA@ 40085c14     ui_servers2.obj
 0002:00003c24       ??_C@_0L@FENDKKGN@Tournament?$AA@ 40085c24     ui_servers2.obj
 0002:00003c30       ??_C@_0BB@OOIHNFAG@Capture?5the?5Flag?$AA@ 40085c30     ui_servers2.obj
 0002:00003c44       ??_C@_0M@EHMFLPNI@Server?5Name?$AA@ 40085c44     ui_servers2.obj
 0002:00003c50       ??_C@_08PNHCMLOG@Map?5Name?$AA@ 40085c50     ui_servers2.obj
 0002:00003c5c       ??_C@_0BC@FOBMFCKE@Open?5Player?5Spots?$AA@ 40085c5c     ui_servers2.obj
 0002:00003c70       ??_C@_09CJBILMAG@Game?5Type?$AA@ 40085c70     ui_servers2.obj
 0002:00003c7c       ??_C@_09KEFPFPJ@Ping?5Time?$AA@ 40085c7c     ui_servers2.obj
 0002:00003c88       ??_C@_03CHALNFLI@DM?5?$AA@ 40085c88     ui_servers2.obj
 0002:00003c8c       ??_C@_03NKMHH@1v1?$AA@     40085c8c     ui_servers2.obj
 0002:00003c90       ??_C@_03PODLIKLN@SP?5?$AA@ 40085c90     ui_servers2.obj
 0002:00003c94       ??_C@_07KCEDGKIB@Team?5DM?$AA@ 40085c94     ui_servers2.obj
 0002:00003c9c       ??_C@_03JKIMLJNP@CTF?$AA@  40085c9c     ui_servers2.obj
 0002:00003ca0       ??_C@_0N@FCMBHKKN@One?5Flag?5CTF?$AA@ 40085ca0     ui_servers2.obj
 0002:00003cb0       ??_C@_08FLEECNLB@OverLoad?$AA@ 40085cb0     ui_servers2.obj
 0002:00003cbc       ??_C@_09OKMOBHEE@Harvester?$AA@ 40085cbc     ui_servers2.obj
 0002:00003cc8       ??_C@_0P@MNBEJGML@Rocket?5Arena?53?$AA@ 40085cc8     ui_servers2.obj
 0002:00003cd8       ??_C@_03CNAEPLGO@Q3F?$AA@  40085cd8     ui_servers2.obj
 0002:00003cdc       ??_C@_0N@OEBAEFDP@Urban?5Terror?$AA@ 40085cdc     ui_servers2.obj
 0002:00003cec       ??_C@_03MJINKFDF@OSP?$AA@  40085cec     ui_servers2.obj
 0002:00003cf0       ??_C@_03OPEAKHDL@UDP?$AA@  40085cf0     ui_servers2.obj
 0002:00003cf4       ??_C@_03CGHJMOLI@IPX?$AA@  40085cf4     ui_servers2.obj
 0002:00003cf8       ??_C@_08JGILNPHN@Disabled?$AA@ 40085cf8     ui_servers2.obj
 0002:00003d04       ??_C@_07DOAOMMKG@Enabled?$AA@ 40085d04     ui_servers2.obj
 0002:00003d0c       ??_C@_0BD@BCNNKGIG@PunkBuster?5will?5be?$AA@ 40085d0c     ui_servers2.obj
 0002:00003d20       ??_C@_0BH@EDJBNFAE@disabled?5the?5next?5time?$AA@ 40085d20     ui_servers2.obj
 0002:00003d38       ??_C@_0M@NHCAPICE@is?5started?4?$AA@ 40085d38     ui_servers2.obj
 0002:00003d44       ??_C@_0L@KMOIMFOM@cl_maxPing?$AA@ 40085d44     ui_servers2.obj
 0002:00003d50       ??_C@_0M@LNGHCJI@connect?5?$CFs?6?$AA@ 40085d50     ui_servers2.obj
 0002:00003d5c       ??_C@_0BC@PIIMIPAI@levelshots?1?$CFs?4tga?$AA@ 40085d5c     ui_servers2.obj
 0002:00003d70       ??_C@_0BI@FGDMACG@?$CFd?5of?5?$CFd?5Arena?5Servers?4?$AA@ 40085d70     ui_servers2.obj
 0002:00003d88       ??_C@_0BE@ELCHCANN@Press?5SPACE?5to?5stop?$AA@ 40085d88     ui_servers2.obj
 0002:00003d9c       ??_C@_0BG@FHCOIBLF@Scanning?5For?5Servers?4?$AA@ 40085d9c     ui_servers2.obj
 0002:00003db4       ??_C@_0CA@KEFJHFKE@No?5Response?5From?5Master?5Server?4?$AA@ 40085db4     ui_servers2.obj
 0002:00003dd4       ??_C@_0BC@IMFFEFCD@No?5Servers?5Found?4?$AA@ 40085dd4     ui_servers2.obj
 0002:00003de8       ??_C@_02NNLGNGKA@?$FO4?$AA@ 40085de8     ui_servers2.obj
 0002:00003dec       ??_C@_02ILOMHBCG@?$FO2?$AA@ 40085dec     ui_servers2.obj
 0002:00003df0       ??_C@_02JCPHEAGH@?$FO3?$AA@ 40085df0     ui_servers2.obj
 0002:00003df4       ??_C@_02KAMBCCOF@?$FO1?$AA@ 40085df4     ui_servers2.obj
 0002:00003df8       ??_C@_03CCLAEDDF@Yes?$AA@  40085df8     ui_servers2.obj
 0002:00003dfc       ??_C@_02JINPPBEP@No?$AA@   40085dfc     ui_servers2.obj
 0002:00003e00       ??_C@_0DA@DMLJFNAJ@?$CF?920?420s?5?$CF?912?412s?5?$CF2d?1?$CF2d?5?$CF?98?48s@ 40085e00     ui_servers2.obj
 0002:00003e30       ??_C@_08EHKIGBEA@hostname?$AA@ 40085e30     ui_servers2.obj
 0002:00003e3c       ??_C@_07HKJFGNHJ@clients?$AA@ 40085e3c     ui_servers2.obj
 0002:00003e44       ??_C@_07OLCLJOOI@minPing?$AA@ 40085e44     ui_servers2.obj
 0002:00003e4c       ??_C@_07NELDBAJ@maxPing?$AA@ 40085e4c     ui_servers2.obj
 0002:00003e54       ??_C@_0L@CNOGMKDC@punkbuster?$AA@ 40085e54     ui_servers2.obj
 0002:00003e60       ??_C@_07EAJPOACB@nettype?$AA@ 40085e60     ui_servers2.obj
 0002:00003e68       ??_C@_04MJNAPEEI@game?$AA@ 40085e68     ui_servers2.obj
 0002:00003e70       ??_C@_08NJPDEKHO@gametype?$AA@ 40085e70     ui_servers2.obj
 0002:00003e7c       ??_C@_0M@ENKCBFEP@No?5Response?$AA@ 40085e7c     ui_servers2.obj
 0002:00003e88       ??_C@_08BCPMNFMF@ping?5?$CFs?6?$AA@ 40085e88     ui_servers2.obj
 0002:00003e94       ??_C@_0O@GPLHFEBB@localservers?6?$AA@ 40085e94     ui_servers2.obj
 0002:00003ea4       ??_C@_04NGONGCEN@?5ffa?$AA@ 40085ea4     ui_servers2.obj
 0002:00003eac       ??_C@_05NAHNKOKJ@?5team?$AA@ 40085eac     ui_servers2.obj
 0002:00003eb4       ??_C@_08HNAGKOAN@?5tourney?$AA@ 40085eb4     ui_servers2.obj
 0002:00003ec0       ??_C@_04LBNAHDKG@?5ctf?$AA@ 40085ec0     ui_servers2.obj
 0002:00003ec8       ??_C@_06FCIPJGKH@?5empty?$AA@ 40085ec8     ui_servers2.obj
 0002:00003ed0       ??_C@_05ILIHJPMG@?5full?$AA@ 40085ed0     ui_servers2.obj
 0002:00003ed8       ??_C@_0P@EAAPMMHH@debug_protocol?$AA@ 40085ed8     ui_servers2.obj
 0002:00003ee8       ??_C@_0BH@GMPMLAJJ@globalservers?5?$CFd?5?$CFs?$CFs?6?$AA@ 40085ee8     ui_servers2.obj
 0002:00003f00       ??_C@_0BH@LODMPLAL@globalservers?5?$CFd?5?$CFd?$CFs?6?$AA@ 40085f00     ui_servers2.obj
 0002:00003f18       ??_C@_0BG@GOLHLHJO@hit?5refresh?5to?5update?$AA@ 40085f18     ui_servers2.obj
 0002:00003f30       ??_C@_0O@LNMAAODD@cl_punkbuster?$AA@ 40085f30     ui_servers2.obj
 0002:00003f40       ??_C@_0BD@FCMFIANK@Enable?5Punkbuster?$DP?$AA@ 40085f40     ui_servers2.obj
 0002:00003f54       ??_C@_0BE@OHEIGMPH@Disable?5Punkbuster?$DP?$AA@ 40085f54     ui_servers2.obj
 0002:00003f68       ??_C@_0O@CNLIGPJL@ARENA?5SERVERS?$AA@ 40085f68     ui_servers2.obj
 0002:00003f78       ??_C@_08IPFEIPLJ@Servers?3?$AA@ 40085f78     ui_servers2.obj
 0002:00003f84       ??_C@_0L@MMODGDPA@Game?5Type?3?$AA@ 40085f84     ui_servers2.obj
 0002:00003f90       ??_C@_08DOPDJIDE@Sort?5By?3?$AA@ 40085f90     ui_servers2.obj
 0002:00003f9c       ??_C@_0L@KAEBHMJK@Show?5Full?3?$AA@ 40085f9c     ui_servers2.obj
 0002:00003fa8       ??_C@_0M@KJNPEJFO@Show?5Empty?3?$AA@ 40085fa8     ui_servers2.obj
 0002:00003fb4       ??_C@_0BE@JCMNICLJ@menu?1art?1unknownmap?$AA@ 40085fb4     ui_servers2.obj
 0002:00003fc8       ??_C@_0BD@JABAKGEE@menu?1art?1specify_0?$AA@ 40085fc8     ui_servers2.obj
 0002:00003fdc       ??_C@_0BD@IJALJHAF@menu?1art?1specify_1?$AA@ 40085fdc     ui_servers2.obj
 0002:00003ff0       ??_C@_0BD@OBMELCKO@menu?1art?1refresh_0?$AA@ 40085ff0     ui_servers2.obj
 0002:00004004       ??_C@_0BD@PINPIDOP@menu?1art?1refresh_1?$AA@ 40086004     ui_servers2.obj
 0002:00004018       ??_C@_0BC@HOCPLAED@menu?1art?1create_0?$AA@ 40086018     ui_servers2.obj
 0002:0000402c       ??_C@_0BC@GHDEIBAC@menu?1art?1create_1?$AA@ 4008602c     ui_servers2.obj
 0002:00004040       ??_C@_0BB@BOGNNMKF@menu?1art?1fight_0?$AA@ 40086040     ui_servers2.obj
 0002:00004054       ??_C@_0BB@HHGONOE@menu?1art?1fight_1?$AA@ 40086054     ui_servers2.obj
 0002:00004068       ??_C@_0M@PFGCLCML@Punkbuster?3?$AA@ 40086068     ui_servers2.obj
 0002:00004074       ??_C@_0BA@PBPIGHL@menu?1art?1pblogo?$AA@ 40086074     ui_servers2.obj
 0002:00004084       ??_C@_0BC@FDOILEKD@exec?5default?4cfg?6?$AA@ 40086084     ui_setup.obj
 0002:00004098       ??_C@_0O@FOFBEHAC@cvar_restart?6?$AA@ 40086098     ui_setup.obj
 0002:000040a8       ??_C@_0N@DAGNKKMD@vid_restart?6?$AA@ 400860a8     ui_setup.obj
 0002:000040b8       ??_C@_0BP@OOHJMCGH@WARNING?3?5This?5will?5reset?5?$CKALL?$CK?$AA@ 400860b8     ui_setup.obj
 0002:000040d8       ??_C@_0CB@LKAFLEDA@options?5to?5their?5default?5values?4@ 400860d8     ui_setup.obj
 0002:000040fc       ??_C@_06BEJGECAN@PLAYER?$AA@ 400860fc     ui_setup.obj
 0002:00004104       ??_C@_06FDHFNJBJ@SYSTEM?$AA@ 40086104     ui_setup.obj
 0002:0000410c       ??_C@_06LOIMDMFD@CD?5Key?$AA@ 4008610c     ui_setup.obj
 0002:00004114       ??_C@_08MDDIMDJM@DEFAULTS?$AA@ 40086114     ui_setup.obj
 0002:00004120       ??_C@_03CMIMKEEK@Low?$AA@  40086120     ui_sound.obj
 0002:00004124       ??_C@_04PHMMJPOJ@High?$AA@ 40086124     ui_sound.obj
 0002:0000412c       ??_C@_08HCGCKAMG@s_volume?$AA@ 4008612c     ui_sound.obj
 0002:00004138       ??_C@_0O@DCFOJKGE@s_musicvolume?$AA@ 40086138     ui_sound.obj
 0002:00004148       ??_C@_05GPLACMP@s_khz?$AA@ 40086148     ui_sound.obj
 0002:00004150       ??_C@_0O@CEAOAAJD@s_compression?$AA@ 40086150     ui_sound.obj
 0002:00004160       ??_C@_0N@FJNKPAFP@snd_restart?6?$AA@ 40086160     ui_sound.obj
 0002:00004170       ??_C@_0BA@MMJGBOIL@Effects?5Volume?3?$AA@ 40086170     ui_sound.obj
 0002:00004180       ??_C@_0O@LNPKJGND@Music?5Volume?3?$AA@ 40086180     ui_sound.obj
 0002:00004190       ??_C@_0P@HJPBDCIH@Sound?5Quality?3?$AA@ 40086190     ui_sound.obj
 0002:000041a0       __real@41300000            400861a0     ui_sound.obj
 0002:000041a4       ??_C@_09GGNANLLG@spmap?5?$CFs?6?$AA@ 400861a4     ui_sparena.obj
 0002:000041b0       ??_C@_03HLLJJGBI@?3?$CFs?$AA@ 400861b0     ui_specifyserver.obj
 0002:000041b4       ??_C@_0P@HBHLOPFN@SPECIFY?5SERVER?$AA@ 400861b4     ui_specifyserver.obj
 0002:000041c4       ??_C@_08OGOLGJFH@Address?3?$AA@ 400861c4     ui_specifyserver.obj
 0002:000041d0       ??_C@_05OOLGMANF@Port?3?$AA@ 400861d0     ui_specifyserver.obj
 0002:000041d8       ??_C@_0BO@BHADLJEM@models?1players?1?$CFs?1icon_?$CFs?4tga?$AA@ 400861d8     ui_splevel.obj
 0002:000041f8       ??_C@_0CD@BICLACEG@models?1players?1?$CFs?1icon_default?4t@ 400861f8     ui_splevel.obj
 0002:0000421c       ??_C@_04OOIACBCD@bots?$AA@ 4008621c     ui_splevel.obj
 0002:00004224       ??_C@_0CA@OEFAMCBA@WARNING?3?5This?5resets?5all?5of?5the?$AA@ 40086224     ui_splevel.obj
 0002:00004244       ??_C@_0BO@NBEBPGFF@single?5player?5game?5variables?4?$AA@ 40086244     ui_splevel.obj
 0002:00004264       ??_C@_0BM@BEHDACFM@Do?5this?5only?5if?5you?5want?5to?$AA@ 40086264     ui_splevel.obj
 0002:00004280       ??_C@_0BP@NFNHIEDC@start?5over?5from?5the?5beginning?4?$AA@ 40086280     ui_splevel.obj
 0002:000042a0       ??_C@_0M@BLLNFJNH@RESET?5GAME?$DP?$AA@ 400862a0     ui_splevel.obj
 0002:000042ac       ??_C@_03NOACJKKK@?$CFim?$AA@ 400862ac     ui_splevel.obj
 0002:000042b0       ??_C@_03IIFIDNCM@?$CFik?$AA@ 400862b0     ui_splevel.obj
 0002:000042b4       ??_C@_07KEDPACAB@Tier?5?$CFi?$AA@ 400862b4     ui_splevel.obj
 0002:000042bc       ??_C@_0O@POJHGBNJ@ACCESS?5DENIED?$AA@ 400862bc     ui_splevel.obj
 0002:000042cc       ??_C@_08JJAPLNHH@longname?$AA@ 400862cc     ui_splevel.obj
 0002:000042d8       ??_C@_06DJHOIPC@?$CFs?3?5?$CFs?$AA@ 400862d8     ui_splevel.obj
 0002:000042e0       ??_C@_01OGPIMHDM@?$DP?$AA@ 400862e0     ui_splevel.obj
 0002:000042e4       ??_C@_0BF@FFHGOOMG@menu?1art?1maps_select?$AA@ 400862e4     ui_splevel.obj
 0002:000042fc       ??_C@_0BH@JFJPENKJ@menu?1art?1maps_selected?$AA@ 400862fc     ui_splevel.obj
 0002:00004314       ??_C@_0BC@LHEPIKCO@menu?1art?1narrow_0?$AA@ 40086314     ui_splevel.obj
 0002:00004328       ??_C@_0BC@KOFELLGP@menu?1art?1narrow_1?$AA@ 40086328     ui_splevel.obj
 0002:0000433c       ??_C@_0BJ@NGDAJIMB@menu?1art?1level_complete1?$AA@ 4008633c     ui_splevel.obj
 0002:00004358       ??_C@_0BJ@PNBNMLAC@menu?1art?1level_complete2?$AA@ 40086358     ui_splevel.obj
 0002:00004374       ??_C@_0BJ@OEAGPKED@menu?1art?1level_complete3?$AA@ 40086374     ui_splevel.obj
 0002:00004390       ??_C@_0BJ@KLEHGMIE@menu?1art?1level_complete4?$AA@ 40086390     ui_splevel.obj
 0002:000043ac       ??_C@_0BJ@LCFMFNMF@menu?1art?1level_complete5?$AA@ 400863ac     ui_splevel.obj
 0002:000043c8       ??_C@_0BB@EBOLANDM@menu?1art?1reset_0?$AA@ 400863c8     ui_splevel.obj
 0002:000043dc       ??_C@_0BB@FIPADMHN@menu?1art?1reset_1?$AA@ 400863dc     ui_splevel.obj
 0002:000043f0       ??_C@_0BE@EGNCNJAA@menu?1art?1skirmish_0?$AA@ 400863f0     ui_splevel.obj
 0002:00004404       ??_C@_0BE@FPMJOIEB@menu?1art?1skirmish_1?$AA@ 40086404     ui_splevel.obj
 0002:00004418       ??_C@_0N@CFMPLOMG@CHOOSE?5LEVEL?$AA@ 40086418     ui_splevel.obj
 0002:00004428       __real@42800000            40086428     ui_splevel.obj
 0002:0000442c       __real@42e80000            4008642c     ui_splevel.obj
 0002:00004430       __real@43020000            40086430     ui_splevel.obj
 0002:00004434       __real@43650000            40086434     ui_splevel.obj
 0002:00004438       __real@c0800000            40086438     ui_splevel.obj
 0002:0000443c       ??_C@_08NLCOAFEI@Accuracy?$AA@ 4008643c     ui_sppostgame.obj
 0002:00004448       ??_C@_0L@OHCAAGDK@Impressive?$AA@ 40086448     ui_sppostgame.obj
 0002:00004454       ??_C@_09IOGBPGDO@Excellent?$AA@ 40086454     ui_sppostgame.obj
 0002:00004460       ??_C@_05NODOGDHE@Frags?$AA@ 40086460     ui_sppostgame.obj
 0002:00004468       ??_C@_07ELNHFAIP@Perfect?$AA@ 40086468     ui_sppostgame.obj
 0002:00004470       ??_C@_0BL@IICGCJIO@menu?1medals?1medal_accuracy?$AA@ 40086470     ui_sppostgame.obj
 0002:0000448c       ??_C@_0BN@EIFIEJBJ@menu?1medals?1medal_impressive?$AA@ 4008648c     ui_sppostgame.obj
 0002:000044ac       ??_C@_0BM@PMDFJJJH@menu?1medals?1medal_excellent?$AA@ 400864ac     ui_sppostgame.obj
 0002:000044c8       ??_C@_0BL@BIAPCDFH@menu?1medals?1medal_gauntlet?$AA@ 400864c8     ui_sppostgame.obj
 0002:000044e4       ??_C@_0BI@GEHBOBII@menu?1medals?1medal_frags?$AA@ 400864e4     ui_sppostgame.obj
 0002:000044fc       ??_C@_0BK@OEPKIHDM@menu?1medals?1medal_victory?$AA@ 400864fc     ui_sppostgame.obj
 0002:00004518       ??_C@_0BM@HGGDKCMP@sound?1feedback?1accuracy?4wav?$AA@ 40086518     ui_sppostgame.obj
 0002:00004534       ??_C@_0CA@PMNJKEAB@sound?1feedback?1impressive_a?4wav?$AA@ 40086534     ui_sppostgame.obj
 0002:00004554       ??_C@_0BP@DFJEDLMJ@sound?1feedback?1excellent_a?4wav?$AA@ 40086554     ui_sppostgame.obj
 0002:00004574       ??_C@_0BM@JEOBNNKF@sound?1feedback?1gauntlet?4wav?$AA@ 40086574     ui_sppostgame.obj
 0002:00004590       ??_C@_0BJ@LGPKHKCD@sound?1feedback?1frags?4wav?$AA@ 40086590     ui_sppostgame.obj
 0002:000045ac       ??_C@_0BL@PKIAGHGE@sound?1feedback?1perfect?4wav?$AA@ 400865ac     ui_sppostgame.obj
 0002:000045c8       ??_C@_0BJ@JNCFJPKJ@disconnect?$DL?5levelselect?6?$AA@ 400865c8     ui_sppostgame.obj
 0002:000045e4       ??_C@_0O@MPBACBMH@abort_podium?6?$AA@ 400865e4     ui_sppostgame.obj
 0002:000045f4       ??_C@_04KAKHEEPD@?$CFi?$CF?$CF?$AA@ 400865f4     ui_sppostgame.obj
 0002:000045fc       ??_C@_05OFOELBKB@?$CItie?$CJ?$AA@ 400865fc     ui_sppostgame.obj
 0002:00004604       ??_C@_0P@BJOCLPNC@?$CD?$CFi?3?5?$CF?916s?5?$CF2i?$AA@ 40086604     ui_sppostgame.obj
 0002:00004614       ??_C@_0M@KIKMJPNG@sv_serverid?$AA@ 40086614     ui_sppostgame.obj
 0002:00004620       ??_C@_0CD@HLFEGCPI@disconnect?$DL?5cinematic?5demoEnd?4Ro@ 40086620     ui_sppostgame.obj
 0002:00004644       ??_C@_0BP@OICKMDNJ@disconnect?$DL?5cinematic?5end?4RoQ?6?$AA@ 40086644     ui_sppostgame.obj
 0002:00004664       ??_C@_0CC@LPJAPDLF@disconnect?$DL?5cinematic?5tier?$CFi?4RoQ@ 40086664     ui_sppostgame.obj
 0002:00004688       ??_C@_0BA@DEFBBFEG@ui_spScoreboard?$AA@ 40086688     ui_sppostgame.obj
 0002:00004698       ??_C@_0BA@EGCMFKOF@menu?1art?1menu_0?$AA@ 40086698     ui_sppostgame.obj
 0002:000046a8       ??_C@_0BA@FPDHGLKE@menu?1art?1menu_1?$AA@ 400866a8     ui_sppostgame.obj
 0002:000046b8       ??_C@_0BC@IIFNIOCB@menu?1art?1replay_0?$AA@ 400866b8     ui_sppostgame.obj
 0002:000046cc       ??_C@_0BC@JBEGLPGA@menu?1art?1replay_1?$AA@ 400866cc     ui_sppostgame.obj
 0002:000046e0       ??_C@_0BA@CANIEFDP@menu?1art?1next_0?$AA@ 400866e0     ui_sppostgame.obj
 0002:000046f0       ??_C@_0BA@DJMDHEHO@menu?1art?1next_1?$AA@ 400866f0     ui_sppostgame.obj
 0002:00004700       ??_C@_0P@GGLGPLDB@music?1loss?4wav?$AA@ 40086700     ui_sppostgame.obj
 0002:00004710       ??_C@_0O@JPEBDGNH@music?1win?4wav?$AA@ 40086710     ui_sppostgame.obj
 0002:00004720       ??_C@_0CB@FGABOHI@sound?1player?1announce?1youwin?4wav@ 40086720     ui_sppostgame.obj
 0002:00004744       ??_C@_0BC@JPJPMLME@music?5music?1loss?6?$AA@ 40086744     ui_sppostgame.obj
 0002:00004758       ??_C@_0BB@BIKCIDIL@music?5music?1win?6?$AA@ 40086758     ui_sppostgame.obj
 0002:0000476c       __real@44fa0000            4008676c     ui_sppostgame.obj
 0002:00004770       ??_C@_0BE@IPLLCEHI@menu?1art?1back_0?4tga?$AA@ 40086770     ui_spskill.obj
 0002:00004784       ??_C@_0BE@EEOHPHNN@menu?1art?1back_1?4tga?$AA@ 40086784     ui_spskill.obj
 0002:00004798       ??_C@_0BJ@FNGEFKND@sound?1misc?1nightmare?4wav?$AA@ 40086798     ui_spskill.obj
 0002:000047b4       ??_C@_0BH@BFJMDBAL@sound?1misc?1silence?4wav?$AA@ 400867b4     ui_spskill.obj
 0002:000047cc       ??_C@_0L@KLJODGNE@DIFFICULTY?$AA@ 400867cc     ui_spskill.obj
 0002:000047d8       ??_C@_0L@KIGHNPAI@NIGHTMARE?$CB?$AA@ 400867d8     ui_spskill.obj
 0002:000047e4       ??_C@_03BANLECBK@LAN?$AA@  400867e4     ui_startserver.obj
 0002:000047e8       ??_C@_04DNCDCIAE@Open?$AA@ 400867e8     ui_startserver.obj
 0002:000047f0       ??_C@_03OHHOIALK@Bot?$AA@  400867f0     ui_startserver.obj
 0002:000047f4       ??_C@_04ECGLBLOI@?9?9?9?9?$AA@ 400867f4     ui_startserver.obj
 0002:000047fc       ??_C@_03PAEKGFEI@ffa?$AA@  400867fc     ui_startserver.obj
 0002:00004800       ??_C@_07HMNMOHGJ@tourney?$AA@ 40086800     ui_startserver.obj
 0002:00004808       ??_C@_04KADBPNCB@team?$AA@ 40086808     ui_startserver.obj
 0002:00004810       ??_C@_03JHHHHEKD@ctf?$AA@  40086810     ui_startserver.obj
 0002:00004814       ??_C@_0O@OBEFLHGN@levelshots?1?$CFs?$AA@ 40086814     ui_startserver.obj
 0002:00004824       ??_C@_0O@DNCIPMCE@NO?5MAPS?5FOUND?$AA@ 40086824     ui_startserver.obj
 0002:00004834       ??_C@_0L@KEEMJOEG@g_gameType?$AA@ 40086834     ui_startserver.obj
 0002:00004840       ??_C@_0M@MOOBNNBD@GAME?5SERVER?$AA@ 40086840     ui_startserver.obj
 0002:0000484c       ??_C@_0BB@HFFCFBH@ui_team_friendlt?$AA@ 4008684c     ui_startserver.obj
 0002:00004860       ??_C@_0BB@EAAICABF@ui_ctf_fraglimit?$AA@ 40086860     ui_startserver.obj
 0002:00004874       ??_C@_0BA@IIGAKEDF@ui_ctf_friendlt?$AA@ 40086874     ui_startserver.obj
 0002:00004884       ??_C@_09BJOAODLF@dedicated?$AA@ 40086884     ui_startserver.obj
 0002:00004890       ??_C@_09KPHKOKCC@timelimit?$AA@ 40086890     ui_startserver.obj
 0002:0000489c       ??_C@_09GCIEGDDN@fraglimit?$AA@ 4008689c     ui_startserver.obj
 0002:000048a8       ??_C@_0N@FCAHJCDA@capturelimit?$AA@ 400868a8     ui_startserver.obj
 0002:000048b8       ??_C@_0P@EFCECDLM@g_friendlyfire?$AA@ 400868b8     ui_startserver.obj
 0002:000048c8       ??_C@_07CAKOHKGL@sv_pure?$AA@ 400868c8     ui_startserver.obj
 0002:000048d0       ??_C@_0M@NHCIKFPA@sv_hostname?$AA@ 400868d0     ui_startserver.obj
 0002:000048dc       ??_C@_0O@FFCKPCKD@sv_punkbuster?$AA@ 400868dc     ui_startserver.obj
 0002:000048ec       ??_C@_0BG@IEGGLJFO@wait?5?$DL?5wait?5?$DL?5map?5?$CFs?6?$AA@ 400868ec     ui_startserver.obj
 0002:00004904       ??_C@_07EONAPLKO@wait?53?6?$AA@ 40086904     ui_startserver.obj
 0002:0000490c       ??_C@_0BB@NDKGFBMM@addbot?5?$CFs?5?$CFi?5?$CFs?6?$AA@ 4008690c     ui_startserver.obj
 0002:00004920       ??_C@_0O@FNBCIOCK@addbot?5?$CFs?5?$CFi?6?$AA@ 40086920     ui_startserver.obj
 0002:00004930       ??_C@_0BB@POICCIP@wait?55?$DL?5team?5?$CFs?6?$AA@ 40086930     ui_startserver.obj
 0002:00004944       ??_C@_05OHCDHBAC@Human?$AA@ 40086944     ui_startserver.obj
 0002:0000494c       ??_C@_0N@IPKLOFPJ@0?5?$DN?5NO?5LIMIT?$AA@ 4008694c     ui_startserver.obj
 0002:0000495c       ??_C@_05INCFNIGH@grunt?$AA@ 4008695c     ui_startserver.obj
 0002:00004964       ??_C@_05FEBMJMCL@major?$AA@ 40086964     ui_startserver.obj
 0002:0000496c       ??_C@_05CAGMDNKH@visor?$AA@ 4008696c     ui_startserver.obj
 0002:00004974       ??_C@_05PDPNFFJO@sarge?$AA@ 40086974     ui_startserver.obj
 0002:0000497c       ??_C@_08GGNFKEJM@?9?9?9?9?9?9?9?9?$AA@ 4008697c     ui_startserver.obj
 0002:00004988       ??_C@_0M@PPOGHFNI@Frag?5Limit?3?$AA@ 40086988     ui_startserver.obj
 0002:00004994       ??_C@_0P@BAAGBMPK@Capture?5Limit?3?$AA@ 40086994     ui_startserver.obj
 0002:000049a4       ??_C@_0M@KGNIINDM@Time?5Limit?3?$AA@ 400869a4     ui_startserver.obj
 0002:000049b0       ??_C@_0P@JEAHEJK@Friendly?5Fire?3?$AA@ 400869b0     ui_startserver.obj
 0002:000049c0       ??_C@_0N@BKOCJFPJ@Pure?5Server?3?$AA@ 400869c0     ui_startserver.obj
 0002:000049d0       ??_C@_0L@BICHPGEO@Dedicated?3?$AA@ 400869d0     ui_startserver.obj
 0002:000049dc       ??_C@_09BMGPDEFI@Hostname?3?$AA@ 400869dc     ui_startserver.obj
 0002:000049e8       ??_C@_0N@LPOBKLMH@Bot?5Skill?3?5?5?$AA@ 400869e8     ui_startserver.obj
 0002:000049f8       ??_C@_0L@ODFNMNFC@SELECT?5BOT?$AA@ 400869f8     ui_startserver.obj
 0002:00004a04       __real@41e00000            40086a04     ui_startserver.obj
 0002:00004a08       __real@4479c000            40086a08     ui_startserver.obj
 0002:00004a0c       ??_C@_0O@BIOOBIJN@cmd?5team?5red?6?$AA@ 40086a0c     ui_team.obj
 0002:00004a1c       ??_C@_0P@NBKBDFGG@cmd?5team?5blue?6?$AA@ 40086a1c     ui_team.obj
 0002:00004a2c       ??_C@_0P@MFPJAJAM@cmd?5team?5free?6?$AA@ 40086a2c     ui_team.obj
 0002:00004a3c       ??_C@_0BE@BECJPKIL@cmd?5team?5spectator?6?$AA@ 40086a3c     ui_team.obj
 0002:00004a50       ??_C@_08ELHMEDI@JOIN?5RED?$AA@ 40086a50     ui_team.obj
 0002:00004a5c       ??_C@_09KFAEKFFF@JOIN?5BLUE?$AA@ 40086a5c     ui_team.obj
 0002:00004a68       ??_C@_09INLLAADA@JOIN?5GAME?$AA@ 40086a68     ui_team.obj
 0002:00004a74       ??_C@_08JAHACMEH@SPECTATE?$AA@ 40086a74     ui_team.obj
 0002:00004a80       ??_C@_0BA@BOAEGLPF@I?5Am?5the?5Leader?$AA@ 40086a80     ui_teamorders.obj
 0002:00004a90       ??_C@_0BA@OLFJMBG@Defend?5the?5Base?$AA@ 40086a90     ui_teamorders.obj
 0002:00004aa0       ??_C@_09LFPDJCGB@Follow?5Me?$AA@ 40086aa0     ui_teamorders.obj
 0002:00004aac       ??_C@_0P@JNEJHNNF@Get?5Enemy?5Flag?$AA@ 40086aac     ui_teamorders.obj
 0002:00004abc       ??_C@_09KJEOOJNP@Camp?5Here?$AA@ 40086abc     ui_teamorders.obj
 0002:00004ac8       ??_C@_06IFBEBKA@Report?$AA@ 40086ac8     ui_teamorders.obj
 0002:00004ad0       ??_C@_0BF@ODKMIDOP@I?5Relinquish?5Command?$AA@ 40086ad0     ui_teamorders.obj
 0002:00004ae8       ??_C@_0BA@LOCFBMM@i?5am?5the?5leader?$AA@ 40086ae8     ui_teamorders.obj
 0002:00004af8       ??_C@_0BD@PLLLMKCL@?$CFs?5defend?5the?5base?$AA@ 40086af8     ui_teamorders.obj
 0002:00004b0c       ??_C@_0N@FFAENNJA@?$CFs?5follow?5me?$AA@ 40086b0c     ui_teamorders.obj
 0002:00004b1c       ??_C@_0BC@HLLEBIGP@?$CFs?5get?5enemy?5flag?$AA@ 40086b1c     ui_teamorders.obj
 0002:00004b30       ??_C@_0N@LADFMPMK@?$CFs?5camp?5here?$AA@ 40086b30     ui_teamorders.obj
 0002:00004b40       ??_C@_09CACGJKOG@?$CFs?5report?$AA@ 40086b40     ui_teamorders.obj
 0002:00004b4c       ??_C@_0BI@IDJPJKPF@i?5stop?5being?5the?5leader?$AA@ 40086b4c     ui_teamorders.obj
 0002:00004b64       ??_C@_04IBANMHOB@Roam?$AA@ 40086b64     ui_teamorders.obj
 0002:00004b6c       ??_C@_07IIHGGDCD@?$CFs?5roam?$AA@ 40086b6c     ui_teamorders.obj
 0002:00004b74       ??_C@_0P@BAMGBHOI@say_team?5?$CC?$CFs?$CC?6?$AA@ 40086b74     ui_teamorders.obj
 0002:00004b84       ??_C@_08LFOMOGKF@Everyone?$AA@ 40086b84     ui_teamorders.obj
 0002:00004b90       ??_C@_08EMLDNFIC@opengl32?$AA@ 40086b90     ui_video.obj
 0002:00004b9c       ??_C@_07DDONFNPJ@3dfxvgl?$AA@ 40086b9c     ui_video.obj
 0002:00004ba4       ??_C@_07MCAEODGB@Default?$AA@ 40086ba4     ui_video.obj
 0002:00004bac       ??_C@_06NFPMDKDO@Voodoo?$AA@ 40086bac     ui_video.obj
 0002:00004bb4       ??_C@_06OCBPDGAG@16?5bit?$AA@ 40086bb4     ui_video.obj
 0002:00004bbc       ??_C@_06OOBBGFDJ@32?5bit?$AA@ 40086bbc     ui_video.obj
 0002:00004bc4       ??_C@_0N@MIENBIGD@High?5Quality?$AA@ 40086bc4     ui_video.obj
 0002:00004bd4       ??_C@_06EFAGIKOH@Normal?$AA@ 40086bd4     ui_video.obj
 0002:00004bdc       ??_C@_04HABAFPJG@Fast?$AA@ 40086bdc     ui_video.obj
 0002:00004be4       ??_C@_07MIBGPIAH@Fastest?$AA@ 40086be4     ui_video.obj
 0002:00004bec       ??_C@_06IFGIOHDE@Custom?$AA@ 40086bec     ui_video.obj
 0002:00004bf4       ??_C@_08OHHGOOLO@Lightmap?$AA@ 40086bf4     ui_video.obj
 0002:00004c00       ??_C@_06LEBKBMLE@Vertex?$AA@ 40086c00     ui_video.obj
 0002:00004c08       ??_C@_07MFLNCHEF@320x240?$AA@ 40086c08     ui_video.obj
 0002:00004c10       ??_C@_07OHFCPAMM@400x300?$AA@ 40086c10     ui_video.obj
 0002:00004c18       ??_C@_07KKDIMOFB@512x384?$AA@ 40086c18     ui_video.obj
 0002:00004c20       ??_C@_07MCPMLKKD@640x480?$AA@ 40086c20     ui_video.obj
 0002:00004c28       ??_C@_07IHCDBFLB@800x600?$AA@ 40086c28     ui_video.obj
 0002:00004c30       ??_C@_07JDGBJDBO@960x720?$AA@ 40086c30     ui_video.obj
 0002:00004c38       ??_C@_08JGEBNDLC@1024x768?$AA@ 40086c38     ui_video.obj
 0002:00004c44       ??_C@_08LNMDFBOF@1152x864?$AA@ 40086c44     ui_video.obj
 0002:00004c50       ??_C@_09HCBGFPHD@1280x1024?$AA@ 40086c50     ui_video.obj
 0002:00004c5c       ??_C@_09DBPOMMCL@1600x1200?$AA@ 40086c5c     ui_video.obj
 0002:00004c68       ??_C@_09NHLNGPFJ@2048x1536?$AA@ 40086c68     ui_video.obj
 0002:00004c74       ??_C@_0BE@HILILFDG@856x480?5wide?5screen?$AA@ 40086c74     ui_video.obj
 0002:00004c88       ??_C@_08DLDNHHDN@Bilinear?$AA@ 40086c88     ui_video.obj
 0002:00004c94       ??_C@_09KAHAONAF@Trilinear?$AA@ 40086c94     ui_video.obj
 0002:00004ca0       ??_C@_06LHIDHMIE@Medium?$AA@ 40086ca0     ui_video.obj
 0002:00004ca8       ??_C@_03GCDBBDDL@Off?$AA@  40086ca8     ui_video.obj
 0002:00004cac       ??_C@_02IAAGKKDJ@On?$AA@   40086cac     ui_video.obj
 0002:00004cb0       ??_C@_06HNPNLLLK@VENDOR?$AA@ 40086cb0     ui_video.obj
 0002:00004cb8       ??_C@_0M@IFHIILG@PIXELFORMAT?$AA@ 40086cb8     ui_video.obj
 0002:00004cc4       ??_C@_0L@DEEPEJIC@EXTENSIONS?$AA@ 40086cc4     ui_video.obj
 0002:00004cd0       ??_C@_0CL@PBPGLKMP@color?$CI?$CFd?9bits?$CJ?5Z?$CI?$CFd?9bits?$CJ?5stenci@ 40086cd0     ui_video.obj
 0002:00004cfc       ??_C@_0M@LDPEDMD@DRIVER?5INFO?$AA@ 40086cfc     ui_video.obj
 0002:00004d08       ??_C@_0O@HAOJHCNC@r_texturebits?$AA@ 40086d08     ui_video.obj
 0002:00004d18       ??_C@_08PHNBMEML@r_picmip?$AA@ 40086d18     ui_video.obj
 0002:00004d24       ??_C@_0BC@HJALDEG@r_allowExtensions?$AA@ 40086d24     ui_video.obj
 0002:00004d38       ??_C@_06LBAPPDBG@r_mode?$AA@ 40086d38     ui_video.obj
 0002:00004d40       ??_C@_0N@JILGCMBC@r_fullscreen?$AA@ 40086d40     ui_video.obj
 0002:00004d50       ??_C@_0L@LKKCCEBO@r_glDriver?$AA@ 40086d50     ui_video.obj
 0002:00004d5c       ??_C@_0M@FAHBKNDA@r_colorbits?$AA@ 40086d5c     ui_video.obj
 0002:00004d68       ??_C@_0M@MLADPBHK@r_depthbits?$AA@ 40086d68     ui_video.obj
 0002:00004d74       ??_C@_0O@HILFODLB@r_stencilbits?$AA@ 40086d74     ui_video.obj
 0002:00004d84       ??_C@_0O@LOOKMMOO@r_vertexLight?$AA@ 40086d84     ui_video.obj
 0002:00004d94       ??_C@_09DOHLALN@r_lodBias?$AA@ 40086d94     ui_video.obj
 0002:00004da0       ??_C@_0P@CEFBGCNE@r_subdivisions?$AA@ 40086da0     ui_video.obj
 0002:00004db0       ??_C@_0BI@EMKCPMIG@GL_LINEAR_MIPMAP_LINEAR?$AA@ 40086db0     ui_video.obj
 0002:00004dc8       ??_C@_0O@BGKNIDHM@r_textureMode?$AA@ 40086dc8     ui_video.obj
 0002:00004dd8       ??_C@_0BJ@PCPDHFJH@GL_LINEAR_MIPMAP_NEAREST?$AA@ 40086dd8     ui_video.obj
 0002:00004df4       ??_C@_0BD@KEOJNAKE@Graphics?5Settings?3?$AA@ 40086df4     ui_video.obj
 0002:00004e08       ??_C@_0L@JMBBAEGM@GL?5Driver?3?$AA@ 40086e08     ui_video.obj
 0002:00004e14       ??_C@_0P@CAAMHJHI@GL?5Extensions?3?$AA@ 40086e14     ui_video.obj
 0002:00004e24       ??_C@_0M@DCOMLGD@Video?5Mode?3?$AA@ 40086e24     ui_video.obj
 0002:00004e30       ??_C@_0N@GBJEDJAA@Color?5Depth?3?$AA@ 40086e30     ui_video.obj
 0002:00004e40       ??_C@_0M@EBCMOIOB@Fullscreen?3?$AA@ 40086e40     ui_video.obj
 0002:00004e4c       ??_C@_09LNBNDFHP@Lighting?3?$AA@ 40086e4c     ui_video.obj
 0002:00004e58       ??_C@_0BC@GJPLLPN@Geometric?5Detail?3?$AA@ 40086e58     ui_video.obj
 0002:00004e6c       ??_C@_0BA@BAIEMKMK@Texture?5Detail?3?$AA@ 40086e6c     ui_video.obj
 0002:00004e7c       ??_C@_0BB@KKONKLFG@Texture?5Quality?3?$AA@ 40086e7c     ui_video.obj
 0002:00004e90       ??_C@_0BA@IOOKAOAF@Texture?5Filter?3?$AA@ 40086e90     ui_video.obj
 0002:00004ea0       ??_C@_0M@HLDPNLNB@Driver?5Info?$AA@ 40086ea0     ui_video.obj
 0002:00004eac       ?ProcessDetach@NativeDll@<CrtImplementationDetails>@@0IB 40086eac     LIBCMTD:atof.obj
 0002:00004eb0       ?ProcessAttach@NativeDll@<CrtImplementationDetails>@@0IB 40086eb0     LIBCMTD:atof.obj
 0002:00004eb4       ?ThreadAttach@NativeDll@<CrtImplementationDetails>@@0IB 40086eb4     LIBCMTD:atof.obj
 0002:00004eb8       ?ThreadDetach@NativeDll@<CrtImplementationDetails>@@0IB 40086eb8     LIBCMTD:atof.obj
 0002:00004ebc       ?ProcessVerifier@NativeDll@<CrtImplementationDetails>@@0IB 40086ebc     LIBCMTD:atof.obj
 0002:00004ec0       ??_C@_1BK@LAOAACLJ@?$AAn?$AAp?$AAt?$AAr?$AA?5?$AA?$CB?$AA?$DN?$AA?5?$AAN?$AAU?$AAL?$AAL?$AA?$AA@ 40086ec0     LIBCMTD:atof.obj
 0002:00004edc       ??_C@_15GANGMFKL@?$AA?$CF?$AAs?$AA?$AA@ 40086edc     LIBCMTD:atof.obj
 0002:00004ee8       ??_C@_1FM@HAAJIFE@?$AAf?$AA?3?$AA?2?$AAd?$AAd?$AA?2?$AAv?$AAc?$AAt?$AAo?$AAo?$AAl?$AAs?$AA?2?$AAc?$AAr?$AAt?$AA_?$AAb?$AAl?$AAd?$AA?2?$AAs?$AAe?$AAl?$AAf?$AA_?$AAx?$AA8?$AA6?$AA?2?$AAc@ 40086ee8     LIBCMTD:atof.obj
 0002:00004f44       ??_C@_1BA@NJCJMLHI@?$AA_?$AAa?$AAt?$AAo?$AAf?$AA_?$AAl?$AA?$AA@ 40086f44     LIBCMTD:atof.obj
 0002:00004f54       __FPinit                   40086f54     LIBCMTD:fpinit.obj
 0002:00004f58       ??_C@_17LGKOMLJ@?$AA?4?$AA?4?$AA?4?$AA?$AA@ 40086f58     LIBCMTD:wassert.obj
 0002:00004f60       ??_C@_13LBAGMAIH@?$AA?6?$AA?$AA@ 40086f60     LIBCMTD:wassert.obj
 0002:00004f64       ??_C@_15IABLJNFO@?$AA?6?$AA?6?$AA?$AA@ 40086f64     LIBCMTD:wassert.obj
 0002:00004f70       ??_C@_1GA@COEIABIF@?$AAf?$AA?3?$AA?2?$AAd?$AAd?$AA?2?$AAv?$AAc?$AAt?$AAo?$AAo?$AAl?$AAs?$AA?2?$AAc?$AAr?$AAt?$AA_?$AAb?$AAl?$AAd?$AA?2?$AAs?$AAe?$AAl?$AAf?$AA_?$AAx?$AA8?$AA6?$AA?2?$AAc@ 40086f70     LIBCMTD:wassert.obj
 0002:00004fd0       ??_C@_1BC@LNOOMFNA@?$AA_?$AAw?$AAa?$AAs?$AAs?$AAe?$AAr?$AAt?$AA?$AA@ 40086fd0     LIBCMTD:wassert.obj
 0002:00004fe8       ??_C@_1GM@PANFFKAD@?$AAw?$AAc?$AAs?$AAc?$AAp?$AAy?$AA_?$AAs?$AA?$CI?$AA?5?$AAa?$AAs?$AAs?$AAe?$AAr?$AAt?$AAb?$AAu?$AAf?$AA?0?$AA?5?$AA?$CI?$AA6?$AA4?$AA?5?$AA?$CK?$AA?5?$AA9?$AA?$CJ?$AA?0?$AA?5?$AAL@ 40086fe8     LIBCMTD:wassert.obj
 0002:00005054       ??_C@_1CE@OJBNHDMO@?$AAA?$AAs?$AAs?$AAe?$AAr?$AAt?$AAi?$AAo?$AAn?$AA?5?$AAf?$AAa?$AAi?$AAl?$AAe?$AAd?$AA?$CB?$AA?$AA@ 40087054     LIBCMTD:wassert.obj
 0002:00005078       ??_C@_1FI@OJONHFCN@?$AAw?$AAc?$AAs?$AAc?$AAa?$AAt?$AA_?$AAs?$AA?$CI?$AA?5?$AAa?$AAs?$AAs?$AAe?$AAr?$AAt?$AAb?$AAu?$AAf?$AA?0?$AA?5?$AA?$CI?$AA6?$AA4?$AA?5?$AA?$CK?$AA?5?$AA9?$AA?$CJ?$AA?0?$AA?5?$AAd@ 40087078     LIBCMTD:wassert.obj
 0002:000050d0       ??_C@_1FM@JONFCKBO@?$AAw?$AAc?$AAs?$AAc?$AAa?$AAt?$AA_?$AAs?$AA?$CI?$AA?5?$AAa?$AAs?$AAs?$AAe?$AAr?$AAt?$AAb?$AAu?$AAf?$AA?0?$AA?5?$AA?$CI?$AA6?$AA4?$AA?5?$AA?$CK?$AA?5?$AA9?$AA?$CJ?$AA?0?$AA?5?$AAL@ 400870d0     LIBCMTD:wassert.obj
 0002:0000512c       ??_C@_1BE@PHKBBGE@?$AAP?$AAr?$AAo?$AAg?$AAr?$AAa?$AAm?$AA?3?$AA?5?$AA?$AA@ 4008712c     LIBCMTD:wassert.obj
 0002:00005140       ??_C@_1HA@EPFCONEE@?$AAw?$AAc?$AAs?$AAc?$AAp?$AAy?$AA_?$AAs?$AA?$CI?$AA?5?$AAp?$AAr?$AAo?$AAg?$AAn?$AAa?$AAm?$AAe?$AA?0?$AA?5?$AA2?$AA6?$AA0?$AA?5?$AA?$CL?$AA?5?$AA1?$AA?0?$AA?5?$AAL?$AA?$CC?$AA?$DM@ 40087140     LIBCMTD:wassert.obj
 0002:000051b0       ??_C@_1CO@EAEJAADC@?$AA?$DM?$AAp?$AAr?$AAo?$AAg?$AAr?$AAa?$AAm?$AA?5?$AAn?$AAa?$AAm?$AAe?$AA?5?$AAu?$AAn?$AAk?$AAn?$AAo?$AAw?$AAn?$AA?$DO?$AA?$AA@ 400871b0     LIBCMTD:wassert.obj
 0002:000051e0       ??_C@_1LK@LGFOFOMH@?$AAm?$AAe?$AAm?$AAc?$AAp?$AAy?$AA_?$AAs?$AA?$CI?$AAp?$AAc?$AAh?$AA?0?$AA?5?$AAs?$AAi?$AAz?$AAe?$AAo?$AAf?$AA?$CI?$AAT?$AAC?$AAH?$AAA?$AAR?$AA?$CJ?$AA?5?$AA?$CK?$AA?5?$AA?$CI?$AA?$CI@ 400871e0     LIBCMTD:wassert.obj
 0002:000052a0       ??_C@_1EK@BFAHOLDO@?$AAw?$AAc?$AAs?$AAc?$AAa?$AAt?$AA_?$AAs?$AA?$CI?$AA?5?$AAa?$AAs?$AAs?$AAe?$AAr?$AAt?$AAb?$AAu?$AAf?$AA?0?$AA?5?$AA?$CI?$AA6?$AA4?$AA?5?$AA?$CK?$AA?5?$AA9?$AA?$CJ?$AA?0?$AA?5?$AAp@ 400872a0     LIBCMTD:wassert.obj
 0002:000052f0       ??_C@_1FC@GNPGDADJ@?$AAw?$AAc?$AAs?$AAc?$AAa?$AAt?$AA_?$AAs?$AA?$CI?$AA?5?$AAa?$AAs?$AAs?$AAe?$AAr?$AAt?$AAb?$AAu?$AAf?$AA?0?$AA?5?$AA?$CI?$AA6?$AA4?$AA?5?$AA?$CK?$AA?5?$AA9?$AA?$CJ?$AA?0?$AA?5?$AAn@ 400872f0     LIBCMTD:wassert.obj
 0002:00005348       ??_C@_1FG@NHACFNEK@?$AAw?$AAc?$AAs?$AAc?$AAa?$AAt?$AA_?$AAs?$AA?$CI?$AA?5?$AAa?$AAs?$AAs?$AAe?$AAr?$AAt?$AAb?$AAu?$AAf?$AA?0?$AA?5?$AA?$CI?$AA6?$AA4?$AA?5?$AA?$CK?$AA?5?$AA9?$AA?$CJ?$AA?0?$AA?5?$AAL@ 40087348     LIBCMTD:wassert.obj
 0002:000053a0       ??_C@_1O@HEMHKNDC@?$AAF?$AAi?$AAl?$AAe?$AA?3?$AA?5?$AA?$AA@ 400873a0     LIBCMTD:wassert.obj
 0002:000053b0       ??_C@_1GG@PKOIFPHI@?$AAw?$AAc?$AAs?$AAn?$AAc?$AAa?$AAt?$AA_?$AAs?$AA?$CI?$AA?5?$AAa?$AAs?$AAs?$AAe?$AAr?$AAt?$AAb?$AAu?$AAf?$AA?0?$AA?5?$AA?$CI?$AA6?$AA4?$AA?5?$AA?$CK?$AA?5?$AA9?$AA?$CJ?$AA?0?$AA?5@ 400873b0     LIBCMTD:wassert.obj
 0002:00005418       ??_C@_1FG@PLMFGJFG@?$AAw?$AAc?$AAs?$AAc?$AAa?$AAt?$AA_?$AAs?$AA?$CI?$AA?5?$AAa?$AAs?$AAs?$AAe?$AAr?$AAt?$AAb?$AAu?$AAf?$AA?0?$AA?5?$AA?$CI?$AA6?$AA4?$AA?5?$AA?$CK?$AA?5?$AA9?$AA?$CJ?$AA?0?$AA?5?$AAd@ 40087418     LIBCMTD:wassert.obj
 0002:00005470       ??_C@_1FO@HPHMICDB@?$AAw?$AAc?$AAs?$AAc?$AAa?$AAt?$AA_?$AAs?$AA?$CI?$AA?5?$AAa?$AAs?$AAs?$AAe?$AAr?$AAt?$AAb?$AAu?$AAf?$AA?0?$AA?5?$AA?$CI?$AA6?$AA4?$AA?5?$AA?$CK?$AA?5?$AA9?$AA?$CJ?$AA?0?$AA?5?$AAp@ 40087470     LIBCMTD:wassert.obj
 0002:000054d0       ??_C@_1GO@KNIHEHNA@?$AAw?$AAc?$AAs?$AAn?$AAc?$AAa?$AAt?$AA_?$AAs?$AA?$CI?$AA?5?$AAa?$AAs?$AAs?$AAe?$AAr?$AAt?$AAb?$AAu?$AAf?$AA?0?$AA?5?$AA?$CI?$AA6?$AA4?$AA?5?$AA?$CK?$AA?5?$AA9?$AA?$CJ?$AA?0?$AA?5@ 400874d0     LIBCMTD:wassert.obj
 0002:00005540       ??_C@_1HG@FHHFPPED@?$AAw?$AAc?$AAs?$AAn?$AAc?$AAa?$AAt?$AA_?$AAs?$AA?$CI?$AA?5?$AAa?$AAs?$AAs?$AAe?$AAr?$AAt?$AAb?$AAu?$AAf?$AA?0?$AA?5?$AA?$CI?$AA6?$AA4?$AA?5?$AA?$CK?$AA?5?$AA9?$AA?$CJ?$AA?0?$AA?5@ 40087540     LIBCMTD:wassert.obj
 0002:000055b8       ??_C@_1IC@JGCGJJHO@?$AAw?$AAc?$AAs?$AAc?$AAa?$AAt?$AA_?$AAs?$AA?$CI?$AA?5?$AAa?$AAs?$AAs?$AAe?$AAr?$AAt?$AAb?$AAu?$AAf?$AA?0?$AA?5?$AA?$CI?$AA6?$AA4?$AA?5?$AA?$CK?$AA?5?$AA9?$AA?$CJ?$AA?0?$AA?5?$AAp@ 400875b8     LIBCMTD:wassert.obj
 0002:00005640       ??_C@_1FE@NDOBOCBD@?$AAw?$AAc?$AAs?$AAc?$AAa?$AAt?$AA_?$AAs?$AA?$CI?$AA?5?$AAa?$AAs?$AAs?$AAe?$AAr?$AAt?$AAb?$AAu?$AAf?$AA?0?$AA?5?$AA?$CI?$AA6?$AA4?$AA?5?$AA?$CK?$AA?5?$AA9?$AA?$CJ?$AA?0?$AA?5?$AAf@ 40087640     LIBCMTD:wassert.obj
 0002:00005698       ??_C@_1FG@HLHNIBH@?$AAw?$AAc?$AAs?$AAc?$AAa?$AAt?$AA_?$AAs?$AA?$CI?$AA?5?$AAa?$AAs?$AAs?$AAe?$AAr?$AAt?$AAb?$AAu?$AAf?$AA?0?$AA?5?$AA?$CI?$AA6?$AA4?$AA?5?$AA?$CK?$AA?5?$AA9?$AA?$CJ?$AA?0?$AA?5?$AAL@ 40087698     LIBCMTD:wassert.obj
 0002:000056f0       ??_C@_1O@KCAFKHJE@?$AAL?$AAi?$AAn?$AAe?$AA?3?$AA?5?$AA?$AA@ 400876f0     LIBCMTD:wassert.obj
 0002:00005700       ??_C@_1KG@NJJPHNOK@?$AA_?$AAi?$AAt?$AAo?$AAw?$AA_?$AAs?$AA?$CI?$AA?5?$AAl?$AAi?$AAn?$AAe?$AAn?$AAo?$AA?0?$AA?5?$AAa?$AAs?$AAs?$AAe?$AAr?$AAt?$AAb?$AAu?$AAf?$AA?5?$AA?$CL?$AA?5?$AAw?$AAc?$AAs@ 40087700     LIBCMTD:wassert.obj
 0002:000057a8       ??_C@_1GC@CFDADAM@?$AAw?$AAc?$AAs?$AAc?$AAa?$AAt?$AA_?$AAs?$AA?$CI?$AA?5?$AAa?$AAs?$AAs?$AAe?$AAr?$AAt?$AAb?$AAu?$AAf?$AA?0?$AA?5?$AA?$CI?$AA6?$AA4?$AA?5?$AA?$CK?$AA?5?$AA9?$AA?$CJ?$AA?0?$AA?5?$AAL@ 400877a8     LIBCMTD:wassert.obj
 0002:0000580c       ??_C@_1BK@PEDCIPMA@?$AAE?$AAx?$AAp?$AAr?$AAe?$AAs?$AAs?$AAi?$AAo?$AAn?$AA?3?$AA?5?$AA?$AA@ 4008780c     LIBCMTD:wassert.obj
 0002:00005828       ??_C@_1CHM@HIHGOMKE@?$AAw?$AAc?$AAs?$AAn?$AAc?$AAa?$AAt?$AA_?$AAs?$AA?$CI?$AA?5?$AAa?$AAs?$AAs?$AAe?$AAr?$AAt?$AAb?$AAu?$AAf?$AA?0?$AA?5?$AA?$CI?$AA6?$AA4?$AA?5?$AA?$CK?$AA?5?$AA9?$AA?$CJ?$AA?0?$AA?5@ 40087828     LIBCMTD:wassert.obj
 0002:00005aa8       ??_C@_1EM@DAMJKKKC@?$AAw?$AAc?$AAs?$AAc?$AAa?$AAt?$AA_?$AAs?$AA?$CI?$AA?5?$AAa?$AAs?$AAs?$AAe?$AAr?$AAt?$AAb?$AAu?$AAf?$AA?0?$AA?5?$AA?$CI?$AA6?$AA4?$AA?5?$AA?$CK?$AA?5?$AA9?$AA?$CJ?$AA?0?$AA?5?$AAe@ 40087aa8     LIBCMTD:wassert.obj
 0002:00005af8       ??_C@_1BCO@GAGHDLIF@?$AAw?$AAc?$AAs?$AAc?$AAa?$AAt?$AA_?$AAs?$AA?$CI?$AAa?$AAs?$AAs?$AAe?$AAr?$AAt?$AAb?$AAu?$AAf?$AA?0?$AA?5?$AA?$CI?$AA6?$AA4?$AA?5?$AA?$CK?$AA?5?$AA9?$AA?$CJ?$AA?0?$AA?5?$AAL?$AA?$CC@ 40087af8     LIBCMTD:wassert.obj
 0002:00005c28       ??_C@_1OA@EGMLFBHJ@?$AAF?$AAo?$AAr?$AA?5?$AAi?$AAn?$AAf?$AAo?$AAr?$AAm?$AAa?$AAt?$AAi?$AAo?$AAn?$AA?5?$AAo?$AAn?$AA?5?$AAh?$AAo?$AAw?$AA?5?$AAy?$AAo?$AAu?$AAr?$AA?5?$AAp?$AAr?$AAo?$AAg@ 40087c28     LIBCMTD:wassert.obj
 0002:00005d08       ??_C@_1FG@IFIHHMNM@?$AAw?$AAc?$AAs?$AAc?$AAa?$AAt?$AA_?$AAs?$AA?$CI?$AAa?$AAs?$AAs?$AAe?$AAr?$AAt?$AAb?$AAu?$AAf?$AA?0?$AA?5?$AA?$CI?$AA6?$AA4?$AA?5?$AA?$CK?$AA?5?$AA9?$AA?$CJ?$AA?0?$AA?5?$AAd?$AAb@ 40087d08     LIBCMTD:wassert.obj
 0002:00005d60       ??_C@_1LO@CHAFGADE@?$AAw?$AAc?$AAs?$AAc?$AAa?$AAt?$AA_?$AAs?$AA?$CI?$AAa?$AAs?$AAs?$AAe?$AAr?$AAt?$AAb?$AAu?$AAf?$AA?0?$AA?5?$AA?$CI?$AA6?$AA4?$AA?5?$AA?$CK?$AA?5?$AA9?$AA?$CJ?$AA?0?$AA?5?$AAL?$AA?$CC@ 40087d60     LIBCMTD:wassert.obj
 0002:00005e20       ??_C@_1HK@POCJMFGK@?$AA?$CI?$AAP?$AAr?$AAe?$AAs?$AAs?$AA?5?$AAR?$AAe?$AAt?$AAr?$AAy?$AA?5?$AAt?$AAo?$AA?5?$AAd?$AAe?$AAb?$AAu?$AAg?$AA?5?$AAt?$AAh?$AAe?$AA?5?$AAa?$AAp?$AAp?$AAl?$AAi?$AAc@ 40087e20     LIBCMTD:wassert.obj
 0002:00005ea0       ??_C@_1EK@MBDPDCGA@?$AAM?$AAi?$AAc?$AAr?$AAo?$AAs?$AAo?$AAf?$AAt?$AA?5?$AAV?$AAi?$AAs?$AAu?$AAa?$AAl?$AA?5?$AAC?$AA?$CL?$AA?$CL?$AA?5?$AAR?$AAu?$AAn?$AAt?$AAi?$AAm?$AAe?$AA?5?$AAL?$AAi?$AAb@ 40087ea0     LIBCMTD:wassert.obj
 0002:00005ef4       ??_C@_1CC@MGIEJOME@?$AA?$CI?$AAf?$AAo?$AAr?$AAm?$AAa?$AAt?$AA?5?$AA?$CB?$AA?$DN?$AA?5?$AAN?$AAU?$AAL?$AAL?$AA?$CJ?$AA?$AA@ 40087ef4     LIBCMTD:vsprintf.obj
 0002:00005f18       ??_C@_1GE@DPADKNCG@?$AAf?$AA?3?$AA?2?$AAd?$AAd?$AA?2?$AAv?$AAc?$AAt?$AAo?$AAo?$AAl?$AAs?$AA?2?$AAc?$AAr?$AAt?$AA_?$AAb?$AAl?$AAd?$AA?2?$AAs?$AAe?$AAl?$AAf?$AA_?$AAx?$AA8?$AA6?$AA?2?$AAc@ 40087f18     LIBCMTD:vsprintf.obj
 0002:00005f7c       ??_C@_1BI@IGILPKD@?$AA_?$AAv?$AAs?$AAp?$AAr?$AAi?$AAn?$AAt?$AAf?$AA_?$AAl?$AA?$AA@ 40087f7c     LIBCMTD:vsprintf.obj
 0002:00005f94       ??_C@_1CC@OLIJCKA@?$AA?$CI?$AAs?$AAt?$AAr?$AAi?$AAn?$AAg?$AA?5?$AA?$CB?$AA?$DN?$AA?5?$AAN?$AAU?$AAL?$AAL?$AA?$CJ?$AA?$AA@ 40087f94     LIBCMTD:vsprintf.obj
 0002:00005fb8       ??_C@_1CE@HMKDJHB@?$AA_?$AAv?$AAs?$AAc?$AAp?$AAr?$AAi?$AAn?$AAt?$AAf?$AA_?$AAh?$AAe?$AAl?$AAp?$AAe?$AAr?$AA?$AA@ 40087fb8     LIBCMTD:vsprintf.obj
 0002:00005fdc       ??_C@_1DC@HAGCIKOA@?$AAb?$AAa?$AAs?$AAe?$AA?5?$AA?$CB?$AA?$DN?$AA?5?$AAN?$AAU?$AAL?$AAL?$AA?5?$AA?$HM?$AA?$HM?$AA?5?$AAn?$AAu?$AAm?$AA?5?$AA?$DN?$AA?$DN?$AA?5?$AA0?$AA?$AA@ 40087fdc     LIBCMTD:qsort.obj
 0002:00006010       ??_C@_1FO@NDBPJPLL@?$AAf?$AA?3?$AA?2?$AAd?$AAd?$AA?2?$AAv?$AAc?$AAt?$AAo?$AAo?$AAl?$AAs?$AA?2?$AAc?$AAr?$AAt?$AA_?$AAb?$AAl?$AAd?$AA?2?$AAs?$AAe?$AAl?$AAf?$AA_?$AAx?$AA8?$AA6?$AA?2?$AAc@ 40088010     LIBCMTD:qsort.obj
 0002:00006070       ??_C@_1M@INMHODIG@?$AAq?$AAs?$AAo?$AAr?$AAt?$AA?$AA@ 40088070     LIBCMTD:qsort.obj
 0002:0000607c       ??_C@_1BE@NJBEBBME@?$AAw?$AAi?$AAd?$AAt?$AAh?$AA?5?$AA?$DO?$AA?5?$AA0?$AA?$AA@ 4008807c     LIBCMTD:qsort.obj
 0002:00006090       ??_C@_1BK@HJGMBFLF@?$AAc?$AAo?$AAm?$AAp?$AA?5?$AA?$CB?$AA?$DN?$AA?5?$AAN?$AAU?$AAL?$AAL?$AA?$AA@ 40088090     LIBCMTD:qsort.obj
 0002:000060ac       __pDefaultRawDllMain       400880ac     LIBCMTD:dllcrt0.obj
 0002:000060ac       __pRawDllMain              400880ac     LIBCMTD:dllcrt0.obj
 0002:000060b0       ??_C@_0DB@OLNOAEGF@f?3?2dd?2vctools?2crt_bld?2self_x86?2c@ 400880b0     LIBCMTD:dllcrt0.obj
 0002:000069a0       __indefinite               400889a0     LIBCMTD:87disp.obj
 0002:000069aa       __piby2                    400889aa     LIBCMTD:87disp.obj
 0002:000069d8       __DEFAULT_CW_in_mem        400889d8     LIBCMTD:common.obj
 0002:000069da       __pi_by_2_to_61            400889da     LIBCMTD:common.obj
 0002:00006a14       ??_C@_03KHJOGHMM@exp?$AA@  40088a14     LIBCMTD:fpexcept.obj
 0002:00006a18       ??_C@_03JGHBODFD@pow?$AA@  40088a18     LIBCMTD:fpexcept.obj
 0002:00006a1c       ??_C@_03MGHMBJCF@log?$AA@  40088a1c     LIBCMTD:fpexcept.obj
 0002:00006a20       ??_C@_05HGHHAHAP@log10?$AA@ 40088a20     LIBCMTD:fpexcept.obj
 0002:00006a28       ??_C@_04COOMCNPB@sinh?$AA@ 40088a28     LIBCMTD:fpexcept.obj
 0002:00006a30       ??_C@_04HPJJNFIM@cosh?$AA@ 40088a30     LIBCMTD:fpexcept.obj
 0002:00006a38       ??_C@_04FJHINJAO@tanh?$AA@ 40088a38     LIBCMTD:fpexcept.obj
 0002:00006a40       ??_C@_04FIHNOPOL@asin?$AA@ 40088a40     LIBCMTD:fpexcept.obj
 0002:00006a48       ??_C@_04PDIFKINK@acos?$AA@ 40088a48     LIBCMTD:fpexcept.obj
 0002:00006a50       ??_C@_04MLLJIGOK@atan?$AA@ 40088a50     LIBCMTD:fpexcept.obj
 0002:00006a58       ??_C@_05KNGEOGJB@atan2?$AA@ 40088a58     LIBCMTD:fpexcept.obj
 0002:00006a60       ??_C@_04EIAKFFMI@sqrt?$AA@ 40088a60     LIBCMTD:fpexcept.obj
 0002:00006a68       ??_C@_03BLEJJJBH@sin?$AA@  40088a68     LIBCMTD:fpexcept.obj
 0002:00006a6c       ??_C@_03LALBNOCG@cos?$AA@  40088a6c     LIBCMTD:fpexcept.obj
 0002:00006a70       ??_C@_03IIINPABG@tan?$AA@  40088a70     LIBCMTD:fpexcept.obj
 0002:00006a74       ??_C@_04GFPJNGEK@ceil?$AA@ 40088a74     LIBCMTD:fpexcept.obj
 0002:00006a7c       ??_C@_05PBJFFIGL@floor?$AA@ 40088a7c     LIBCMTD:fpexcept.obj
 0002:00006a84       ??_C@_04ODHECPBC@fabs?$AA@ 40088a84     LIBCMTD:fpexcept.obj
 0002:00006a8c       ??_C@_04EHEDPDJG@modf?$AA@ 40088a8c     LIBCMTD:fpexcept.obj
 0002:00006a94       ??_C@_05CEJMAHNP@ldexp?$AA@ 40088a94     LIBCMTD:fpexcept.obj
 0002:00006a9c       ??_C@_05KBKMEMPO@_cabs?$AA@ 40088a9c     LIBCMTD:fpexcept.obj
 0002:00006aa4       ??_C@_06MEIMCGCF@_hypot?$AA@ 40088aa4     LIBCMTD:fpexcept.obj
 0002:00006aac       ??_C@_04KEPJIHGP@fmod?$AA@ 40088aac     LIBCMTD:fpexcept.obj
 0002:00006ab4       ??_C@_05GKKHEGJL@frexp?$AA@ 40088ab4     LIBCMTD:fpexcept.obj
 0002:00006abc       ??_C@_03MJLDFKDL@_y0?$AA@  40088abc     LIBCMTD:fpexcept.obj
 0002:00006ac0       ??_C@_03NAKIGLHK@_y1?$AA@  40088ac0     LIBCMTD:fpexcept.obj
 0002:00006ac4       ??_C@_03ONILCKOB@_yn?$AA@  40088ac4     LIBCMTD:fpexcept.obj
 0002:00006ac8       ??_C@_05JGDBENOH@_logb?$AA@ 40088ac8     LIBCMTD:fpexcept.obj
 0002:00006ad0       ??_C@_0L@KDOEJCKC@_nextafter?$AA@ 40088ad0     LIBCMTD:fpexcept.obj
 0002:00007380       ??_C@_1BO@LKEBEKJP@?$AAp?$AAV?$AAa?$AAl?$AAu?$AAe?$AA?5?$AA?$CB?$AA?$DN?$AA?5?$AAN?$AAU?$AAL?$AAL?$AA?$AA@ 40089380     LIBCMTD:dosmap.obj
 0002:000073a0       ??_C@_1GA@MFGIMPNL@?$AAf?$AA?3?$AA?2?$AAd?$AAd?$AA?2?$AAv?$AAc?$AAt?$AAo?$AAo?$AAl?$AAs?$AA?2?$AAc?$AAr?$AAt?$AA_?$AAb?$AAl?$AAd?$AA?2?$AAs?$AAe?$AAl?$AAf?$AA_?$AAx?$AA8?$AA6?$AA?2?$AAc@ 400893a0     LIBCMTD:dosmap.obj
 0002:00007400       ??_C@_1BG@KCMPBBDK@?$AA_?$AAg?$AAe?$AAt?$AA_?$AAe?$AAr?$AAr?$AAn?$AAo?$AA?$AA@ 40089400     LIBCMTD:dosmap.obj
 0002:00007418       ??_C@_1BM@INIPHHDD@?$AA_?$AAg?$AAe?$AAt?$AA_?$AAd?$AAo?$AAs?$AAe?$AAr?$AAr?$AAn?$AAo?$AA?$AA@ 40089418     LIBCMTD:dosmap.obj
 0002:00007434       ??_C@_1CA@MBDBOHIB@?$AA_?$AAL?$AAo?$AAc?$AAa?$AAl?$AAe?$AA?5?$AA?$CB?$AA?$DN?$AA?5?$AAN?$AAU?$AAL?$AAL?$AA?$AA@ 40089434     LIBCMTD:strgtold.obj
 0002:00007458       ??_C@_1IG@IGKPPFIM@?$AAf?$AA?3?$AA?2?$AAd?$AAd?$AA?2?$AAv?$AAc?$AAt?$AAo?$AAo?$AAl?$AAs?$AA?2?$AAc?$AAr?$AAt?$AA_?$AAb?$AAl?$AAd?$AA?2?$AAs?$AAe?$AAl?$AAf?$AA_?$AAx?$AA8?$AA6?$AA?2?$AAc@ 40089458     LIBCMTD:strgtold.obj
 0002:000074e0       ??_C@_1BO@IHLJHOPI@?$AA_?$AA_?$AAs?$AAt?$AAr?$AAg?$AAt?$AAo?$AAl?$AAd?$AA1?$AA2?$AA_?$AAl?$AA?$AA@ 400894e0     LIBCMTD:strgtold.obj
 0002:00007500       ??_C@_1BJK@FEBNHLFF@?$AA?$CI?$AA?$CI?$AAp?$AAt?$AAl?$AAo?$AAc?$AAi?$AA?9?$AA?$DO?$AAl?$AAc?$AA_?$AAc?$AAa?$AAt?$AAe?$AAg?$AAo?$AAr?$AAy?$AA?$FL?$AAc?$AAa?$AAt?$AAe?$AAg?$AAo?$AAr?$AAy?$AA?$FN?$AA?4@ 40089500     LIBCMTD:localref.obj
 0002:000076a0       ??_C@_1GE@HMAALBPJ@?$AAf?$AA?3?$AA?2?$AAd?$AAd?$AA?2?$AAv?$AAc?$AAt?$AAo?$AAo?$AAl?$AAs?$AA?2?$AAc?$AAr?$AAt?$AA_?$AAb?$AAl?$AAd?$AA?2?$AAs?$AAe?$AAl?$AAf?$AA_?$AAx?$AA8?$AA6?$AA?2?$AAc@ 400896a0     LIBCMTD:localref.obj
 0002:00007714       ??_C@_1M@HPNHIDJI@?$AAj?$AAa?$AA?9?$AAJ?$AAP?$AA?$AA@ 40089714     LIBCMTD:mbctype.obj
 0002:00007720       ??_C@_1M@BIBDDEMK@?$AAz?$AAh?$AA?9?$AAC?$AAN?$AA?$AA@ 40089720     LIBCMTD:mbctype.obj
 0002:0000772c       ??_C@_1M@JLOOOEGK@?$AAk?$AAo?$AA?9?$AAK?$AAR?$AA?$AA@ 4008972c     LIBCMTD:mbctype.obj
 0002:00007738       ??_C@_1M@CLNBBOPM@?$AAz?$AAh?$AA?9?$AAT?$AAW?$AA?$AA@ 40089738     LIBCMTD:mbctype.obj
 0002:00007744       ??_C@_0DB@MHMEONEC@f?3?2dd?2vctools?2crt_bld?2self_x86?2c@ 40089744     LIBCMTD:mbctype.obj
 0002:00007778       ??_C@_1CI@JELMFMDH@?$AAc?$AA?5?$AA?$DO?$AA?$DN?$AA?5?$AA?9?$AA1?$AA?5?$AA?$CG?$AA?$CG?$AA?5?$AAc?$AA?5?$AA?$DM?$AA?$DN?$AA?5?$AA2?$AA5?$AA5?$AA?$AA@ 40089778     LIBCMTD:isctype.obj
 0002:000077a0       ??_C@_1GC@CHGJNMHG@?$AAf?$AA?3?$AA?2?$AAd?$AAd?$AA?2?$AAv?$AAc?$AAt?$AAo?$AAo?$AAl?$AAs?$AA?2?$AAc?$AAr?$AAt?$AA_?$AAb?$AAl?$AAd?$AA?2?$AAs?$AAe?$AAl?$AAf?$AA_?$AAx?$AA8?$AA6?$AA?2?$AAc@ 400897a0     LIBCMTD:isctype.obj
 0002:00007804       ??_C@_0DC@LMJHGCKC@f?3?2dd?2vctools?2crt_bld?2self_x86?2c@ 40089804     LIBCMTD:tidtable.obj
 0002:00007844       ??_C@_1BA@GLMCNLEM@?$AAW?$AAa?$AAr?$AAn?$AAi?$AAn?$AAg?$AA?$AA@ 40089844     LIBCMTD:dbgrptw.obj
 0002:00007854       ??_C@_1M@ILHOPKA@?$AAE?$AAr?$AAr?$AAo?$AAr?$AA?$AA@ 40089854     LIBCMTD:dbgrptw.obj
 0002:00007860       ??_C@_1CC@CGHMNGDG@?$AAA?$AAs?$AAs?$AAe?$AAr?$AAt?$AAi?$AAo?$AAn?$AA?5?$AAF?$AAa?$AAi?$AAl?$AAe?$AAd?$AA?$AA@ 40089860     LIBCMTD:dbgrptw.obj
 0002:00007888       ??_C@_1HI@OFEHGPPC@?$AAm?$AAo?$AAd?$AAe?$AA?5?$AA?$DN?$AA?$DN?$AA?5?$AA_?$AAC?$AAR?$AAT?$AA_?$AAR?$AAP?$AAT?$AAH?$AAO?$AAO?$AAK?$AA_?$AAI?$AAN?$AAS?$AAT?$AAA?$AAL?$AAL?$AA?5?$AA?$HM?$AA?$HM?$AA?5@ 40089888     LIBCMTD:dbgrptw.obj
 0002:00007900       ??_C@_1GA@IBJGKIFE@?$AAf?$AA?3?$AA?2?$AAd?$AAd?$AA?2?$AAv?$AAc?$AAt?$AAo?$AAo?$AAl?$AAs?$AA?2?$AAc?$AAr?$AAt?$AA_?$AAb?$AAl?$AAd?$AA?2?$AAs?$AAe?$AAl?$AAf?$AA_?$AAx?$AA8?$AA6?$AA?2?$AAc@ 40089900     LIBCMTD:dbgrptw.obj
 0002:00007960       ??_C@_1CI@IIHEAKEI@?$AA_?$AAC?$AAr?$AAt?$AAS?$AAe?$AAt?$AAR?$AAe?$AAp?$AAo?$AAr?$AAt?$AAH?$AAo?$AAo?$AAk?$AAW?$AA2?$AA?$AA@ 40089960     LIBCMTD:dbgrptw.obj
 0002:00007988       ??_C@_1CG@JBJEFOCM@?$AAp?$AAf?$AAn?$AAN?$AAe?$AAw?$AAH?$AAo?$AAo?$AAk?$AA?5?$AA?$CB?$AA?$DN?$AA?5?$AAN?$AAU?$AAL?$AAL?$AA?$AA@ 40089988     LIBCMTD:dbgrptw.obj
 0002:000079b0       ??_C@_1FI@PHIAFFHM@?$AA?$CI?$AA?$CC?$AAT?$AAh?$AAe?$AA?5?$AAh?$AAo?$AAo?$AAk?$AA?5?$AAf?$AAu?$AAn?$AAc?$AAt?$AAi?$AAo?$AAn?$AA?5?$AAi?$AAs?$AA?5?$AAn?$AAo?$AAt?$AA?5?$AAi?$AAn?$AA?5?$AAt?$AAh@ 400899b0     LIBCMTD:dbgrptw.obj
 0002:00007a08       ??_C@_0DA@PCCBBBID@f?3?2dd?2vctools?2crt_bld?2self_x86?2c@ 40089a08     LIBCMTD:dbgrptw.obj
 0002:00007a38       ??_C@_1CI@PGJIFDEK@?$AA_?$AA_?$AAc?$AAr?$AAt?$AAM?$AAe?$AAs?$AAs?$AAa?$AAg?$AAe?$AAW?$AAi?$AAn?$AAd?$AAo?$AAw?$AAW?$AA?$AA@ 40089a38     LIBCMTD:dbgrptw.obj
 0002:00007a60       ??_C@_1GI@DEDNNLCI@?$AAw?$AAc?$AAs?$AAc?$AAp?$AAy?$AA_?$AAs?$AA?$CI?$AAs?$AAz?$AAE?$AAx?$AAe?$AAN?$AAa?$AAm?$AAe?$AA?0?$AA?5?$AA2?$AA6?$AA0?$AA?0?$AA?5?$AAL?$AA?$CC?$AA?$DM?$AAp?$AAr?$AAo?$AAg@ 40089a60     LIBCMTD:dbgrptw.obj
 0002:00007ac8       ??_C@_1NO@LECLLHOL@?$AAm?$AAe?$AAm?$AAc?$AAp?$AAy?$AA_?$AAs?$AA?$CI?$AAs?$AAz?$AAS?$AAh?$AAo?$AAr?$AAt?$AAP?$AAr?$AAo?$AAg?$AAN?$AAa?$AAm?$AAe?$AA?0?$AA?5?$AAs?$AAi?$AAz?$AAe?$AAo?$AAf@ 40089ac8     LIBCMTD:dbgrptw.obj
 0002:00007ba8       ??_C@_1OG@PMPPFHAF@?$AA?6?$AA?6?$AAF?$AAo?$AAr?$AA?5?$AAi?$AAn?$AAf?$AAo?$AAr?$AAm?$AAa?$AAt?$AAi?$AAo?$AAn?$AA?5?$AAo?$AAn?$AA?5?$AAh?$AAo?$AAw?$AA?5?$AAy?$AAo?$AAu?$AAr?$AA?5?$AAp?$AAr@ 40089ba8     LIBCMTD:dbgrptw.obj
 0002:00007c90       ??_C@_11LOCGONAA@?$AA?$AA@ 40089c90     LIBCMTD:dbgrptw.obj
 0002:00007c94       ??_C@_1BA@GLLGCPCK@?$AA?6?$AAL?$AAi?$AAn?$AAe?$AA?3?$AA?5?$AA?$AA@ 40089c94     LIBCMTD:dbgrptw.obj
 0002:00007ca4       ??_C@_1BA@LNHECFIM@?$AA?6?$AAF?$AAi?$AAl?$AAe?$AA?3?$AA?5?$AA?$AA@ 40089ca4     LIBCMTD:dbgrptw.obj
 0002:00007cb4       ??_C@_1BE@CGCJKGHI@?$AA?6?$AAM?$AAo?$AAd?$AAu?$AAl?$AAe?$AA?3?$AA?5?$AA?$AA@ 40089cb4     LIBCMTD:dbgrptw.obj
 0002:00007cc8       ??_C@_1KM@HNMIBKJH@?$AAD?$AAe?$AAb?$AAu?$AAg?$AA?5?$AA?$CF?$AAs?$AA?$CB?$AA?6?$AA?6?$AAP?$AAr?$AAo?$AAg?$AAr?$AAa?$AAm?$AA?3?$AA?5?$AA?$CF?$AAs?$AA?$CF?$AAs?$AA?$CF?$AAs?$AA?$CF?$AAs?$AA?$CF?$AAs?$AA?$CF?$AAs@ 40089cc8     LIBCMTD:dbgrptw.obj
 0002:00007d74       ??_C@_1BI@KALLJECN@?$AA?$CI?$AA?$CK?$AA_?$AAe?$AAr?$AAr?$AAn?$AAo?$AA?$CI?$AA?$CJ?$AA?$CJ?$AA?$AA@ 40089d74     LIBCMTD:dbgrptw.obj
 0002:00007d90       ??_C@_1JI@EACPGHID@?$AAw?$AAc?$AAs?$AAc?$AAp?$AAy?$AA_?$AAs?$AA?$CI?$AAs?$AAz?$AAO?$AAu?$AAt?$AAM?$AAe?$AAs?$AAs?$AAa?$AAg?$AAe?$AA?0?$AA?5?$AA4?$AA0?$AA9?$AA6?$AA?0?$AA?5?$AAL?$AA?$CC?$AA_@ 40089d90     LIBCMTD:dbgrptw.obj
 0002:00007e28       ??_C@_1FG@BBOLDHGF@?$AA_?$AAC?$AAr?$AAt?$AAD?$AAb?$AAg?$AAR?$AAe?$AAp?$AAo?$AAr?$AAt?$AA?3?$AA?5?$AAS?$AAt?$AAr?$AAi?$AAn?$AAg?$AA?5?$AAt?$AAo?$AAo?$AA?5?$AAl?$AAo?$AAn?$AAg?$AA?5?$AAo@ 40089e28     LIBCMTD:dbgrptw.obj
 0002:00007e80       ??_C@_03KOEHGMDN@Sun?$AA@  40089e80     LIBCMTD:nlsdata.obj
 0002:00007e84       ??_C@_03PDAGKDH@Mon?$AA@   40089e84     LIBCMTD:nlsdata.obj
 0002:00007e88       ??_C@_03NAGEINEP@Tue?$AA@  40089e88     LIBCMTD:nlsdata.obj
 0002:00007e8c       ??_C@_03MHOMLAJA@Wed?$AA@  40089e8c     LIBCMTD:nlsdata.obj
 0002:00007e90       ??_C@_03IOFIKPDN@Thu?$AA@  40089e90     LIBCMTD:nlsdata.obj
 0002:00007e94       ??_C@_03IDIOELNC@Fri?$AA@  40089e94     LIBCMTD:nlsdata.obj
 0002:00007e98       ??_C@_03FEFJNEK@Sat?$AA@   40089e98     LIBCMTD:nlsdata.obj
 0002:00007e9c       ??_C@_06OOPIFAJ@Sunday?$AA@ 40089e9c     LIBCMTD:nlsdata.obj
 0002:00007ea4       ??_C@_06JLEDEDGH@Monday?$AA@ 40089ea4     LIBCMTD:nlsdata.obj
 0002:00007eac       ??_C@_07BAAGCFCM@Tuesday?$AA@ 40089eac     LIBCMTD:nlsdata.obj
 0002:00007eb4       ??_C@_09DLIGFAKA@Wednesday?$AA@ 40089eb4     LIBCMTD:nlsdata.obj
 0002:00007ec0       ??_C@_08HACCIKIA@Thursday?$AA@ 40089ec0     LIBCMTD:nlsdata.obj
 0002:00007ecc       ??_C@_06JECMNKMI@Friday?$AA@ 40089ecc     LIBCMTD:nlsdata.obj
 0002:00007ed4       ??_C@_08INBOOONO@Saturday?$AA@ 40089ed4     LIBCMTD:nlsdata.obj
 0002:00007ee0       ??_C@_03JIHJHPIE@Jan?$AA@  40089ee0     LIBCMTD:nlsdata.obj
 0002:00007ee4       ??_C@_03HJBDCHOM@Feb?$AA@  40089ee4     LIBCMTD:nlsdata.obj
 0002:00007ee8       ??_C@_03ODNJBKGA@Mar?$AA@  40089ee8     LIBCMTD:nlsdata.obj
 0002:00007eec       ??_C@_03LEOLGMJP@Apr?$AA@  40089eec     LIBCMTD:nlsdata.obj
 0002:00007ef0       ??_C@_03CNMDKL@May?$AA@    40089ef0     LIBCMTD:nlsdata.obj
 0002:00007ef4       ??_C@_03IDFGHECI@Jun?$AA@  40089ef4     LIBCMTD:nlsdata.obj
 0002:00007ef8       ??_C@_03LBGABGKK@Jul?$AA@  40089ef8     LIBCMTD:nlsdata.obj
 0002:00007efc       ??_C@_03IFJFEIGA@Aug?$AA@  40089efc     LIBCMTD:nlsdata.obj
 0002:00007f00       ??_C@_03GGCAPAJC@Sep?$AA@  40089f00     LIBCMTD:nlsdata.obj
 0002:00007f04       ??_C@_03BMAOKBAD@Oct?$AA@  40089f04     LIBCMTD:nlsdata.obj
 0002:00007f08       ??_C@_03JPJOFNIA@Nov?$AA@  40089f08     LIBCMTD:nlsdata.obj
 0002:00007f0c       ??_C@_03MKABNOCG@Dec?$AA@  40089f0c     LIBCMTD:nlsdata.obj
 0002:00007f10       ??_C@_07CGJPFGJA@January?$AA@ 40089f10     LIBCMTD:nlsdata.obj
 0002:00007f18       ??_C@_08GNJGEPFN@February?$AA@ 40089f18     LIBCMTD:nlsdata.obj
 0002:00007f24       ??_C@_05HPCKOFNC@March?$AA@ 40089f24     LIBCMTD:nlsdata.obj
 0002:00007f2c       ??_C@_05DMJDNLEJ@April?$AA@ 40089f2c     LIBCMTD:nlsdata.obj
 0002:00007f34       ??_C@_04CNLMGBGM@June?$AA@ 40089f34     LIBCMTD:nlsdata.obj
 0002:00007f3c       ??_C@_04MIEPOIFP@July?$AA@ 40089f3c     LIBCMTD:nlsdata.obj
 0002:00007f44       ??_C@_06LBBHFDDG@August?$AA@ 40089f44     LIBCMTD:nlsdata.obj
 0002:00007f4c       ??_C@_09BHHEALKD@September?$AA@ 40089f4c     LIBCMTD:nlsdata.obj
 0002:00007f58       ??_C@_07JJNFCEND@October?$AA@ 40089f58     LIBCMTD:nlsdata.obj
 0002:00007f60       ??_C@_08HCHEGEOA@November?$AA@ 40089f60     LIBCMTD:nlsdata.obj
 0002:00007f6c       ??_C@_08EDHMEBNP@December?$AA@ 40089f6c     LIBCMTD:nlsdata.obj
 0002:00007f78       ??_C@_02DEDBPAFC@AM?$AA@   40089f78     LIBCMTD:nlsdata.obj
 0002:00007f7c       ??_C@_02CJNFDJBF@PM?$AA@   40089f7c     LIBCMTD:nlsdata.obj
 0002:00007f80       ??_C@_08BPBNCDIB@MM?1dd?1yy?$AA@ 40089f80     LIBCMTD:nlsdata.obj
 0002:00007f8c       ??_C@_0BE@CKGJFCPC@dddd?0?5MMMM?5dd?0?5yyyy?$AA@ 40089f8c     LIBCMTD:nlsdata.obj
 0002:00007fa0       ??_C@_08JCCMCCIL@HH?3mm?3ss?$AA@ 40089fa0     LIBCMTD:nlsdata.obj
 0002:00007fac       ??_C@_17MBGCMIPB@?$AAS?$AAu?$AAn?$AA?$AA@ 40089fac     LIBCMTD:nlsdata.obj
 0002:00007fb4       ??_C@_17KBOMKBF@?$AAM?$AAo?$AAn?$AA?$AA@ 40089fb4     LIBCMTD:nlsdata.obj
 0002:00007fbc       ??_C@_17BMKGEGOJ@?$AAT?$AAu?$AAe?$AA?$AA@ 40089fbc     LIBCMTD:nlsdata.obj
 0002:00007fc4       ??_C@_17CJEDCEPE@?$AAW?$AAe?$AAd?$AA?$AA@ 40089fc4     LIBCMTD:nlsdata.obj
 0002:00007fcc       ??_C@_17PDPHAADD@?$AAT?$AAh?$AAu?$AA?$AA@ 40089fcc     LIBCMTD:nlsdata.obj
 0002:00007fd4       ??_C@_17HFOLPPLP@?$AAF?$AAr?$AAi?$AA?$AA@ 40089fd4     LIBCMTD:nlsdata.obj
 0002:00007fdc       ??_C@_17GGIBDPIH@?$AAS?$AAa?$AAt?$AA?$AA@ 40089fdc     LIBCMTD:nlsdata.obj
 0002:00007fe4       ??_C@_1O@IHNHDHPB@?$AAS?$AAu?$AAn?$AAd?$AAa?$AAy?$AA?$AA@ 40089fe4     LIBCMTD:nlsdata.obj
 0002:00007ff4       ??_C@_1O@MMNBFLIA@?$AAM?$AAo?$AAn?$AAd?$AAa?$AAy?$AA?$AA@ 40089ff4     LIBCMTD:nlsdata.obj
 0002:00008004       ??_C@_1BA@ENFBFFEK@?$AAT?$AAu?$AAe?$AAs?$AAd?$AAa?$AAy?$AA?$AA@ 4008a004     LIBCMTD:nlsdata.obj
 0002:00008014       ??_C@_1BE@EBOGMDOH@?$AAW?$AAe?$AAd?$AAn?$AAe?$AAs?$AAd?$AAa?$AAy?$AA?$AA@ 4008a014     LIBCMTD:nlsdata.obj
 0002:00008028       ??_C@_1BC@HHMNLIHE@?$AAT?$AAh?$AAu?$AAr?$AAs?$AAd?$AAa?$AAy?$AA?$AA@ 4008a028     LIBCMTD:nlsdata.obj
 0002:0000803c       ??_C@_1O@PDICJHAG@?$AAF?$AAr?$AAi?$AAd?$AAa?$AAy?$AA?$AA@ 4008a03c     LIBCMTD:nlsdata.obj
 0002:0000804c       ??_C@_1BC@ENMNNPAJ@?$AAS?$AAa?$AAt?$AAu?$AAr?$AAd?$AAa?$AAy?$AA?$AA@ 4008a04c     LIBCMTD:nlsdata.obj
 0002:00008060       ??_C@_17DKNBKCHM@?$AAJ?$AAa?$AAn?$AA?$AA@ 4008a060     LIBCMTD:nlsdata.obj
 0002:00008068       ??_C@_17LMDJEKJN@?$AAF?$AAe?$AAb?$AA?$AA@ 4008a068     LIBCMTD:nlsdata.obj
 0002:00008070       ??_C@_17CKNLEDEC@?$AAM?$AAa?$AAr?$AA?$AA@ 4008a070     LIBCMTD:nlsdata.obj
 0002:00008078       ??_C@_17LFPOIHDD@?$AAA?$AAp?$AAr?$AA?$AA@ 4008a078     LIBCMTD:nlsdata.obj
 0002:00008080       ??_C@_17PNNKMEED@?$AAM?$AAa?$AAy?$AA?$AA@ 4008a080     LIBCMTD:nlsdata.obj
 0002:00008088       ??_C@_17KCJGOCPB@?$AAJ?$AAu?$AAn?$AA?$AA@ 4008a088     LIBCMTD:nlsdata.obj
 0002:00008090       ??_C@_17IJPCKHK@?$AAJ?$AAu?$AAl?$AA?$AA@ 4008a090     LIBCMTD:nlsdata.obj
 0002:00008098       ??_C@_17ICPELBCN@?$AAA?$AAu?$AAg?$AA?$AA@ 4008a098     LIBCMTD:nlsdata.obj
 0002:000080a0       ??_C@_17HCHCOKMG@?$AAS?$AAe?$AAp?$AA?$AA@ 4008a0a0     LIBCMTD:nlsdata.obj
 0002:000080a8       ??_C@_17FNLKOI@?$AAO?$AAc?$AAt?$AA?$AA@ 4008a0a8     LIBCMTD:nlsdata.obj
 0002:000080b0       ??_C@_17BBDMLCIG@?$AAN?$AAo?$AAv?$AA?$AA@ 4008a0b0     LIBCMTD:nlsdata.obj
 0002:000080b8       ??_C@_17EGKACKIF@?$AAD?$AAe?$AAc?$AA?$AA@ 4008a0b8     LIBCMTD:nlsdata.obj
 0002:000080c0       ??_C@_1BA@EFMEIEBA@?$AAJ?$AAa?$AAn?$AAu?$AAa?$AAr?$AAy?$AA?$AA@ 4008a0c0     LIBCMTD:nlsdata.obj
 0002:000080d0       ??_C@_1BC@JGDDFFAM@?$AAF?$AAe?$AAb?$AAr?$AAu?$AAa?$AAr?$AAy?$AA?$AA@ 4008a0d0     LIBCMTD:nlsdata.obj
 0002:000080e4       ??_C@_1M@IKEENEDF@?$AAM?$AAa?$AAr?$AAc?$AAh?$AA?$AA@ 4008a0e4     LIBCMTD:nlsdata.obj
 0002:000080f0       ??_C@_1M@GJNLMHFD@?$AAA?$AAp?$AAr?$AAi?$AAl?$AA?$AA@ 4008a0f0     LIBCMTD:nlsdata.obj
 0002:000080fc       ??_C@_19EPFLPGAP@?$AAJ?$AAu?$AAn?$AAe?$AA?$AA@ 4008a0fc     LIBCMTD:nlsdata.obj
 0002:00008108       ??_C@_19BIFMLPCD@?$AAJ?$AAu?$AAl?$AAy?$AA?$AA@ 4008a108     LIBCMTD:nlsdata.obj
 0002:00008114       ??_C@_1O@PAHLKOAC@?$AAA?$AAu?$AAg?$AAu?$AAs?$AAt?$AA?$AA@ 4008a114     LIBCMTD:nlsdata.obj
 0002:00008124       ??_C@_1BE@DKAAMBJL@?$AAS?$AAe?$AAp?$AAt?$AAe?$AAm?$AAb?$AAe?$AAr?$AA?$AA@ 4008a124     LIBCMTD:nlsdata.obj
 0002:00008138       ??_C@_1BA@EPANDLNG@?$AAO?$AAc?$AAt?$AAo?$AAb?$AAe?$AAr?$AA?$AA@ 4008a138     LIBCMTD:nlsdata.obj
 0002:00008148       ??_C@_1BC@BGLIFPF@?$AAN?$AAo?$AAv?$AAe?$AAm?$AAb?$AAe?$AAr?$AA?$AA@ 4008a148     LIBCMTD:nlsdata.obj
 0002:0000815c       ??_C@_1BC@FEMKIFH@?$AAD?$AAe?$AAc?$AAe?$AAm?$AAb?$AAe?$AAr?$AA?$AA@ 4008a15c     LIBCMTD:nlsdata.obj
 0002:00008170       ??_C@_15ODEHAHHF@?$AAA?$AAM?$AA?$AA@ 4008a170     LIBCMTD:nlsdata.obj
 0002:00008178       ??_C@_15CLMNNGEL@?$AAP?$AAM?$AA?$AA@ 4008a178     LIBCMTD:nlsdata.obj
 0002:00008180       ??_C@_1BC@IEBCMHCM@?$AAM?$AAM?$AA?1?$AAd?$AAd?$AA?1?$AAy?$AAy?$AA?$AA@ 4008a180     LIBCMTD:nlsdata.obj
 0002:00008194       ??_C@_1CI@KNAKOEBC@?$AAd?$AAd?$AAd?$AAd?$AA?0?$AA?5?$AAM?$AAM?$AAM?$AAM?$AA?5?$AAd?$AAd?$AA?0?$AA?5?$AAy?$AAy?$AAy?$AAy?$AA?$AA@ 4008a194     LIBCMTD:nlsdata.obj
 0002:000081bc       ??_C@_1BC@GDGBMEMK@?$AAH?$AAH?$AA?3?$AAm?$AAm?$AA?3?$AAs?$AAs?$AA?$AA@ 4008a1bc     LIBCMTD:nlsdata.obj
 0002:000081d0       ??_C@_1M@BMHNFIME@?$AAe?$AAn?$AA?9?$AAU?$AAS?$AA?$AA@ 4008a1d0     LIBCMTD:nlsdata.obj
 0002:00008278       ??_C@_0NN@NGPKDKPD@The?5value?5of?5ESP?5was?5not?5properl@ 4008a278     LIBCMTD:error.obj
 0002:00008358       ??_C@_0BBN@GPMLNJCF@A?5cast?5to?5a?5smaller?5data?5type?5ha@ 4008a358     LIBCMTD:error.obj
 0002:00008478       ??_C@_0BN@FFOINMNJ@Stack?5memory?5was?5corrupted?6?$AN?$AA@ 4008a478     LIBCMTD:error.obj
 0002:00008498       ??_C@_0DG@HKJMLLLP@A?5local?5variable?5was?5used?5before@ 4008a498     LIBCMTD:error.obj
 0002:000084d0       ??_C@_0CM@NGINOKPC@Stack?5memory?5around?5_alloca?5was?5@ 4008a4d0     LIBCMTD:error.obj
 0002:000084fc       ??_C@_0BO@GNIAFIKK@Unknown?5Runtime?5Check?5Error?6?$AN?$AA@ 4008a4fc     LIBCMTD:error.obj
 0002:00008520       ??_C@_1GM@OLMCBDMB@?$AAR?$AAu?$AAn?$AAt?$AAi?$AAm?$AAe?$AA?5?$AAC?$AAh?$AAe?$AAc?$AAk?$AA?5?$AAE?$AAr?$AAr?$AAo?$AAr?$AA?4?$AA?6?$AA?$AN?$AA?5?$AAU?$AAn?$AAa?$AAb?$AAl?$AAe?$AA?5?$AAt?$AAo@ 4008a520     LIBCMTD:error.obj
 0002:00008590       ??_C@_1EA@NFKNIFJP@?$AAR?$AAu?$AAn?$AA?9?$AAT?$AAi?$AAm?$AAe?$AA?5?$AAC?$AAh?$AAe?$AAc?$AAk?$AA?5?$AAF?$AAa?$AAi?$AAl?$AAu?$AAr?$AAe?$AA?5?$AA?$CD?$AA?$CF?$AAd?$AA?5?$AA?9?$AA?5?$AA?$CF?$AAs?$AA?$AA@ 4008a590     LIBCMTD:error.obj
 0002:000085d0       ??_C@_0BB@PFFGGCJP@Unknown?5Filename?$AA@ 4008a5d0     LIBCMTD:error.obj
 0002:000085e4       ??_C@_0BE@GNBOBNCK@Unknown?5Module?5Name?$AA@ 4008a5e4     LIBCMTD:error.obj
 0002:000085f8       ??_C@_0CA@IODNCDPG@Run?9Time?5Check?5Failure?5?$CD?$CFd?5?9?5?$CFs?$AA@ 4008a5f8     LIBCMTD:error.obj
 0002:00008618       ??_C@_0CG@IAFNJNEE@Stack?5corrupted?5near?5unknown?5var@ 4008a618     LIBCMTD:error.obj
 0002:00008640       ??_C@_05MKKEDADM@?$CF?42X?5?$AA@ 4008a640     LIBCMTD:error.obj
 0002:00008648       ??_C@_1BG@OILDLIOJ@?$AAu?$AAs?$AAe?$AAr?$AA3?$AA2?$AA?4?$AAd?$AAl?$AAl?$AA?$AA@ 4008a648     LIBCMTD:error.obj
 0002:00008660       ??_C@_09FOPFMPEJ@wsprintfA?$AA@ 4008a660     LIBCMTD:error.obj
 0002:00008670       ??_C@_0EJ@LJKNEOLN@Stack?5area?5around?5_alloca?5memory@ 4008a670     LIBCMTD:error.obj
 0002:000086bc       ??_C@_08OMAHNMHJ@?6Data?3?5?$DM?$AA@ 4008a6bc     LIBCMTD:error.obj
 0002:000086c8       ??_C@_0CK@DKGBICFE@?6Allocation?5number?5within?5this?5f@ 4008a6c8     LIBCMTD:error.obj
 0002:000086f4       ??_C@_07DFDJCKFN@?6Size?3?5?$AA@ 4008a6f4     LIBCMTD:error.obj
 0002:000086fc       ??_C@_0N@MHFFIMFG@?6Address?3?50x?$AA@ 4008a6fc     LIBCMTD:error.obj
 0002:00008710       ??_C@_0EI@CLEPFNGI@Stack?5area?5around?5_alloca?5memory@ 4008a710     LIBCMTD:error.obj
 0002:00008758       ??_C@_0BC@KIBAILCI@?$CFs?$CFs?$CFp?$CFs?$CFld?$CFs?$CFd?$CFs?$AA@ 4008a758     LIBCMTD:error.obj
 0002:0000876c       ??_C@_01EEMJAFIK@?6?$AA@   4008a76c     LIBCMTD:error.obj
 0002:00008770       ??_C@_02LLMPMKNF@?$DO?5?$AA@ 4008a770     LIBCMTD:error.obj
 0002:00008774       ??_C@_08KJEDNCKC@?$CFs?$CFs?$CFs?$CFs?$AA@ 4008a774     LIBCMTD:error.obj
 0002:00008780       ??_C@_0DE@OHJBPMBP@A?5variable?5is?5being?5used?5without@ 4008a780     LIBCMTD:error.obj
 0002:000087c8       ??_C@_0BJ@HEGAHDFO@Stack?5pointer?5corruption?$AA@ 4008a7c8     LIBCMTD:userapi.obj
 0002:000087e4       ??_C@_0CK@FEGOIOPB@Cast?5to?5smaller?5type?5causing?5los@ 4008a7e4     LIBCMTD:userapi.obj
 0002:00008810       ??_C@_0BI@CIGMDCBH@Stack?5memory?5corruption?$AA@ 4008a810     LIBCMTD:userapi.obj
 0002:00008828       ??_C@_0CK@CNLNOEPB@Local?5variable?5used?5before?5initi@ 4008a828     LIBCMTD:userapi.obj
 0002:00008854       ??_C@_0BP@OGBCLIBO@Stack?5around?5_alloca?5corrupted?$AA@ 4008a854     LIBCMTD:userapi.obj
 0002:00008878       ??_C@_0NM@DNEDKLDF@The?5value?5of?5ESP?5was?5not?5properl@ 4008a878     LIBCMTD:chkesp.obj
 0002:00008954       ??_C@_0DP@CBBAPGOP@f?3?2dd?2vctools?2crt_bld?2self_x86?2c@ 4008a954     LIBCMTD:chkesp.obj
 0002:00008994       ??_C@_1BI@ICGGMGLK@?$AAb?$AAu?$AAf?$AA?5?$AA?$CB?$AA?$DN?$AA?5?$AAN?$AAU?$AAL?$AAL?$AA?$AA@ 4008a994     LIBCMTD:cvt.obj
 0002:000089b0       ??_C@_1GO@NCCGBNKI@?$AAf?$AA?3?$AA?2?$AAd?$AAd?$AA?2?$AAv?$AAc?$AAt?$AAo?$AAo?$AAl?$AAs?$AA?2?$AAc?$AAr?$AAt?$AA_?$AAb?$AAl?$AAd?$AA?2?$AAs?$AAe?$AAl?$AAf?$AA_?$AAx?$AA8?$AA6?$AA?2?$AAc@ 4008a9b0     LIBCMTD:cvt.obj
 0002:00008a20       ??_C@_1BE@OLBNEILL@?$AA_?$AAc?$AAf?$AAt?$AAo?$AAe?$AA2?$AA_?$AAl?$AA?$AA@ 4008aa20     LIBCMTD:cvt.obj
 0002:00008a34       ??_C@_1CA@CBMNPEO@?$AAs?$AAi?$AAz?$AAe?$AAI?$AAn?$AAB?$AAy?$AAt?$AAe?$AAs?$AA?5?$AA?$DO?$AA?5?$AA0?$AA?$AA@ 4008aa34     LIBCMTD:cvt.obj
 0002:00008a58       ??_C@_1HE@NACBNDPP@?$AAs?$AAi?$AAz?$AAe?$AAI?$AAn?$AAB?$AAy?$AAt?$AAe?$AAs?$AA?5?$AA?$DO?$AA?5?$AA?$CI?$AAs?$AAi?$AAz?$AAe?$AA_?$AAt?$AA?$CJ?$AA?$CI?$AA3?$AA?5?$AA?$CL?$AA?5?$AA?$CI?$AAn?$AAd?$AAe?$AAc@ 4008aa58     LIBCMTD:cvt.obj
 0002:00008ad0       ??_C@_1LE@EOIFGNCJ@?$AAs?$AAt?$AAr?$AAc?$AAp?$AAy?$AA_?$AAs?$AA?$CI?$AAp?$AA?0?$AA?5?$AA?$CI?$AAs?$AAi?$AAz?$AAe?$AAI?$AAn?$AAB?$AAy?$AAt?$AAe?$AAs?$AA?5?$AA?$DN?$AA?$DN?$AA?5?$AA?$CI?$AAs?$AAi?$AAz@ 4008aad0     LIBCMTD:cvt.obj
 0002:00008b84       ??_C@_05KLBDPFGC@e?$CL000?$AA@ 4008ab84     LIBCMTD:cvt.obj
 0002:00008b8c       ??_C@_1BC@INKAPMHI@?$AA_?$AAc?$AAf?$AAt?$AAo?$AAe?$AA_?$AAl?$AA?$AA@ 4008ab8c     LIBCMTD:cvt.obj
 0002:00008ba0       ??_C@_1BC@JOKPCIC@?$AA_?$AAc?$AAf?$AAt?$AAo?$AAa?$AA_?$AAl?$AA?$AA@ 4008aba0     LIBCMTD:cvt.obj
 0002:00008bb8       ??_C@_1FC@IKIMAMJB@?$AAs?$AAi?$AAz?$AAe?$AAI?$AAn?$AAB?$AAy?$AAt?$AAe?$AAs?$AA?5?$AA?$DO?$AA?5?$AA?$CI?$AAs?$AAi?$AAz?$AAe?$AA_?$AAt?$AA?$CJ?$AA?$CI?$AA1?$AA?5?$AA?$CL?$AA?5?$AA4?$AA?5?$AA?$CL?$AA?5?$AAn@ 4008abb8     LIBCMTD:cvt.obj
 0002:00008c0c       ??_C@_1BE@CKPDLI@?$AA_?$AAc?$AAf?$AAt?$AAo?$AAf?$AA2?$AA_?$AAl?$AA?$AA@ 4008ac0c     LIBCMTD:cvt.obj
 0002:00008c20       ??_C@_1BC@DCPPLJL@?$AA_?$AAc?$AAf?$AAt?$AAo?$AAf?$AA_?$AAl?$AA?$AA@ 4008ac20     LIBCMTD:cvt.obj
 0002:00008c34       ??_C@_1BC@MPIFPLAF@?$AA_?$AAc?$AAf?$AAt?$AAo?$AAg?$AA_?$AAl?$AA?$AA@ 4008ac34     LIBCMTD:cvt.obj
 0002:00008c48       ??_C@_1GG@PHGJJHBC@?$AAf?$AA?3?$AA?2?$AAd?$AAd?$AA?2?$AAv?$AAc?$AAt?$AAo?$AAo?$AAl?$AAs?$AA?2?$AAc?$AAr?$AAt?$AA_?$AAb?$AAl?$AAd?$AA?2?$AAs?$AAe?$AAl?$AAf?$AA_?$AAx?$AA8?$AA6?$AA?2?$AAc@ 4008ac48     LIBCMTD:fp8.obj
 0002:00008cb0       ??_C@_1CK@JMKHCBEI@?$AA_?$AAs?$AAe?$AAt?$AAd?$AAe?$AAf?$AAa?$AAu?$AAl?$AAt?$AAp?$AAr?$AAe?$AAc?$AAi?$AAs?$AAi?$AAo?$AAn?$AA?$AA@ 4008acb0     LIBCMTD:fp8.obj
 0002:00008ce0       ??_C@_1GE@KOCFNGPB@?$AA_?$AAc?$AAo?$AAn?$AAt?$AAr?$AAo?$AAl?$AAf?$AAp?$AA_?$AAs?$AA?$CI?$AA?$CI?$AA?$CI?$AAv?$AAo?$AAi?$AAd?$AA?5?$AA?$CK?$AA?$CJ?$AA0?$AA?$CJ?$AA?0?$AA?5?$AA0?$AAx?$AA0?$AA0?$AA0?$AA1@ 4008ace0     LIBCMTD:fp8.obj
 0002:00008d44       ??_C@_1BI@GKKCBDMD@?$AAd?$AAs?$AAt?$AA?5?$AA?$CB?$AA?$DN?$AA?5?$AAN?$AAU?$AAL?$AAL?$AA?$AA@ 4008ad44     LIBCMTD:memcpy_s.obj
 0002:00008d60       ??_C@_1GE@NEOPGGBM@?$AAf?$AA?3?$AA?2?$AAd?$AAd?$AA?2?$AAv?$AAc?$AAt?$AAo?$AAo?$AAl?$AAs?$AA?2?$AAc?$AAr?$AAt?$AA_?$AAb?$AAl?$AAd?$AA?2?$AAs?$AAe?$AAl?$AAf?$AA_?$AAx?$AA8?$AA6?$AA?2?$AAc@ 4008ad60     LIBCMTD:memcpy_s.obj
 0002:00008dc4       ??_C@_1BC@GKHDJMGB@?$AAm?$AAe?$AAm?$AAc?$AAp?$AAy?$AA_?$AAs?$AA?$AA@ 4008adc4     LIBCMTD:memcpy_s.obj
 0002:00008dd8       ??_C@_1BI@DCHLDCPP@?$AAs?$AAr?$AAc?$AA?5?$AA?$CB?$AA?$DN?$AA?5?$AAN?$AAU?$AAL?$AAL?$AA?$AA@ 4008add8     LIBCMTD:memcpy_s.obj
 0002:00008df0       ??_C@_1CK@DDKKOLAN@?$AAs?$AAi?$AAz?$AAe?$AAI?$AAn?$AAB?$AAy?$AAt?$AAe?$AAs?$AA?5?$AA?$DO?$AA?$DN?$AA?5?$AAc?$AAo?$AAu?$AAn?$AAt?$AA?$AA@ 4008adf0     LIBCMTD:memcpy_s.obj
 0002:00008e20       ??_C@_1FC@PFMLEHKI@?$AA?$CI?$AA?$CI?$AA_?$AAD?$AAs?$AAt?$AA?$CJ?$AA?$CJ?$AA?5?$AA?$CB?$AA?$DN?$AA?5?$AAN?$AAU?$AAL?$AAL?$AA?5?$AA?$CG?$AA?$CG?$AA?5?$AA?$CI?$AA?$CI?$AA_?$AAS?$AAi?$AAz?$AAe?$AAI?$AAn?$AAW?$AAo?$AAr@ 4008ae20     LIBCMTD:wcscat_s.obj
 0002:00008e78       ??_C@_1GI@NOKGIAGA@?$AAf?$AA?3?$AA?2?$AAd?$AAd?$AA?2?$AAv?$AAc?$AAt?$AAo?$AAo?$AAl?$AAs?$AA?2?$AAc?$AAr?$AAt?$AA_?$AAb?$AAl?$AAd?$AA?2?$AAs?$AAe?$AAl?$AAf?$AA_?$AAx?$AA8?$AA6?$AA?2?$AAc@ 4008ae78     LIBCMTD:wcscat_s.obj
 0002:00008ee0       ??_C@_1BC@PLIEPKPJ@?$AAw?$AAc?$AAs?$AAc?$AAa?$AAt?$AA_?$AAs?$AA?$AA@ 4008aee0     LIBCMTD:wcscat_s.obj
 0002:00008ef4       ??_C@_1CG@OFBJMIGJ@?$AA?$CI?$AA?$CI?$AA?$CI?$AA_?$AAS?$AAr?$AAc?$AA?$CJ?$AA?$CJ?$AA?$CJ?$AA?5?$AA?$CB?$AA?$DN?$AA?5?$AAN?$AAU?$AAL?$AAL?$AA?$AA@ 4008aef4     LIBCMTD:wcscat_s.obj
 0002:00008f1c       ??_C@_1DM@FHLMIEG@?$AAS?$AAt?$AAr?$AAi?$AAn?$AAg?$AA?5?$AAi?$AAs?$AA?5?$AAn?$AAo?$AAt?$AA?5?$AAn?$AAu?$AAl?$AAl?$AA?5?$AAt?$AAe?$AAr?$AAm?$AAi?$AAn?$AAa?$AAt?$AAe?$AAd?$AA?$AA@ 4008af1c     LIBCMTD:wcscat_s.obj
 0002:00008f58       ??_C@_1FA@MJKDNFFB@?$AA?$CI?$AAL?$AA?$CC?$AAS?$AAt?$AAr?$AAi?$AAn?$AAg?$AA?5?$AAi?$AAs?$AA?5?$AAn?$AAo?$AAt?$AA?5?$AAn?$AAu?$AAl?$AAl?$AA?5?$AAt?$AAe?$AAr?$AAm?$AAi?$AAn?$AAa?$AAt?$AAe?$AAd@ 4008af58     LIBCMTD:wcscat_s.obj
 0002:00008fa8       ??_C@_1CI@HCPHDDLE@?$AAB?$AAu?$AAf?$AAf?$AAe?$AAr?$AA?5?$AAi?$AAs?$AA?5?$AAt?$AAo?$AAo?$AA?5?$AAs?$AAm?$AAa?$AAl?$AAl?$AA?$AA@ 4008afa8     LIBCMTD:wcscat_s.obj
 0002:00008fd0       ??_C@_1DM@MADKGDLO@?$AA?$CI?$AAL?$AA?$CC?$AAB?$AAu?$AAf?$AAf?$AAe?$AAr?$AA?5?$AAi?$AAs?$AA?5?$AAt?$AAo?$AAo?$AA?5?$AAs?$AAm?$AAa?$AAl?$AAl?$AA?$CC?$AA?5?$AA?$CG?$AA?$CG?$AA?5?$AA0?$AA?$CJ?$AA?$AA@ 4008afd0     LIBCMTD:wcscat_s.obj
 0002:00009010       ??_C@_1GI@BGBNCIMA@?$AAf?$AA?3?$AA?2?$AAd?$AAd?$AA?2?$AAv?$AAc?$AAt?$AAo?$AAo?$AAl?$AAs?$AA?2?$AAc?$AAr?$AAt?$AA_?$AAb?$AAl?$AAd?$AA?2?$AAs?$AAe?$AAl?$AAf?$AA_?$AAx?$AA8?$AA6?$AA?2?$AAc@ 4008b010     LIBCMTD:wcscpy_s.obj
 0002:00009078       ??_C@_1BC@KIONAFPO@?$AAw?$AAc?$AAs?$AAc?$AAp?$AAy?$AA_?$AAs?$AA?$AA@ 4008b078     LIBCMTD:wcscpy_s.obj
 0002:00009090       ??_C@_1GK@DICCLCDF@?$AAf?$AA?3?$AA?2?$AAd?$AAd?$AA?2?$AAv?$AAc?$AAt?$AAo?$AAo?$AAl?$AAs?$AA?2?$AAc?$AAr?$AAt?$AA_?$AAb?$AAl?$AAd?$AA?2?$AAs?$AAe?$AAl?$AAf?$AA_?$AAx?$AA8?$AA6?$AA?2?$AAc@ 4008b090     LIBCMTD:wcsncat_s.obj
 0002:000090fc       ??_C@_1BE@KPKIKKCF@?$AAw?$AAc?$AAs?$AAn?$AAc?$AAa?$AAt?$AA_?$AAs?$AA?$AA@ 4008b0fc     LIBCMTD:wcsncat_s.obj
 0002:00009110       ??_C@_1BI@BGOHAHKC@?$AAm?$AAs?$AAc?$AAo?$AAr?$AAe?$AAe?$AA?4?$AAd?$AAl?$AAl?$AA?$AA@ 4008b110     LIBCMTD:crt0dat.obj
 0002:00009128       ??_C@_0P@MIGLKIOC@CorExitProcess?$AA@ 4008b128     LIBCMTD:crt0dat.obj
 0002:00009138       ??_C@_1GC@DGCPEDNJ@?$AAf?$AA?3?$AA?2?$AAd?$AAd?$AA?2?$AAv?$AAc?$AAt?$AAo?$AAo?$AAl?$AAs?$AA?2?$AAc?$AAr?$AAt?$AA_?$AAb?$AAl?$AAd?$AA?2?$AAs?$AAe?$AAl?$AAf?$AA_?$AAx?$AA8?$AA6?$AA?2?$AAc@ 4008b138     LIBCMTD:crt0dat.obj
 0002:0000919c       ??_C@_1BK@PNLDCCDP@?$AA_?$AAg?$AAe?$AAt?$AA_?$AAw?$AAp?$AAg?$AAm?$AAp?$AAt?$AAr?$AA?$AA@ 4008b19c     LIBCMTD:crt0dat.obj
 0002:000091b8       ??_C@_1CC@CDIPMFPD@?$AA_?$AAw?$AAp?$AAg?$AAm?$AAp?$AAt?$AAr?$AA?5?$AA?$CB?$AA?$DN?$AA?5?$AAN?$AAU?$AAL?$AAL?$AA?$AA@ 4008b1b8     LIBCMTD:crt0dat.obj
 0002:000091dc       ??_C@_1BI@COAAPHJK@?$AA_?$AAg?$AAe?$AAt?$AA_?$AAp?$AAg?$AAm?$AAp?$AAt?$AAr?$AA?$AA@ 4008b1dc     LIBCMTD:crt0dat.obj
 0002:000091f4       ??_C@_1CA@BBNAFCKO@?$AA_?$AAp?$AAg?$AAm?$AAp?$AAt?$AAr?$AA?5?$AA?$CB?$AA?$DN?$AA?5?$AAN?$AAU?$AAL?$AAL?$AA?$AA@ 4008b1f4     LIBCMTD:crt0dat.obj
 0002:00009214       ??_C@_1BK@DJNILIMN@?$AAp?$AAa?$AAt?$AAh?$AA?5?$AA?$CB?$AA?$DN?$AA?5?$AAN?$AAU?$AAL?$AAL?$AA?$AA@ 4008b214     LIBCMTD:crt0dat.obj
 0002:00009230       ??_C@_1DG@KANBJOCK@?$AA_?$AA_?$AAc?$AAo?$AAp?$AAy?$AA_?$AAp?$AAa?$AAt?$AAh?$AA_?$AAt?$AAo?$AA_?$AAw?$AAi?$AAd?$AAe?$AA_?$AAs?$AAt?$AAr?$AAi?$AAn?$AAg?$AA?$AA@ 4008b230     LIBCMTD:crt0dat.obj
 0002:00009268       ??_C@_1CA@BGODLPHH@?$AAo?$AAu?$AAt?$AAP?$AAa?$AAt?$AAh?$AA?5?$AA?$CB?$AA?$DN?$AA?5?$AAN?$AAU?$AAL?$AAL?$AA?$AA@ 4008b268     LIBCMTD:crt0dat.obj
 0002:00009288       ??_C@_0DB@LJJKGJFF@f?3?2dd?2vctools?2crt_bld?2self_x86?2c@ 4008b288     LIBCMTD:crt0dat.obj
 0002:000092bc       ??_C@_1DE@BCNCAIK@?$AA?$CI?$AA?$CC?$AAI?$AAn?$AAv?$AAa?$AAl?$AAi?$AAd?$AA?5?$AAe?$AAr?$AAr?$AAo?$AAr?$AA_?$AAm?$AAo?$AAd?$AAe?$AA?$CC?$AA?0?$AA?5?$AA0?$AA?$CJ?$AA?$AA@ 4008b2bc     LIBCMTD:errmode.obj
 0002:000092f0       ??_C@_1GC@FGMGFCNB@?$AAf?$AA?3?$AA?2?$AAd?$AAd?$AA?2?$AAv?$AAc?$AAt?$AAo?$AAo?$AAl?$AAs?$AA?2?$AAc?$AAr?$AAt?$AA_?$AAb?$AAl?$AAd?$AA?2?$AAs?$AAe?$AAl?$AAf?$AA_?$AAx?$AA8?$AA6?$AA?2?$AAc@ 4008b2f0     LIBCMTD:errmode.obj
 0002:00009354       ??_C@_1CA@LFDHAMEM@?$AA_?$AAs?$AAe?$AAt?$AA_?$AAe?$AAr?$AAr?$AAo?$AAr?$AA_?$AAm?$AAo?$AAd?$AAe?$AA?$AA@ 4008b354     LIBCMTD:errmode.obj
 0002:00009378       ??_C@_1FM@MFCBFCGB@?$AAf?$AA?3?$AA?2?$AAd?$AAd?$AA?2?$AAv?$AAc?$AAt?$AAo?$AAo?$AAl?$AAs?$AA?2?$AAc?$AAr?$AAt?$AA_?$AAb?$AAl?$AAd?$AA?2?$AAs?$AAe?$AAl?$AAf?$AA_?$AAx?$AA8?$AA6?$AA?2?$AAc@ 4008b378     LIBCMTD:xtows.obj
 0002:000093d4       ??_C@_1O@NCBFODOE@?$AAx?$AAt?$AAo?$AAw?$AA_?$AAs?$AA?$AA@ 4008b3d4     LIBCMTD:xtows.obj
 0002:000093e4       ??_C@_1CC@JNJFIMGE@?$AAs?$AAi?$AAz?$AAe?$AAI?$AAn?$AAT?$AAC?$AAh?$AAa?$AAr?$AAs?$AA?5?$AA?$DO?$AA?5?$AA0?$AA?$AA@ 4008b3e4     LIBCMTD:xtows.obj
 0002:00009408       ??_C@_1FA@MKGGAGEI@?$AAs?$AAi?$AAz?$AAe?$AAI?$AAn?$AAT?$AAC?$AAh?$AAa?$AAr?$AAs?$AA?5?$AA?$DO?$AA?5?$AA?$CI?$AAs?$AAi?$AAz?$AAe?$AA_?$AAt?$AA?$CJ?$AA?$CI?$AAi?$AAs?$AA_?$AAn?$AAe?$AAg?$AA?5?$AA?$DP@ 4008b408     LIBCMTD:xtows.obj
 0002:00009458       ??_C@_1DE@PCJGDBBD@?$AA2?$AA?5?$AA?$DM?$AA?$DN?$AA?5?$AAr?$AAa?$AAd?$AAi?$AAx?$AA?5?$AA?$CG?$AA?$CG?$AA?5?$AAr?$AAa?$AAd?$AAi?$AAx?$AA?5?$AA?$DM?$AA?$DN?$AA?5?$AA3?$AA6?$AA?$AA@ 4008b458     LIBCMTD:xtows.obj
 0002:0000948c       ??_C@_1CM@HABGDNLJ@?$AAl?$AAe?$AAn?$AAg?$AAt?$AAh?$AA?5?$AA?$DM?$AA?5?$AAs?$AAi?$AAz?$AAe?$AAI?$AAn?$AAT?$AAC?$AAh?$AAa?$AAr?$AAs?$AA?$AA@ 4008b48c     LIBCMTD:xtows.obj
 0002:000094b8       ??_C@_1BC@HDEJCFPB@?$AAx?$AA6?$AA4?$AAt?$AAo?$AAw?$AA_?$AAs?$AA?$AA@ 4008b4b8     LIBCMTD:xtows.obj
 0002:000094cc       ??_C@_0CP@BNKDODJJ@f?3?2dd?2vctools?2crt_bld?2self_x86?2c@ 4008b4cc     LIBCMTD:_file.obj
 0002:000094fc       ??_C@_1BM@JMKHIAHP@?$AA?$CI?$AAs?$AAt?$AAr?$AA?5?$AA?$CB?$AA?$DN?$AA?5?$AAN?$AAU?$AAL?$AAL?$AA?$CJ?$AA?$AA@ 4008b4fc     LIBCMTD:setvbuf.obj
 0002:00009518       ??_C@_1GC@FPPJLAOD@?$AAf?$AA?3?$AA?2?$AAd?$AAd?$AA?2?$AAv?$AAc?$AAt?$AAo?$AAo?$AAl?$AAs?$AA?2?$AAc?$AAr?$AAt?$AA_?$AAb?$AAl?$AAd?$AA?2?$AAs?$AAe?$AAl?$AAf?$AA_?$AAx?$AA8?$AA6?$AA?2?$AAc@ 4008b518     LIBCMTD:setvbuf.obj
 0002:0000957c       ??_C@_1BA@OGODIODK@?$AAs?$AAe?$AAt?$AAv?$AAb?$AAu?$AAf?$AA?$AA@ 4008b57c     LIBCMTD:setvbuf.obj
 0002:00009590       ??_C@_1HC@CBFEDAGG@?$AA?$CI?$AAt?$AAy?$AAp?$AAe?$AA?5?$AA?$DN?$AA?$DN?$AA?5?$AA_?$AAI?$AAO?$AAN?$AAB?$AAF?$AA?$CJ?$AA?5?$AA?$HM?$AA?$HM?$AA?5?$AA?$CI?$AAt?$AAy?$AAp?$AAe?$AA?5?$AA?$DN?$AA?$DN?$AA?5?$AA_?$AAI?$AAO@ 4008b590     LIBCMTD:setvbuf.obj
 0002:00009608       ??_C@_1EG@IJNJIDNB@?$AA?$CI?$AA?$CI?$AA2?$AA?5?$AA?$DM?$AA?$DN?$AA?5?$AAs?$AAi?$AAz?$AAe?$AA?$CJ?$AA?5?$AA?$CG?$AA?$CG?$AA?5?$AA?$CI?$AAs?$AAi?$AAz?$AAe?$AA?5?$AA?$DM?$AA?$DN?$AA?5?$AAI?$AAN?$AAT?$AA_?$AAM?$AAA?$AAX@ 4008b608     LIBCMTD:setvbuf.obj
 0002:00009650       ??_C@_0DB@MIGHMKAN@f?3?2dd?2vctools?2crt_bld?2self_x86?2c@ 4008b650     LIBCMTD:setvbuf.obj
 0002:00009688       ??_C@_1GE@NIBJAMDO@?$AAf?$AA?3?$AA?2?$AAd?$AAd?$AA?2?$AAv?$AAc?$AAt?$AAo?$AAo?$AAl?$AAs?$AA?2?$AAc?$AAr?$AAt?$AA_?$AAb?$AAl?$AAd?$AA?2?$AAs?$AAe?$AAl?$AAf?$AA_?$AAx?$AA8?$AA6?$AA?2?$AAc@ 4008b688     LIBCMTD:fwprintf.obj
 0002:000096ec       ??_C@_1BC@BHLPNJBO@?$AAf?$AAw?$AAp?$AAr?$AAi?$AAn?$AAt?$AAf?$AA?$AA@ 4008b6ec     LIBCMTD:fwprintf.obj
 0002:00009700       ??_C@_1GE@KINELFI@?$AAf?$AA?3?$AA?2?$AAd?$AAd?$AA?2?$AAv?$AAc?$AAt?$AAo?$AAo?$AAl?$AAs?$AA?2?$AAc?$AAr?$AAt?$AA_?$AAb?$AAl?$AAd?$AA?2?$AAs?$AAe?$AAl?$AAf?$AA_?$AAx?$AA8?$AA6?$AA?2?$AAc@ 4008b700     LIBCMTD:vswprnc.obj
 0002:00009764       ??_C@_1CE@IGKFIJFD@?$AA_?$AAv?$AAs?$AAw?$AAp?$AAr?$AAi?$AAn?$AAt?$AAf?$AA_?$AAh?$AAe?$AAl?$AAp?$AAe?$AAr?$AA?$AA@ 4008b764     LIBCMTD:vswprnc.obj
 0002:00009788       ??_C@_1EC@FABAOFFO@?$AA?$CI?$AAc?$AAo?$AAu?$AAn?$AAt?$AA?5?$AA?$DN?$AA?$DN?$AA?5?$AA0?$AA?$CJ?$AA?5?$AA?$HM?$AA?$HM?$AA?5?$AA?$CI?$AAs?$AAt?$AAr?$AAi?$AAn?$AAg?$AA?5?$AA?$CB?$AA?$DN?$AA?5?$AAN?$AAU?$AAL?$AAL?$AA?$CJ@ 4008b788     LIBCMTD:vswprnc.obj
 0002:000097cc       ??_C@_1BO@MLMCMBKN@?$AAf?$AAo?$AAr?$AAm?$AAa?$AAt?$AA?5?$AA?$CB?$AA?$DN?$AA?5?$AAN?$AAU?$AAL?$AAL?$AA?$AA@ 4008b7cc     LIBCMTD:vswprnc.obj
 0002:000097ec       ??_C@_1BO@OALHJLCI@?$AA_?$AAv?$AAs?$AAw?$AAp?$AAr?$AAi?$AAn?$AAt?$AAf?$AA_?$AAs?$AA_?$AAl?$AA?$AA@ 4008b7ec     LIBCMTD:vswprnc.obj
 0002:00009810       ??_C@_1EE@MPCHJFGP@?$AAs?$AAt?$AAr?$AAi?$AAn?$AAg?$AA?5?$AA?$CB?$AA?$DN?$AA?5?$AAN?$AAU?$AAL?$AAL?$AA?5?$AA?$CG?$AA?$CG?$AA?5?$AAs?$AAi?$AAz?$AAe?$AAI?$AAn?$AAW?$AAo?$AAr?$AAd?$AAs?$AA?5?$AA?$DO?$AA?5@ 4008b810     LIBCMTD:vswprnc.obj
 0002:00009854       ??_C@_1DA@HPBFKMEB@?$AA?$CI?$AA?$CC?$AAB?$AAu?$AAf?$AAf?$AAe?$AAr?$AA?5?$AAt?$AAo?$AAo?$AA?5?$AAs?$AAm?$AAa?$AAl?$AAl?$AA?$CC?$AA?0?$AA?5?$AA0?$AA?$CJ?$AA?$AA@ 4008b854     LIBCMTD:vswprnc.obj
 0002:00009884       ??_C@_1CA@BKFKMJFF@?$AA_?$AAv?$AAs?$AAn?$AAw?$AAp?$AAr?$AAi?$AAn?$AAt?$AAf?$AA_?$AAs?$AA_?$AAl?$AA?$AA@ 4008b884     LIBCMTD:vswprnc.obj
 0002:000098a4       ??_C@_0DA@ELJOOIJF@f?3?2dd?2vctools?2crt_bld?2self_x86?2c@ 4008b8a4     LIBCMTD:winsig.obj
 0002:000098d4       ??_C@_1DO@MLNEDKGB@?$AA?$CI?$AA?$CC?$AAI?$AAn?$AAv?$AAa?$AAl?$AAi?$AAd?$AA?5?$AAs?$AAi?$AAg?$AAn?$AAa?$AAl?$AA?5?$AAo?$AAr?$AA?5?$AAe?$AAr?$AAr?$AAo?$AAr?$AA?$CC?$AA?0?$AA?5?$AA0?$AA?$CJ?$AA?$AA@ 4008b8d4     LIBCMTD:winsig.obj
 0002:00009918       ??_C@_1GA@DBECNFG@?$AAf?$AA?3?$AA?2?$AAd?$AAd?$AA?2?$AAv?$AAc?$AAt?$AAo?$AAo?$AAl?$AAs?$AA?2?$AAc?$AAr?$AAt?$AA_?$AAb?$AAl?$AAd?$AA?2?$AAs?$AAe?$AAl?$AAf?$AA_?$AAx?$AA8?$AA6?$AA?2?$AAc@ 4008b918     LIBCMTD:winsig.obj
 0002:00009978       ??_C@_1O@EJLDHPPL@?$AAs?$AAi?$AAg?$AAn?$AAa?$AAl?$AA?$AA@ 4008b978     LIBCMTD:winsig.obj
 0002:00009988       ??_C@_1M@DMJEIKHL@?$AAr?$AAa?$AAi?$AAs?$AAe?$AA?$AA@ 4008b988     LIBCMTD:winsig.obj
 0002:00009994       ??_C@_1BG@GOEBHBDC@?$AAU?$AAS?$AAE?$AAR?$AA3?$AA2?$AA?4?$AAD?$AAL?$AAL?$AA?$AA@ 4008b994     LIBCMTD:crtmboxw.obj
 0002:000099ac       ??_C@_0M@DLDCCGNP@MessageBoxW?$AA@ 4008b9ac     LIBCMTD:crtmboxw.obj
 0002:000099b8       ??_C@_0BA@HNOPNCHB@GetActiveWindow?$AA@ 4008b9b8     LIBCMTD:crtmboxw.obj
 0002:000099c8       ??_C@_0BD@HHGDFDBJ@GetLastActivePopup?$AA@ 4008b9c8     LIBCMTD:crtmboxw.obj
 0002:000099dc       ??_C@_0BK@DEKFELLI@GetUserObjectInformationW?$AA@ 4008b9dc     LIBCMTD:crtmboxw.obj
 0002:000099f8       ??_C@_0BI@DFKBFLJE@GetProcessWindowStation?$AA@ 4008b9f8     LIBCMTD:crtmboxw.obj
 0002:00009ac8       ??_C@_1FK@PGACCAFB@?$AAR?$AA6?$AA0?$AA0?$AA2?$AA?$AN?$AA?6?$AA?9?$AA?5?$AAf?$AAl?$AAo?$AAa?$AAt?$AAi?$AAn?$AAg?$AA?5?$AAp?$AAo?$AAi?$AAn?$AAt?$AA?5?$AAs?$AAu?$AAp?$AAp?$AAo?$AAr?$AAt?$AA?5@ 4008bac8     LIBCMTD:crt0msg.obj
 0002:00009b28       ??_C@_1FE@LLNEDJMD@?$AAR?$AA6?$AA0?$AA0?$AA8?$AA?$AN?$AA?6?$AA?9?$AA?5?$AAn?$AAo?$AAt?$AA?5?$AAe?$AAn?$AAo?$AAu?$AAg?$AAh?$AA?5?$AAs?$AAp?$AAa?$AAc?$AAe?$AA?5?$AAf?$AAo?$AAr?$AA?5?$AAa?$AAr@ 4008bb28     LIBCMTD:crt0msg.obj
 0002:00009b80       ??_C@_1FI@HONFMGBI@?$AAR?$AA6?$AA0?$AA0?$AA9?$AA?$AN?$AA?6?$AA?9?$AA?5?$AAn?$AAo?$AAt?$AA?5?$AAe?$AAn?$AAo?$AAu?$AAg?$AAh?$AA?5?$AAs?$AAp?$AAa?$AAc?$AAe?$AA?5?$AAf?$AAo?$AAr?$AA?5?$AAe?$AAn@ 4008bb80     LIBCMTD:crt0msg.obj
 0002:00009bd8       ??_C@_1EG@BEHAGFJD@?$AAR?$AA6?$AA0?$AA1?$AA0?$AA?$AN?$AA?6?$AA?9?$AA?5?$AAa?$AAb?$AAo?$AAr?$AAt?$AA?$CI?$AA?$CJ?$AA?5?$AAh?$AAa?$AAs?$AA?5?$AAb?$AAe?$AAe?$AAn?$AA?5?$AAc?$AAa?$AAl?$AAl?$AAe?$AAd@ 4008bbd8     LIBCMTD:crt0msg.obj
 0002:00009c20       ??_C@_1FI@LOGNIKDM@?$AAR?$AA6?$AA0?$AA1?$AA6?$AA?$AN?$AA?6?$AA?9?$AA?5?$AAn?$AAo?$AAt?$AA?5?$AAe?$AAn?$AAo?$AAu?$AAg?$AAh?$AA?5?$AAs?$AAp?$AAa?$AAc?$AAe?$AA?5?$AAf?$AAo?$AAr?$AA?5?$AAt?$AAh@ 4008bc20     LIBCMTD:crt0msg.obj
 0002:00009c78       ??_C@_1FK@BEOGODMC@?$AAR?$AA6?$AA0?$AA1?$AA7?$AA?$AN?$AA?6?$AA?9?$AA?5?$AAu?$AAn?$AAe?$AAx?$AAp?$AAe?$AAc?$AAt?$AAe?$AAd?$AA?5?$AAm?$AAu?$AAl?$AAt?$AAi?$AAt?$AAh?$AAr?$AAe?$AAa?$AAd?$AA?5@ 4008bc78     LIBCMTD:crt0msg.obj
 0002:00009cd8       ??_C@_1EC@JIBHAOPH@?$AAR?$AA6?$AA0?$AA1?$AA8?$AA?$AN?$AA?6?$AA?9?$AA?5?$AAu?$AAn?$AAe?$AAx?$AAp?$AAe?$AAc?$AAt?$AAe?$AAd?$AA?5?$AAh?$AAe?$AAa?$AAp?$AA?5?$AAe?$AAr?$AAr?$AAo?$AAr?$AA?$AN?$AA?6@ 4008bcd8     LIBCMTD:crt0msg.obj
 0002:00009d20       ??_C@_1FC@ECHBIFBC@?$AAR?$AA6?$AA0?$AA1?$AA9?$AA?$AN?$AA?6?$AA?9?$AA?5?$AAu?$AAn?$AAa?$AAb?$AAl?$AAe?$AA?5?$AAt?$AAo?$AA?5?$AAo?$AAp?$AAe?$AAn?$AA?5?$AAc?$AAo?$AAn?$AAs?$AAo?$AAl?$AAe?$AA?5@ 4008bd20     LIBCMTD:crt0msg.obj
 0002:00009d78       ??_C@_1GK@FHCKBEFA@?$AAR?$AA6?$AA0?$AA2?$AA4?$AA?$AN?$AA?6?$AA?9?$AA?5?$AAn?$AAo?$AAt?$AA?5?$AAe?$AAn?$AAo?$AAu?$AAg?$AAh?$AA?5?$AAs?$AAp?$AAa?$AAc?$AAe?$AA?5?$AAf?$AAo?$AAr?$AA?5?$AA_?$AAo@ 4008bd78     LIBCMTD:crt0msg.obj
 0002:00009de8       ??_C@_1EM@MAADIHMB@?$AAR?$AA6?$AA0?$AA2?$AA5?$AA?$AN?$AA?6?$AA?9?$AA?5?$AAp?$AAu?$AAr?$AAe?$AA?5?$AAv?$AAi?$AAr?$AAt?$AAu?$AAa?$AAl?$AA?5?$AAf?$AAu?$AAn?$AAc?$AAt?$AAi?$AAo?$AAn?$AA?5?$AAc@ 4008bde8     LIBCMTD:crt0msg.obj
 0002:00009e38       ??_C@_1GK@MCAAGJMO@?$AAR?$AA6?$AA0?$AA2?$AA6?$AA?$AN?$AA?6?$AA?9?$AA?5?$AAn?$AAo?$AAt?$AA?5?$AAe?$AAn?$AAo?$AAu?$AAg?$AAh?$AA?5?$AAs?$AAp?$AAa?$AAc?$AAe?$AA?5?$AAf?$AAo?$AAr?$AA?5?$AAs?$AAt@ 4008be38     LIBCMTD:crt0msg.obj
 0002:00009ea8       ??_C@_1GK@MFGOKLAG@?$AAR?$AA6?$AA0?$AA2?$AA7?$AA?$AN?$AA?6?$AA?9?$AA?5?$AAn?$AAo?$AAt?$AA?5?$AAe?$AAn?$AAo?$AAu?$AAg?$AAh?$AA?5?$AAs?$AAp?$AAa?$AAc?$AAe?$AA?5?$AAf?$AAo?$AAr?$AA?5?$AAl?$AAo@ 4008bea8     LIBCMTD:crt0msg.obj
 0002:00009f18       ??_C@_1EK@HHFLMAOL@?$AAR?$AA6?$AA0?$AA2?$AA8?$AA?$AN?$AA?6?$AA?9?$AA?5?$AAu?$AAn?$AAa?$AAb?$AAl?$AAe?$AA?5?$AAt?$AAo?$AA?5?$AAi?$AAn?$AAi?$AAt?$AAi?$AAa?$AAl?$AAi?$AAz?$AAe?$AA?5?$AAh?$AAe@ 4008bf18     LIBCMTD:crt0msg.obj
 0002:00009f64       ??_C@_1DO@BMFCDCD@?$AAR?$AA6?$AA0?$AA3?$AA0?$AA?$AN?$AA?6?$AA?9?$AA?5?$AAC?$AAR?$AAT?$AA?5?$AAn?$AAo?$AAt?$AA?5?$AAi?$AAn?$AAi?$AAt?$AAi?$AAa?$AAl?$AAi?$AAz?$AAe?$AAd?$AA?$AN?$AA?6?$AA?$AA@ 4008bf64     LIBCMTD:crt0msg.obj
 0002:00009fa8       ??_C@_1MG@ENCOOIDF@?$AAR?$AA6?$AA0?$AA3?$AA1?$AA?$AN?$AA?6?$AA?9?$AA?5?$AAA?$AAt?$AAt?$AAe?$AAm?$AAp?$AAt?$AA?5?$AAt?$AAo?$AA?5?$AAi?$AAn?$AAi?$AAt?$AAi?$AAa?$AAl?$AAi?$AAz?$AAe?$AA?5?$AAt@ 4008bfa8     LIBCMTD:crt0msg.obj
 0002:0000a070       ??_C@_1GG@GOPILAJP@?$AAR?$AA6?$AA0?$AA3?$AA2?$AA?$AN?$AA?6?$AA?9?$AA?5?$AAn?$AAo?$AAt?$AA?5?$AAe?$AAn?$AAo?$AAu?$AAg?$AAh?$AA?5?$AAs?$AAp?$AAa?$AAc?$AAe?$AA?5?$AAf?$AAo?$AAr?$AA?5?$AAl?$AAo@ 4008c070     LIBCMTD:crt0msg.obj
 0002:0000a0d8       ??_C@_1BOO@KGEDBGAJ@?$AAR?$AA6?$AA0?$AA3?$AA3?$AA?$AN?$AA?6?$AA?9?$AA?5?$AAA?$AAt?$AAt?$AAe?$AAm?$AAp?$AAt?$AA?5?$AAt?$AAo?$AA?5?$AAu?$AAs?$AAe?$AA?5?$AAM?$AAS?$AAI?$AAL?$AA?5?$AAc?$AAo?$AAd@ 4008c0d8     LIBCMTD:crt0msg.obj
 0002:0000a2c8       ??_C@_1GG@MKFPEKFO@?$AAR?$AA6?$AA0?$AA3?$AA4?$AA?$AN?$AA?6?$AA?9?$AA?5?$AAi?$AAn?$AAc?$AAo?$AAn?$AAs?$AAi?$AAs?$AAt?$AAe?$AAn?$AAt?$AA?5?$AAo?$AAn?$AAe?$AAx?$AAi?$AAt?$AA?5?$AAb?$AAe?$AAg@ 4008c2c8     LIBCMTD:crt0msg.obj
 0002:0000a330       ??_C@_1BO@BFCDCGC@?$AAD?$AAO?$AAM?$AAA?$AAI?$AAN?$AA?5?$AAe?$AAr?$AAr?$AAo?$AAr?$AA?$AN?$AA?6?$AA?$AA@ 4008c330     LIBCMTD:crt0msg.obj
 0002:0000a350       ??_C@_1BK@KMOMNAAI@?$AAS?$AAI?$AAN?$AAG?$AA?5?$AAe?$AAr?$AAr?$AAo?$AAr?$AA?$AN?$AA?6?$AA?$AA@ 4008c350     LIBCMTD:crt0msg.obj
 0002:0000a36c       ??_C@_1BM@JBBEPPHI@?$AAT?$AAL?$AAO?$AAS?$AAS?$AA?5?$AAe?$AAr?$AAr?$AAo?$AAr?$AA?$AN?$AA?6?$AA?$AA@ 4008c36c     LIBCMTD:crt0msg.obj
 0002:0000a388       ??_C@_15JNBOKNOG@?$AA?$AN?$AA?6?$AA?$AA@ 4008c388     LIBCMTD:crt0msg.obj
 0002:0000a390       ??_C@_1BO@BKOMIGKJ@?$AAr?$AAu?$AAn?$AAt?$AAi?$AAm?$AAe?$AA?5?$AAe?$AAr?$AAr?$AAo?$AAr?$AA?5?$AA?$AA@ 4008c390     LIBCMTD:crt0msg.obj
 0002:0000a3b0       ??_C@_1GC@HKOJBOFF@?$AAf?$AA?3?$AA?2?$AAd?$AAd?$AA?2?$AAv?$AAc?$AAt?$AAo?$AAo?$AAl?$AAs?$AA?2?$AAc?$AAr?$AAt?$AA_?$AAb?$AAl?$AAd?$AA?2?$AAs?$AAe?$AAl?$AAf?$AA_?$AAx?$AA8?$AA6?$AA?2?$AAc@ 4008c3b0     LIBCMTD:crt0msg.obj
 0002:0000a414       ??_C@_1BI@EAHMBMEC@?$AA_?$AAN?$AAM?$AAS?$AAG?$AA_?$AAW?$AAR?$AAI?$AAT?$AAE?$AA?$AA@ 4008c414     LIBCMTD:crt0msg.obj
 0002:0000a430       ??_C@_1KO@BKLCKNFL@?$AAw?$AAc?$AAs?$AAc?$AAp?$AAy?$AA_?$AAs?$AA?$CI?$AAo?$AAu?$AAt?$AAm?$AAs?$AAg?$AA?0?$AA?5?$AA?$CI?$AAs?$AAi?$AAz?$AAe?$AAo?$AAf?$AA?$CI?$AAo?$AAu?$AAt?$AAm?$AAs?$AAg?$AA?$CJ@ 4008c430     LIBCMTD:crt0msg.obj
 0002:0000a4e0       ??_C@_1DE@JNGNBFGO@?$AAR?$AAu?$AAn?$AAt?$AAi?$AAm?$AAe?$AA?5?$AAE?$AAr?$AAr?$AAo?$AAr?$AA?$CB?$AA?6?$AA?6?$AAP?$AAr?$AAo?$AAg?$AAr?$AAa?$AAm?$AA?3?$AA?5?$AA?$AA@ 4008c4e0     LIBCMTD:crt0msg.obj
 0002:0000a518       ??_C@_1HK@FJJNAABO@?$AAw?$AAc?$AAs?$AAc?$AAp?$AAy?$AA_?$AAs?$AA?$CI?$AAp?$AAr?$AAo?$AAg?$AAn?$AAa?$AAm?$AAe?$AA?0?$AA?5?$AAp?$AAr?$AAo?$AAg?$AAn?$AAa?$AAm?$AAe?$AA_?$AAs?$AAi?$AAz?$AAe@ 4008c518     LIBCMTD:crt0msg.obj
 0002:0000a598       ??_C@_1HI@FLHKGEBE@?$AAw?$AAc?$AAs?$AAn?$AAc?$AAp?$AAy?$AA_?$AAs?$AA?$CI?$AAp?$AAc?$AAh?$AA?0?$AA?5?$AAp?$AAr?$AAo?$AAg?$AAn?$AAa?$AAm?$AAe?$AA_?$AAs?$AAi?$AAz?$AAe?$AA?5?$AA?9?$AA?5?$AA?$CI@ 4008c598     LIBCMTD:crt0msg.obj
 0002:0000a610       ??_C@_1IA@DCJGKHFO@?$AAw?$AAc?$AAs?$AAc?$AAa?$AAt?$AA_?$AAs?$AA?$CI?$AAo?$AAu?$AAt?$AAm?$AAs?$AAg?$AA?0?$AA?5?$AA?$CI?$AAs?$AAi?$AAz?$AAe?$AAo?$AAf?$AA?$CI?$AAo?$AAu?$AAt?$AAm?$AAs?$AAg?$AA?$CJ@ 4008c610     LIBCMTD:crt0msg.obj
 0002:0000a690       ??_C@_1IG@NMONDPP@?$AAw?$AAc?$AAs?$AAc?$AAa?$AAt?$AA_?$AAs?$AA?$CI?$AAo?$AAu?$AAt?$AAm?$AAs?$AAg?$AA?0?$AA?5?$AA?$CI?$AAs?$AAi?$AAz?$AAe?$AAo?$AAf?$AA?$CI?$AAo?$AAu?$AAt?$AAm?$AAs?$AAg?$AA?$CJ@ 4008c690     LIBCMTD:crt0msg.obj
 0002:0000a720       __OP_ATAN2jmptab           4008c720     LIBCMTD:87triga.obj
 0002:0000a7a0       ??_C@_1BK@MGMFAEKH@?$AAk?$AAe?$AAr?$AAn?$AAe?$AAl?$AA3?$AA2?$AA?4?$AAd?$AAl?$AAl?$AA?$AA@ 4008c7a0     LIBCMTD:winapisupp.obj
 0002:0000a7bc       ??_C@_08KNHFBNJ@FlsAlloc?$AA@ 4008c7bc     LIBCMTD:winapisupp.obj
 0002:0000a7c8       ??_C@_07PEJMOBNF@FlsFree?$AA@ 4008c7c8     LIBCMTD:winapisupp.obj
 0002:0000a7d0       ??_C@_0M@GDNOONDI@FlsGetValue?$AA@ 4008c7d0     LIBCMTD:winapisupp.obj
 0002:0000a7dc       ??_C@_0M@JCPCPOEF@FlsSetValue?$AA@ 4008c7dc     LIBCMTD:winapisupp.obj
 0002:0000a7e8       ??_C@_0BM@HCFOFFN@InitializeCriticalSectionEx?$AA@ 4008c7e8     LIBCMTD:winapisupp.obj
 0002:0000a804       ??_C@_0BD@KIEEOEEH@CreateSemaphoreExW?$AA@ 4008c804     LIBCMTD:winapisupp.obj
 0002:0000a818       ??_C@_0BI@BKLFFAPO@SetThreadStackGuarantee?$AA@ 4008c818     LIBCMTD:winapisupp.obj
 0002:0000a830       ??_C@_0BG@OGFAJCKC@CreateThreadpoolTimer?$AA@ 4008c830     LIBCMTD:winapisupp.obj
 0002:0000a848       ??_C@_0BD@LPLEMMDI@SetThreadpoolTimer?$AA@ 4008c848     LIBCMTD:winapisupp.obj
 0002:0000a85c       ??_C@_0CA@FMNJENH@WaitForThreadpoolTimerCallbacks?$AA@ 4008c85c     LIBCMTD:winapisupp.obj
 0002:0000a87c       ??_C@_0BF@DCFCCNOC@CloseThreadpoolTimer?$AA@ 4008c87c     LIBCMTD:winapisupp.obj
 0002:0000a894       ??_C@_0BF@FLABGKKM@CreateThreadpoolWait?$AA@ 4008c894     LIBCMTD:winapisupp.obj
 0002:0000a8ac       ??_C@_0BC@MGCOHNA@SetThreadpoolWait?$AA@ 4008c8ac     LIBCMTD:winapisupp.obj
 0002:0000a8c0       ??_C@_0BE@OCIOMIMP@CloseThreadpoolWait?$AA@ 4008c8c0     LIBCMTD:winapisupp.obj
 0002:0000a8d4       ??_C@_0BJ@LKGHFHBO@FlushProcessWriteBuffers?$AA@ 4008c8d4     LIBCMTD:winapisupp.obj
 0002:0000a8f0       ??_C@_0BP@KALKKPMO@FreeLibraryWhenCallbackReturns?$AA@ 4008c8f0     LIBCMTD:winapisupp.obj
 0002:0000a910       ??_C@_0BK@DFNBACLA@GetCurrentProcessorNumber?$AA@ 4008c910     LIBCMTD:winapisupp.obj
 0002:0000a92c       ??_C@_0BP@KHGALBC@GetLogicalProcessorInformation?$AA@ 4008c92c     LIBCMTD:winapisupp.obj
 0002:0000a94c       ??_C@_0BE@FKKLLFLM@CreateSymbolicLinkW?$AA@ 4008c94c     LIBCMTD:winapisupp.obj
 0002:0000a960       ??_C@_0BJ@OHNKDLIJ@SetDefaultDllDirectories?$AA@ 4008c960     LIBCMTD:winapisupp.obj
 0002:0000a97c       ??_C@_0BE@LJANKFHF@EnumSystemLocalesEx?$AA@ 4008c97c     LIBCMTD:winapisupp.obj
 0002:0000a990       ??_C@_0BA@IHGNDAEB@CompareStringEx?$AA@ 4008c990     LIBCMTD:winapisupp.obj
 0002:0000a9a0       ??_C@_0BA@EPCJIIPD@GetDateFormatEx?$AA@ 4008c9a0     LIBCMTD:winapisupp.obj
 0002:0000a9b0       ??_C@_0BA@ONOKGCMP@GetLocaleInfoEx?$AA@ 4008c9b0     LIBCMTD:winapisupp.obj
 0002:0000a9c0       ??_C@_0BA@CIJJKCJJ@GetTimeFormatEx?$AA@ 4008c9c0     LIBCMTD:winapisupp.obj
 0002:0000a9d0       ??_C@_0BJ@PBCCBIPI@GetUserDefaultLocaleName?$AA@ 4008c9d0     LIBCMTD:winapisupp.obj
 0002:0000a9ec       ??_C@_0BC@CELBKLLA@IsValidLocaleName?$AA@ 4008c9ec     LIBCMTD:winapisupp.obj
 0002:0000aa00       ??_C@_0O@KKBNKAPF@LCMapStringEx?$AA@ 4008ca00     LIBCMTD:winapisupp.obj
 0002:0000aa10       ??_C@_0BE@JOGNEJCI@GetCurrentPackageId?$AA@ 4008ca10     LIBCMTD:winapisupp.obj
 0002:0000aa24       ??_C@_1BI@MFCLPIBM@?$AAs?$AAt?$AAr?$AA?5?$AA?$CB?$AA?$DN?$AA?5?$AAN?$AAU?$AAL?$AAL?$AA?$AA@ 4008ca24     LIBCMTD:_flsbuf.obj
 0002:0000aa40       ??_C@_1GC@GNCCMPNN@?$AAf?$AA?3?$AA?2?$AAd?$AAd?$AA?2?$AAv?$AAc?$AAt?$AAo?$AAo?$AAl?$AAs?$AA?2?$AAc?$AAr?$AAt?$AA_?$AAb?$AAl?$AAd?$AA?2?$AAs?$AAe?$AAl?$AAf?$AA_?$AAx?$AA8?$AA6?$AA?2?$AAc@ 4008ca40     LIBCMTD:_flsbuf.obj
 0002:0000aaa8       ??_C@_1HO@MLMGPAFH@?$AA?$CI?$AA?$CC?$AAi?$AAn?$AAc?$AAo?$AAn?$AAs?$AAi?$AAs?$AAt?$AAe?$AAn?$AAt?$AA?5?$AAI?$AAO?$AAB?$AA?5?$AAf?$AAi?$AAe?$AAl?$AAd?$AAs?$AA?$CC?$AA?0?$AA?5?$AAs?$AAt?$AAr?$AAe@ 4008caa8     LIBCMTD:_flsbuf.obj
 0002:0000ab28       ??_C@_06OJHGLDPL@?$CInull?$CJ?$AA@ 4008cb28     LIBCMTD:output.obj
 0002:0000ab30       ??_C@_1O@CEDCILHN@?$AA?$CI?$AAn?$AAu?$AAl?$AAl?$AA?$CJ?$AA?$AA@ 4008cb30     LIBCMTD:output.obj
 0002:0000ab40       ___lookuptable             4008cb40     LIBCMTD:output.obj
 0002:0000ab9c       ??_C@_1CC@FADMNIL@?$AA?$CI?$AAs?$AAt?$AAr?$AAe?$AAa?$AAm?$AA?5?$AA?$CB?$AA?$DN?$AA?5?$AAN?$AAU?$AAL?$AAL?$AA?$CJ?$AA?$AA@ 4008cb9c     LIBCMTD:output.obj
 0002:0000abc0       ??_C@_1GA@HHFOFBLN@?$AAf?$AA?3?$AA?2?$AAd?$AAd?$AA?2?$AAv?$AAc?$AAt?$AAo?$AAo?$AAl?$AAs?$AA?2?$AAc?$AAr?$AAt?$AA_?$AAb?$AAl?$AAd?$AA?2?$AAs?$AAe?$AAl?$AAf?$AA_?$AAx?$AA8?$AA6?$AA?2?$AAc@ 4008cbc0     LIBCMTD:output.obj
 0002:0000ac20       ??_C@_1BE@IONLIDNC@?$AA_?$AAo?$AAu?$AAt?$AAp?$AAu?$AAt?$AA_?$AAl?$AA?$AA@ 4008cc20     LIBCMTD:output.obj
 0002:0000ac38       ??_C@_1BAA@ODEGEDCK@?$AA?$CI?$AA?5?$AA?$CI?$AA_?$AAS?$AAt?$AAr?$AAe?$AAa?$AAm?$AA?9?$AA?$DO?$AA_?$AAf?$AAl?$AAa?$AAg?$AA?5?$AA?$CG?$AA?5?$AA_?$AAI?$AAO?$AAS?$AAT?$AAR?$AAG?$AA?$CJ?$AA?5?$AA?$HM?$AA?$HM?$AA?5@ 4008cc38     LIBCMTD:output.obj
 0002:0000ad38       ??_C@_1CC@IFFHEMNF@?$AA?$CI?$AAc?$AAh?$AA?5?$AA?$CB?$AA?$DN?$AA?5?$AA_?$AAT?$AA?$CI?$AA?8?$AA?2?$AA0?$AA?8?$AA?$CJ?$AA?$CJ?$AA?$AA@ 4008cd38     LIBCMTD:output.obj
 0002:0000ad60       ??_C@_1EK@PNGFDECN@?$AA?$CI?$AA?$CC?$AA?8?$AAn?$AA?8?$AA?5?$AAf?$AAo?$AAr?$AAm?$AAa?$AAt?$AA?5?$AAs?$AAp?$AAe?$AAc?$AAi?$AAf?$AAi?$AAe?$AAr?$AA?5?$AAd?$AAi?$AAs?$AAa?$AAb?$AAl?$AAe?$AAd?$AA?$CC@ 4008cd60     LIBCMTD:output.obj
 0002:0000adac       ??_C@_0DA@NFBEBPEE@f?3?2dd?2vctools?2crt_bld?2self_x86?2c@ 4008cdac     LIBCMTD:output.obj
 0002:0000addc       ??_C@_1BI@KANOLAMF@?$AA_?$AAo?$AAu?$AAt?$AAp?$AAu?$AAt?$AA_?$AAp?$AA_?$AAl?$AA?$AA@ 4008cddc     LIBCMTD:outputp.obj
 0002:0000adf8       ??_C@_1JC@PFJNKEIO@?$AA?$CI?$AA?$CI?$AAt?$AAy?$AAp?$AAe?$AA_?$AAp?$AAo?$AAs?$AA?5?$AA?$DO?$AA?$DN?$AA?5?$AA0?$AA?$CJ?$AA?5?$AA?$CG?$AA?$CG?$AA?5?$AA?$CI?$AA?$CK?$AAe?$AAn?$AAd?$AA_?$AAp?$AAo?$AAs?$AA?5?$AA?$DN?$AA?$DN@ 4008cdf8     LIBCMTD:outputp.obj
 0002:0000ae90       ??_C@_1EE@DMAIGNBG@?$AA?$CI?$AA?$CC?$AAI?$AAn?$AAc?$AAo?$AAr?$AAr?$AAe?$AAc?$AAt?$AA?5?$AAf?$AAo?$AAr?$AAm?$AAa?$AAt?$AA?5?$AAs?$AAp?$AAe?$AAc?$AAi?$AAf?$AAi?$AAe?$AAr?$AA?$CC?$AA?0?$AA?5?$AA0@ 4008ce90     LIBCMTD:outputp.obj
 0002:0000aed8       ??_C@_1JE@NMBHOLFI@?$AA?$CI?$AA?$CI?$AAw?$AAi?$AAd?$AAt?$AAh?$AA_?$AAp?$AAo?$AAs?$AA?5?$AA?$DO?$AA?$DN?$AA?5?$AA0?$AA?$CJ?$AA?5?$AA?$CG?$AA?$CG?$AA?5?$AA?$CI?$AA?$CK?$AAe?$AAn?$AAd?$AA_?$AAp?$AAo?$AAs?$AA?5?$AA?$DN@ 4008ced8     LIBCMTD:outputp.obj
 0002:0000af70       ??_C@_1II@PIPIMLPF@?$AA_?$AAt?$AAv?$AAa?$AAl?$AAi?$AAd?$AAa?$AAt?$AAe?$AA_?$AAp?$AAa?$AAr?$AAa?$AAm?$AA_?$AAr?$AAe?$AAu?$AAs?$AAe?$AA?$CI?$AA?$CG?$AAp?$AAo?$AAs?$AA_?$AAv?$AAa?$AAl?$AAu@ 4008cf70     LIBCMTD:outputp.obj
 0002:0000aff8       ??_C@_1JG@JBJBOCFB@?$AA?$CI?$AA?$CI?$AAp?$AAr?$AAe?$AAc?$AAi?$AAs?$AA_?$AAp?$AAo?$AAs?$AA?5?$AA?$DO?$AA?$DN?$AA?5?$AA0?$AA?$CJ?$AA?5?$AA?$CG?$AA?$CG?$AA?5?$AA?$CI?$AA?$CK?$AAe?$AAn?$AAd?$AA_?$AAp?$AAo?$AAs?$AA?5@ 4008cff8     LIBCMTD:outputp.obj
 0002:0000b090       ??_C@_1IK@EIEPDKHJ@?$AA_?$AAt?$AAv?$AAa?$AAl?$AAi?$AAd?$AAa?$AAt?$AAe?$AA_?$AAp?$AAa?$AAr?$AAa?$AAm?$AA_?$AAr?$AAe?$AAu?$AAs?$AAe?$AA?$CI?$AA?$CG?$AAp?$AAo?$AAs?$AA_?$AAv?$AAa?$AAl?$AAu@ 4008d090     LIBCMTD:outputp.obj
 0002:0000b120       ??_C@_1EM@BNPHBBIA@?$AA?$CI?$AA?$CI?$AAt?$AAy?$AAp?$AAe?$AA_?$AAp?$AAo?$AAs?$AA?$DO?$AA?$DN?$AA0?$AA?$CJ?$AA?5?$AA?$CG?$AA?$CG?$AA?5?$AA?$CI?$AAt?$AAy?$AAp?$AAe?$AA_?$AAp?$AAo?$AAs?$AA?$DM?$AA_?$AAA?$AAR?$AAG@ 4008d120     LIBCMTD:outputp.obj
 0002:0000b170       ??_C@_1IK@MHEDJAMK@?$AA_?$AAt?$AAv?$AAa?$AAl?$AAi?$AAd?$AAa?$AAt?$AAe?$AA_?$AAp?$AAa?$AAr?$AAa?$AAm?$AA_?$AAr?$AAe?$AAu?$AAs?$AAe?$AA?$CI?$AA?$CG?$AAp?$AAo?$AAs?$AA_?$AAv?$AAa?$AAl?$AAu@ 4008d170     LIBCMTD:outputp.obj
 0002:0000b200       ??_C@_1IG@FDCPLALG@?$AA_?$AAt?$AAv?$AAa?$AAl?$AAi?$AAd?$AAa?$AAt?$AAe?$AA_?$AAp?$AAa?$AAr?$AAa?$AAm?$AA_?$AAr?$AAe?$AAu?$AAs?$AAe?$AA?$CI?$AA?$CG?$AAp?$AAo?$AAs?$AA_?$AAv?$AAa?$AAl?$AAu@ 4008d200     LIBCMTD:outputp.obj
 0002:0000b288       ??_C@_1IG@HJIMKDHC@?$AA_?$AAt?$AAv?$AAa?$AAl?$AAi?$AAd?$AAa?$AAt?$AAe?$AA_?$AAp?$AAa?$AAr?$AAa?$AAm?$AA_?$AAr?$AAe?$AAu?$AAs?$AAe?$AA?$CI?$AA?$CG?$AAp?$AAo?$AAs?$AA_?$AAv?$AAa?$AAl?$AAu@ 4008d288     LIBCMTD:outputp.obj
 0002:0000b310       ??_C@_1IM@DNGHAPLB@?$AA_?$AAt?$AAv?$AAa?$AAl?$AAi?$AAd?$AAa?$AAt?$AAe?$AA_?$AAp?$AAa?$AAr?$AAa?$AAm?$AA_?$AAr?$AAe?$AAu?$AAs?$AAe?$AA?$CI?$AA?$CG?$AAp?$AAo?$AAs?$AA_?$AAv?$AAa?$AAl?$AAu@ 4008d310     LIBCMTD:outputp.obj
 0002:0000b39c       ??_C@_1DG@GOHGNKHE@?$AAp?$AAa?$AAs?$AAs?$AA?5?$AA?$DN?$AA?$DN?$AA?5?$AAF?$AAO?$AAR?$AAM?$AAA?$AAT?$AA_?$AAO?$AAU?$AAT?$AAP?$AAU?$AAT?$AA_?$AAP?$AAA?$AAS?$AAS?$AA?$AA@ 4008d39c     LIBCMTD:outputp.obj
 0002:0000b3d8       ??_C@_1IK@NBGDDCBN@?$AA_?$AAt?$AAv?$AAa?$AAl?$AAi?$AAd?$AAa?$AAt?$AAe?$AA_?$AAp?$AAa?$AAr?$AAa?$AAm?$AA_?$AAr?$AAe?$AAu?$AAs?$AAe?$AA?$CI?$AA?$CG?$AAp?$AAo?$AAs?$AA_?$AAv?$AAa?$AAl?$AAu@ 4008d3d8     LIBCMTD:outputp.obj
 0002:0000b468       ??_C@_1JC@OACKELNN@?$AA_?$AAt?$AAv?$AAa?$AAl?$AAi?$AAd?$AAa?$AAt?$AAe?$AA_?$AAp?$AAa?$AAr?$AAa?$AAm?$AA_?$AAr?$AAe?$AAu?$AAs?$AAe?$AA?$CI?$AA?$CG?$AAp?$AAo?$AAs?$AA_?$AAv?$AAa?$AAl?$AAu@ 4008d468     LIBCMTD:outputp.obj
 0002:0000b500       ??_C@_1FK@LNCFKALM@?$AA?$CI?$AA?$CI?$AAs?$AAt?$AAa?$AAt?$AAe?$AA?5?$AA?$DN?$AA?$DN?$AA?5?$AAS?$AAT?$AA_?$AAN?$AAO?$AAR?$AAM?$AAA?$AAL?$AA?$CJ?$AA?5?$AA?$HM?$AA?$HM?$AA?5?$AA?$CI?$AAs?$AAt?$AAa?$AAt?$AAe?$AA?5@ 4008d500     LIBCMTD:outputp.obj
 0002:0000b560       ??_C@_1FK@BCPANIEK@?$AA?$CI?$AA?$CC?$AAM?$AAi?$AAs?$AAs?$AAi?$AAn?$AAg?$AA?5?$AAp?$AAo?$AAs?$AAi?$AAt?$AAi?$AAo?$AAn?$AA?5?$AAi?$AAn?$AA?5?$AAt?$AAh?$AAe?$AA?5?$AAf?$AAo?$AAr?$AAm?$AAa?$AAt@ 4008d560     LIBCMTD:outputp.obj
 0002:0000b5c0       ??_C@_1FE@KNPCCODH@?$AA?$CI?$AA?$CC?$AAC?$AAo?$AAr?$AAr?$AAu?$AAp?$AAt?$AAe?$AAd?$AA?5?$AAp?$AAo?$AAi?$AAn?$AAt?$AAe?$AAr?$AA?5?$AAp?$AAa?$AAs?$AAs?$AAe?$AAd?$AA?5?$AAt?$AAo?$AA?5?$AA_?$AAf@ 4008d5c0     LIBCMTD:a_map.obj
 0002:0000b618       ??_C@_1GA@INJGGEBC@?$AAf?$AA?3?$AA?2?$AAd?$AAd?$AA?2?$AAv?$AAc?$AAt?$AAo?$AAo?$AAl?$AAs?$AA?2?$AAc?$AAr?$AAt?$AA_?$AAb?$AAl?$AAd?$AA?2?$AAs?$AAe?$AAl?$AAf?$AA_?$AAx?$AA8?$AA6?$AA?2?$AAc@ 4008d618     LIBCMTD:a_map.obj
 0002:0000b678       ___lc_category             4008d678     LIBCMTD:wsetloca.obj
 0002:0000b6c0       ??_C@_1O@GIFLHMA@?$AAL?$AAC?$AA_?$AAA?$AAL?$AAL?$AA?$AA@ 4008d6c0     LIBCMTD:wsetloca.obj
 0002:0000b6d0       ??_C@_1BG@PPOMIBNJ@?$AAL?$AAC?$AA_?$AAC?$AAO?$AAL?$AAL?$AAA?$AAT?$AAE?$AA?$AA@ 4008d6d0     LIBCMTD:wsetloca.obj
 0002:0000b6e8       ??_C@_1BC@FFJGAPJM@?$AAL?$AAC?$AA_?$AAC?$AAT?$AAY?$AAP?$AAE?$AA?$AA@ 4008d6e8     LIBCMTD:wsetloca.obj
 0002:0000b6fc       ??_C@_1BI@PCKFNJFB@?$AAL?$AAC?$AA_?$AAM?$AAO?$AAN?$AAE?$AAT?$AAA?$AAR?$AAY?$AA?$AA@ 4008d6fc     LIBCMTD:wsetloca.obj
 0002:0000b714       ??_C@_1BG@ENIEDKID@?$AAL?$AAC?$AA_?$AAN?$AAU?$AAM?$AAE?$AAR?$AAI?$AAC?$AA?$AA@ 4008d714     LIBCMTD:wsetloca.obj
 0002:0000b72c       ??_C@_1BA@HAAOMIIG@?$AAL?$AAC?$AA_?$AAT?$AAI?$AAM?$AAE?$AA?$AA@ 4008d72c     LIBCMTD:wsetloca.obj
 0002:0000b7c0       ??_C@_1GA@LDEGDKD@?$AA?$CI?$AA?$CC?$AAI?$AAn?$AAv?$AAa?$AAl?$AAi?$AAd?$AA?5?$AAp?$AAa?$AAr?$AAa?$AAm?$AAe?$AAt?$AAe?$AAr?$AA?5?$AAf?$AAo?$AAr?$AA?5?$AA_?$AAc?$AAo?$AAn?$AAf?$AAi?$AAg?$AAt@ 4008d7c0     LIBCMTD:wsetloca.obj
 0002:0000b820       ??_C@_1GE@GBFCCMHH@?$AAf?$AA?3?$AA?2?$AAd?$AAd?$AA?2?$AAv?$AAc?$AAt?$AAo?$AAo?$AAl?$AAs?$AA?2?$AAc?$AAr?$AAt?$AA_?$AAb?$AAl?$AAd?$AA?2?$AAs?$AAe?$AAl?$AAf?$AA_?$AAx?$AA8?$AA6?$AA?2?$AAc@ 4008d820     LIBCMTD:wsetloca.obj
 0002:0000b884       ??_C@_1CI@FGIONOJM@?$AA_?$AAc?$AAo?$AAn?$AAf?$AAi?$AAg?$AAt?$AAh?$AAr?$AAe?$AAa?$AAd?$AAl?$AAo?$AAc?$AAa?$AAl?$AAe?$AA?$AA@ 4008d884     LIBCMTD:wsetloca.obj
 0002:0000b8ac       ??_C@_0DC@NCPJHDFJ@f?3?2dd?2vctools?2crt_bld?2self_x86?2c@ 4008d8ac     LIBCMTD:wsetloca.obj
 0002:0000b8e0       ??_C@_1FG@OHLFEKMC@?$AAL?$AAC?$AA_?$AAM?$AAI?$AAN?$AA?5?$AA?$DM?$AA?$DN?$AA?5?$AA_?$AAc?$AAa?$AAt?$AAe?$AAg?$AAo?$AAr?$AAy?$AA?5?$AA?$CG?$AA?$CG?$AA?5?$AA_?$AAc?$AAa?$AAt?$AAe?$AAg?$AAo?$AAr?$AAy@ 4008d8e0     LIBCMTD:wsetloca.obj
 0002:0000b938       ??_C@_1BI@KJNPAEHL@?$AA_?$AAw?$AAs?$AAe?$AAt?$AAl?$AAo?$AAc?$AAa?$AAl?$AAe?$AA?$AA@ 4008d938     LIBCMTD:wsetloca.obj
 0002:0000b950       ??_C@_15NBPDDFIP@?$AA?$DN?$AA?$DL?$AA?$AA@ 4008d950     LIBCMTD:wsetloca.obj
 0002:0000b958       ??_C@_13PJJBFPED@?$AA?$DL?$AA?$AA@ 4008d958     LIBCMTD:wsetloca.obj
 0002:0000b95c       ??_C@_1CG@DKJCBBPP@?$AA_?$AAw?$AAs?$AAe?$AAt?$AAl?$AAo?$AAc?$AAa?$AAl?$AAe?$AA_?$AAn?$AAo?$AAl?$AAo?$AAc?$AAk?$AA?$AA@ 4008d95c     LIBCMTD:wsetloca.obj
 0002:0000b988       ??_C@_1IA@DGCOPCLP@?$AAw?$AAc?$AAs?$AAn?$AAc?$AAp?$AAy?$AA_?$AAs?$AA?$CI?$AAl?$AAc?$AAt?$AAe?$AAm?$AAp?$AA?0?$AA?5?$AA?$CI?$AAs?$AAi?$AAz?$AAe?$AAo?$AAf?$AA?$CI?$AAl?$AAc?$AAt?$AAe?$AAm?$AAp@ 4008d988     LIBCMTD:wsetloca.obj
 0002:0000ba08       ??_C@_1CI@ODOPEMNJ@?$AA_?$AAw?$AAs?$AAe?$AAt?$AAl?$AAo?$AAc?$AAa?$AAl?$AAe?$AA_?$AAs?$AAe?$AAt?$AA_?$AAc?$AAa?$AAt?$AA?$AA@ 4008da08     LIBCMTD:wsetloca.obj
 0002:0000ba30       ??_C@_1EM@MHOCNIAA@?$AAw?$AAc?$AAs?$AAc?$AAp?$AAy?$AA_?$AAs?$AA?$CI?$AAp?$AAc?$AAh?$AA_?$AAc?$AAa?$AAt?$AA_?$AAl?$AAo?$AAc?$AAa?$AAl?$AAe?$AA?0?$AA?5?$AAc?$AAc?$AAh?$AA?0?$AA?5?$AAl?$AAc@ 4008da30     LIBCMTD:wsetloca.obj
 0002:0000ba7c       ??_C@_13NMPKAAJP@?$AA?$DN?$AA?$AA@ 4008da7c     LIBCMTD:wsetloca.obj
 0002:0000ba80       ??_C@_1CI@LKOPFFBD@?$AA_?$AAw?$AAs?$AAe?$AAt?$AAl?$AAo?$AAc?$AAa?$AAl?$AAe?$AA_?$AAg?$AAe?$AAt?$AA_?$AAa?$AAl?$AAl?$AA?$AA@ 4008da80     LIBCMTD:wsetloca.obj
 0002:0000baa8       ??_C@_1DC@HMLJMODP@?$AAw?$AAc?$AAs?$AAc?$AAa?$AAt?$AA_?$AAs?$AA?$CI?$AAp?$AAc?$AAh?$AA?0?$AA?5?$AAc?$AAc?$AAh?$AA?0?$AA?5?$AAL?$AA?$CC?$AA?$DL?$AA?$CC?$AA?$CJ?$AA?$AA@ 4008daa8     LIBCMTD:wsetloca.obj
 0002:0000badc       ??_C@_1BM@OIIBLEFG@?$AA_?$AAe?$AAx?$AAp?$AAa?$AAn?$AAd?$AAl?$AAo?$AAc?$AAa?$AAl?$AAe?$AA?$AA@ 4008dadc     LIBCMTD:wsetloca.obj
 0002:0000baf8       ??_C@_1BFG@FHLOBJGM@?$AAw?$AAc?$AAs?$AAn?$AAc?$AAp?$AAy?$AA_?$AAs?$AA?$CI?$AAl?$AAo?$AAc?$AAa?$AAl?$AAe?$AAN?$AAa?$AAm?$AAe?$AAO?$AAu?$AAt?$AAp?$AAu?$AAt?$AA?0?$AA?5?$AAl?$AAo?$AAc?$AAa@ 4008daf8     LIBCMTD:wsetloca.obj
 0002:0000bc50       ??_C@_1EI@OCINLCHN@?$AAw?$AAc?$AAs?$AAc?$AAp?$AAy?$AA_?$AAs?$AA?$CI?$AAo?$AAu?$AAt?$AAp?$AAu?$AAt?$AA?0?$AA?5?$AAs?$AAi?$AAz?$AAe?$AAI?$AAn?$AAC?$AAh?$AAa?$AAr?$AAs?$AA?0?$AA?5?$AAL?$AA?$CC@ 4008dc50     LIBCMTD:wsetloca.obj
 0002:0000bc98       ??_C@_13FHBKNHDA@?$AAC?$AA?$AA@ 4008dc98     LIBCMTD:wsetloca.obj
 0002:0000bca0       ??_C@_1MO@NNCNEOAP@?$AAw?$AAc?$AAs?$AAn?$AAc?$AAp?$AAy?$AA_?$AAs?$AA?$CI?$AAl?$AAo?$AAc?$AAa?$AAl?$AAe?$AAN?$AAa?$AAm?$AAe?$AAO?$AAu?$AAt?$AAp?$AAu?$AAt?$AA?0?$AA?5?$AAl?$AAo?$AAc?$AAa@ 4008dca0     LIBCMTD:wsetloca.obj
 0002:0000bd70       ??_C@_1IG@MKDIEKFD@?$AAw?$AAc?$AAs?$AAn?$AAc?$AAp?$AAy?$AA_?$AAs?$AA?$CI?$AAc?$AAa?$AAc?$AAh?$AAe?$AAo?$AAu?$AAt?$AA?0?$AA?5?$AAc?$AAa?$AAc?$AAh?$AAe?$AAo?$AAu?$AAt?$AAL?$AAe?$AAn?$AA?0@ 4008dd70     LIBCMTD:wsetloca.obj
 0002:0000bdf8       ??_C@_1KK@KMIFPBBC@?$AAw?$AAc?$AAs?$AAn?$AAc?$AAp?$AAy?$AA_?$AAs?$AA?$CI?$AAl?$AAo?$AAc?$AAa?$AAl?$AAe?$AAN?$AAa?$AAm?$AAe?$AAO?$AAu?$AAt?$AAp?$AAu?$AAt?$AA?0?$AA?5?$AAl?$AAo?$AAc?$AAa@ 4008ddf8     LIBCMTD:wsetloca.obj
 0002:0000bea8       ??_C@_1BEK@OJDMMIMP@?$AAw?$AAc?$AAs?$AAn?$AAc?$AAp?$AAy?$AA_?$AAs?$AA?$CI?$AA_?$AAp?$AAs?$AAe?$AAt?$AAl?$AAo?$AAc?$AA_?$AAd?$AAa?$AAt?$AAa?$AA?9?$AA?$DO?$AA_?$AAc?$AAa?$AAc?$AAh?$AAe?$AAL@ 4008dea8     LIBCMTD:wsetloca.obj
 0002:0000bff8       ??_C@_1BGG@FCLLNAOE@?$AAw?$AAc?$AAs?$AAn?$AAc?$AAp?$AAy?$AA_?$AAs?$AA?$CI?$AA_?$AAp?$AAs?$AAe?$AAt?$AAl?$AAo?$AAc?$AA_?$AAd?$AAa?$AAt?$AAa?$AA?9?$AA?$DO?$AA_?$AAc?$AAa?$AAc?$AAh?$AAe?$AAL@ 4008dff8     LIBCMTD:wsetloca.obj
 0002:0000c160       ??_C@_1IC@FCCDBGLL@?$AAw?$AAc?$AAs?$AAn?$AAc?$AAp?$AAy?$AA_?$AAs?$AA?$CI?$AAc?$AAa?$AAc?$AAh?$AAe?$AAi?$AAn?$AA?0?$AA?5?$AAc?$AAa?$AAc?$AAh?$AAe?$AAi?$AAn?$AAL?$AAe?$AAn?$AA?0?$AA?5?$AAe@ 4008e160     LIBCMTD:wsetloca.obj
 0002:0000c1e8       ??_C@_1FA@HOOAAHFF@?$AAw?$AAc?$AAs?$AAc?$AAp?$AAy?$AA_?$AAs?$AA?$CI?$AAo?$AAu?$AAt?$AAp?$AAu?$AAt?$AA?0?$AA?5?$AAs?$AAi?$AAz?$AAe?$AAI?$AAn?$AAC?$AAh?$AAa?$AAr?$AAs?$AA?0?$AA?5?$AAc?$AAa@ 4008e1e8     LIBCMTD:wsetloca.obj
 0002:0000c238       ??_C@_1BC@LEOKFFML@?$AA_?$AAw?$AAc?$AAs?$AAc?$AAa?$AAt?$AAs?$AA?$AA@ 4008e238     LIBCMTD:wsetloca.obj
 0002:0000c250       ??_C@_1BII@IONPPCCF@?$AAw?$AAc?$AAs?$AAc?$AAa?$AAt?$AA_?$AAs?$AA?$CI?$AAo?$AAu?$AAt?$AAs?$AAt?$AAr?$AA?0?$AA?5?$AAn?$AAu?$AAm?$AAb?$AAe?$AAr?$AAO?$AAf?$AAE?$AAl?$AAe?$AAm?$AAe?$AAn?$AAt@ 4008e250     LIBCMTD:wsetloca.obj
 0002:0000c3d8       ??_C@_1BK@GNCHCGCN@?$AA_?$AA_?$AAl?$AAc?$AA_?$AAw?$AAc?$AAs?$AAt?$AAo?$AAl?$AAc?$AA?$AA@ 4008e3d8     LIBCMTD:wsetloca.obj
 0002:0000c3f8       ??_C@_1NI@NELJHJBO@?$AAw?$AAc?$AAs?$AAn?$AAc?$AAp?$AAy?$AA_?$AAs?$AA?$CI?$AAn?$AAa?$AAm?$AAe?$AAs?$AA?9?$AA?$DO?$AAs?$AAz?$AAC?$AAo?$AAd?$AAe?$AAP?$AAa?$AAg?$AAe?$AA?0?$AA?5?$AA?$CI?$AAs?$AAi@ 4008e3f8     LIBCMTD:wsetloca.obj
 0002:0000c4d0       ??_C@_17MBJJLFDM@?$AA_?$AA?4?$AA?0?$AA?$AA@ 4008e4d0     LIBCMTD:wsetloca.obj
 0002:0000c4d8       ??_C@_1MO@PBGOIBFL@?$AAw?$AAc?$AAs?$AAn?$AAc?$AAp?$AAy?$AA_?$AAs?$AA?$CI?$AAn?$AAa?$AAm?$AAe?$AAs?$AA?9?$AA?$DO?$AAs?$AAz?$AAL?$AAa?$AAn?$AAg?$AAu?$AAa?$AAg?$AAe?$AA?0?$AA?5?$AA?$CI?$AAs?$AAi@ 4008e4d8     LIBCMTD:wsetloca.obj
 0002:0000c5a8       ??_C@_1MI@CLMFNAAJ@?$AAw?$AAc?$AAs?$AAn?$AAc?$AAp?$AAy?$AA_?$AAs?$AA?$CI?$AAn?$AAa?$AAm?$AAe?$AAs?$AA?9?$AA?$DO?$AAs?$AAz?$AAC?$AAo?$AAu?$AAn?$AAt?$AAr?$AAy?$AA?0?$AA?5?$AA?$CI?$AAs?$AAi?$AAz@ 4008e5a8     LIBCMTD:wsetloca.obj
 0002:0000c670       ??_C@_1MO@NBFBMKCB@?$AAw?$AAc?$AAs?$AAn?$AAc?$AAp?$AAy?$AA_?$AAs?$AA?$CI?$AAn?$AAa?$AAm?$AAe?$AAs?$AA?9?$AA?$DO?$AAs?$AAz?$AAC?$AAo?$AAd?$AAe?$AAP?$AAa?$AAg?$AAe?$AA?0?$AA?5?$AA?$CI?$AAs?$AAi@ 4008e670     LIBCMTD:wsetloca.obj
 0002:0000c740       ??_C@_1BK@HEBMGPEK@?$AA_?$AA_?$AAl?$AAc?$AA_?$AAl?$AAc?$AAt?$AAo?$AAw?$AAc?$AAs?$AA?$AA@ 4008e740     LIBCMTD:wsetloca.obj
 0002:0000c760       ??_C@_1GM@FOFMGOEK@?$AAw?$AAc?$AAs?$AAc?$AAp?$AAy?$AA_?$AAs?$AA?$CI?$AAl?$AAo?$AAc?$AAa?$AAl?$AAe?$AA?0?$AA?5?$AAn?$AAu?$AAm?$AAb?$AAe?$AAr?$AAO?$AAf?$AAE?$AAl?$AAe?$AAm?$AAe?$AAn?$AAt@ 4008e760     LIBCMTD:wsetloca.obj
 0002:0000c7cc       ??_C@_13ENNFDPBH@?$AA_?$AA?$AA@ 4008e7cc     LIBCMTD:wsetloca.obj
 0002:0000c7d0       ??_C@_13JOFGPIOO@?$AA?4?$AA?$AA@ 4008e7d0     LIBCMTD:wsetloca.obj
 0002:0000c7d4       ??_C@_1CG@HCGEAFEA@?$AA_?$AA_?$AAc?$AAo?$AAp?$AAy?$AA_?$AAl?$AAo?$AAc?$AAa?$AAl?$AAe?$AA_?$AAn?$AAa?$AAm?$AAe?$AA?$AA@ 4008e7d4     LIBCMTD:wsetloca.obj
 0002:0000c800       ??_C@_1GI@HBNMCKGD@?$AAw?$AAc?$AAs?$AAn?$AAc?$AAp?$AAy?$AA_?$AAs?$AA?$CI?$AAl?$AAo?$AAc?$AAa?$AAl?$AAe?$AAN?$AAa?$AAm?$AAe?$AAC?$AAo?$AAp?$AAy?$AA?0?$AA?5?$AAc?$AAc?$AAh?$AA?$CL?$AA1?$AA?0@ 4008e800     LIBCMTD:wsetloca.obj
 0002:0000c868       ??_C@_1GA@GIMEIKLC@?$AAf?$AA?3?$AA?2?$AAd?$AAd?$AA?2?$AAv?$AAc?$AAt?$AAo?$AAo?$AAl?$AAs?$AA?2?$AAc?$AAr?$AAt?$AA_?$AAb?$AAl?$AAd?$AA?2?$AAs?$AAe?$AAl?$AAf?$AA_?$AAx?$AA8?$AA6?$AA?2?$AAc@ 4008e868     LIBCMTD:strtoq.obj
 0002:0000c8c8       ??_C@_1BA@BMMDEPNE@?$AAs?$AAt?$AAr?$AAt?$AAo?$AAx?$AAq?$AA?$AA@ 4008e8c8     LIBCMTD:strtoq.obj
 0002:0000c8d8       ??_C@_1FE@CEHLKAHD@?$AAi?$AAb?$AAa?$AAs?$AAe?$AA?5?$AA?$DN?$AA?$DN?$AA?5?$AA0?$AA?5?$AA?$HM?$AA?$HM?$AA?5?$AA?$CI?$AA2?$AA?5?$AA?$DM?$AA?$DN?$AA?5?$AAi?$AAb?$AAa?$AAs?$AAe?$AA?5?$AA?$CG?$AA?$CG?$AA?5?$AAi?$AAb?$AAa@ 4008e8d8     LIBCMTD:strtoq.obj
 0002:0000c930       ??_C@_1GA@IPHKKOEI@?$AAf?$AA?3?$AA?2?$AAd?$AAd?$AA?2?$AAv?$AAc?$AAt?$AAo?$AAo?$AAl?$AAs?$AA?2?$AAc?$AAr?$AAt?$AA_?$AAb?$AAl?$AAd?$AA?2?$AAs?$AAe?$AAl?$AAf?$AA_?$AAx?$AA8?$AA6?$AA?2?$AAc@ 4008e930     LIBCMTD:strtol.obj
 0002:0000c990       ??_C@_1BA@LOLAMAJG@?$AAs?$AAt?$AAr?$AAt?$AAo?$AAx?$AAl?$AA?$AA@ 4008e990     LIBCMTD:strtol.obj
 0002:0000e040       __XcptActTab               40090040     LIBCMTD:winxfltr.obj
 0002:0000e0d0       __XcptActTabCount          400900d0     LIBCMTD:winxfltr.obj
 0002:0000e0d4       __XcptActTabSize           400900d4     LIBCMTD:winxfltr.obj
 0002:0000e0d8       __First_FPE_Indx           400900d8     LIBCMTD:winxfltr.obj
 0002:0000e0dc       __Num_FPE                  400900dc     LIBCMTD:winxfltr.obj
 0002:0000e0e0       ??_C@_1BC@DENNNKIM@?$AA_?$AAc?$AAr?$AAt?$AAh?$AAe?$AAa?$AAp?$AA?$AA@ 400900e0     LIBCMTD:heapinit.obj
 0002:0000e0f8       ??_C@_1GE@JDDMFOID@?$AAf?$AA?3?$AA?2?$AAd?$AAd?$AA?2?$AAv?$AAc?$AAt?$AAo?$AAo?$AAl?$AAs?$AA?2?$AAc?$AAr?$AAt?$AA_?$AAb?$AAl?$AAd?$AA?2?$AAs?$AAe?$AAl?$AAf?$AA_?$AAx?$AA8?$AA6?$AA?2?$AAc@ 400900f8     LIBCMTD:heapinit.obj
 0002:0000e15c       ??_C@_0DA@NBLAKPEL@f?3?2dd?2vctools?2crt_bld?2self_x86?2c@ 4009015c     LIBCMTD:ioinit.obj
 0002:0000e18c       ??_C@_0DB@OEPBJOLC@f?3?2dd?2vctools?2crt_bld?2self_x86?2c@ 4009018c     LIBCMTD:stdargv.obj
 0002:0000e1c0       ??_C@_0DB@BMEBJJKP@f?3?2dd?2vctools?2crt_bld?2self_x86?2c@ 400901c0     LIBCMTD:stdenvp.obj
 0002:0000e1f8       ??_C@_1GC@DGBFLDBN@?$AAf?$AA?3?$AA?2?$AAd?$AAd?$AA?2?$AAv?$AAc?$AAt?$AAo?$AAo?$AAl?$AAs?$AA?2?$AAc?$AAr?$AAt?$AA_?$AAb?$AAl?$AAd?$AA?2?$AAs?$AAe?$AAl?$AAf?$AA_?$AAx?$AA8?$AA6?$AA?2?$AAc@ 400901f8     LIBCMTD:stdenvp.obj
 0002:0000e25c       ??_C@_1BC@GHMCNHHL@?$AA_?$AAs?$AAe?$AAt?$AAe?$AAn?$AAv?$AAp?$AA?$AA@ 4009025c     LIBCMTD:stdenvp.obj
 0002:0000e270       ??_C@_1DE@MMOGFGHF@?$AAs?$AAt?$AAr?$AAc?$AAp?$AAy?$AA_?$AAs?$AA?$CI?$AA?$CK?$AAe?$AAn?$AAv?$AA?0?$AA?5?$AAc?$AAc?$AAh?$AAa?$AAr?$AAs?$AA?0?$AA?5?$AAp?$AA?$CJ?$AA?$AA@ 40090270     LIBCMTD:stdenvp.obj
 0002:0000e2b8       ??_C@_03OGPFLFLO@CRT?$AA@  400902b8     LIBCMTD:dbgheap.obj
 0002:0000e2bc       ??_C@_06KMEJCCGM@Ignore?$AA@ 400902bc     LIBCMTD:dbgheap.obj
 0002:0000e2c4       ??_C@_06PJIGMIJB@Client?$AA@ 400902c4     LIBCMTD:dbgheap.obj
 0002:0000e2cc       ??_C@_1CE@LJFEPPMP@?$AA_?$AAC?$AAr?$AAt?$AAC?$AAh?$AAe?$AAc?$AAk?$AAM?$AAe?$AAm?$AAo?$AAr?$AAy?$AA?$CI?$AA?$CJ?$AA?$AA@ 400902cc     LIBCMTD:dbgheap.obj
 0002:0000e2f0       ??_C@_1GC@DNJKKEAA@?$AAf?$AA?3?$AA?2?$AAd?$AAd?$AA?2?$AAv?$AAc?$AAt?$AAo?$AAo?$AAl?$AAs?$AA?2?$AAc?$AAr?$AAt?$AA_?$AAb?$AAl?$AAd?$AA?2?$AAs?$AAe?$AAl?$AAf?$AA_?$AAx?$AA8?$AA6?$AA?2?$AAc@ 400902f0     LIBCMTD:dbgheap.obj
 0002:0000e354       ??_C@_0DF@BBEGIFEK@Client?5hook?5allocation?5failure?5a@ 40090354     LIBCMTD:dbgheap.obj
 0002:0000e38c       ??_C@_0CB@CCLOLAHO@Client?5hook?5allocation?5failure?4?6@ 4009038c     LIBCMTD:dbgheap.obj
 0002:0000e3b0       ??_C@_0CF@BICKFLAF@Invalid?5allocation?5size?3?5?$CFIu?5byt@ 400903b0     LIBCMTD:dbgheap.obj
 0002:0000e3d8       ??_C@_0DC@JEMAGEKG@Error?3?5memory?5allocation?3?5bad?5me@ 400903d8     LIBCMTD:dbgheap.obj
 0002:0000e40c       ??_C@_0DI@KKJPDPGM@Client?5hook?5re?9allocation?5failur@ 4009040c     LIBCMTD:dbgheap.obj
 0002:0000e444       ??_C@_0CE@DOFMDOL@Client?5hook?5re?9allocation?5failur@ 40090444     LIBCMTD:dbgheap.obj
 0002:0000e468       ??_C@_0ED@GPCPBAGP@Invalid?5allocation?5size?3?5?$CFIu?5byt@ 40090468     LIBCMTD:dbgheap.obj
 0002:0000e4b0       ??_C@_0FA@EFEIGJKG@Error?3?5memory?5allocation?3?5bad?5me@ 400904b0     LIBCMTD:dbgheap.obj
 0002:0000e500       ??_C@_0EM@LGFLMAGJ@The?5Block?5at?50x?$CFp?5was?5allocated?5@ 40090500     LIBCMTD:dbgheap.obj
 0002:0000e550       ??_C@_1EE@GFOPCECE@?$AA_?$AAC?$AAr?$AAt?$AAI?$AAs?$AAV?$AAa?$AAl?$AAi?$AAd?$AAH?$AAe?$AAa?$AAp?$AAP?$AAo?$AAi?$AAn?$AAt?$AAe?$AAr?$AA?$CI?$AAp?$AAU?$AAs?$AAe?$AAr?$AAD?$AAa?$AAt?$AAa@ 40090550     LIBCMTD:dbgheap.obj
 0002:0000e598       ??_C@_1IK@DCPKDGNH@?$AAp?$AAO?$AAl?$AAd?$AAB?$AAl?$AAo?$AAc?$AAk?$AA?9?$AA?$DO?$AAn?$AAL?$AAi?$AAn?$AAe?$AA?5?$AA?$DN?$AA?$DN?$AA?5?$AAI?$AAG?$AAN?$AAO?$AAR?$AAE?$AA_?$AAL?$AAI?$AAN?$AAE?$AA?5@ 40090598     LIBCMTD:dbgheap.obj
 0002:0000e624       ??_C@_0DA@HFBKENN@Error?3?5possible?5heap?5corruption?5@ 40090624     LIBCMTD:dbgheap.obj
 0002:0000e658       ??_C@_1GE@PCKLOLAO@?$AAf?$AAR?$AAe?$AAa?$AAl?$AAl?$AAo?$AAc?$AA?5?$AA?$HM?$AA?$HM?$AA?5?$AA?$CI?$AA?$CB?$AAf?$AAR?$AAe?$AAa?$AAl?$AAl?$AAo?$AAc?$AA?5?$AA?$CG?$AA?$CG?$AA?5?$AAp?$AAN?$AAe?$AAw?$AAB?$AAl@ 40090658     LIBCMTD:dbgheap.obj
 0002:0000e6bc       ??_C@_1DC@GEFKNOOL@?$AA_?$AAp?$AAL?$AAa?$AAs?$AAt?$AAB?$AAl?$AAo?$AAc?$AAk?$AA?5?$AA?$DN?$AA?$DN?$AA?5?$AAp?$AAO?$AAl?$AAd?$AAB?$AAl?$AAo?$AAc?$AAk?$AA?$AA@ 400906bc     LIBCMTD:dbgheap.obj
 0002:0000e6f0       ??_C@_1DE@KOOKLFBB@?$AA_?$AAp?$AAF?$AAi?$AAr?$AAs?$AAt?$AAB?$AAl?$AAo?$AAc?$AAk?$AA?5?$AA?$DN?$AA?$DN?$AA?5?$AAp?$AAO?$AAl?$AAd?$AAB?$AAl?$AAo?$AAc?$AAk?$AA?$AA@ 400906f0     LIBCMTD:dbgheap.obj
 0002:0000e724       ??_C@_1CE@CJACEFBA@?$AAp?$AAU?$AAs?$AAe?$AAr?$AAD?$AAa?$AAt?$AAa?$AA?5?$AA?$CB?$AA?$DN?$AA?5?$AAN?$AAU?$AAL?$AAL?$AA?$AA@ 40090724     LIBCMTD:dbgheap.obj
 0002:0000e748       ??_C@_1BI@HAPNGHDP@?$AA_?$AAe?$AAx?$AAp?$AAa?$AAn?$AAd?$AA_?$AAd?$AAb?$AAg?$AA?$AA@ 40090748     LIBCMTD:dbgheap.obj
 0002:0000e760       ??_C@_0EJ@HEIBCIMJ@The?5Block?5at?50x?$CFp?5was?5allocated?5@ 40090760     LIBCMTD:dbgheap.obj
 0002:0000e7ac       ??_C@_0BL@KEIPLFAC@Client?5hook?5free?5failure?4?6?$AA@ 400907ac     LIBCMTD:dbgheap.obj
 0002:0000e7c8       ??_C@_1EO@LHDAJOCM@?$AA_?$AAB?$AAL?$AAO?$AAC?$AAK?$AA_?$AAT?$AAY?$AAP?$AAE?$AA_?$AAI?$AAS?$AA_?$AAV?$AAA?$AAL?$AAI?$AAD?$AA?$CI?$AAp?$AAH?$AAe?$AAa?$AAd?$AA?9?$AA?$DO?$AAn?$AAB?$AAl?$AAo@ 400907c8     LIBCMTD:dbgheap.obj
 0002:0000e818       ??_C@_0KI@JGFOHMEB@HEAP?5CORRUPTION?5DETECTED?3?5before@ 40090818     LIBCMTD:dbgheap.obj
 0002:0000e8c0       ??_C@_0IK@PJCGLBOB@HEAP?5CORRUPTION?5DETECTED?3?5before@ 400908c0     LIBCMTD:dbgheap.obj
 0002:0000e950       ??_C@_0KE@MBMNHHHN@HEAP?5CORRUPTION?5DETECTED?3?5after?5@ 40090950     LIBCMTD:dbgheap.obj
 0002:0000e9f8       ??_C@_0IG@LEMBDCJK@HEAP?5CORRUPTION?5DETECTED?3?5after?5@ 400909f8     LIBCMTD:dbgheap.obj
 0002:0000ea80       ??_C@_1HK@HPCBMDFG@?$AAp?$AAH?$AAe?$AAa?$AAd?$AA?9?$AA?$DO?$AAn?$AAL?$AAi?$AAn?$AAe?$AA?5?$AA?$DN?$AA?$DN?$AA?5?$AAI?$AAG?$AAN?$AAO?$AAR?$AAE?$AA_?$AAL?$AAI?$AAN?$AAE?$AA?5?$AA?$CG?$AA?$CG?$AA?5?$AAp@ 40090a80     LIBCMTD:dbgheap.obj
 0002:0000eafc       ??_C@_1DM@ODCJIDCP@?$AAp?$AAH?$AAe?$AAa?$AAd?$AA?9?$AA?$DO?$AAn?$AAB?$AAl?$AAo?$AAc?$AAk?$AAU?$AAs?$AAe?$AA?5?$AA?$DN?$AA?$DN?$AA?5?$AAn?$AAB?$AAl?$AAo?$AAc?$AAk?$AAU?$AAs?$AAe?$AA?$AA@ 40090afc     LIBCMTD:dbgheap.obj
 0002:0000eb38       ??_C@_1CK@DMAGEMBG@?$AA_?$AAp?$AAL?$AAa?$AAs?$AAt?$AAB?$AAl?$AAo?$AAc?$AAk?$AA?5?$AA?$DN?$AA?$DN?$AA?5?$AAp?$AAH?$AAe?$AAa?$AAd?$AA?$AA@ 40090b38     LIBCMTD:dbgheap.obj
 0002:0000eb64       ??_C@_1CM@MMAADDMD@?$AA_?$AAp?$AAF?$AAi?$AAr?$AAs?$AAt?$AAB?$AAl?$AAo?$AAc?$AAk?$AA?5?$AA?$DN?$AA?$DN?$AA?5?$AAp?$AAH?$AAe?$AAa?$AAd?$AA?$AA@ 40090b64     LIBCMTD:dbgheap.obj
 0002:0000eb90       ??_C@_1BG@MBKOGDLD@?$AA_?$AAm?$AAs?$AAi?$AAz?$AAe?$AA_?$AAd?$AAb?$AAg?$AA?$AA@ 40090b90     LIBCMTD:dbgheap.obj
 0002:0000eba8       ??_C@_0CE@MKKHMBMK@_heapchk?5fails?5with?5_HEAPBADBEGI@ 40090ba8     LIBCMTD:dbgheap.obj
 0002:0000ebcc       ??_C@_0CD@CPKEAPBD@_heapchk?5fails?5with?5_HEAPBADNODE@ 40090bcc     LIBCMTD:dbgheap.obj
 0002:0000ebf0       ??_C@_0CC@MJGLGBDG@_heapchk?5fails?5with?5_HEAPBADEND?4@ 40090bf0     LIBCMTD:dbgheap.obj
 0002:0000ec14       ??_C@_0CC@MFFCHFHO@_heapchk?5fails?5with?5_HEAPBADPTR?4@ 40090c14     LIBCMTD:dbgheap.obj
 0002:0000ec38       ??_C@_0CL@HNNNMKMJ@_heapchk?5fails?5with?5unknown?5retu@ 40090c38     LIBCMTD:dbgheap.obj
 0002:0000ec64       ??_C@_07OHKEFPKJ@DAMAGED?$AA@ 40090c64     LIBCMTD:dbgheap.obj
 0002:0000ec70       ??_C@_0KA@IHNJJKPL@HEAP?5CORRUPTION?5DETECTED?3?5on?5top@ 40090c70     LIBCMTD:dbgheap.obj
 0002:0000ed10       ??_C@_0IC@BBJIOOJH@HEAP?5CORRUPTION?5DETECTED?3?5on?5top@ 40090d10     LIBCMTD:dbgheap.obj
 0002:0000ed98       ??_C@_0EG@DGJMPDBH@?$CFhs?5located?5at?50x?$CFp?5is?5?$CFIu?5bytes@ 40090d98     LIBCMTD:dbgheap.obj
 0002:0000ede0       ??_C@_0CI@JMLBEDHJ@?$CFhs?5located?5at?50x?$CFp?5is?5?$CFIu?5bytes@ 40090de0     LIBCMTD:dbgheap.obj
 0002:0000ee08       ??_C@_1BHO@NNANJNF@?$AA?$CI?$AAf?$AAN?$AAe?$AAw?$AAB?$AAi?$AAt?$AAs?$AA?$DN?$AA?$DN?$AA_?$AAC?$AAR?$AAT?$AAD?$AAB?$AAG?$AA_?$AAR?$AAE?$AAP?$AAO?$AAR?$AAT?$AA_?$AAF?$AAL?$AAA?$AAG?$AA?$CJ?$AA?5@ 40090e08     LIBCMTD:dbgheap.obj
 0002:0000ef88       ??_C@_1BO@GJFDNMNF@?$AA_?$AAC?$AAr?$AAt?$AAS?$AAe?$AAt?$AAD?$AAb?$AAg?$AAF?$AAl?$AAa?$AAg?$AA?$AA@ 40090f88     LIBCMTD:dbgheap.obj
 0002:0000efa8       ??_C@_1BI@CJGCEEDL@?$AAp?$AAf?$AAn?$AA?5?$AA?$CB?$AA?$DN?$AA?5?$AAN?$AAU?$AAL?$AAL?$AA?$AA@ 40090fa8     LIBCMTD:dbgheap.obj
 0002:0000efc0       ??_C@_1DE@GJCKCKEC@?$AA_?$AAC?$AAr?$AAt?$AAD?$AAo?$AAF?$AAo?$AAr?$AAA?$AAl?$AAl?$AAC?$AAl?$AAi?$AAe?$AAn?$AAt?$AAO?$AAb?$AAj?$AAe?$AAc?$AAt?$AAs?$AA?$AA@ 40090fc0     LIBCMTD:dbgheap.obj
 0002:0000eff4       ??_C@_1BM@MIMANDHC@?$AAs?$AAt?$AAa?$AAt?$AAe?$AA?5?$AA?$CB?$AA?$DN?$AA?5?$AAN?$AAU?$AAL?$AAL?$AA?$AA@ 40090ff4     LIBCMTD:dbgheap.obj
 0002:0000f010       ??_C@_1CE@NJJKELF@?$AA_?$AAC?$AAr?$AAt?$AAM?$AAe?$AAm?$AAC?$AAh?$AAe?$AAc?$AAk?$AAp?$AAo?$AAi?$AAn?$AAt?$AA?$AA@ 40091010     LIBCMTD:dbgheap.obj
 0002:0000f034       ??_C@_0DP@LEFMFBOD@Bad?5memory?5block?5found?5at?50x?$CFp?4?6@ 40091034     LIBCMTD:dbgheap.obj
 0002:0000f074       ??_C@_0CB@EAAIGELO@Bad?5memory?5block?5found?5at?50x?$CFp?4?6@ 40091074     LIBCMTD:dbgheap.obj
 0002:0000f098       ??_C@_1CE@PDIENACM@?$AA_?$AAC?$AAr?$AAt?$AAM?$AAe?$AAm?$AAD?$AAi?$AAf?$AAf?$AAe?$AAr?$AAe?$AAn?$AAc?$AAe?$AA?$AA@ 40091098     LIBCMTD:dbgheap.obj
 0002:0000f0bc       ??_C@_1CC@DHPFEMMN@?$AAo?$AAl?$AAd?$AAS?$AAt?$AAa?$AAt?$AAe?$AA?5?$AA?$CB?$AA?$DN?$AA?5?$AAN?$AAU?$AAL?$AAL?$AA?$AA@ 400910bc     LIBCMTD:dbgheap.obj
 0002:0000f0e0       ??_C@_1CC@DFPEDFBP@?$AAn?$AAe?$AAw?$AAS?$AAt?$AAa?$AAt?$AAe?$AA?5?$AA?$CB?$AA?$DN?$AA?5?$AAN?$AAU?$AAL?$AAL?$AA?$AA@ 400910e0     LIBCMTD:dbgheap.obj
 0002:0000f104       ??_C@_1CG@LPFIACGM@?$AA_?$AAp?$AAr?$AAi?$AAn?$AAt?$AAM?$AAe?$AAm?$AAB?$AAl?$AAo?$AAc?$AAk?$AAD?$AAa?$AAt?$AAa?$AA?$AA@ 40091104     LIBCMTD:dbgheap.obj
 0002:0000f12c       ??_C@_0BA@HJBKCELP@?5Data?3?5?$DM?$CFs?$DO?5?$CFs?6?$AA@ 4009112c     LIBCMTD:dbgheap.obj
 0002:0000f13c       ??_C@_0BE@KCIPKCIA@Dumping?5objects?5?9?$DO?6?$AA@ 4009113c     LIBCMTD:dbgheap.obj
 0002:0000f150       ??_C@_0BE@OIEFNFL@?$CDFile?5Error?$CD?$CI?$CFd?$CJ?5?3?5?$AA@ 40091150     LIBCMTD:dbgheap.obj
 0002:0000f164       ??_C@_0L@JMEFFCCJ@?$CFhs?$CI?$CFd?$CJ?5?3?5?$AA@ 40091164     LIBCMTD:dbgheap.obj
 0002:0000f170       ??_C@_06PKLGBFGM@?$HL?$CFld?$HN?5?$AA@ 40091170     LIBCMTD:dbgheap.obj
 0002:0000f178       ??_C@_0DD@GHNAAKBB@client?5block?5at?50x?$CFp?0?5subtype?5?$CFx@ 40091178     LIBCMTD:dbgheap.obj
 0002:0000f1ac       ??_C@_0CH@FAGDDGPN@normal?5block?5at?50x?$CFp?0?5?$CFIu?5bytes?5@ 400911ac     LIBCMTD:dbgheap.obj
 0002:0000f1d4       ??_C@_0DA@MDLBNIBM@crt?5block?5at?50x?$CFp?0?5subtype?5?$CFx?0?5?$CF@ 400911d4     LIBCMTD:dbgheap.obj
 0002:0000f204       ??_C@_0BH@GFGKJDCO@Object?5dump?5complete?4?6?$AA@ 40091204     LIBCMTD:dbgheap.obj
 0002:0000f21c       ??_C@_0BI@JBFPOEJA@Detected?5memory?5leaks?$CB?6?$AA@ 4009121c     LIBCMTD:dbgheap.obj
 0002:0000f234       ??_C@_1CM@MPNIBKGK@?$AA_?$AAC?$AAr?$AAt?$AAM?$AAe?$AAm?$AAD?$AAu?$AAm?$AAp?$AAS?$AAt?$AAa?$AAt?$AAi?$AAs?$AAt?$AAi?$AAc?$AAs?$AA?$AA@ 40091234     LIBCMTD:dbgheap.obj
 0002:0000f260       ??_C@_0BO@DACNIABB@?$CFId?5bytes?5in?5?$CFId?5?$CFhs?5Blocks?4?6?$AA@ 40091260     LIBCMTD:dbgheap.obj
 0002:0000f280       ??_C@_0CB@BLHDAFNE@Largest?5number?5used?3?5?$CFId?5bytes?4?6@ 40091280     LIBCMTD:dbgheap.obj
 0002:0000f2a4       ??_C@_0BP@DEDHGGGI@Total?5allocations?3?5?$CFId?5bytes?4?6?$AA@ 400912a4     LIBCMTD:dbgheap.obj
 0002:0000f2c4       ??_C@_1CE@NPMGPNNP@?$AAI?$AAS?$AA_?$AA2?$AA_?$AAP?$AAO?$AAW?$AA_?$AAN?$AA?$CI?$AAa?$AAl?$AAi?$AAg?$AAn?$AA?$CJ?$AA?$AA@ 400912c4     LIBCMTD:dbgheap.obj
 0002:0000f2e8       ??_C@_1DG@DONCJBBJ@?$AA_?$AAa?$AAl?$AAi?$AAg?$AAn?$AAe?$AAd?$AA_?$AAo?$AAf?$AAf?$AAs?$AAe?$AAt?$AA_?$AAm?$AAa?$AAl?$AAl?$AAo?$AAc?$AA_?$AAd?$AAb?$AAg?$AA?$AA@ 400912e8     LIBCMTD:dbgheap.obj
 0002:0000f320       ??_C@_1DK@LFLKFPDA@?$AAo?$AAf?$AAf?$AAs?$AAe?$AAt?$AA?5?$AA?$DN?$AA?$DN?$AA?5?$AA0?$AA?5?$AA?$HM?$AA?$HM?$AA?5?$AAo?$AAf?$AAf?$AAs?$AAe?$AAt?$AA?5?$AA?$DM?$AA?5?$AAs?$AAi?$AAz?$AAe?$AA?$AA@ 40091320     LIBCMTD:dbgheap.obj
 0002:0000f360       ??_C@_0EI@NDNJMAJK@The?5block?5at?50x?$CFp?5was?5not?5alloca@ 40091360     LIBCMTD:dbgheap.obj
 0002:0000f3a8       ??_C@_0DL@PGHMMKNE@Damage?5before?50x?$CFp?5which?5was?5all@ 400913a8     LIBCMTD:dbgheap.obj
 0002:0000f3e4       ??_C@_1DI@NINIKFFK@?$AA_?$AAa?$AAl?$AAi?$AAg?$AAn?$AAe?$AAd?$AA_?$AAo?$AAf?$AAf?$AAs?$AAe?$AAt?$AA_?$AAr?$AAe?$AAa?$AAl?$AAl?$AAo?$AAc?$AA_?$AAd?$AAb?$AAg?$AA?$AA@ 400913e4     LIBCMTD:dbgheap.obj
 0002:0000f420       ??_C@_0EF@PGELACII@The?5block?5at?50x?$CFp?5was?5not?5alloca@ 40091420     LIBCMTD:dbgheap.obj
 0002:0000f468       ??_C@_1CC@MOBIKHH@?$AAm?$AAe?$AAm?$AAb?$AAl?$AAo?$AAc?$AAk?$AA?5?$AA?$CB?$AA?$DN?$AA?5?$AAN?$AAU?$AAL?$AAL?$AA?$AA@ 40091468     LIBCMTD:dbgheap.obj
 0002:0000f48c       ??_C@_1CG@CEGMHIMN@?$AA_?$AAa?$AAl?$AAi?$AAg?$AAn?$AAe?$AAd?$AA_?$AAm?$AAs?$AAi?$AAz?$AAe?$AA_?$AAd?$AAb?$AAg?$AA?$AA@ 4009148c     LIBCMTD:dbgheap.obj
 0002:0000f4b4       ??_C@_0CP@PPLBCJDN@f?3?2dd?2vctools?2crt_bld?2self_x86?2c@ 400914b4     LIBCMTD:a_env.obj
 0002:0000f4e4       ??_C@_0CP@MKONOLCI@f?3?2dd?2vctools?2crt_bld?2self_x86?2c@ 400914e4     LIBCMTD:mlock.obj
 0002:0000f514       ??_C@_0DB@BECNGFDL@f?3?2dd?2vctools?2crt_bld?2self_x86?2c@ 40091514     LIBCMTD:initmon.obj
 0002:0000f548       ??_C@_1DM@GKAPAMDO@?$AAp?$AAl?$AAo?$AAc?$AAi?$AA?9?$AA?$DO?$AAl?$AAc?$AAo?$AAn?$AAv?$AA_?$AAm?$AAo?$AAn?$AA_?$AAr?$AAe?$AAf?$AAc?$AAo?$AAu?$AAn?$AAt?$AA?5?$AA?$DO?$AA?5?$AA0?$AA?$AA@ 40091548     LIBCMTD:initmon.obj
 0002:0000f588       ??_C@_1GC@IKADOFBJ@?$AAf?$AA?3?$AA?2?$AAd?$AAd?$AA?2?$AAv?$AAc?$AAt?$AAo?$AAo?$AAl?$AAs?$AA?2?$AAc?$AAr?$AAt?$AA_?$AAb?$AAl?$AAd?$AA?2?$AAs?$AAe?$AAl?$AAf?$AA_?$AAx?$AA8?$AA6?$AA?2?$AAc@ 40091588     LIBCMTD:initmon.obj
 0002:0000f5ec       ??_C@_0DB@KKFMDHFI@f?3?2dd?2vctools?2crt_bld?2self_x86?2c@ 400915ec     LIBCMTD:initnum.obj
 0002:0000f620       ??_C@_1DM@IFKAINNE@?$AAp?$AAl?$AAo?$AAc?$AAi?$AA?9?$AA?$DO?$AAl?$AAc?$AAo?$AAn?$AAv?$AA_?$AAn?$AAu?$AAm?$AA_?$AAr?$AAe?$AAf?$AAc?$AAo?$AAu?$AAn?$AAt?$AA?5?$AA?$DO?$AA?5?$AA0?$AA?$AA@ 40091620     LIBCMTD:initnum.obj
 0002:0000f660       ??_C@_1GC@EDJOCBCL@?$AAf?$AA?3?$AA?2?$AAd?$AAd?$AA?2?$AAv?$AAc?$AAt?$AAo?$AAo?$AAl?$AAs?$AA?2?$AAc?$AAr?$AAt?$AA_?$AAb?$AAl?$AAd?$AA?2?$AAs?$AAe?$AAl?$AAf?$AA_?$AAx?$AA8?$AA6?$AA?2?$AAc@ 40091660     LIBCMTD:initnum.obj
 0002:0000f6c4       ??_C@_0DC@KICHHNFK@f?3?2dd?2vctools?2crt_bld?2self_x86?2c@ 400916c4     LIBCMTD:inittime.obj
 0002:0000f6f8       ??_C@_1EE@FDHCFDHN@?$AAp?$AAl?$AAo?$AAc?$AAi?$AA?9?$AA?$DO?$AAl?$AAc?$AA_?$AAt?$AAi?$AAm?$AAe?$AA_?$AAc?$AAu?$AAr?$AAr?$AA?9?$AA?$DO?$AAr?$AAe?$AAf?$AAc?$AAo?$AAu?$AAn?$AAt?$AA?5?$AA?$DO?$AA?5@ 400916f8     LIBCMTD:inittime.obj
 0002:0000f740       ??_C@_1GE@GJCMHHMH@?$AAf?$AA?3?$AA?2?$AAd?$AAd?$AA?2?$AAv?$AAc?$AAt?$AAo?$AAo?$AAl?$AAs?$AA?2?$AAc?$AAr?$AAt?$AA_?$AAb?$AAl?$AAd?$AA?2?$AAs?$AAe?$AAl?$AAf?$AA_?$AAx?$AA8?$AA6?$AA?2?$AAc@ 40091740     LIBCMTD:inittime.obj
 0002:0000f7a8       ??_C@_1GE@DKGHLBLP@?$AAf?$AA?3?$AA?2?$AAd?$AAd?$AA?2?$AAv?$AAc?$AAt?$AAo?$AAo?$AAl?$AAs?$AA?2?$AAc?$AAr?$AAt?$AA_?$AAb?$AAl?$AAd?$AA?2?$AAs?$AAe?$AAl?$AAf?$AA_?$AAx?$AA8?$AA6?$AA?2?$AAc@ 400917a8     LIBCMTD:swprintf.obj
 0002:0000f80c       ??_C@_1BE@BMIJMLDD@?$AA_?$AAs?$AAw?$AAp?$AAr?$AAi?$AAn?$AAt?$AAf?$AA?$AA@ 4009180c     LIBCMTD:swprintf.obj
 0002:0000f820       ??_C@_1FA@IFFFOLDJ@?$AAn?$AAR?$AAp?$AAt?$AAT?$AAy?$AAp?$AAe?$AA?5?$AA?$DO?$AA?$DN?$AA?5?$AA0?$AA?5?$AA?$CG?$AA?$CG?$AA?5?$AAn?$AAR?$AAp?$AAt?$AAT?$AAy?$AAp?$AAe?$AA?5?$AA?$DM?$AA?5?$AA_?$AAC?$AAR?$AAT@ 40091820     LIBCMTD:dbgrptt.obj
 0002:0000f870       ??_C@_1GC@FIGJJMEN@?$AAf?$AA?3?$AA?2?$AAd?$AAd?$AA?2?$AAv?$AAc?$AAt?$AAo?$AAo?$AAl?$AAs?$AA?2?$AAc?$AAr?$AAt?$AA_?$AAb?$AAl?$AAd?$AA?2?$AAs?$AAe?$AAl?$AAf?$AA_?$AAx?$AA8?$AA6?$AA?2?$AAc@ 40091870     LIBCMTD:dbgrptt.obj
 0002:0000f8d4       ??_C@_1CE@FIHIECNJ@?$AA_?$AAC?$AAr?$AAt?$AAS?$AAe?$AAt?$AAR?$AAe?$AAp?$AAo?$AAr?$AAt?$AAM?$AAo?$AAd?$AAe?$AA?$AA@ 400918d4     LIBCMTD:dbgrptt.obj
 0002:0000f8f8       ??_C@_1NK@LOFHIHFC@?$AAf?$AAM?$AAo?$AAd?$AAe?$AA?5?$AA?$DN?$AA?$DN?$AA?5?$AA_?$AAC?$AAR?$AAT?$AAD?$AAB?$AAG?$AA_?$AAR?$AAE?$AAP?$AAO?$AAR?$AAT?$AA_?$AAM?$AAO?$AAD?$AAE?$AA?5?$AA?$HM?$AA?$HM?$AA?5@ 400918f8     LIBCMTD:dbgrptt.obj
 0002:0000f9d4       ??_C@_1CE@IKKEDCME@?$AA_?$AAC?$AAr?$AAt?$AAS?$AAe?$AAt?$AAR?$AAe?$AAp?$AAo?$AAr?$AAt?$AAF?$AAi?$AAl?$AAe?$AA?$AA@ 400919d4     LIBCMTD:dbgrptt.obj
 0002:0000f9f8       ??_C@_1CA@KHJHLKA@?$AA_?$AAV?$AAC?$AAr?$AAt?$AAD?$AAb?$AAg?$AAR?$AAe?$AAp?$AAo?$AAr?$AAt?$AAA?$AA?$AA@ 400919f8     LIBCMTD:dbgrptt.obj
 0002:0000fa18       ??_C@_1FA@JPHJBHEM@?$AA_?$AAi?$AAt?$AAo?$AAa?$AA_?$AAs?$AA?$CI?$AAn?$AAL?$AAi?$AAn?$AAe?$AA?0?$AA?5?$AAs?$AAz?$AAL?$AAi?$AAn?$AAe?$AAM?$AAe?$AAs?$AAs?$AAa?$AAg?$AAe?$AA?0?$AA?5?$AA4?$AA0@ 40091a18     LIBCMTD:dbgrptt.obj
 0002:0000fa68       ??_C@_0CG@BNGLOCEO@Second?5Chance?5Assertion?5Failed?3?5@ 40091a68     LIBCMTD:dbgrptt.obj
 0002:0000fa90       ??_C@_0P@DFJNDPOP@?$DMfile?5unknown?$DO?$AA@ 40091a90     LIBCMTD:dbgrptt.obj
 0002:0000faa0       ??_C@_07BHGABMGB@?0?5Line?5?$AA@ 40091aa0     LIBCMTD:dbgrptt.obj
 0002:0000faa8       ??_C@_1JI@GAALPGBM@?$AAs?$AAt?$AAr?$AAc?$AAp?$AAy?$AA_?$AAs?$AA?$CI?$AAs?$AAz?$AAU?$AAs?$AAe?$AAr?$AAM?$AAe?$AAs?$AAs?$AAa?$AAg?$AAe?$AA?0?$AA?5?$AA4?$AA0?$AA9?$AA6?$AA?0?$AA?5?$AA?$CC?$AA_@ 40091aa8     LIBCMTD:dbgrptt.obj
 0002:0000fb40       ??_C@_0CL@EACFGMNB@_CrtDbgReport?3?5String?5too?5long?5o@ 40091b40     LIBCMTD:dbgrptt.obj
 0002:0000fb70       ??_C@_1KK@GIGAEDMO@?$AAs?$AAt?$AAr?$AAc?$AAp?$AAy?$AA_?$AAs?$AA?$CI?$AAs?$AAz?$AAL?$AAi?$AAn?$AAe?$AAM?$AAe?$AAs?$AAs?$AAa?$AAg?$AAe?$AA?0?$AA?5?$AA4?$AA0?$AA9?$AA6?$AA?0?$AA?5?$AAs?$AAz@ 40091b70     LIBCMTD:dbgrptt.obj
 0002:0000fc1c       ??_C@_0BD@CAENFOHP@Assertion?5failed?3?5?$AA@ 40091c1c     LIBCMTD:dbgrptt.obj
 0002:0000fc30       ??_C@_0BC@LAIDCHCH@Assertion?5failed?$CB?$AA@ 40091c30     LIBCMTD:dbgrptt.obj
 0002:0000fc48       ??_C@_1FK@NPGBPOFO@?$AAs?$AAt?$AAr?$AAc?$AAa?$AAt?$AA_?$AAs?$AA?$CI?$AAs?$AAz?$AAL?$AAi?$AAn?$AAe?$AAM?$AAe?$AAs?$AAs?$AAa?$AAg?$AAe?$AA?0?$AA?5?$AA4?$AA0?$AA9?$AA6?$AA?0?$AA?5?$AAs?$AAz@ 40091c48     LIBCMTD:dbgrptt.obj
 0002:0000fca8       ??_C@_1EI@CACDLAFK@?$AAs?$AAt?$AAr?$AAc?$AAa?$AAt?$AA_?$AAs?$AA?$CI?$AAs?$AAz?$AAL?$AAi?$AAn?$AAe?$AAM?$AAe?$AAs?$AAs?$AAa?$AAg?$AAe?$AA?0?$AA?5?$AA4?$AA0?$AA9?$AA6?$AA?0?$AA?5?$AA?$CC?$AA?2@ 40091ca8     LIBCMTD:dbgrptt.obj
 0002:0000fcf0       ??_C@_01LIIJDEN@?$AN?$AA@  40091cf0     LIBCMTD:dbgrptt.obj
 0002:0000fcf8       ??_C@_1EI@LDHJEDO@?$AAs?$AAt?$AAr?$AAc?$AAa?$AAt?$AA_?$AAs?$AA?$CI?$AAs?$AAz?$AAL?$AAi?$AAn?$AAe?$AAM?$AAe?$AAs?$AAs?$AAa?$AAg?$AAe?$AA?0?$AA?5?$AA4?$AA0?$AA9?$AA6?$AA?0?$AA?5?$AA?$CC?$AA?2@ 40091cf8     LIBCMTD:dbgrptt.obj
 0002:0000fd40       ??_C@_0M@IPILFDFN@?$CFs?$CI?$CFd?$CJ?5?3?5?$CFs?$AA@ 40091d40     LIBCMTD:dbgrptt.obj
 0002:0000fd50       ??_C@_1JG@CPKCIOEE@?$AAs?$AAt?$AAr?$AAc?$AAp?$AAy?$AA_?$AAs?$AA?$CI?$AAs?$AAz?$AAO?$AAu?$AAt?$AAM?$AAe?$AAs?$AAs?$AAa?$AAg?$AAe?$AA?0?$AA?5?$AA4?$AA0?$AA9?$AA6?$AA?0?$AA?5?$AA?$CC?$AA_?$AAC@ 40091d50     LIBCMTD:dbgrptt.obj
 0002:0000fde8       ??_C@_1FI@IBIOIHEG@?$AAs?$AAt?$AAr?$AAc?$AAp?$AAy?$AA_?$AAs?$AA?$CI?$AAs?$AAz?$AAO?$AAu?$AAt?$AAM?$AAe?$AAs?$AAs?$AAa?$AAg?$AAe?$AA?0?$AA?5?$AA4?$AA0?$AA9?$AA6?$AA?0?$AA?5?$AAs?$AAz?$AAL@ 40091de8     LIBCMTD:dbgrptt.obj
 0002:0000fe40       ??_C@_1IM@OOKIFKOH@?$AAe?$AA?5?$AA?$DN?$AA?5?$AAm?$AAb?$AAs?$AAt?$AAo?$AAw?$AAc?$AAs?$AA_?$AAs?$AA?$CI?$AA?$CG?$AAr?$AAe?$AAt?$AA?0?$AA?5?$AAs?$AAz?$AAO?$AAu?$AAt?$AAM?$AAe?$AAs?$AAs?$AAa?$AAg@ 40091e40     LIBCMTD:dbgrptt.obj
 0002:0000fed0       ??_C@_1MC@IGEECMDB@?$AAw?$AAc?$AAs?$AAc?$AAp?$AAy?$AA_?$AAs?$AA?$CI?$AAs?$AAz?$AAO?$AAu?$AAt?$AAM?$AAe?$AAs?$AAs?$AAa?$AAg?$AAe?$AA2?$AA?0?$AA?5?$AA4?$AA0?$AA9?$AA6?$AA?0?$AA?5?$AAL?$AA?$CC@ 40091ed0     LIBCMTD:dbgrptt.obj
 0002:0000ff98       ??_C@_1HO@PJOFIKFE@?$AA_?$AAC?$AAr?$AAt?$AAD?$AAb?$AAg?$AAR?$AAe?$AAp?$AAo?$AAr?$AAt?$AA?3?$AA?5?$AAS?$AAt?$AAr?$AAi?$AAn?$AAg?$AA?5?$AAt?$AAo?$AAo?$AA?5?$AAl?$AAo?$AAn?$AAg?$AA?5?$AAo@ 40091f98     LIBCMTD:dbgrptt.obj
 0002:00010018       ??_C@_1CA@HPALHDOD@?$AA_?$AAV?$AAC?$AAr?$AAt?$AAD?$AAb?$AAg?$AAR?$AAe?$AAp?$AAo?$AAr?$AAt?$AAW?$AA?$AA@ 40092018     LIBCMTD:dbgrptt.obj
 0002:00010038       ??_C@_1FA@CNLLOMHI@?$AA_?$AAi?$AAt?$AAo?$AAw?$AA_?$AAs?$AA?$CI?$AAn?$AAL?$AAi?$AAn?$AAe?$AA?0?$AA?5?$AAs?$AAz?$AAL?$AAi?$AAn?$AAe?$AAM?$AAe?$AAs?$AAs?$AAa?$AAg?$AAe?$AA?0?$AA?5?$AA4?$AA0@ 40092038     LIBCMTD:dbgrptt.obj
 0002:00010088       ??_C@_1EM@MJFLEDMB@?$AAS?$AAe?$AAc?$AAo?$AAn?$AAd?$AA?5?$AAC?$AAh?$AAa?$AAn?$AAc?$AAe?$AA?5?$AAA?$AAs?$AAs?$AAe?$AAr?$AAt?$AAi?$AAo?$AAn?$AA?5?$AAF?$AAa?$AAi?$AAl?$AAe?$AAd?$AA?3?$AA?5@ 40092088     LIBCMTD:dbgrptt.obj
 0002:000100d4       ??_C@_1BO@OCHMLCAG@?$AA?$DM?$AAf?$AAi?$AAl?$AAe?$AA?5?$AAu?$AAn?$AAk?$AAn?$AAo?$AAw?$AAn?$AA?$DO?$AA?$AA@ 400920d4     LIBCMTD:dbgrptt.obj
 0002:000100f4       ??_C@_1BA@ELMMDCFC@?$AA?0?$AA?5?$AAL?$AAi?$AAn?$AAe?$AA?5?$AA?$AA@ 400920f4     LIBCMTD:dbgrptt.obj
 0002:00010108       ??_C@_1JK@KHFABAEO@?$AAw?$AAc?$AAs?$AAc?$AAp?$AAy?$AA_?$AAs?$AA?$CI?$AAs?$AAz?$AAU?$AAs?$AAe?$AAr?$AAM?$AAe?$AAs?$AAs?$AAa?$AAg?$AAe?$AA?0?$AA?5?$AA4?$AA0?$AA9?$AA6?$AA?0?$AA?5?$AAL?$AA?$CC@ 40092108     LIBCMTD:dbgrptt.obj
 0002:000101a8       ??_C@_1KO@DGAHENCH@?$AAw?$AAc?$AAs?$AAc?$AAp?$AAy?$AA_?$AAs?$AA?$CI?$AAs?$AAz?$AAL?$AAi?$AAn?$AAe?$AAM?$AAe?$AAs?$AAs?$AAa?$AAg?$AAe?$AA?0?$AA?5?$AA4?$AA0?$AA9?$AA6?$AA?0?$AA?5?$AAs?$AAz@ 400921a8     LIBCMTD:dbgrptt.obj
 0002:00010258       ??_C@_1CG@FFFGGODN@?$AAA?$AAs?$AAs?$AAe?$AAr?$AAt?$AAi?$AAo?$AAn?$AA?5?$AAf?$AAa?$AAi?$AAl?$AAe?$AAd?$AA?3?$AA?5?$AA?$AA@ 40092258     LIBCMTD:dbgrptt.obj
 0002:00010280       ??_C@_1FK@HPADHBBD@?$AAw?$AAc?$AAs?$AAc?$AAa?$AAt?$AA_?$AAs?$AA?$CI?$AAs?$AAz?$AAL?$AAi?$AAn?$AAe?$AAM?$AAe?$AAs?$AAs?$AAa?$AAg?$AAe?$AA?0?$AA?5?$AA4?$AA0?$AA9?$AA6?$AA?0?$AA?5?$AAs?$AAz@ 40092280     LIBCMTD:dbgrptt.obj
 0002:000102e0       ??_C@_1EK@NMDFGHMF@?$AAw?$AAc?$AAs?$AAc?$AAa?$AAt?$AA_?$AAs?$AA?$CI?$AAs?$AAz?$AAL?$AAi?$AAn?$AAe?$AAM?$AAe?$AAs?$AAs?$AAa?$AAg?$AAe?$AA?0?$AA?5?$AA4?$AA0?$AA9?$AA6?$AA?0?$AA?5?$AAL?$AA?$CC@ 400922e0     LIBCMTD:dbgrptt.obj
 0002:0001032c       ??_C@_13CMNBPIDO@?$AA?$AN?$AA?$AA@ 4009232c     LIBCMTD:dbgrptt.obj
 0002:00010330       ??_C@_1EK@PHCBEDKB@?$AAw?$AAc?$AAs?$AAc?$AAa?$AAt?$AA_?$AAs?$AA?$CI?$AAs?$AAz?$AAL?$AAi?$AAn?$AAe?$AAM?$AAe?$AAs?$AAs?$AAa?$AAg?$AAe?$AA?0?$AA?5?$AA4?$AA0?$AA9?$AA6?$AA?0?$AA?5?$AAL?$AA?$CC@ 40092330     LIBCMTD:dbgrptt.obj
 0002:0001037c       ??_C@_1BI@JIDBEPIG@?$AA?$CF?$AAs?$AA?$CI?$AA?$CF?$AAd?$AA?$CJ?$AA?5?$AA?3?$AA?5?$AA?$CF?$AAs?$AA?$AA@ 4009237c     LIBCMTD:dbgrptt.obj
 0002:00010398       ??_C@_1FI@DBAIJPJE@?$AAw?$AAc?$AAs?$AAc?$AAp?$AAy?$AA_?$AAs?$AA?$CI?$AAs?$AAz?$AAO?$AAu?$AAt?$AAM?$AAe?$AAs?$AAs?$AAa?$AAg?$AAe?$AA?0?$AA?5?$AA4?$AA0?$AA9?$AA6?$AA?0?$AA?5?$AAs?$AAz?$AAL@ 40092398     LIBCMTD:dbgrptt.obj
 0002:000103f0       ??_C@_1JC@EOAPFDLN@?$AAw?$AAc?$AAs?$AAt?$AAo?$AAm?$AAb?$AAs?$AA_?$AAs?$AA?$CI?$AA?$CI?$AA?$CI?$AAv?$AAo?$AAi?$AAd?$AA?5?$AA?$CK?$AA?$CJ?$AA0?$AA?$CJ?$AA?0?$AA?5?$AAs?$AAz?$AAO?$AAu?$AAt?$AAM?$AAe?$AAs@ 400923f0     LIBCMTD:dbgrptt.obj
 0002:00010488       ??_C@_1MA@LBAMNNOB@?$AAs?$AAt?$AAr?$AAc?$AAp?$AAy?$AA_?$AAs?$AA?$CI?$AAs?$AAz?$AAO?$AAu?$AAt?$AAM?$AAe?$AAs?$AAs?$AAa?$AAg?$AAe?$AA2?$AA?0?$AA?5?$AA4?$AA0?$AA9?$AA6?$AA?0?$AA?5?$AA?$CC?$AA_@ 40092488     LIBCMTD:dbgrptt.obj
 0002:00010548       ??_C@_0DP@GNPEPHJD@_CrtDbgReport?3?5String?5too?5long?5o@ 40092548     LIBCMTD:dbgrptt.obj
 0002:00010588       ??_C@_1IE@CPGKIAGP@?$AAw?$AAc?$AAs?$AAt?$AAo?$AAm?$AAb?$AAs?$AA_?$AAs?$AA?$CI?$AA?$CG?$AAr?$AAe?$AAt?$AA?0?$AA?5?$AAs?$AAz?$AAa?$AAO?$AAu?$AAt?$AAM?$AAe?$AAs?$AAs?$AAa?$AAg?$AAe?$AA?0?$AA?5@ 40092588     LIBCMTD:dbgrptt.obj
 0002:00010610       ___newctype                40092610     LIBCMTD:ctype.obj
 0002:00010910       __wctype                   40092910     LIBCMTD:ctype.obj
 0002:00010b18       ___newclmap                40092b18     LIBCMTD:ctype.obj
 0002:00010c98       ___newcumap                40092c98     LIBCMTD:ctype.obj
 0002:00010e18       ?LocalIdBitWidth@CrossScopeId@CodeViewInfo@@2IB 40092e18     LIBCMTD:pdblkup.obj
 0002:00010e1c       ?IdScopeBitWidth@CrossScopeId@CodeViewInfo@@2IB 40092e1c     LIBCMTD:pdblkup.obj
 0002:00010e20       ?StartCrossScopeId@CrossScopeId@CodeViewInfo@@2IB 40092e20     LIBCMTD:pdblkup.obj
 0002:00010e24       ?LocalIdMask@CrossScopeId@CodeViewInfo@@2IB 40092e24     LIBCMTD:pdblkup.obj
 0002:00010e28       ?ScopeIdMask@CrossScopeId@CodeViewInfo@@2IB 40092e28     LIBCMTD:pdblkup.obj
 0002:00010e2c       ?MaxLocalId@CrossScopeId@CodeViewInfo@@2IB 40092e2c     LIBCMTD:pdblkup.obj
 0002:00010e30       ?MaxScopeId@CrossScopeId@CodeViewInfo@@2IB 40092e30     LIBCMTD:pdblkup.obj
 0002:00010e6c       ??_C@_1BK@GAEMIDIL@?$AAA?$AAD?$AAV?$AAA?$AAP?$AAI?$AA3?$AA2?$AA?4?$AAD?$AAL?$AAL?$AA?$AA@ 40092e6c     LIBCMTD:pdblkup.obj
 0002:00010e88       ??_C@_0O@COHOBMLB@RegOpenKeyExW?$AA@ 40092e88     LIBCMTD:pdblkup.obj
 0002:00010e98       ??_C@_0BB@GLNAEDBD@RegQueryValueExW?$AA@ 40092e98     LIBCMTD:pdblkup.obj
 0002:00010eac       ??_C@_0M@HLOHPNFA@RegCloseKey?$AA@ 40092eac     LIBCMTD:pdblkup.obj
 0002:00010eb8       ??_C@_1FM@OEMPKHJI@?$AAS?$AAO?$AAF?$AAT?$AAW?$AAA?$AAR?$AAE?$AA?2?$AAM?$AAi?$AAc?$AAr?$AAo?$AAs?$AAo?$AAf?$AAt?$AA?2?$AAV?$AAi?$AAs?$AAu?$AAa?$AAl?$AAS?$AAt?$AAu?$AAd?$AAi?$AAo?$AA?2@ 40092eb8     LIBCMTD:pdblkup.obj
 0002:00010f14       ??_C@_1CK@HHHCOJPD@?$AAE?$AAn?$AAv?$AAi?$AAr?$AAo?$AAn?$AAm?$AAe?$AAn?$AAt?$AAD?$AAi?$AAr?$AAe?$AAc?$AAt?$AAo?$AAr?$AAy?$AA?$AA@ 40092f14     LIBCMTD:pdblkup.obj
 0002:00010f5c       ??_C@_1BC@MIBIBMGK@?$AAM?$AAS?$AAP?$AAD?$AAB?$AA1?$AA1?$AA0?$AA?$AA@ 40092f5c     LIBCMTD:pdblkup.obj
 0002:00010f70       ??_C@_0BB@KCIACLNC@PDBOpenValidate5?$AA@ 40092f70     LIBCMTD:pdblkup.obj
 0002:00010f84       ??_C@_01KDCPPGHE@r?$AA@    40092f84     LIBCMTD:pdblkup.obj
 0002:00010f94       ??_C@_03KHICJKCI@?4?4?4?$AA@ 40092f94     LIBCMTD:dbgrpt.obj
 0002:00010f98       ??_C@_1CG@GNMJDMIO@?$AA_?$AAC?$AAr?$AAt?$AAS?$AAe?$AAt?$AAR?$AAe?$AAp?$AAo?$AAr?$AAt?$AAH?$AAo?$AAo?$AAk?$AA2?$AA?$AA@ 40092f98     LIBCMTD:dbgrpt.obj
 0002:00010fc0       ??_C@_1CI@IDOKFLAJ@?$AA_?$AA_?$AAc?$AAr?$AAt?$AAM?$AAe?$AAs?$AAs?$AAa?$AAg?$AAe?$AAW?$AAi?$AAn?$AAd?$AAo?$AAw?$AAA?$AA?$AA@ 40092fc0     LIBCMTD:dbgrpt.obj
 0002:00010fe8       ??_C@_1GG@DLDHOIGE@?$AAs?$AAt?$AAr?$AAc?$AAp?$AAy?$AA_?$AAs?$AA?$CI?$AAs?$AAz?$AAE?$AAx?$AAe?$AAN?$AAa?$AAm?$AAe?$AA?0?$AA?5?$AA2?$AA6?$AA0?$AA?0?$AA?5?$AA?$CC?$AA?$DM?$AAp?$AAr?$AAo?$AAg?$AAr@ 40092fe8     LIBCMTD:dbgrpt.obj
 0002:00011050       ??_C@_0BH@DNAGHKFM@?$DMprogram?5name?5unknown?$DO?$AA@ 40093050     LIBCMTD:dbgrpt.obj
 0002:00011068       ??_C@_1LG@BEHAHJLI@?$AAD?$AAe?$AAb?$AAu?$AAg?$AA?5?$AA?$CF?$AAs?$AA?$CB?$AA?6?$AA?6?$AAP?$AAr?$AAo?$AAg?$AAr?$AAa?$AAm?$AA?3?$AA?5?$AA?$CF?$AAh?$AAs?$AA?$CF?$AAs?$AA?$CF?$AAs?$AA?$CF?$AAh?$AAs?$AA?$CF?$AAs@ 40093068     LIBCMTD:dbgrpt.obj
 0002:00011120       ??_C@_1FC@NCPEPIBI@?$AA?$CI?$AA?$CI?$AA_?$AAD?$AAs?$AAt?$AA?$CJ?$AA?$CJ?$AA?5?$AA?$CB?$AA?$DN?$AA?5?$AAN?$AAU?$AAL?$AAL?$AA?5?$AA?$CG?$AA?$CG?$AA?5?$AA?$CI?$AA?$CI?$AA_?$AAS?$AAi?$AAz?$AAe?$AAI?$AAn?$AAB?$AAy?$AAt@ 40093120     LIBCMTD:strcpy_s.obj
 0002:00011174       ??_C@_1BC@CFJEPFGF@?$AAs?$AAt?$AAr?$AAc?$AAp?$AAy?$AA_?$AAs?$AA?$AA@ 40093174     LIBCMTD:strcpy_s.obj
 0002:00011188       ??_C@_1GE@BDKOPHIO@?$AAf?$AA?3?$AA?2?$AAd?$AAd?$AA?2?$AAv?$AAc?$AAt?$AAo?$AAo?$AAl?$AAs?$AA?2?$AAc?$AAr?$AAt?$AA_?$AAb?$AAl?$AAd?$AA?2?$AAs?$AAe?$AAl?$AAf?$AA_?$AAx?$AA8?$AA6?$AA?2?$AAc@ 40093188     LIBCMTD:_fptostr.obj
 0002:000111ec       ??_C@_1BC@OPALLEB@?$AA_?$AAf?$AAp?$AAt?$AAo?$AAs?$AAt?$AAr?$AA?$AA@ 400931ec     LIBCMTD:_fptostr.obj
 0002:00011200       ??_C@_1GM@CEDLGDDI@?$AAs?$AAi?$AAz?$AAe?$AAI?$AAn?$AAB?$AAy?$AAt?$AAe?$AAs?$AA?5?$AA?$DO?$AA?5?$AA?$CI?$AAs?$AAi?$AAz?$AAe?$AA_?$AAt?$AA?$CJ?$AA?$CI?$AA?$CI?$AAd?$AAi?$AAg?$AAi?$AAt?$AAs?$AA?5?$AA?$DO@ 40093200     LIBCMTD:_fptostr.obj
 0002:0001126c       ??_C@_1BK@CLIEHFDF@?$AAp?$AAf?$AAl?$AAt?$AA?5?$AA?$CB?$AA?$DN?$AA?5?$AAN?$AAU?$AAL?$AAL?$AA?$AA@ 4009326c     LIBCMTD:_fptostr.obj
 0002:00011288       ??_C@_1HC@PKFDNKN@?$AAf?$AA?3?$AA?2?$AAd?$AAd?$AA?2?$AAv?$AAc?$AAt?$AAo?$AAo?$AAl?$AAs?$AA?2?$AAc?$AAr?$AAt?$AA_?$AAb?$AAl?$AAd?$AA?2?$AAs?$AAe?$AAl?$AAf?$AA_?$AAx?$AA8?$AA6?$AA?2?$AAc@ 40093288     LIBCMTD:cfout.obj
 0002:000112fc       ??_C@_1BC@BPMMEHLK@?$AA_?$AAf?$AAl?$AAt?$AAo?$AAu?$AAt?$AA2?$AA?$AA@ 400932fc     LIBCMTD:cfout.obj
 0002:00011310       ??_C@_1FK@KODCOBKF@?$AAs?$AAt?$AAr?$AAc?$AAp?$AAy?$AA_?$AAs?$AA?$CI?$AAr?$AAe?$AAs?$AAu?$AAl?$AAt?$AAs?$AAt?$AAr?$AA?0?$AA?5?$AAr?$AAe?$AAs?$AAu?$AAl?$AAt?$AAs?$AAi?$AAz?$AAe?$AA?0?$AA?5@ 40093310     LIBCMTD:cfout.obj
 0002:00011370       ??_C@_1EM@EGEEBJLG@?$AA?$CI?$AAo?$AAp?$AAt?$AAi?$AAo?$AAn?$AAs?$AA?5?$AA?$CG?$AA?5?$AA?$HO?$AA_?$AAT?$AAW?$AAO?$AA_?$AAD?$AAI?$AAG?$AAI?$AAT?$AA_?$AAE?$AAX?$AAP?$AAO?$AAN?$AAE?$AAN?$AAT?$AA?$CJ@ 40093370     LIBCMTD:outputformat.obj
 0002:000113c0       ??_C@_1GM@NFGGJJCM@?$AAf?$AA?3?$AA?2?$AAd?$AAd?$AA?2?$AAv?$AAc?$AAt?$AAo?$AAo?$AAl?$AAs?$AA?2?$AAc?$AAr?$AAt?$AA_?$AAb?$AAl?$AAd?$AA?2?$AAs?$AAe?$AAl?$AAf?$AA_?$AAx?$AA8?$AA6?$AA?2?$AAc@ 400933c0     LIBCMTD:outputformat.obj
 0002:0001142c       ??_C@_1CG@EBJECAJM@?$AA_?$AAs?$AAe?$AAt?$AA_?$AAo?$AAu?$AAt?$AAp?$AAu?$AAt?$AA_?$AAf?$AAo?$AAr?$AAm?$AAa?$AAt?$AA?$AA@ 4009342c     LIBCMTD:outputformat.obj
 0002:00011454       ??_C@_1DG@JNDMIEJL@?$AA?$CI?$AA?$CC?$AAI?$AAn?$AAv?$AAa?$AAl?$AAi?$AAd?$AA?5?$AAi?$AAn?$AAp?$AAu?$AAt?$AA?5?$AAv?$AAa?$AAl?$AAu?$AAe?$AA?$CC?$AA?0?$AA?5?$AA0?$AA?$CJ?$AA?$AA@ 40093454     LIBCMTD:contrlfp.obj
 0002:00011490       ??_C@_1HI@JIOCECAH@?$AAf?$AA?3?$AA?2?$AAd?$AAd?$AA?2?$AAv?$AAc?$AAt?$AAo?$AAo?$AAl?$AAs?$AA?2?$AAc?$AAr?$AAt?$AA_?$AAb?$AAl?$AAd?$AA?2?$AAs?$AAe?$AAl?$AAf?$AA_?$AAx?$AA8?$AA6?$AA?2?$AAc@ 40093490     LIBCMTD:contrlfp.obj
 0002:00011508       ??_C@_1BK@CDOALEA@?$AA_?$AAc?$AAo?$AAn?$AAt?$AAr?$AAo?$AAl?$AAf?$AAp?$AA_?$AAs?$AA?$AA@ 40093508     LIBCMTD:contrlfp.obj
 0002:00011524       ??_C@_0DA@HMCPFNKN@f?3?2dd?2vctools?2crt_bld?2self_x86?2c@ 40093524     LIBCMTD:onexit.obj
 0002:00011554       ??_C@_1BC@JLLICHIC@?$AAp?$AAn?$AAh?$AA?5?$AA?$DN?$AA?$DN?$AA?5?$AA0?$AA?$AA@ 40093554     LIBCMTD:handler.obj
 0002:00011568       ??_C@_1GG@CDHAPCGF@?$AAf?$AA?3?$AA?2?$AAd?$AAd?$AA?2?$AAv?$AAc?$AAt?$AAo?$AAo?$AAl?$AAs?$AA?2?$AAc?$AAr?$AAt?$AA_?$AAb?$AAl?$AAd?$AA?2?$AAs?$AAe?$AAl?$AAf?$AA_?$AAx?$AA8?$AA6?$AA?2?$AAc@ 40093568     LIBCMTD:handler.obj
 0002:000115d0       ??_C@_0DC@CFDMMFIG@f?3?2dd?2vctools?2crt_bld?2self_x86?2c@ 400935d0     LIBCMTD:inithelp.obj
 0002:00011608       ??_C@_1GE@PLPIMDHG@?$AAf?$AA?3?$AA?2?$AAd?$AAd?$AA?2?$AAv?$AAc?$AAt?$AAo?$AAo?$AAl?$AAs?$AA?2?$AAc?$AAr?$AAt?$AA_?$AAb?$AAl?$AAd?$AA?2?$AAs?$AAe?$AAl?$AAf?$AA_?$AAx?$AA8?$AA6?$AA?2?$AAc@ 40093608     LIBCMTD:inithelp.obj
 0002:0001166c       ??_C@_1CA@KHHCPEI@?$AA_?$AA_?$AAg?$AAe?$AAt?$AAl?$AAo?$AAc?$AAa?$AAl?$AAe?$AAi?$AAn?$AAf?$AAo?$AA?$AA@ 4009366c     LIBCMTD:inithelp.obj
 0002:00011690       ??_C@_1GO@NGIGJNHH@?$AAs?$AAt?$AAr?$AAn?$AAc?$AAp?$AAy?$AA_?$AAs?$AA?$CI?$AA?$CK?$AAs?$AAt?$AAr?$AAa?$AAd?$AAd?$AAr?$AAe?$AAs?$AAs?$AA?0?$AA?5?$AAo?$AAu?$AAt?$AAs?$AAi?$AAz?$AAe?$AA?0?$AA?5@ 40093690     LIBCMTD:inithelp.obj
 0002:00011700       ??_C@_1CK@GFDNDKK@?$AA_?$AAR?$AAa?$AAn?$AAd?$AAo?$AAm?$AAV?$AAa?$AAl?$AAu?$AAe?$AA?5?$AA?$CB?$AA?$DN?$AA?5?$AAN?$AAU?$AAL?$AAL?$AA?$AA@ 40093700     LIBCMTD:rand_s.obj
 0002:00011730       ??_C@_1GA@HBGBBKCD@?$AAf?$AA?3?$AA?2?$AAd?$AAd?$AA?2?$AAv?$AAc?$AAt?$AAo?$AAo?$AAl?$AAs?$AA?2?$AAc?$AAr?$AAt?$AA_?$AAb?$AAl?$AAd?$AA?2?$AAs?$AAe?$AAl?$AAf?$AA_?$AAx?$AA8?$AA6?$AA?2?$AAc@ 40093730     LIBCMTD:rand_s.obj
 0002:00011790       ??_C@_1O@IJGPPOGF@?$AAr?$AAa?$AAn?$AAd?$AA_?$AAs?$AA?$AA@ 40093790     LIBCMTD:rand_s.obj
 0002:000117a0       ??_C@_1GA@EBEDGGGB@?$AA?$CI?$AA?$CC?$AAr?$AAa?$AAn?$AAd?$AA_?$AAs?$AA?5?$AAi?$AAs?$AA?5?$AAn?$AAo?$AAt?$AA?5?$AAa?$AAv?$AAa?$AAi?$AAl?$AAa?$AAb?$AAl?$AAe?$AA?5?$AAo?$AAn?$AA?5?$AAt?$AAh?$AAi@ 400937a0     LIBCMTD:rand_s.obj
 0002:00011800       ??_C@_0BC@JEAENNKH@SystemFunction036?$AA@ 40093800     LIBCMTD:rand_s.obj
 0002:00011818       ??_C@_1GC@DGAFOCMO@?$AAf?$AA?3?$AA?2?$AAd?$AAd?$AA?2?$AAv?$AAc?$AAt?$AAo?$AAo?$AAl?$AAs?$AA?2?$AAc?$AAr?$AAt?$AA_?$AAb?$AAl?$AAd?$AA?2?$AAs?$AAe?$AAl?$AAf?$AA_?$AAx?$AA8?$AA6?$AA?2?$AAc@ 40093818     LIBCMTD:_sftbuf.obj
 0002:0001187c       ??_C@_0DB@OLNNDFNH@f?3?2dd?2vctools?2crt_bld?2self_x86?2c@ 4009387c     LIBCMTD:_sftbuf.obj
 0002:000118b0       ??_C@_1CO@KCKAACMI@?$AAf?$AAl?$AAa?$AAg?$AA?5?$AA?$DN?$AA?$DN?$AA?5?$AA0?$AA?5?$AA?$HM?$AA?$HM?$AA?5?$AAf?$AAl?$AAa?$AAg?$AA?5?$AA?$DN?$AA?$DN?$AA?5?$AA1?$AA?$AA@ 400938b0     LIBCMTD:_sftbuf.obj
 0002:000118e0       ??_C@_1GA@PBJHELNC@?$AAf?$AA?3?$AA?2?$AAd?$AAd?$AA?2?$AAv?$AAc?$AAt?$AAo?$AAo?$AAl?$AAs?$AA?2?$AAc?$AAr?$AAt?$AA_?$AAb?$AAl?$AAd?$AA?2?$AAs?$AAe?$AAl?$AAf?$AA_?$AAx?$AA8?$AA6?$AA?2?$AAc@ 400938e0     LIBCMTD:fileno.obj
 0002:00011940       ??_C@_1BA@JGHIEKKM@?$AA_?$AAf?$AAi?$AAl?$AAe?$AAn?$AAo?$AA?$AA@ 40093940     LIBCMTD:fileno.obj
 0002:00011950       ??_C@_1HC@KFLBHHBC@?$AA?$CI?$AAf?$AAi?$AAl?$AAe?$AAd?$AAe?$AAs?$AA?5?$AA?$DO?$AA?$DN?$AA?5?$AA0?$AA?5?$AA?$CG?$AA?$CG?$AA?5?$AA?$CI?$AAu?$AAn?$AAs?$AAi?$AAg?$AAn?$AAe?$AAd?$AA?$CJ?$AAf?$AAi?$AAl?$AAe?$AAd@ 40093950     LIBCMTD:commit.obj
 0002:000119c8       ??_C@_1GA@BOPCOCFN@?$AAf?$AA?3?$AA?2?$AAd?$AAd?$AA?2?$AAv?$AAc?$AAt?$AAo?$AAo?$AAl?$AAs?$AA?2?$AAc?$AAr?$AAt?$AA_?$AAb?$AAl?$AAd?$AA?2?$AAs?$AAe?$AAl?$AAf?$AA_?$AAx?$AA8?$AA6?$AA?2?$AAc@ 400939c8     LIBCMTD:commit.obj
 0002:00011a28       ??_C@_1BA@FLNMBBIM@?$AA_?$AAc?$AAo?$AAm?$AAm?$AAi?$AAt?$AA?$AA@ 40093a28     LIBCMTD:commit.obj
 0002:00011a38       ??_C@_1DG@LNNHNFHJ@?$AA?$CI?$AA_?$AAo?$AAs?$AAf?$AAi?$AAl?$AAe?$AA?$CI?$AAf?$AAi?$AAl?$AAe?$AAd?$AAe?$AAs?$AA?$CJ?$AA?5?$AA?$CG?$AA?5?$AAF?$AAO?$AAP?$AAE?$AAN?$AA?$CJ?$AA?$AA@ 40093a38     LIBCMTD:commit.obj
 0002:00011a70       ??_C@_1JE@ECKHFIFP@?$AA?$CI?$AA?$CC?$AAI?$AAn?$AAv?$AAa?$AAl?$AAi?$AAd?$AA?5?$AAf?$AAi?$AAl?$AAe?$AA?5?$AAd?$AAe?$AAs?$AAc?$AAr?$AAi?$AAp?$AAt?$AAo?$AAr?$AA?4?$AA?5?$AAF?$AAi?$AAl?$AAe?$AA?5@ 40093a70     LIBCMTD:commit.obj
 0002:00011b08       ??_C@_1FO@LPCLHKGE@?$AA?$CI?$AAf?$AAh?$AA?5?$AA?$DO?$AA?$DN?$AA?5?$AA0?$AA?5?$AA?$CG?$AA?$CG?$AA?5?$AA?$CI?$AAu?$AAn?$AAs?$AAi?$AAg?$AAn?$AAe?$AAd?$AA?$CJ?$AAf?$AAh?$AA?5?$AA?$DM?$AA?5?$AA?$CI?$AAu?$AAn?$AAs?$AAi@ 40093b08     LIBCMTD:write.obj
 0002:00011b68       ??_C@_1FO@EPLDPDDL@?$AAf?$AA?3?$AA?2?$AAd?$AAd?$AA?2?$AAv?$AAc?$AAt?$AAo?$AAo?$AAl?$AAs?$AA?2?$AAc?$AAr?$AAt?$AA_?$AAb?$AAl?$AAd?$AA?2?$AAs?$AAe?$AAl?$AAf?$AA_?$AAx?$AA8?$AA6?$AA?2?$AAc@ 40093b68     LIBCMTD:write.obj
 0002:00011bc8       ??_C@_1O@KOFKDHPL@?$AA_?$AAw?$AAr?$AAi?$AAt?$AAe?$AA?$AA@ 40093bc8     LIBCMTD:write.obj
 0002:00011bd8       ??_C@_1CM@OKGMMMDH@?$AA?$CI?$AA_?$AAo?$AAs?$AAf?$AAi?$AAl?$AAe?$AA?$CI?$AAf?$AAh?$AA?$CJ?$AA?5?$AA?$CG?$AA?5?$AAF?$AAO?$AAP?$AAE?$AAN?$AA?$CJ?$AA?$AA@ 40093bd8     LIBCMTD:write.obj
 0002:00011c04       ??_C@_1BM@KFJLMBPG@?$AA?$CI?$AAb?$AAu?$AAf?$AA?5?$AA?$CB?$AA?$DN?$AA?5?$AAN?$AAU?$AAL?$AAL?$AA?$CJ?$AA?$AA@ 40093c04     LIBCMTD:write.obj
 0002:00011c20       ??_C@_1BM@NCANHCIP@?$AA_?$AAw?$AAr?$AAi?$AAt?$AAe?$AA_?$AAn?$AAo?$AAl?$AAo?$AAc?$AAk?$AA?$AA@ 40093c20     LIBCMTD:write.obj
 0002:00011c3c       ??_C@_1CC@EEOLPHGO@?$AA?$CI?$AA?$CI?$AAc?$AAn?$AAt?$AA?5?$AA?$CG?$AA?5?$AA1?$AA?$CJ?$AA?5?$AA?$DN?$AA?$DN?$AA?5?$AA0?$AA?$CJ?$AA?$AA@ 40093c3c     LIBCMTD:write.obj
 0002:00011c60       ??_C@_1DI@CNMHHHLG@?$AAi?$AAs?$AAl?$AAe?$AAa?$AAd?$AAb?$AAy?$AAt?$AAe?$AA?$CI?$AA_?$AAd?$AAb?$AAc?$AAs?$AAB?$AAu?$AAf?$AAf?$AAe?$AAr?$AA?$CI?$AAf?$AAh?$AA?$CJ?$AA?$CJ?$AA?$AA@ 40093c60     LIBCMTD:write.obj
 0002:00011c98       ??_C@_1BO@KIJENGPH@?$AAs?$AAt?$AAr?$AAe?$AAa?$AAm?$AA?5?$AA?$CB?$AA?$DN?$AA?5?$AAN?$AAU?$AAL?$AAL?$AA?$AA@ 40093c98     LIBCMTD:_freebuf.obj
 0002:00011cb8       ??_C@_1GE@MIMBMOF@?$AAf?$AA?3?$AA?2?$AAd?$AAd?$AA?2?$AAv?$AAc?$AAt?$AAo?$AAo?$AAl?$AAs?$AA?2?$AAc?$AAr?$AAt?$AA_?$AAb?$AAl?$AAd?$AA?2?$AAs?$AAe?$AAl?$AAf?$AA_?$AAx?$AA8?$AA6?$AA?2?$AAc@ 40093cb8     LIBCMTD:_freebuf.obj
 0002:00011d20       ??_C@_1GE@MBMBDAGC@?$AAf?$AA?3?$AA?2?$AAd?$AAd?$AA?2?$AAv?$AAc?$AAt?$AAo?$AAo?$AAl?$AAs?$AA?2?$AAc?$AAr?$AAt?$AA_?$AAb?$AAl?$AAd?$AA?2?$AAs?$AAe?$AAl?$AAf?$AA_?$AAx?$AA8?$AA6?$AA?2?$AAc@ 40093d20     LIBCMTD:vfwprint.obj
 0002:00011d84       ??_C@_1CC@MONNFDCM@?$AAv?$AAf?$AAw?$AAp?$AAr?$AAi?$AAn?$AAt?$AAf?$AA_?$AAh?$AAe?$AAl?$AAp?$AAe?$AAr?$AA?$AA@ 40093d84     LIBCMTD:vfwprint.obj
 0002:00011da8       ??_C@_1BG@BBCDFOMA@?$AA_?$AAw?$AAo?$AAu?$AAt?$AAp?$AAu?$AAt?$AA_?$AAl?$AA?$AA@ 40093da8     LIBCMTD:woutput.obj
 0002:00011dc0       ??_C@_1BK@ONMFGLDB@?$AA_?$AAw?$AAo?$AAu?$AAt?$AAp?$AAu?$AAt?$AA_?$AAs?$AA_?$AAl?$AA?$AA@ 40093dc0     LIBCMTD:woutputs.obj
 0002:00011ddc       ??_C@_1BK@GDEKGMNC@?$AA_?$AAw?$AAo?$AAu?$AAt?$AAp?$AAu?$AAt?$AA_?$AAp?$AA_?$AAl?$AA?$AA@ 40093ddc     LIBCMTD:woutputp.obj
 0002:00011df8       ??_C@_1GK@PAJJBKJF@?$AAf?$AA?3?$AA?2?$AAd?$AAd?$AA?2?$AAv?$AAc?$AAt?$AAo?$AAo?$AAl?$AAs?$AA?2?$AAc?$AAr?$AAt?$AA_?$AAb?$AAl?$AAd?$AA?2?$AAs?$AAe?$AAl?$AAf?$AA_?$AAx?$AA8?$AA6?$AA?2?$AAc@ 40093df8     LIBCMTD:wcsncpy_s.obj
 0002:00011e64       ??_C@_1BE@PMMBFFCC@?$AAw?$AAc?$AAs?$AAn?$AAc?$AAp?$AAy?$AA_?$AAs?$AA?$AA@ 40093e64     LIBCMTD:wcsncpy_s.obj
 0002:00011e78       ??_C@_1GA@LPGDJDEN@?$AAf?$AA?3?$AA?2?$AAd?$AAd?$AA?2?$AAv?$AAc?$AAt?$AAo?$AAo?$AAl?$AAs?$AA?2?$AAc?$AAr?$AAt?$AA_?$AAb?$AAl?$AAd?$AA?2?$AAs?$AAe?$AAl?$AAf?$AA_?$AAx?$AA8?$AA6?$AA?2?$AAc@ 40093e78     LIBCMTD:isatty.obj
 0002:00011ed8       ??_C@_1BA@LEBDGIHM@?$AA_?$AAi?$AAs?$AAa?$AAt?$AAt?$AAy?$AA?$AA@ 40093ed8     LIBCMTD:isatty.obj
 0002:00011ee8       ??_C@_1GE@MINKPNPH@?$AAf?$AA?3?$AA?2?$AAd?$AAd?$AA?2?$AAv?$AAc?$AAt?$AAo?$AAo?$AAl?$AAs?$AA?2?$AAc?$AAr?$AAt?$AA_?$AAb?$AAl?$AAd?$AA?2?$AAs?$AAe?$AAl?$AAf?$AA_?$AAx?$AA8?$AA6?$AA?2?$AAc@ 40093ee8     LIBCMTD:lseeki64.obj
 0002:00011f4c       ??_C@_1BE@KHFBJMNM@?$AA_?$AAl?$AAs?$AAe?$AAe?$AAk?$AAi?$AA6?$AA4?$AA?$AA@ 40093f4c     LIBCMTD:lseeki64.obj
 0002:00011f60       ??_C@_1GC@DKMGNNCC@?$AAf?$AA?3?$AA?2?$AAd?$AAd?$AA?2?$AAv?$AAc?$AAt?$AAo?$AAo?$AAl?$AAs?$AA?2?$AAc?$AAr?$AAt?$AA_?$AAb?$AAl?$AAd?$AA?2?$AAs?$AAe?$AAl?$AAf?$AA_?$AAx?$AA8?$AA6?$AA?2?$AAc@ 40093f60     LIBCMTD:_getbuf.obj
 0002:00011fc4       ??_C@_0DB@JEHOCBEJ@f?3?2dd?2vctools?2crt_bld?2self_x86?2c@ 40093fc4     LIBCMTD:_getbuf.obj
 0002:00011ff8       ??_C@_1GA@LHEGHOAF@?$AAf?$AA?3?$AA?2?$AAd?$AAd?$AA?2?$AAv?$AAc?$AAt?$AAo?$AAo?$AAl?$AAs?$AA?2?$AAc?$AAr?$AAt?$AA_?$AAb?$AAl?$AAd?$AA?2?$AAs?$AAe?$AAl?$AAf?$AA_?$AAx?$AA8?$AA6?$AA?2?$AAc@ 40093ff8     LIBCMTD:printf.obj
 0002:00012058       ??_C@_1O@GKDHFACN@?$AAp?$AAr?$AAi?$AAn?$AAt?$AAf?$AA?$AA@ 40094058     LIBCMTD:printf.obj
 0002:00012068       ??_C@_1CO@HFMIILNF@?$AAs?$AAi?$AAz?$AAe?$AAI?$AAn?$AAB?$AAy?$AAt?$AAe?$AAs?$AA?5?$AA?$DM?$AA?$DN?$AA?5?$AAI?$AAN?$AAT?$AA_?$AAM?$AAA?$AAX?$AA?$AA@ 40094068     LIBCMTD:wctomb.obj
 0002:00012098       ??_C@_1GA@LDLHPOO@?$AAf?$AA?3?$AA?2?$AAd?$AAd?$AA?2?$AAv?$AAc?$AAt?$AAo?$AAo?$AAl?$AAs?$AA?2?$AAc?$AAr?$AAt?$AA_?$AAb?$AAl?$AAd?$AA?2?$AAs?$AAe?$AAl?$AAf?$AA_?$AAx?$AA8?$AA6?$AA?2?$AAc@ 40094098     LIBCMTD:wctomb.obj
 0002:000120f8       ??_C@_1BI@IEADNOHF@?$AA_?$AAw?$AAc?$AAt?$AAo?$AAm?$AAb?$AA_?$AAs?$AA_?$AAl?$AA?$AA@ 400940f8     LIBCMTD:wctomb.obj
 0002:00012110       ___lookuptable_s           40094110     LIBCMTD:outputs.obj
 0002:0001216c       ??_C@_1BI@COFBLHCG@?$AA_?$AAo?$AAu?$AAt?$AAp?$AAu?$AAt?$AA_?$AAs?$AA_?$AAl?$AA?$AA@ 4009416c     LIBCMTD:outputs.obj
 0002:00012184       ??_C@_1M@ELCKCCJJ@?$AAm?$AAi?$AA?9?$AAn?$AAz?$AA?$AA@ 40094184     LIBCMTD:winapinls.obj
 0002:00012190       ??_C@_1M@CBOOLAPA@?$AAm?$AAk?$AA?9?$AAm?$AAk?$AA?$AA@ 40094190     LIBCMTD:winapinls.obj
 0002:0001219c       ??_C@_1M@GPHNBJKN@?$AAm?$AAl?$AA?9?$AAi?$AAn?$AA?$AA@ 4009419c     LIBCMTD:winapinls.obj
 0002:000121a8       ??_C@_1M@PABJILIG@?$AAm?$AAn?$AA?9?$AAm?$AAn?$AA?$AA@ 400941a8     LIBCMTD:winapinls.obj
 0002:000121b4       ??_C@_1M@FGBKKIPG@?$AAm?$AAr?$AA?9?$AAi?$AAn?$AA?$AA@ 400941b4     LIBCMTD:winapinls.obj
 0002:000121c0       ??_C@_1M@NDBPDDAL@?$AAm?$AAs?$AA?9?$AAb?$AAn?$AA?$AA@ 400941c0     LIBCMTD:winapinls.obj
 0002:000121cc       ??_C@_1M@OPIHOOPI@?$AAm?$AAs?$AA?9?$AAm?$AAy?$AA?$AA@ 400941cc     LIBCMTD:winapinls.obj
 0002:000121d8       ??_C@_1M@PPDBCNFM@?$AAm?$AAt?$AA?9?$AAm?$AAt?$AA?$AA@ 400941d8     LIBCMTD:winapinls.obj
 0002:000121e4       ??_C@_1M@KDJDKMDD@?$AAn?$AAb?$AA?9?$AAn?$AAo?$AA?$AA@ 400941e4     LIBCMTD:winapinls.obj
 0002:000121f0       ??_C@_1M@KFCFLMJP@?$AAn?$AAl?$AA?9?$AAb?$AAe?$AA?$AA@ 400941f0     LIBCMTD:winapinls.obj
 0002:000121fc       ??_C@_1M@KPOPDDGO@?$AAn?$AAl?$AA?9?$AAn?$AAl?$AA?$AA@ 400941fc     LIBCMTD:winapinls.obj
 0002:00012208       ??_C@_1M@LJKPEMLN@?$AAn?$AAn?$AA?9?$AAn?$AAo?$AA?$AA@ 40094208     LIBCMTD:winapinls.obj
 0002:00012214       ??_C@_1M@BDGHHBFL@?$AAn?$AAs?$AA?9?$AAz?$AAa?$AA?$AA@ 40094214     LIBCMTD:winapinls.obj
 0002:00012220       ??_C@_1M@IDEHOAP@?$AAp?$AAa?$AA?9?$AAi?$AAn?$AA?$AA@ 40094220     LIBCMTD:winapinls.obj
 0002:0001222c       ??_C@_1M@HDBKGOGH@?$AAp?$AAl?$AA?9?$AAp?$AAl?$AA?$AA@ 4009422c     LIBCMTD:winapinls.obj
 0002:00012238       ??_C@_1M@LJLLCMEH@?$AAp?$AAt?$AA?9?$AAb?$AAr?$AA?$AA@ 40094238     LIBCMTD:winapinls.obj
 0002:00012244       ??_C@_1M@NCMONAAL@?$AAp?$AAt?$AA?9?$AAp?$AAt?$AA?$AA@ 40094244     LIBCMTD:winapinls.obj
 0002:00012250       ??_C@_1O@EAKMAJDN@?$AAq?$AAu?$AAz?$AA?9?$AAb?$AAo?$AA?$AA@ 40094250     LIBCMTD:winapinls.obj
 0002:00012260       ??_C@_1O@BHHPIGDN@?$AAq?$AAu?$AAz?$AA?9?$AAe?$AAc?$AA?$AA@ 40094260     LIBCMTD:winapinls.obj
 0002:00012270       ??_C@_1O@GBAPEKMJ@?$AAq?$AAu?$AAz?$AA?9?$AAp?$AAe?$AA?$AA@ 40094270     LIBCMTD:winapinls.obj
 0002:00012280       ??_C@_1M@CLGLEFBO@?$AAr?$AAo?$AA?9?$AAr?$AAo?$AA?$AA@ 40094280     LIBCMTD:winapinls.obj
 0002:0001228c       ??_C@_1M@CEEDODME@?$AAr?$AAu?$AA?9?$AAr?$AAu?$AA?$AA@ 4009428c     LIBCMTD:winapinls.obj
 0002:00012298       ??_C@_1M@HPKKKMPP@?$AAs?$AAa?$AA?9?$AAi?$AAn?$AA?$AA@ 40094298     LIBCMTD:winapinls.obj
 0002:000122a4       ??_C@_1M@BKMAIGOJ@?$AAs?$AAe?$AA?9?$AAf?$AAi?$AA?$AA@ 400942a4     LIBCMTD:winapinls.obj
 0002:000122b0       ??_C@_1M@NDPIFLFI@?$AAs?$AAe?$AA?9?$AAn?$AAo?$AA?$AA@ 400942b0     LIBCMTD:winapinls.obj
 0002:000122bc       ??_C@_1M@DANKKHJ@?$AAs?$AAe?$AA?9?$AAs?$AAe?$AA?$AA@ 400942bc     LIBCMTD:winapinls.obj
 0002:000122c8       ??_C@_1M@PNBLONPJ@?$AAs?$AAk?$AA?9?$AAs?$AAk?$AA?$AA@ 400942c8     LIBCMTD:winapinls.obj
 0002:000122d4       ??_C@_1M@LFMODOAL@?$AAs?$AAl?$AA?9?$AAs?$AAi?$AA?$AA@ 400942d4     LIBCMTD:winapinls.obj
 0002:000122e0       ??_C@_1O@DFKOMPG@?$AAs?$AAm?$AAa?$AA?9?$AAn?$AAo?$AA?$AA@ 400942e0     LIBCMTD:winapinls.obj
 0002:000122f0       ??_C@_1O@NDKPBNNH@?$AAs?$AAm?$AAa?$AA?9?$AAs?$AAe?$AA?$AA@ 400942f0     LIBCMTD:winapinls.obj
 0002:00012300       ??_C@_1O@PLLKBHAB@?$AAs?$AAm?$AAj?$AA?9?$AAn?$AAo?$AA?$AA@ 40094300     LIBCMTD:winapinls.obj
 0002:00012310       ??_C@_1O@CLEPOGCA@?$AAs?$AAm?$AAj?$AA?9?$AAs?$AAe?$AA?$AA@ 40094310     LIBCMTD:winapinls.obj
 0002:00012320       ??_C@_1O@DLGJGKMK@?$AAs?$AAm?$AAn?$AA?9?$AAf?$AAi?$AA?$AA@ 40094320     LIBCMTD:winapinls.obj
 0002:00012330       ??_C@_1O@OJDJGAJC@?$AAs?$AAm?$AAs?$AA?9?$AAf?$AAi?$AA?$AA@ 40094330     LIBCMTD:winapinls.obj
 0002:00012340       ??_C@_1M@BOFOGHPB@?$AAs?$AAq?$AA?9?$AAa?$AAl?$AA?$AA@ 40094340     LIBCMTD:winapinls.obj
 0002:0001234c       ??_C@_1BG@LJBBIPGB@?$AAs?$AAr?$AA?9?$AAb?$AAa?$AA?9?$AAc?$AAy?$AAr?$AAl?$AA?$AA@ 4009434c     LIBCMTD:winapinls.obj
 0002:00012364       ??_C@_1BG@JLBENFOE@?$AAs?$AAr?$AA?9?$AAb?$AAa?$AA?9?$AAl?$AAa?$AAt?$AAn?$AA?$AA@ 40094364     LIBCMTD:winapinls.obj
 0002:0001237c       ??_C@_1BG@KODPNHE@?$AAs?$AAr?$AA?9?$AAs?$AAp?$AA?9?$AAc?$AAy?$AAr?$AAl?$AA?$AA@ 4009437c     LIBCMTD:winapinls.obj
 0002:00012394       ??_C@_1BG@CIOGKHPB@?$AAs?$AAr?$AA?9?$AAs?$AAp?$AA?9?$AAl?$AAa?$AAt?$AAn?$AA?$AA@ 40094394     LIBCMTD:winapinls.obj
 0002:000123ac       ??_C@_1M@NGFJLMAC@?$AAs?$AAv?$AA?9?$AAf?$AAi?$AA?$AA@ 400943ac     LIBCMTD:winapinls.obj
 0002:000123b8       ??_C@_1M@MPJEJAJC@?$AAs?$AAv?$AA?9?$AAs?$AAe?$AA?$AA@ 400943b8     LIBCMTD:winapinls.obj
 0002:000123c4       ??_C@_1M@MPNDHLFK@?$AAs?$AAw?$AA?9?$AAk?$AAe?$AA?$AA@ 400943c4     LIBCMTD:winapinls.obj
 0002:000123d0       ??_C@_1O@KOHBJJI@?$AAs?$AAy?$AAr?$AA?9?$AAs?$AAy?$AA?$AA@ 400943d0     LIBCMTD:winapinls.obj
 0002:000123e0       ??_C@_1M@LDCEFHA@?$AAt?$AAa?$AA?9?$AAi?$AAn?$AA?$AA@ 400943e0     LIBCMTD:winapinls.obj
 0002:000123ec       ??_C@_1M@CNJOFAK@?$AAt?$AAe?$AA?9?$AAi?$AAn?$AA?$AA@ 400943ec     LIBCMTD:winapinls.obj
 0002:000123f8       ??_C@_1M@GNAECACD@?$AAt?$AAh?$AA?9?$AAt?$AAh?$AA?$AA@ 400943f8     LIBCMTD:winapinls.obj
 0002:00012404       ??_C@_1M@CHBIHOJO@?$AAt?$AAn?$AA?9?$AAz?$AAa?$AA?$AA@ 40094404     LIBCMTD:winapinls.obj
 0002:00012410       ??_C@_1M@GCCMIGPJ@?$AAt?$AAr?$AA?9?$AAt?$AAr?$AA?$AA@ 40094410     LIBCMTD:winapinls.obj
 0002:0001241c       ??_C@_1M@CELMCNBK@?$AAt?$AAt?$AA?9?$AAr?$AAu?$AA?$AA@ 4009441c     LIBCMTD:winapinls.obj
 0002:00012428       ??_C@_1M@KLMCELGA@?$AAu?$AAk?$AA?9?$AAu?$AAa?$AA?$AA@ 40094428     LIBCMTD:winapinls.obj
 0002:00012434       ??_C@_1M@EPAJJAJF@?$AAu?$AAr?$AA?9?$AAp?$AAk?$AA?$AA@ 40094434     LIBCMTD:winapinls.obj
 0002:00012440       ??_C@_1BG@GEGPMCDJ@?$AAu?$AAz?$AA?9?$AAu?$AAz?$AA?9?$AAc?$AAy?$AAr?$AAl?$AA?$AA@ 40094440     LIBCMTD:winapinls.obj
 0002:00012458       ??_C@_1BG@EGGKJILM@?$AAu?$AAz?$AA?9?$AAu?$AAz?$AA?9?$AAl?$AAa?$AAt?$AAn?$AA?$AA@ 40094458     LIBCMTD:winapinls.obj
 0002:00012470       ??_C@_1M@GFOCLFF@?$AAv?$AAi?$AA?9?$AAv?$AAn?$AA?$AA@ 40094470     LIBCMTD:winapinls.obj
 0002:0001247c       ??_C@_1M@CPAMEDFI@?$AAx?$AAh?$AA?9?$AAz?$AAa?$AA?$AA@ 4009447c     LIBCMTD:winapinls.obj
 0002:00012488       ??_C@_1O@EBKIFIGN@?$AAz?$AAh?$AA?9?$AAc?$AAh?$AAs?$AA?$AA@ 40094488     LIBCMTD:winapinls.obj
 0002:00012498       ??_C@_1O@NMHPGANE@?$AAz?$AAh?$AA?9?$AAc?$AAh?$AAt?$AA?$AA@ 40094498     LIBCMTD:winapinls.obj
 0002:000124a8       ??_C@_1M@LPINJOMC@?$AAz?$AAh?$AA?9?$AAc?$AAn?$AA?$AA@ 400944a8     LIBCMTD:winapinls.obj
 0002:000124b4       ??_C@_1M@OCJEJODD@?$AAz?$AAh?$AA?9?$AAh?$AAk?$AA?$AA@ 400944b4     LIBCMTD:winapinls.obj
 0002:000124c0       ??_C@_1M@DNDLJINH@?$AAz?$AAh?$AA?9?$AAm?$AAo?$AA?$AA@ 400944c0     LIBCMTD:winapinls.obj
 0002:000124cc       ??_C@_1M@MBFDNDND@?$AAz?$AAh?$AA?9?$AAs?$AAg?$AA?$AA@ 400944cc     LIBCMTD:winapinls.obj
 0002:000124d8       ??_C@_1M@IMEPLEPE@?$AAz?$AAh?$AA?9?$AAt?$AAw?$AA?$AA@ 400944d8     LIBCMTD:winapinls.obj
 0002:000124e4       ??_C@_1M@BBGHNHJP@?$AAz?$AAu?$AA?9?$AAz?$AAa?$AA?$AA@ 400944e4     LIBCMTD:winapinls.obj
 0002:000124f0       _LcidToLocaleNameTable     400944f0     LIBCMTD:winapinls.obj
 0002:00012c10       _LocaleNameToIndexTable    40094c10     LIBCMTD:winapinls.obj
 0002:00013330       ??_C@_15EMKDOKLE@?$AAa?$AAr?$AA?$AA@ 40095330     LIBCMTD:winapinls.obj
 0002:00013338       ??_C@_15KNPADPLH@?$AAb?$AAg?$AA?$AA@ 40095338     LIBCMTD:winapinls.obj
 0002:00013340       ??_C@_15EDMHLDMO@?$AAc?$AAa?$AA?$AA@ 40095340     LIBCMTD:winapinls.obj
 0002:00013348       ??_C@_1O@BPEAJADD@?$AAz?$AAh?$AA?9?$AAC?$AAH?$AAS?$AA?$AA@ 40095348     LIBCMTD:winapinls.obj
 0002:00013358       ??_C@_15LJNHCMNK@?$AAc?$AAs?$AA?$AA@ 40095358     LIBCMTD:winapinls.obj
 0002:00013360       ??_C@_15FOMCIDHG@?$AAd?$AAa?$AA?$AA@ 40095360     LIBCMTD:winapinls.obj
 0002:00013368       ??_C@_15NBKABECB@?$AAd?$AAe?$AA?$AA@ 40095368     LIBCMTD:winapinls.obj
 0002:00013370       ??_C@_15GHPEIIAO@?$AAe?$AAl?$AA?$AA@ 40095370     LIBCMTD:winapinls.obj
 0002:00013378       ??_C@_15MNPNEAIF@?$AAe?$AAn?$AA?$AA@ 40095378     LIBCMTD:winapinls.obj
 0002:00013380       ??_C@_15GPIOMPMH@?$AAe?$AAs?$AA?$AA@ 40095380     LIBCMTD:winapinls.obj
 0002:00013388       ??_C@_15NGLOAKJC@?$AAf?$AAi?$AA?$AA@ 40095388     LIBCMTD:winapinls.obj
 0002:00013390       ??_C@_15FBKGNKAM@?$AAf?$AAr?$AA?$AA@ 40095390     LIBCMTD:winapinls.obj
 0002:00013398       ??_C@_15KGGCNEFK@?$AAh?$AAe?$AA?$AA@ 40095398     LIBCMTD:winapinls.obj
 0002:000133a0       ??_C@_15PGHLIDMF@?$AAh?$AAu?$AA?$AA@ 400953a0     LIBCMTD:winapinls.obj
 0002:000133a8       ??_C@_15BIEMAPLM@?$AAi?$AAs?$AA?$AA@ 400953a8     LIBCMTD:winapinls.obj
 0002:000133b0       ??_C@_15IFJLDHAF@?$AAi?$AAt?$AA?$AA@ 400953b0     LIBCMTD:winapinls.obj
 0002:000133b8       ??_C@_15GEMIOCAG@?$AAj?$AAa?$AA?$AA@ 400953b8     LIBCMTD:winapinls.obj
 0002:000133c0       ??_C@_15EPELEGJA@?$AAk?$AAo?$AA?$AA@ 400953c0     LIBCMTD:winapinls.obj
 0002:000133c8       ??_C@_15NDDHIMN@?$AAn?$AAl?$AA?$AA@ 400953c8     LIBCMTD:winapinls.obj
 0002:000133d0       ??_C@_15BPIGNHCD@?$AAn?$AAo?$AA?$AA@ 400953d0     LIBCMTD:winapinls.obj
 0002:000133d8       ??_C@_15DEOPBLCG@?$AAp?$AAl?$AA?$AA@ 400953d8     LIBCMTD:winapinls.obj
 0002:000133e0       ??_C@_15KBECGEFG@?$AAp?$AAt?$AA?$AA@ 400953e0     LIBCMTD:winapinls.obj
 0002:000133e8       ??_C@_15GLJCBFMD@?$AAr?$AAo?$AA?$AA@ 400953e8     LIBCMTD:winapinls.obj
 0002:000133f0       ??_C@_15FEDGKCDI@?$AAr?$AAu?$AA?$AA@ 400953f0     LIBCMTD:winapinls.obj
 0002:000133f8       ??_C@_15GLKMLLHM@?$AAh?$AAr?$AA?$AA@ 400953f8     LIBCMTD:winapinls.obj
 0002:00013400       ??_C@_15CPKMFBDB@?$AAs?$AAk?$AA?$AA@ 40095400     LIBCMTD:winapinls.obj
 0002:00013408       ??_C@_15BAAIOGMK@?$AAs?$AAq?$AA?$AA@ 40095408     LIBCMTD:winapinls.obj
 0002:00013410       ??_C@_15INNPNOHD@?$AAs?$AAv?$AA?$AA@ 40095410     LIBCMTD:winapinls.obj
 0002:00013418       ??_C@_15CABMMOGH@?$AAt?$AAh?$AA?$AA@ 40095418     LIBCMTD:winapinls.obj
 0002:00013420       ??_C@_15BPLIHJJM@?$AAt?$AAr?$AA?$AA@ 40095420     LIBCMTD:winapinls.obj
 0002:00013428       ??_C@_15NEOEKKDJ@?$AAu?$AAr?$AA?$AA@ 40095428     LIBCMTD:winapinls.obj
 0002:00013430       ??_C@_15NFICGAJK@?$AAi?$AAd?$AA?$AA@ 40095430     LIBCMTD:winapinls.obj
 0002:00013438       ??_C@_15PJPFLCCM@?$AAu?$AAk?$AA?$AA@ 40095438     LIBCMTD:winapinls.obj
 0002:00013440       ??_C@_15HPJPHDM@?$AAb?$AAe?$AA?$AA@ 40095440     LIBCMTD:winapinls.obj
 0002:00013448       ??_C@_15LCHLGJII@?$AAs?$AAl?$AA?$AA@ 40095448     LIBCMTD:winapinls.obj
 0002:00013450       ??_C@_15PCFJPHHO@?$AAe?$AAt?$AA?$AA@ 40095450     LIBCMTD:winapinls.obj
 0002:00013458       ??_C@_15HPFPGODN@?$AAl?$AAv?$AA?$AA@ 40095458     LIBCMTD:winapinls.obj
 0002:00013460       ??_C@_15NFFGKGLG@?$AAl?$AAt?$AA?$AA@ 40095460     LIBCMTD:winapinls.obj
 0002:00013468       ??_C@_15BDAKCCHN@?$AAf?$AAa?$AA?$AA@ 40095468     LIBCMTD:winapinls.obj
 0002:00013470       ??_C@_15NFGIAIAJ@?$AAv?$AAi?$AA?$AA@ 40095470     LIBCMTD:winapinls.obj
 0002:00013478       ??_C@_15LMKNDMHN@?$AAh?$AAy?$AA?$AA@ 40095478     LIBCMTD:winapinls.obj
 0002:00013480       ??_C@_15IJBHMCFL@?$AAa?$AAz?$AA?$AA@ 40095480     LIBCMTD:winapinls.obj
 0002:00013488       ??_C@_15EKOFJABL@?$AAe?$AAu?$AA?$AA@ 40095488     LIBCMTD:winapinls.obj
 0002:00013490       ??_C@_15BGHADCNK@?$AAm?$AAk?$AA?$AA@ 40095490     LIBCMTD:winapinls.obj
 0002:00013498       ??_C@_15JDNICKHM@?$AAa?$AAf?$AA?$AA@ 40095498     LIBCMTD:winapinls.obj
 0002:000134a0       ??_C@_15KPJEDBKD@?$AAk?$AAa?$AA?$AA@ 400954a0     LIBCMTD:winapinls.obj
 0002:000134a8       ??_C@_15PDNFFFEO@?$AAf?$AAo?$AA?$AA@ 400954a8     LIBCMTD:winapinls.obj
 0002:000134b0       ??_C@_15OMLEGLOC@?$AAh?$AAi?$AA?$AA@ 400954b0     LIBCMTD:winapinls.obj
 0002:000134b8       ??_C@_15IDNNENKK@?$AAm?$AAs?$AA?$AA@ 400954b8     LIBCMTD:winapinls.obj
 0002:000134c0       ??_C@_15MACJNBMH@?$AAk?$AAk?$AA?$AA@ 400954c0     LIBCMTD:winapinls.obj
 0002:000134c8       ??_C@_15DKDJEOND@?$AAk?$AAy?$AA?$AA@ 400954c8     LIBCMTD:winapinls.obj
 0002:000134d0       ??_C@_15DFGDLJBG@?$AAs?$AAw?$AA?$AA@ 400954d0     LIBCMTD:winapinls.obj
 0002:000134d8       ??_C@_15BBFAICNG@?$AAu?$AAz?$AA?$AA@ 400954d8     LIBCMTD:winapinls.obj
 0002:000134e0       ??_C@_15DKNDCGEA@?$AAt?$AAt?$AA?$AA@ 400954e0     LIBCMTD:winapinls.obj
 0002:000134e8       ??_C@_15MGIFMDPL@?$AAp?$AAa?$AA?$AA@ 400954e8     LIBCMTD:winapinls.obj
 0002:000134f0       ??_C@_15HCNDBBA@?$AAg?$AAu?$AA?$AA@ 400954f0     LIBCMTD:winapinls.obj
 0002:000134f8       ??_C@_15FNBEIBON@?$AAt?$AAa?$AA?$AA@ 400954f8     LIBCMTD:winapinls.obj
 0002:00013500       ??_C@_15NCHGBGLK@?$AAt?$AAe?$AA?$AA@ 40095500     LIBCMTD:winapinls.obj
 0002:00013508       ??_C@_15PHPHCBPF@?$AAk?$AAn?$AA?$AA@ 40095508     LIBCMTD:winapinls.obj
 0002:00013510       ??_C@_15DLGBCKMP@?$AAm?$AAr?$AA?$AA@ 40095510     LIBCMTD:winapinls.obj
 0002:00013518       ??_C@_15EABBLBFF@?$AAs?$AAa?$AA?$AA@ 40095518     LIBCMTD:winapinls.obj
 0002:00013520       ??_C@_15CBKOMCOI@?$AAm?$AAn?$AA?$AA@ 40095520     LIBCMTD:winapinls.obj
 0002:00013528       ??_C@_15CKDMCJAF@?$AAg?$AAl?$AA?$AA@ 40095528     LIBCMTD:winapinls.obj
 0002:00013530       ??_C@_17CNJFBPG@?$AAk?$AAo?$AAk?$AA?$AA@ 40095530     LIBCMTD:winapinls.obj
 0002:00013538       ??_C@_17FFBJICPL@?$AAs?$AAy?$AAr?$AA?$AA@ 40095538     LIBCMTD:winapinls.obj
 0002:00013540       ??_C@_17KPNDCPAF@?$AAd?$AAi?$AAv?$AA?$AA@ 40095540     LIBCMTD:winapinls.obj
 0002:00013548       ??_C@_1M@OKAHONE@?$AAa?$AAr?$AA?9?$AAS?$AAA?$AA?$AA@ 40095548     LIBCMTD:winapinls.obj
 0002:00013554       ??_C@_1M@FFFIGIGK@?$AAb?$AAg?$AA?9?$AAB?$AAG?$AA?$AA@ 40095554     LIBCMTD:winapinls.obj
 0002:00013560       ??_C@_1M@BJNKEDC@?$AAc?$AAa?$AA?9?$AAE?$AAS?$AA?$AA@ 40095560     LIBCMTD:winapinls.obj
 0002:0001356c       ??_C@_1M@IJJHFJHA@?$AAc?$AAs?$AA?9?$AAC?$AAZ?$AA?$AA@ 4009556c     LIBCMTD:winapinls.obj
 0002:00013578       ??_C@_1M@CLPEOBGI@?$AAd?$AAa?$AA?9?$AAD?$AAK?$AA?$AA@ 40095578     LIBCMTD:winapinls.obj
 0002:00013584       ??_C@_1M@MCMADGCB@?$AAd?$AAe?$AA?9?$AAD?$AAE?$AA?$AA@ 40095584     LIBCMTD:winapinls.obj
 0002:00013590       ??_C@_1M@OOCKEMAM@?$AAe?$AAl?$AA?9?$AAG?$AAR?$AA?$AA@ 40095590     LIBCMTD:winapinls.obj
 0002:0001359c       ??_C@_1M@DDNJFGID@?$AAf?$AAi?$AA?9?$AAF?$AAI?$AA?$AA@ 4009559c     LIBCMTD:winapinls.obj
 0002:000135a8       ??_C@_1M@GLIPPMAC@?$AAf?$AAr?$AA?9?$AAF?$AAR?$AA?$AA@ 400955a8     LIBCMTD:winapinls.obj
 0002:000135b4       ??_C@_1M@GFMCHPE@?$AAh?$AAe?$AA?9?$AAI?$AAL?$AA?$AA@ 400955b4     LIBCMTD:winapinls.obj
 0002:000135c0       ??_C@_1M@MHLPGNKM@?$AAh?$AAu?$AA?9?$AAH?$AAU?$AA?$AA@ 400955c0     LIBCMTD:winapinls.obj
 0002:000135cc       ??_C@_1M@LPDDNNPN@?$AAi?$AAs?$AA?9?$AAI?$AAS?$AA?$AA@ 400955cc     LIBCMTD:winapinls.obj
 0002:000135d8       ??_C@_1M@MADIPODN@?$AAi?$AAt?$AA?9?$AAI?$AAT?$AA?$AA@ 400955d8     LIBCMTD:winapinls.obj
 0002:000135e4       ??_C@_1M@IHBJJGG@?$AAn?$AAl?$AA?9?$AAN?$AAL?$AA?$AA@ 400955e4     LIBCMTD:winapinls.obj
 0002:000135f0       ??_C@_1M@EANAGDL@?$AAn?$AAb?$AA?9?$AAN?$AAO?$AA?$AA@ 400955f0     LIBCMTD:winapinls.obj
 0002:000135fc       ??_C@_1M@NEIEMEGP@?$AAp?$AAl?$AA?9?$AAP?$AAL?$AA?$AA@ 400955fc     LIBCMTD:winapinls.obj
 0002:00013608       ??_C@_1M@BOCFIGEP@?$AAp?$AAt?$AA?9?$AAB?$AAR?$AA?$AA@ 40095608     LIBCMTD:winapinls.obj
 0002:00013614       ??_C@_1M@IMPFOPBG@?$AAr?$AAo?$AA?9?$AAR?$AAO?$AA?$AA@ 40095614     LIBCMTD:winapinls.obj
 0002:00013620       ??_C@_1M@IDNNEJMM@?$AAr?$AAu?$AA?9?$AAR?$AAU?$AA?$AA@ 40095620     LIBCMTD:winapinls.obj
 0002:0001362c       ??_C@_1M@LILEEOGM@?$AAh?$AAr?$AA?9?$AAH?$AAR?$AA?$AA@ 4009562c     LIBCMTD:winapinls.obj
 0002:00013638       ??_C@_1M@FKIFEHPB@?$AAs?$AAk?$AA?9?$AAS?$AAK?$AA?$AA@ 40095638     LIBCMTD:winapinls.obj
 0002:00013644       ??_C@_1M@LJMAMNPJ@?$AAs?$AAq?$AA?9?$AAA?$AAL?$AA?$AA@ 40095644     LIBCMTD:winapinls.obj
 0002:00013650       ??_C@_1M@GIAKDKJK@?$AAs?$AAv?$AA?9?$AAS?$AAE?$AA?$AA@ 40095650     LIBCMTD:winapinls.obj
 0002:0001365c       ??_C@_1M@MKJKIKCL@?$AAt?$AAh?$AA?9?$AAT?$AAH?$AA?$AA@ 4009565c     LIBCMTD:winapinls.obj
 0002:00013668       ??_C@_1M@MFLCCMPB@?$AAt?$AAr?$AA?9?$AAT?$AAR?$AA?$AA@ 40095668     LIBCMTD:winapinls.obj
 0002:00013674       ??_C@_1M@OIJHDKJN@?$AAu?$AAr?$AA?9?$AAP?$AAK?$AA?$AA@ 40095674     LIBCMTD:winapinls.obj
 0002:00013680       ??_C@_1M@LHIPCIEK@?$AAi?$AAd?$AA?9?$AAI?$AAD?$AA?$AA@ 40095680     LIBCMTD:winapinls.obj
 0002:0001368c       ??_C@_1M@MFMOBGI@?$AAu?$AAk?$AA?9?$AAU?$AAA?$AA?$AA@ 4009568c     LIBCMTD:winapinls.obj
 0002:00013698       ??_C@_1M@OBGLJIPL@?$AAb?$AAe?$AA?9?$AAB?$AAY?$AA?$AA@ 40095698     LIBCMTD:winapinls.obj
 0002:000136a4       ??_C@_1M@BCFAJEAD@?$AAs?$AAl?$AA?9?$AAS?$AAI?$AA?$AA@ 400956a4     LIBCMTD:winapinls.obj
 0002:000136b0       ??_C@_1M@FKFFEDDN@?$AAe?$AAt?$AA?9?$AAE?$AAE?$AA?$AA@ 400956b0     LIBCMTD:winapinls.obj
 0002:000136bc       ??_C@_1M@KGKKAACI@?$AAl?$AAv?$AA?9?$AAL?$AAV?$AA?$AA@ 400956bc     LIBCMTD:winapinls.obj
 0002:000136c8       ??_C@_1M@IFGBIJO@?$AAl?$AAt?$AA?9?$AAL?$AAT?$AA?$AA@ 400956c8     LIBCMTD:winapinls.obj
 0002:000136d4       ??_C@_1M@FGEAHEDM@?$AAf?$AAa?$AA?9?$AAI?$AAR?$AA?$AA@ 400956d4     LIBCMTD:winapinls.obj
 0002:000136e0       ??_C@_1M@KBMAIBFN@?$AAv?$AAi?$AA?9?$AAV?$AAN?$AA?$AA@ 400956e0     LIBCMTD:winapinls.obj
 0002:000136ec       ??_C@_1M@GPCBKDJK@?$AAh?$AAy?$AA?9?$AAA?$AAM?$AA?$AA@ 400956ec     LIBCMTD:winapinls.obj
 0002:000136f8       ??_C@_1BG@BECMDDJB@?$AAa?$AAz?$AA?9?$AAA?$AAZ?$AA?9?$AAL?$AAa?$AAt?$AAn?$AA?$AA@ 400956f8     LIBCMTD:winapinls.obj
 0002:00013710       ??_C@_1M@MAOFCAEA@?$AAe?$AAu?$AA?9?$AAE?$AAS?$AA?$AA@ 40095710     LIBCMTD:winapinls.obj
 0002:0001371c       ??_C@_1M@IGHABKPI@?$AAm?$AAk?$AA?9?$AAM?$AAK?$AA?$AA@ 4009571c     LIBCMTD:winapinls.obj
 0002:00013728       ??_C@_1M@IAIGNEJG@?$AAt?$AAn?$AA?9?$AAZ?$AAA?$AA?$AA@ 40095728     LIBCMTD:winapinls.obj
 0002:00013734       ??_C@_1M@IIJCOJFA@?$AAx?$AAh?$AA?9?$AAZ?$AAA?$AA?$AA@ 40095734     LIBCMTD:winapinls.obj
 0002:00013740       ??_C@_1M@LGPJHNJH@?$AAz?$AAu?$AA?9?$AAZ?$AAA?$AA?$AA@ 40095740     LIBCMTD:winapinls.obj
 0002:0001374c       ??_C@_1M@HOKAOIO@?$AAa?$AAf?$AA?9?$AAZ?$AAA?$AA?$AA@ 4009574c     LIBCMTD:winapinls.obj
 0002:00013758       ??_C@_1M@DPCLHLIE@?$AAk?$AAa?$AA?9?$AAG?$AAE?$AA?$AA@ 40095758     LIBCMTD:winapinls.obj
 0002:00013764       ??_C@_1M@BLKMHJBI@?$AAf?$AAo?$AA?9?$AAF?$AAO?$AA?$AA@ 40095764     LIBCMTD:winapinls.obj
 0002:00013770       ??_C@_1M@LGGJAPPB@?$AAh?$AAi?$AA?9?$AAI?$AAN?$AA?$AA@ 40095770     LIBCMTD:winapinls.obj
 0002:0001377c       ??_C@_1M@FIKPIHFE@?$AAm?$AAt?$AA?9?$AAM?$AAT?$AA?$AA@ 4009577c     LIBCMTD:winapinls.obj
 0002:00013788       ??_C@_1M@HEGGPBFA@?$AAs?$AAe?$AA?9?$AAN?$AAO?$AA?$AA@ 40095788     LIBCMTD:winapinls.obj
 0002:00013794       ??_C@_1M@EIBJEEPA@?$AAm?$AAs?$AA?9?$AAM?$AAY?$AA?$AA@ 40095794     LIBCMTD:winapinls.obj
 0002:000137a0       ??_C@_1M@FHLBGMPP@?$AAk?$AAk?$AA?9?$AAK?$AAZ?$AA?$AA@ 400957a0     LIBCMTD:winapinls.obj
 0002:000137ac       ??_C@_1M@NGJJLCGI@?$AAk?$AAy?$AA?9?$AAK?$AAG?$AA?$AA@ 400957ac     LIBCMTD:winapinls.obj
 0002:000137b8       ??_C@_1M@GIENNBFC@?$AAs?$AAw?$AA?9?$AAK?$AAE?$AA?$AA@ 400957b8     LIBCMTD:winapinls.obj
 0002:000137c4       ??_C@_1BG@NDGMJIMJ@?$AAu?$AAz?$AA?9?$AAU?$AAZ?$AA?9?$AAL?$AAa?$AAt?$AAn?$AA?$AA@ 400957c4     LIBCMTD:winapinls.obj
 0002:000137dc       ??_C@_1M@IDCCIHBC@?$AAt?$AAt?$AA?9?$AAR?$AAU?$AA?$AA@ 400957dc     LIBCMTD:winapinls.obj
 0002:000137e8       ??_C@_1M@LOICPMOJ@?$AAb?$AAn?$AA?9?$AAI?$AAN?$AA?$AA@ 400957e8     LIBCMTD:winapinls.obj
 0002:000137f4       ??_C@_1M@KPKKNEAH@?$AAp?$AAa?$AA?9?$AAI?$AAN?$AA?$AA@ 400957f4     LIBCMTD:winapinls.obj
 0002:00013800       ??_C@_1M@PJGPPBOG@?$AAg?$AAu?$AA?9?$AAI?$AAN?$AA?$AA@ 40095800     LIBCMTD:winapinls.obj
 0002:0001380c       ??_C@_1M@KMKMOPHI@?$AAt?$AAa?$AA?9?$AAI?$AAN?$AA?$AA@ 4009580c     LIBCMTD:winapinls.obj
 0002:00013818       ??_C@_1M@KFEHEPAC@?$AAt?$AAe?$AA?9?$AAI?$AAN?$AA?$AA@ 40095818     LIBCMTD:winapinls.obj
 0002:00013824       ??_C@_1M@CDCLMGHI@?$AAk?$AAn?$AA?9?$AAI?$AAN?$AA?$AA@ 40095824     LIBCMTD:winapinls.obj
 0002:00013830       ??_C@_1M@MIODLDKF@?$AAm?$AAl?$AA?9?$AAI?$AAN?$AA?$AA@ 40095830     LIBCMTD:winapinls.obj
 0002:0001383c       ??_C@_1M@PBIEACPO@?$AAm?$AAr?$AA?9?$AAI?$AAN?$AA?$AA@ 4009583c     LIBCMTD:winapinls.obj
 0002:00013848       ??_C@_1M@NIDEAGPH@?$AAs?$AAa?$AA?9?$AAI?$AAN?$AA?$AA@ 40095848     LIBCMTD:winapinls.obj
 0002:00013854       ??_C@_1M@FHIHCBIO@?$AAm?$AAn?$AA?9?$AAM?$AAN?$AA?$AA@ 40095854     LIBCMTD:winapinls.obj
 0002:00013860       ??_C@_1M@JAIJPENP@?$AAc?$AAy?$AA?9?$AAG?$AAB?$AA?$AA@ 40095860     LIBCMTD:winapinls.obj
 0002:0001386c       ??_C@_1M@PHGFBEPN@?$AAg?$AAl?$AA?9?$AAE?$AAS?$AA?$AA@ 4009586c     LIBCMTD:winapinls.obj
 0002:00013878       ??_C@_1O@KPIPDNCP@?$AAk?$AAo?$AAk?$AA?9?$AAI?$AAN?$AA?$AA@ 40095878     LIBCMTD:winapinls.obj
 0002:00013888       ??_C@_1O@KNHJLDJA@?$AAs?$AAy?$AAr?$AA?9?$AAS?$AAY?$AA?$AA@ 40095888     LIBCMTD:winapinls.obj
 0002:00013898       ??_C@_1O@MKEKBLAH@?$AAd?$AAi?$AAv?$AA?9?$AAM?$AAV?$AA?$AA@ 40095898     LIBCMTD:winapinls.obj
 0002:000138a8       ??_C@_1O@OHDCKDDF@?$AAq?$AAu?$AAz?$AA?9?$AAB?$AAO?$AA?$AA@ 400958a8     LIBCMTD:winapinls.obj
 0002:000138b8       ??_C@_1M@LEPJNLFD@?$AAn?$AAs?$AA?9?$AAZ?$AAA?$AA?$AA@ 400958b8     LIBCMTD:winapinls.obj
 0002:000138c4       ??_C@_1M@OMLEIIJB@?$AAm?$AAi?$AA?9?$AAN?$AAZ?$AA?$AA@ 400958c4     LIBCMTD:winapinls.obj
 0002:000138d0       ??_C@_1M@PMPEAILG@?$AAa?$AAr?$AA?9?$AAI?$AAQ?$AA?$AA@ 400958d0     LIBCMTD:winapinls.obj
 0002:000138dc       ??_C@_1M@CNKPNOEE@?$AAd?$AAe?$AA?9?$AAC?$AAH?$AA?$AA@ 400958dc     LIBCMTD:winapinls.obj
 0002:000138e8       ??_C@_1M@LKMGMLKO@?$AAe?$AAn?$AA?9?$AAG?$AAB?$AA?$AA@ 400958e8     LIBCMTD:winapinls.obj
 0002:000138f4       ??_C@_1M@PGKJFFGL@?$AAe?$AAs?$AA?9?$AAM?$AAX?$AA?$AA@ 400958f4     LIBCMTD:winapinls.obj
 0002:00013900       ??_C@_1M@DNNANBDC@?$AAf?$AAr?$AA?9?$AAB?$AAE?$AA?$AA@ 40095900     LIBCMTD:winapinls.obj
 0002:0001390c       ??_C@_1M@HLGMDFHM@?$AAi?$AAt?$AA?9?$AAC?$AAH?$AA?$AA@ 4009590c     LIBCMTD:winapinls.obj
 0002:00013918       ??_C@_1M@CLLBGJH@?$AAn?$AAl?$AA?9?$AAB?$AAE?$AA?$AA@ 40095918     LIBCMTD:winapinls.obj
 0002:00013924       ??_C@_1M@BODBOGLF@?$AAn?$AAn?$AA?9?$AAN?$AAO?$AA?$AA@ 40095924     LIBCMTD:winapinls.obj
 0002:00013930       ??_C@_1M@HFFAHKAD@?$AAp?$AAt?$AA?9?$AAP?$AAT?$AA?$AA@ 40095930     LIBCMTD:winapinls.obj
 0002:0001393c       ??_C@_1BG@LNOAKHIE@?$AAs?$AAr?$AA?9?$AAS?$AAP?$AA?9?$AAL?$AAa?$AAt?$AAn?$AA?$AA@ 4009593c     LIBCMTD:winapinls.obj
 0002:00013954       ??_C@_1M@HBMHBGAK@?$AAs?$AAv?$AA?9?$AAF?$AAI?$AA?$AA@ 40095954     LIBCMTD:winapinls.obj
 0002:00013960       ??_C@_1BG@DGCJGJBE@?$AAa?$AAz?$AA?9?$AAA?$AAZ?$AA?9?$AAC?$AAy?$AAr?$AAl?$AA?$AA@ 40095960     LIBCMTD:winapinls.obj
 0002:00013978       ??_C@_1M@KEJDAAHB@?$AAs?$AAe?$AA?9?$AAS?$AAE?$AA?$AA@ 40095978     LIBCMTD:winapinls.obj
 0002:00013984       ??_C@_1M@HEIBJJAD@?$AAm?$AAs?$AA?9?$AAB?$AAN?$AA?$AA@ 40095984     LIBCMTD:winapinls.obj
 0002:00013990       ??_C@_1BG@PBGJMCEM@?$AAu?$AAz?$AA?9?$AAU?$AAZ?$AA?9?$AAC?$AAy?$AAr?$AAl?$AA?$AA@ 40095990     LIBCMTD:winapinls.obj
 0002:000139a8       ??_C@_1O@LAOBCMDF@?$AAq?$AAu?$AAz?$AA?9?$AAE?$AAC?$AA?$AA@ 400959a8     LIBCMTD:winapinls.obj
 0002:000139b8       ??_C@_1M@POEEMAIO@?$AAa?$AAr?$AA?9?$AAE?$AAG?$AA?$AA@ 400959b8     LIBCMTD:winapinls.obj
 0002:000139c4       ??_C@_1M@EFAKDEDL@?$AAz?$AAh?$AA?9?$AAH?$AAK?$AA?$AA@ 400959c4     LIBCMTD:winapinls.obj
 0002:000139d0       ??_C@_1M@HKKIJHGI@?$AAd?$AAe?$AA?9?$AAA?$AAT?$AA?$AA@ 400959d0     LIBCMTD:winapinls.obj
 0002:000139dc       ??_C@_1M@KBFBEHJF@?$AAe?$AAn?$AA?9?$AAA?$AAU?$AA?$AA@ 400959dc     LIBCMTD:winapinls.obj
 0002:000139e8       ??_C@_1M@MNPLFAAH@?$AAe?$AAs?$AA?9?$AAE?$AAS?$AA?$AA@ 400959e8     LIBCMTD:winapinls.obj
 0002:000139f4       ??_C@_1M@HJOOJFMA@?$AAf?$AAr?$AA?9?$AAC?$AAA?$AA?$AA@ 400959f4     LIBCMTD:winapinls.obj
 0002:00013a00       ??_C@_1BG@JPOFPNAB@?$AAs?$AAr?$AA?9?$AAS?$AAP?$AA?9?$AAC?$AAy?$AAr?$AAl?$AA?$AA@ 40095a00     LIBCMTD:winapinls.obj
 0002:00013a18       ??_C@_1M@LNFOCMOB@?$AAs?$AAe?$AA?9?$AAF?$AAI?$AA?$AA@ 40095a18     LIBCMTD:winapinls.obj
 0002:00013a24       ??_C@_1O@MGJBOAMB@?$AAq?$AAu?$AAz?$AA?9?$AAP?$AAE?$AA?$AA@ 40095a24     LIBCMTD:winapinls.obj
 0002:00013a34       ??_C@_1M@GJINLBOK@?$AAa?$AAr?$AA?9?$AAL?$AAY?$AA?$AA@ 40095a34     LIBCMTD:winapinls.obj
 0002:00013a40       ??_C@_1M@GGMNHJNL@?$AAz?$AAh?$AA?9?$AAS?$AAG?$AA?$AA@ 40095a40     LIBCMTD:winapinls.obj
 0002:00013a4c       ??_C@_1M@HOIKODND@?$AAd?$AAe?$AA?9?$AAL?$AAU?$AA?$AA@ 40095a4c     LIBCMTD:winapinls.obj
 0002:00013a58       ??_C@_1M@DDOCCGFG@?$AAe?$AAn?$AA?9?$AAC?$AAA?$AA?$AA@ 40095a58     LIBCMTD:winapinls.obj
 0002:00013a64       ??_C@_1M@BNOEMJLF@?$AAe?$AAs?$AA?9?$AAG?$AAT?$AA?$AA@ 40095a64     LIBCMTD:winapinls.obj
 0002:00013a70       ??_C@_1M@EOGNKEK@?$AAf?$AAr?$AA?9?$AAC?$AAH?$AA?$AA@ 40095a70     LIBCMTD:winapinls.obj
 0002:00013a7c       ??_C@_1M@FLIDJFHL@?$AAh?$AAr?$AA?9?$AAB?$AAA?$AA?$AA@ 40095a7c     LIBCMTD:winapinls.obj
 0002:00013a88       ??_C@_1O@FMCELNAJ@?$AAs?$AAm?$AAj?$AA?9?$AAN?$AAO?$AA?$AA@ 40095a88     LIBCMTD:winapinls.obj
 0002:00013a98       ??_C@_1M@JHGLJMGJ@?$AAa?$AAr?$AA?9?$AAD?$AAZ?$AA?$AA@ 40095a98     LIBCMTD:winapinls.obj
 0002:00013aa4       ??_C@_1M@JKKFDCNP@?$AAz?$AAh?$AA?9?$AAM?$AAO?$AA?$AA@ 40095aa4     LIBCMTD:winapinls.obj
 0002:00013ab0       ??_C@_1M@GEEFALPE@?$AAd?$AAe?$AA?9?$AAL?$AAI?$AA?$AA@ 40095ab0     LIBCMTD:winapinls.obj
 0002:00013abc       ??_C@_1M@IGEOFBG@?$AAe?$AAn?$AA?9?$AAN?$AAZ?$AA?$AA@ 40095abc     LIBCMTD:winapinls.obj
 0002:00013ac8       ??_C@_1M@KDBONEHP@?$AAe?$AAs?$AA?9?$AAC?$AAR?$AA?$AA@ 40095ac8     LIBCMTD:winapinls.obj
 0002:00013ad4       ??_C@_1M@FHMDOHNN@?$AAf?$AAr?$AA?9?$AAL?$AAU?$AA?$AA@ 40095ad4     LIBCMTD:winapinls.obj
 0002:00013ae0       ??_C@_1BG@NFKKMAFG@?$AAb?$AAs?$AA?9?$AAB?$AAA?$AA?9?$AAL?$AAa?$AAt?$AAn?$AA?$AA@ 40095ae0     LIBCMTD:winapinls.obj
 0002:00013af8       ??_C@_1O@IMNBEMCI@?$AAs?$AAm?$AAj?$AA?9?$AAS?$AAE?$AA?$AA@ 40095af8     LIBCMTD:winapinls.obj
 0002:00013b08       ??_C@_1M@DHHMBNDP@?$AAa?$AAr?$AA?9?$AAM?$AAA?$AA?$AA@ 40095b08     LIBCMTD:winapinls.obj
 0002:00013b14       ??_C@_1M@BNBLJCGH@?$AAe?$AAn?$AA?9?$AAI?$AAE?$AA?$AA@ 40095b14     LIBCMTD:winapinls.obj
 0002:00013b20       ??_C@_1M@GEPAFMDL@?$AAe?$AAs?$AA?9?$AAP?$AAA?$AA?$AA@ 40095b20     LIBCMTD:winapinls.obj
 0002:00013b2c       ??_C@_1M@OJONDMDL@?$AAf?$AAr?$AA?9?$AAM?$AAC?$AA?$AA@ 40095b2c     LIBCMTD:winapinls.obj
 0002:00013b38       ??_C@_1BG@OBCNFJB@?$AAs?$AAr?$AA?9?$AAB?$AAA?$AA?9?$AAL?$AAa?$AAt?$AAn?$AA?$AA@ 40095b38     LIBCMTD:winapinls.obj
 0002:00013b50       ??_C@_1O@KEMEEGPO@?$AAs?$AAm?$AAa?$AA?9?$AAN?$AAO?$AA?$AA@ 40095b50     LIBCMTD:winapinls.obj
 0002:00013b60       ??_C@_1M@ELMGFODK@?$AAa?$AAr?$AA?9?$AAT?$AAN?$AA?$AA@ 40095b60     LIBCMTD:winapinls.obj
 0002:00013b6c       ??_C@_1M@BHDLHFAF@?$AAe?$AAn?$AA?9?$AAZ?$AAA?$AA?$AA@ 40095b6c     LIBCMTD:winapinls.obj
 0002:00013b78       ??_C@_1M@BMGIGLIF@?$AAe?$AAs?$AA?9?$AAD?$AAO?$AA?$AA@ 40095b78     LIBCMTD:winapinls.obj
 0002:00013b84       ??_C@_1BG@CMBHIPBE@?$AAs?$AAr?$AA?9?$AAB?$AAA?$AA?9?$AAC?$AAy?$AAr?$AAl?$AA?$AA@ 40095b84     LIBCMTD:winapinls.obj
 0002:00013b9c       ??_C@_1O@HEDBLHNP@?$AAs?$AAm?$AAa?$AA?9?$AAS?$AAE?$AA?$AA@ 40095b9c     LIBCMTD:winapinls.obj
 0002:00013bac       ??_C@_1M@DAGCADIM@?$AAa?$AAr?$AA?9?$AAO?$AAM?$AA?$AA@ 40095bac     LIBCMTD:winapinls.obj
 0002:00013bb8       ??_C@_1M@FODLMICG@?$AAe?$AAn?$AA?9?$AAJ?$AAM?$AA?$AA@ 40095bb8     LIBCMTD:winapinls.obj
 0002:00013bc4       ??_C@_1M@DNMLCIHB@?$AAe?$AAs?$AA?9?$AAV?$AAE?$AA?$AA@ 40095bc4     LIBCMTD:winapinls.obj
 0002:00013bd0       ??_C@_1O@EOKHMKJK@?$AAs?$AAm?$AAs?$AA?9?$AAF?$AAI?$AA?$AA@ 40095bd0     LIBCMTD:winapinls.obj
 0002:00013be0       ??_C@_1M@CAFJMKOF@?$AAa?$AAr?$AA?9?$AAY?$AAE?$AA?$AA@ 40095be0     LIBCMTD:winapinls.obj
 0002:00013bec       ??_C@_1M@CBFHIJLI@?$AAe?$AAn?$AA?9?$AAC?$AAB?$AA?$AA@ 40095bec     LIBCMTD:winapinls.obj
 0002:00013bf8       ??_C@_1M@BGNFLDN@?$AAe?$AAs?$AA?9?$AAC?$AAO?$AA?$AA@ 40095bf8     LIBCMTD:winapinls.obj
 0002:00013c04       ??_C@_1O@JMPHMAMC@?$AAs?$AAm?$AAn?$AA?9?$AAF?$AAI?$AA?$AA@ 40095c04     LIBCMTD:winapinls.obj
 0002:00013c14       ??_C@_1M@JLANABKE@?$AAa?$AAr?$AA?9?$AAS?$AAY?$AA?$AA@ 40095c14     LIBCMTD:winapinls.obj
 0002:00013c20       ??_C@_1M@HPKGCFGN@?$AAe?$AAn?$AA?9?$AAB?$AAZ?$AA?$AA@ 40095c20     LIBCMTD:winapinls.obj
 0002:00013c2c       ??_C@_1M@OLJCMLGM@?$AAe?$AAs?$AA?9?$AAP?$AAE?$AA?$AA@ 40095c2c     LIBCMTD:winapinls.obj
 0002:00013c38       ??_C@_1M@MKKGFKLE@?$AAa?$AAr?$AA?9?$AAJ?$AAO?$AA?$AA@ 40095c38     LIBCMTD:winapinls.obj
 0002:00013c44       ??_C@_1M@EKPGLDNI@?$AAe?$AAn?$AA?9?$AAT?$AAT?$AA?$AA@ 40095c44     LIBCMTD:winapinls.obj
 0002:00013c50       ??_C@_1M@OONGHFHE@?$AAe?$AAs?$AA?9?$AAA?$AAR?$AA?$AA@ 40095c50     LIBCMTD:winapinls.obj
 0002:00013c5c       ??_C@_1M@OOJFGBHE@?$AAa?$AAr?$AA?9?$AAL?$AAB?$AA?$AA@ 40095c5c     LIBCMTD:winapinls.obj
 0002:00013c68       ??_C@_1M@GCEJHNEG@?$AAe?$AAn?$AA?9?$AAZ?$AAW?$AA?$AA@ 40095c68     LIBCMTD:winapinls.obj
 0002:00013c74       ??_C@_1M@JNOCAHJI@?$AAe?$AAs?$AA?9?$AAE?$AAC?$AA?$AA@ 40095c74     LIBCMTD:winapinls.obj
 0002:00013c80       ??_C@_1M@JEFHPGGB@?$AAa?$AAr?$AA?9?$AAK?$AAW?$AA?$AA@ 40095c80     LIBCMTD:winapinls.obj
 0002:00013c8c       ??_C@_1M@MLKIBJOJ@?$AAe?$AAn?$AA?9?$AAP?$AAH?$AA?$AA@ 40095c8c     LIBCMTD:winapinls.obj
 0002:00013c98       ??_C@_1M@BDNIPEND@?$AAe?$AAs?$AA?9?$AAC?$AAL?$AA?$AA@ 40095c98     LIBCMTD:winapinls.obj
 0002:00013ca4       ??_C@_1M@MPNMEKBD@?$AAa?$AAr?$AA?9?$AAA?$AAE?$AA?$AA@ 40095ca4     LIBCMTD:winapinls.obj
 0002:00013cb0       ??_C@_1M@KBJALCPI@?$AAe?$AAs?$AA?9?$AAU?$AAY?$AA?$AA@ 40095cb0     LIBCMTD:winapinls.obj
 0002:00013cbc       ??_C@_1M@LLCCOAGA@?$AAa?$AAr?$AA?9?$AAB?$AAH?$AA?$AA@ 40095cbc     LIBCMTD:winapinls.obj
 0002:00013cc8       ??_C@_1M@PBFNCDEL@?$AAe?$AAs?$AA?9?$AAP?$AAY?$AA?$AA@ 40095cc8     LIBCMTD:winapinls.obj
 0002:00013cd4       ??_C@_1M@EDGINPNP@?$AAa?$AAr?$AA?9?$AAQ?$AAA?$AA?$AA@ 40095cd4     LIBCMTD:winapinls.obj
 0002:00013ce0       ??_C@_1M@MKDBIIJI@?$AAe?$AAs?$AA?9?$AAB?$AAO?$AA?$AA@ 40095ce0     LIBCMTD:winapinls.obj
 0002:00013cec       ??_C@_1M@CPKKEBLD@?$AAe?$AAs?$AA?9?$AAS?$AAV?$AA?$AA@ 40095cec     LIBCMTD:winapinls.obj
 0002:00013cf8       ??_C@_1M@NDBGMMJL@?$AAe?$AAs?$AA?9?$AAH?$AAN?$AA?$AA@ 40095cf8     LIBCMTD:winapinls.obj
 0002:00013d04       ??_C@_1M@JIJIBHDP@?$AAe?$AAs?$AA?9?$AAN?$AAI?$AA?$AA@ 40095d04     LIBCMTD:winapinls.obj
 0002:00013d10       ??_C@_1M@CGFMKEEK@?$AAe?$AAs?$AA?9?$AAP?$AAR?$AA?$AA@ 40095d10     LIBCMTD:winapinls.obj
 0002:00013d1c       ??_C@_1O@ICJHKIIK@?$AAz?$AAh?$AA?9?$AAC?$AAH?$AAT?$AA?$AA@ 40095d1c     LIBCMTD:winapinls.obj
 0002:00013d2c       ??_C@_15CLNEJCE@?$AAs?$AAr?$AA?$AA@ 40095d2c     LIBCMTD:winapinls.obj
 0002:00013d34       ??_C@_1M@KAHEKEIG@?$AAa?$AAf?$AA?9?$AAz?$AAa?$AA?$AA@ 40095d34     LIBCMTD:winapinls.obj
 0002:00013d40       ??_C@_1M@GIECOABL@?$AAa?$AAr?$AA?9?$AAa?$AAe?$AA?$AA@ 40095d40     LIBCMTD:winapinls.obj
 0002:00013d4c       ??_C@_1M@BMLMEKGI@?$AAa?$AAr?$AA?9?$AAb?$AAh?$AA?$AA@ 40095d4c     LIBCMTD:winapinls.obj
 0002:00013d58       ??_C@_1M@DAPFDGGB@?$AAa?$AAr?$AA?9?$AAd?$AAz?$AA?$AA@ 40095d58     LIBCMTD:winapinls.obj
 0002:00013d64       ??_C@_1M@FJNKGKIG@?$AAa?$AAr?$AA?9?$AAe?$AAg?$AA?$AA@ 40095d64     LIBCMTD:winapinls.obj
 0002:00013d70       ??_C@_1M@FLGKKCLO@?$AAa?$AAr?$AA?9?$AAi?$AAq?$AA?$AA@ 40095d70     LIBCMTD:winapinls.obj
 0002:00013d7c       ??_C@_1M@GNDIPALM@?$AAa?$AAr?$AA?9?$AAj?$AAo?$AA?$AA@ 40095d7c     LIBCMTD:winapinls.obj
 0002:00013d88       ??_C@_1M@DDMJFMGJ@?$AAa?$AAr?$AA?9?$AAk?$AAw?$AA?$AA@ 40095d88     LIBCMTD:winapinls.obj
 0002:00013d94       ??_C@_1M@EJALMLHM@?$AAa?$AAr?$AA?9?$AAl?$AAb?$AA?$AA@ 40095d94     LIBCMTD:winapinls.obj
 0002:00013da0       ??_C@_1M@MOBDBLOC@?$AAa?$AAr?$AA?9?$AAl?$AAy?$AA?$AA@ 40095da0     LIBCMTD:winapinls.obj
 0002:00013dac       ??_C@_1M@JAOCLHDH@?$AAa?$AAr?$AA?9?$AAm?$AAa?$AA?$AA@ 40095dac     LIBCMTD:winapinls.obj
 0002:00013db8       ??_C@_1M@JHPMKJIE@?$AAa?$AAr?$AA?9?$AAo?$AAm?$AA?$AA@ 40095db8     LIBCMTD:winapinls.obj
 0002:00013dc4       ??_C@_1M@OEPGHFNH@?$AAa?$AAr?$AA?9?$AAq?$AAa?$AA?$AA@ 40095dc4     LIBCMTD:winapinls.obj
 0002:00013dd0       ??_C@_1M@KJDONENM@?$AAa?$AAr?$AA?9?$AAs?$AAa?$AA?$AA@ 40095dd0     LIBCMTD:winapinls.obj
 0002:00013ddc       ??_C@_1M@DMJDKLKM@?$AAa?$AAr?$AA?9?$AAs?$AAy?$AA?$AA@ 40095ddc     LIBCMTD:winapinls.obj
 0002:00013de8       ??_C@_1M@OMFIPEDC@?$AAa?$AAr?$AA?9?$AAt?$AAn?$AA?$AA@ 40095de8     LIBCMTD:winapinls.obj
 0002:00013df4       ??_C@_1M@IHMHGAON@?$AAa?$AAr?$AA?9?$AAy?$AAe?$AA?$AA@ 40095df4     LIBCMTD:winapinls.obj
 0002:00013e00       ??_C@_1BG@KDCPGJGB@?$AAa?$AAz?$AA?9?$AAa?$AAz?$AA?9?$AAc?$AAy?$AAr?$AAl?$AA?$AA@ 40095e00     LIBCMTD:winapinls.obj
 0002:00013e18       ??_C@_1BG@IBCKDDOE@?$AAa?$AAz?$AA?9?$AAa?$AAz?$AA?9?$AAl?$AAa?$AAt?$AAn?$AA?$AA@ 40095e18     LIBCMTD:winapinls.obj
 0002:00013e30       ??_C@_1M@EGPFDCPD@?$AAb?$AAe?$AA?9?$AAb?$AAy?$AA?$AA@ 40095e30     LIBCMTD:winapinls.obj
 0002:00013e3c       ??_C@_1M@PCMGMCGC@?$AAb?$AAg?$AA?9?$AAb?$AAg?$AA?$AA@ 40095e3c     LIBCMTD:winapinls.obj
 0002:00013e48       ??_C@_1M@BJBMFGOB@?$AAb?$AAn?$AA?9?$AAi?$AAn?$AA?$AA@ 40095e48     LIBCMTD:winapinls.obj
 0002:00013e54       ??_C@_1BG@EAKMMACD@?$AAb?$AAs?$AA?9?$AAb?$AAa?$AA?9?$AAl?$AAa?$AAt?$AAn?$AA?$AA@ 40095e54     LIBCMTD:winapinls.obj
 0002:00013e6c       ??_C@_1M@KGADAODK@?$AAc?$AAa?$AA?9?$AAe?$AAs?$AA?$AA@ 40095e6c     LIBCMTD:winapinls.obj
 0002:00013e78       ??_C@_1M@COAJPDHI@?$AAc?$AAs?$AA?9?$AAc?$AAz?$AA?$AA@ 40095e78     LIBCMTD:winapinls.obj
 0002:00013e84       ??_C@_1M@DHBHFONH@?$AAc?$AAy?$AA?9?$AAg?$AAb?$AA?$AA@ 40095e84     LIBCMTD:winapinls.obj
 0002:00013e90       ??_C@_1M@IMGKELGA@?$AAd?$AAa?$AA?9?$AAd?$AAk?$AA?$AA@ 40095e90     LIBCMTD:winapinls.obj
 0002:00013e9c       ??_C@_1M@NNDGDNGA@?$AAd?$AAe?$AA?9?$AAa?$AAt?$AA?$AA@ 40095e9c     LIBCMTD:winapinls.obj
 0002:00013ea8       ??_C@_1M@IKDBHEEM@?$AAd?$AAe?$AA?9?$AAc?$AAh?$AA?$AA@ 40095ea8     LIBCMTD:winapinls.obj
 0002:00013eb4       ??_C@_1M@GFFOJMCJ@?$AAd?$AAe?$AA?9?$AAd?$AAe?$AA?$AA@ 40095eb4     LIBCMTD:winapinls.obj
 0002:00013ec0       ??_C@_1M@MDNLKBPM@?$AAd?$AAe?$AA?9?$AAl?$AAi?$AA?$AA@ 40095ec0     LIBCMTD:winapinls.obj
 0002:00013ecc       ??_C@_1M@NJBEEJNL@?$AAd?$AAe?$AA?9?$AAl?$AAu?$AA?$AA@ 40095ecc     LIBCMTD:winapinls.obj
 0002:00013ed8       ??_C@_1O@GNNELBAP@?$AAd?$AAi?$AAv?$AA?9?$AAm?$AAv?$AA?$AA@ 40095ed8     LIBCMTD:winapinls.obj
 0002:00013ee8       ??_C@_1M@EJLEOGAE@?$AAe?$AAl?$AA?9?$AAg?$AAr?$AA?$AA@ 40095ee8     LIBCMTD:winapinls.obj
 0002:00013ef4       ??_C@_1M@GMPONJN@?$AAe?$AAn?$AA?9?$AAa?$AAu?$AA?$AA@ 40095ef4     LIBCMTD:winapinls.obj
 0002:00013f00       ??_C@_1M@NIDIIPGF@?$AAe?$AAn?$AA?9?$AAb?$AAz?$AA?$AA@ 40095f00     LIBCMTD:winapinls.obj
 0002:00013f0c       ??_C@_1M@JEHMIMFO@?$AAe?$AAn?$AA?9?$AAc?$AAa?$AA?$AA@ 40095f0c     LIBCMTD:winapinls.obj
 0002:00013f18       ??_C@_1M@IGMJCDLA@?$AAe?$AAn?$AA?9?$AAc?$AAb?$AA?$AA@ 40095f18     LIBCMTD:winapinls.obj
 0002:00013f24       ??_C@_1M@BNFIGBKG@?$AAe?$AAn?$AA?9?$AAg?$AAb?$AA?$AA@ 40095f24     LIBCMTD:winapinls.obj
 0002:00013f30       ??_C@_1M@LKIFDIGP@?$AAe?$AAn?$AA?9?$AAi?$AAe?$AA?$AA@ 40095f30     LIBCMTD:winapinls.obj
 0002:00013f3c       ??_C@_1M@PJKFGCCO@?$AAe?$AAn?$AA?9?$AAj?$AAm?$AA?$AA@ 40095f3c     LIBCMTD:winapinls.obj
 0002:00013f48       ??_C@_1M@KPPKEPBO@?$AAe?$AAn?$AA?9?$AAn?$AAz?$AA?$AA@ 40095f48     LIBCMTD:winapinls.obj
 0002:00013f54       ??_C@_1M@GMDGLDOB@?$AAe?$AAn?$AA?9?$AAp?$AAh?$AA?$AA@ 40095f54     LIBCMTD:winapinls.obj
 0002:00013f60       ??_C@_1M@ONGIBJNA@?$AAe?$AAn?$AA?9?$AAt?$AAt?$AA?$AA@ 40095f60     LIBCMTD:winapinls.obj
 0002:00013f6c       ??_C@_1M@LLODPCMM@?$AAe?$AAn?$AA?9?$AAu?$AAs?$AA?$AA@ 40095f6c     LIBCMTD:winapinls.obj
 0002:00013f78       ??_C@_1M@LAKFNPAN@?$AAe?$AAn?$AA?9?$AAz?$AAa?$AA?$AA@ 40095f78     LIBCMTD:winapinls.obj
 0002:00013f84       ??_C@_1M@MFNHNHEO@?$AAe?$AAn?$AA?9?$AAz?$AAw?$AA?$AA@ 40095f84     LIBCMTD:winapinls.obj
 0002:00013f90       ??_C@_1M@EJEINPHM@?$AAe?$AAs?$AA?9?$AAa?$AAr?$AA?$AA@ 40095f90     LIBCMTD:winapinls.obj
 0002:00013f9c       ??_C@_1M@GNKPCCJA@?$AAe?$AAs?$AA?9?$AAb?$AAo?$AA?$AA@ 40095f9c     LIBCMTD:winapinls.obj
 0002:00013fa8       ??_C@_1M@LEEGFONL@?$AAe?$AAs?$AA?9?$AAc?$AAl?$AA?$AA@ 40095fa8     LIBCMTD:winapinls.obj
 0002:00013fb4       ??_C@_1M@KGPDPBDF@?$AAe?$AAs?$AA?9?$AAc?$AAo?$AA?$AA@ 40095fb4     LIBCMTD:winapinls.obj
 0002:00013fc0       ??_C@_1M@EIAHOHH@?$AAe?$AAs?$AA?9?$AAc?$AAr?$AA?$AA@ 40095fc0     LIBCMTD:winapinls.obj
 0002:00013fcc       ??_C@_1M@LLPGMBIN@?$AAe?$AAs?$AA?9?$AAd?$AAo?$AA?$AA@ 40095fcc     LIBCMTD:winapinls.obj
 0002:00013fd8       ??_C@_1M@DKHMKNJA@?$AAe?$AAs?$AA?9?$AAe?$AAc?$AA?$AA@ 40095fd8     LIBCMTD:winapinls.obj
 0002:00013fe4       ??_C@_1M@GKGFPKAP@?$AAe?$AAs?$AA?9?$AAe?$AAs?$AA?$AA@ 40095fe4     LIBCMTD:winapinls.obj
 0002:00013ff0       ??_C@_1M@LKHKGDLN@?$AAe?$AAs?$AA?9?$AAg?$AAt?$AA?$AA@ 40095ff0     LIBCMTD:winapinls.obj
 0002:00013ffc       ??_C@_1M@HEIIGGJD@?$AAe?$AAs?$AA?9?$AAh?$AAn?$AA?$AA@ 40095ffc     LIBCMTD:winapinls.obj
 0002:00014008       ??_C@_1M@FBDHPPGD@?$AAe?$AAs?$AA?9?$AAm?$AAx?$AA?$AA@ 40096008     LIBCMTD:winapinls.obj
 0002:00014014       ??_C@_1M@DPAGLNDH@?$AAe?$AAs?$AA?9?$AAn?$AAi?$AA?$AA@ 40096014     LIBCMTD:winapinls.obj
 0002:00014020       ??_C@_1M@MDGOPGDD@?$AAe?$AAs?$AA?9?$AAp?$AAa?$AA?$AA@ 40096020     LIBCMTD:winapinls.obj
 0002:0001402c       ??_C@_1M@EMAMGBGE@?$AAe?$AAs?$AA?9?$AAp?$AAe?$AA?$AA@ 4009602c     LIBCMTD:winapinls.obj
 0002:00014038       ??_C@_1M@IBMCAOEC@?$AAe?$AAs?$AA?9?$AAp?$AAr?$AA?$AA@ 40096038     LIBCMTD:winapinls.obj
 0002:00014044       ??_C@_1M@FGMDIJED@?$AAe?$AAs?$AA?9?$AAp?$AAy?$AA?$AA@ 40096044     LIBCMTD:winapinls.obj
 0002:00014050       ??_C@_1M@IIDEOLLL@?$AAe?$AAs?$AA?9?$AAs?$AAv?$AA?$AA@ 40096050     LIBCMTD:winapinls.obj
 0002:0001405c       ??_C@_1M@GAOBIPA@?$AAe?$AAs?$AA?9?$AAu?$AAy?$AA?$AA@ 4009605c     LIBCMTD:winapinls.obj
 0002:00014068       ??_C@_1M@JKFFICHJ@?$AAe?$AAs?$AA?9?$AAv?$AAe?$AA?$AA@ 40096068     LIBCMTD:winapinls.obj
 0002:00014074       ??_C@_1M@PNMLOJDF@?$AAe?$AAt?$AA?9?$AAe?$AAe?$AA?$AA@ 40096074     LIBCMTD:winapinls.obj
 0002:00014080       ??_C@_1M@GHHLIKEI@?$AAe?$AAu?$AA?9?$AAe?$AAs?$AA?$AA@ 40096080     LIBCMTD:winapinls.obj
 0002:0001408c       ??_C@_1M@PBNONODE@?$AAf?$AAa?$AA?9?$AAi?$AAr?$AA?$AA@ 4009608c     LIBCMTD:winapinls.obj
 0002:00014098       ??_C@_1M@JEEHPMIL@?$AAf?$AAi?$AA?9?$AAf?$AAi?$AA?$AA@ 40096098     LIBCMTD:winapinls.obj
 0002:000140a4       ??_C@_1M@LMDCNDBA@?$AAf?$AAo?$AA?9?$AAf?$AAo?$AA?$AA@ 400960a4     LIBCMTD:winapinls.obj
 0002:000140b0       ??_C@_1M@JKEOHLDK@?$AAf?$AAr?$AA?9?$AAb?$AAe?$AA?$AA@ 400960b0     LIBCMTD:winapinls.obj
 0002:000140bc       ??_C@_1M@NOHADPMI@?$AAf?$AAr?$AA?9?$AAc?$AAa?$AA?$AA@ 400960bc     LIBCMTD:winapinls.obj
 0002:000140c8       ??_C@_1M@KDHIHAEC@?$AAf?$AAr?$AA?9?$AAc?$AAh?$AA?$AA@ 400960c8     LIBCMTD:winapinls.obj
 0002:000140d4       ??_C@_1M@MMBBFGAK@?$AAf?$AAr?$AA?9?$AAf?$AAr?$AA?$AA@ 400960d4     LIBCMTD:winapinls.obj
 0002:000140e0       ??_C@_1M@PAFNENNF@?$AAf?$AAr?$AA?9?$AAl?$AAu?$AA?$AA@ 400960e0     LIBCMTD:winapinls.obj
 0002:000140ec       ??_C@_1M@EOHDJGDD@?$AAf?$AAr?$AA?9?$AAm?$AAc?$AA?$AA@ 400960ec     LIBCMTD:winapinls.obj
 0002:000140f8       ??_C@_1M@FAPLLOPF@?$AAg?$AAl?$AA?9?$AAe?$AAs?$AA?$AA@ 400960f8     LIBCMTD:winapinls.obj
 0002:00014104       ??_C@_1M@FOPBFLOO@?$AAg?$AAu?$AA?9?$AAi?$AAn?$AA?$AA@ 40096104     LIBCMTD:winapinls.obj
 0002:00014110       ??_C@_1M@KBMCINPM@?$AAh?$AAe?$AA?9?$AAi?$AAl?$AA?$AA@ 40096110     LIBCMTD:winapinls.obj
 0002:0001411c       ??_C@_1M@BBPHKFPJ@?$AAh?$AAi?$AA?9?$AAi?$AAn?$AA?$AA@ 4009611c     LIBCMTD:winapinls.obj
 0002:00014128       ??_C@_1M@PMBNDPHD@?$AAh?$AAr?$AA?9?$AAb?$AAa?$AA?$AA@ 40096128     LIBCMTD:winapinls.obj
 0002:00014134       ??_C@_1M@BPCKOEGE@?$AAh?$AAr?$AA?9?$AAh?$AAr?$AA?$AA@ 40096134     LIBCMTD:winapinls.obj
 0002:00014140       ??_C@_1M@GACBMHKE@?$AAh?$AAu?$AA?9?$AAh?$AAu?$AA?$AA@ 40096140     LIBCMTD:winapinls.obj
 0002:0001414c       ??_C@_1M@MILPAJJC@?$AAh?$AAy?$AA?9?$AAa?$AAm?$AA?$AA@ 4009614c     LIBCMTD:winapinls.obj
 0002:00014158       ??_C@_1M@BABBICEC@?$AAi?$AAd?$AA?9?$AAi?$AAd?$AA?$AA@ 40096158     LIBCMTD:winapinls.obj
 0002:00014164       ??_C@_1M@BIKNHHPF@?$AAi?$AAs?$AA?9?$AAi?$AAs?$AA?$AA@ 40096164     LIBCMTD:winapinls.obj
 0002:00014170       ??_C@_1M@NMPCJPHE@?$AAi?$AAt?$AA?9?$AAc?$AAh?$AA?$AA@ 40096170     LIBCMTD:winapinls.obj
 0002:0001417c       ??_C@_1M@GHKGFEDF@?$AAi?$AAt?$AA?9?$AAi?$AAt?$AA?$AA@ 4009617c     LIBCMTD:winapinls.obj
 0002:00014188       ??_C@_1M@NIEJCJJA@?$AAj?$AAa?$AA?9?$AAj?$AAp?$AA?$AA@ 40096188     LIBCMTD:winapinls.obj
 0002:00014194       ??_C@_1M@JILFNBIM@?$AAk?$AAa?$AA?9?$AAg?$AAe?$AA?$AA@ 40096194     LIBCMTD:winapinls.obj
 0002:000141a0       ??_C@_1M@PACPMGPH@?$AAk?$AAk?$AA?9?$AAk?$AAz?$AA?$AA@ 400961a0     LIBCMTD:winapinls.obj
 0002:000141ac       ??_C@_1M@IELFGMHA@?$AAk?$AAn?$AA?9?$AAi?$AAn?$AA?$AA@ 400961ac     LIBCMTD:winapinls.obj
 0002:000141b8       ??_C@_1O@IBBJHCH@?$AAk?$AAo?$AAk?$AA?9?$AAi?$AAn?$AA?$AA@ 400961b8     LIBCMTD:winapinls.obj
 0002:000141c8       ??_C@_1M@DMHAEOGC@?$AAk?$AAo?$AA?9?$AAk?$AAr?$AA?$AA@ 400961c8     LIBCMTD:winapinls.obj
 0002:000141d4       ??_C@_1M@HBAHBIGA@?$AAk?$AAy?$AA?9?$AAk?$AAg?$AA?$AA@ 400961d4     LIBCMTD:winapinls.obj
 0002:000141e0       ??_C@_1M@KPMILCJG@?$AAl?$AAt?$AA?9?$AAl?$AAt?$AA?$AA@ 400961e0     LIBCMTD:winapinls.obj
 0002:000141ec       ??_C@_1M@BDEKKCA@?$AAl?$AAv?$AA?9?$AAl?$AAv?$AA?$AA@ 400961ec     LIBCMTD:winapinls.obj
 0002:000141f8       ??_C@_1GG@BCIJGKDA@?$AAf?$AA?3?$AA?2?$AAd?$AAd?$AA?2?$AAv?$AAc?$AAt?$AAo?$AAo?$AAl?$AAs?$AA?2?$AAc?$AAr?$AAt?$AA_?$AAb?$AAl?$AAd?$AA?2?$AAs?$AAe?$AAl?$AAf?$AA_?$AAx?$AA8?$AA6?$AA?2?$AAc@ 400961f8     LIBCMTD:winapinls.obj
 0002:00014260       ??_C@_1DO@MBHJDOGM@?$AA_?$AA_?$AAc?$AAr?$AAt?$AAD?$AAo?$AAw?$AAn?$AAl?$AAe?$AAv?$AAe?$AAl?$AAL?$AAC?$AAI?$AAD?$AAT?$AAo?$AAL?$AAo?$AAc?$AAa?$AAl?$AAe?$AAN?$AAa?$AAm?$AAe?$AA?$AA@ 40096260     LIBCMTD:winapinls.obj
 0002:000142a0       ??_C@_1FO@LFACCMJH@?$AAw?$AAc?$AAs?$AAc?$AAp?$AAy?$AA_?$AAs?$AA?$CI?$AAo?$AAu?$AAt?$AAL?$AAo?$AAc?$AAa?$AAl?$AAe?$AAN?$AAa?$AAm?$AAe?$AA?0?$AA?5?$AAc?$AAc?$AAh?$AAL?$AAo?$AAc?$AAa?$AAl@ 400962a0     LIBCMTD:winapinls.obj
 0002:00014300       ??_C@_0DC@EHLBFILA@f?3?2dd?2vctools?2crt_bld?2self_x86?2c@ 40096300     LIBCMTD:initctyp.obj
 0002:00014338       ??_C@_1GE@OCPKBDKE@?$AAf?$AA?3?$AA?2?$AAd?$AAd?$AA?2?$AAv?$AAc?$AAt?$AAo?$AAo?$AAl?$AAs?$AA?2?$AAc?$AAr?$AAt?$AA_?$AAb?$AAl?$AAd?$AA?2?$AAs?$AAe?$AAl?$AAf?$AA_?$AAx?$AA8?$AA6?$AA?2?$AAc@ 40096338     LIBCMTD:initctyp.obj
 0002:0001439c       ??_C@_1DG@NMBGBDM@?$AAp?$AAl?$AAo?$AAc?$AAi?$AA?9?$AA?$DO?$AAc?$AAt?$AAy?$AAp?$AAe?$AA1?$AA_?$AAr?$AAe?$AAf?$AAc?$AAo?$AAu?$AAn?$AAt?$AA?5?$AA?$DO?$AA?5?$AA0?$AA?$AA@ 4009639c     LIBCMTD:initctyp.obj
 0002:000143d8       ___rg_language             400963d8     LIBCMTD:getqloc.obj
 0002:000146e4       ??_C@_1BC@LLOKLNP@?$AAa?$AAm?$AAe?$AAr?$AAi?$AAc?$AAa?$AAn?$AA?$AA@ 400966e4     LIBCMTD:getqloc.obj
 0002:000146f8       ??_C@_1CC@HEIGCDGG@?$AAa?$AAm?$AAe?$AAr?$AAi?$AAc?$AAa?$AAn?$AA?5?$AAe?$AAn?$AAg?$AAl?$AAi?$AAs?$AAh?$AA?$AA@ 400966f8     LIBCMTD:getqloc.obj
 0002:0001471c       ??_C@_1CC@IHCNOMIN@?$AAa?$AAm?$AAe?$AAr?$AAi?$AAc?$AAa?$AAn?$AA?9?$AAe?$AAn?$AAg?$AAl?$AAi?$AAs?$AAh?$AA?$AA@ 4009671c     LIBCMTD:getqloc.obj
 0002:00014740       ??_C@_1BG@GKAGPCGG@?$AAa?$AAu?$AAs?$AAt?$AAr?$AAa?$AAl?$AAi?$AAa?$AAn?$AA?$AA@ 40096740     LIBCMTD:getqloc.obj
 0002:00014758       ??_C@_1BA@GMENCENF@?$AAb?$AAe?$AAl?$AAg?$AAi?$AAa?$AAn?$AA?$AA@ 40096758     LIBCMTD:getqloc.obj
 0002:00014768       ??_C@_1BC@PJMIIAAN@?$AAc?$AAa?$AAn?$AAa?$AAd?$AAi?$AAa?$AAn?$AA?$AA@ 40096768     LIBCMTD:getqloc.obj
 0002:0001477c       ??_C@_17NOIMNFBF@?$AAc?$AAh?$AAh?$AA?$AA@ 4009677c     LIBCMTD:getqloc.obj
 0002:00014784       ??_C@_17GGDALCHA@?$AAc?$AAh?$AAi?$AA?$AA@ 40096784     LIBCMTD:getqloc.obj
 0002:0001478c       ??_C@_1BA@NPNJKIBL@?$AAc?$AAh?$AAi?$AAn?$AAe?$AAs?$AAe?$AA?$AA@ 4009678c     LIBCMTD:getqloc.obj
 0002:0001479c       ??_C@_1CC@DINBAMMJ@?$AAc?$AAh?$AAi?$AAn?$AAe?$AAs?$AAe?$AA?9?$AAh?$AAo?$AAn?$AAg?$AAk?$AAo?$AAn?$AAg?$AA?$AA@ 4009679c     LIBCMTD:getqloc.obj
 0002:000147c0       ??_C@_1CG@IOBJPACO@?$AAc?$AAh?$AAi?$AAn?$AAe?$AAs?$AAe?$AA?9?$AAs?$AAi?$AAm?$AAp?$AAl?$AAi?$AAf?$AAi?$AAe?$AAd?$AA?$AA@ 400967c0     LIBCMTD:getqloc.obj
 0002:000147e8       ??_C@_1CE@GAJNDCKG@?$AAc?$AAh?$AAi?$AAn?$AAe?$AAs?$AAe?$AA?9?$AAs?$AAi?$AAn?$AAg?$AAa?$AAp?$AAo?$AAr?$AAe?$AA?$AA@ 400967e8     LIBCMTD:getqloc.obj
 0002:0001480c       ??_C@_1CI@PAJPIOOD@?$AAc?$AAh?$AAi?$AAn?$AAe?$AAs?$AAe?$AA?9?$AAt?$AAr?$AAa?$AAd?$AAi?$AAt?$AAi?$AAo?$AAn?$AAa?$AAl?$AA?$AA@ 4009680c     LIBCMTD:getqloc.obj
 0002:00014834       ??_C@_1BM@NILJBMMD@?$AAd?$AAu?$AAt?$AAc?$AAh?$AA?9?$AAb?$AAe?$AAl?$AAg?$AAi?$AAa?$AAn?$AA?$AA@ 40096834     LIBCMTD:getqloc.obj
 0002:00014850       ??_C@_1CC@OOJPJNEJ@?$AAe?$AAn?$AAg?$AAl?$AAi?$AAs?$AAh?$AA?9?$AAa?$AAm?$AAe?$AAr?$AAi?$AAc?$AAa?$AAn?$AA?$AA@ 40096850     LIBCMTD:getqloc.obj
 0002:00014874       ??_C@_1BI@IOLFEEM@?$AAe?$AAn?$AAg?$AAl?$AAi?$AAs?$AAh?$AA?9?$AAa?$AAu?$AAs?$AA?$AA@ 40096874     LIBCMTD:getqloc.obj
 0002:0001488c       ??_C@_1BO@HFFNLENJ@?$AAe?$AAn?$AAg?$AAl?$AAi?$AAs?$AAh?$AA?9?$AAb?$AAe?$AAl?$AAi?$AAz?$AAe?$AA?$AA@ 4009688c     LIBCMTD:getqloc.obj
 0002:000148ac       ??_C@_1BI@HAPKJMPO@?$AAe?$AAn?$AAg?$AAl?$AAi?$AAs?$AAh?$AA?9?$AAc?$AAa?$AAn?$AA?$AA@ 400968ac     LIBCMTD:getqloc.obj
 0002:000148c4       ??_C@_1CE@HLNDMIOJ@?$AAe?$AAn?$AAg?$AAl?$AAi?$AAs?$AAh?$AA?9?$AAc?$AAa?$AAr?$AAi?$AAb?$AAb?$AAe?$AAa?$AAn?$AA?$AA@ 400968c4     LIBCMTD:getqloc.obj
 0002:000148e8       ??_C@_1BI@LDHJHHAC@?$AAe?$AAn?$AAg?$AAl?$AAi?$AAs?$AAh?$AA?9?$AAi?$AAr?$AAe?$AA?$AA@ 400968e8     LIBCMTD:getqloc.obj
 0002:00014900       ??_C@_1CA@NJMMCFOC@?$AAe?$AAn?$AAg?$AAl?$AAi?$AAs?$AAh?$AA?9?$AAj?$AAa?$AAm?$AAa?$AAi?$AAc?$AAa?$AA?$AA@ 40096900     LIBCMTD:getqloc.obj
 0002:00014920       ??_C@_1BG@BHJEBBGG@?$AAe?$AAn?$AAg?$AAl?$AAi?$AAs?$AAh?$AA?9?$AAn?$AAz?$AA?$AA@ 40096920     LIBCMTD:getqloc.obj
 0002:00014938       ??_C@_1CK@FGOEJJCO@?$AAe?$AAn?$AAg?$AAl?$AAi?$AAs?$AAh?$AA?9?$AAs?$AAo?$AAu?$AAt?$AAh?$AA?5?$AAa?$AAf?$AAr?$AAi?$AAc?$AAa?$AA?$AA@ 40096938     LIBCMTD:getqloc.obj
 0002:00014964       ??_C@_1DE@PDBJPCJ@?$AAe?$AAn?$AAg?$AAl?$AAi?$AAs?$AAh?$AA?9?$AAt?$AAr?$AAi?$AAn?$AAi?$AAd?$AAa?$AAd?$AA?5?$AAy?$AA?5?$AAt?$AAo?$AAb?$AAa?$AAg?$AAo?$AA?$AA@ 40096964     LIBCMTD:getqloc.obj
 0002:00014998       ??_C@_1BG@JGCANDME@?$AAe?$AAn?$AAg?$AAl?$AAi?$AAs?$AAh?$AA?9?$AAu?$AAk?$AA?$AA@ 40096998     LIBCMTD:getqloc.obj
 0002:000149b0       ??_C@_1BG@DINKMLE@?$AAe?$AAn?$AAg?$AAl?$AAi?$AAs?$AAh?$AA?9?$AAu?$AAs?$AA?$AA@ 400969b0     LIBCMTD:getqloc.obj
 0002:000149c8       ??_C@_1BI@NMFDBHJE@?$AAe?$AAn?$AAg?$AAl?$AAi?$AAs?$AAh?$AA?9?$AAu?$AAs?$AAa?$AA?$AA@ 400969c8     LIBCMTD:getqloc.obj
 0002:000149e0       ??_C@_1BO@OIHKJKII@?$AAf?$AAr?$AAe?$AAn?$AAc?$AAh?$AA?9?$AAb?$AAe?$AAl?$AAg?$AAi?$AAa?$AAn?$AA?$AA@ 400969e0     LIBCMTD:getqloc.obj
 0002:00014a00       ??_C@_1CA@NKAELJKI@?$AAf?$AAr?$AAe?$AAn?$AAc?$AAh?$AA?9?$AAc?$AAa?$AAn?$AAa?$AAd?$AAi?$AAa?$AAn?$AA?$AA@ 40096a00     LIBCMTD:getqloc.obj
 0002:00014a20       ??_C@_1CE@MGKCNLGN@?$AAf?$AAr?$AAe?$AAn?$AAc?$AAh?$AA?9?$AAl?$AAu?$AAx?$AAe?$AAm?$AAb?$AAo?$AAu?$AAr?$AAg?$AA?$AA@ 40096a20     LIBCMTD:getqloc.obj
 0002:00014a44       ??_C@_1BK@CEGEAILM@?$AAf?$AAr?$AAe?$AAn?$AAc?$AAh?$AA?9?$AAs?$AAw?$AAi?$AAs?$AAs?$AA?$AA@ 40096a44     LIBCMTD:getqloc.obj
 0002:00014a60       ??_C@_1CA@PAFKEOCC@?$AAg?$AAe?$AAr?$AAm?$AAa?$AAn?$AA?9?$AAa?$AAu?$AAs?$AAt?$AAr?$AAi?$AAa?$AAn?$AA?$AA@ 40096a60     LIBCMTD:getqloc.obj
 0002:00014a80       ??_C@_1CI@HCFHGOFD@?$AAg?$AAe?$AAr?$AAm?$AAa?$AAn?$AA?9?$AAl?$AAi?$AAc?$AAh?$AAt?$AAe?$AAn?$AAs?$AAt?$AAe?$AAi?$AAn?$AA?$AA@ 40096a80     LIBCMTD:getqloc.obj
 0002:00014aa8       ??_C@_1CE@FEDDNPDG@?$AAg?$AAe?$AAr?$AAm?$AAa?$AAn?$AA?9?$AAl?$AAu?$AAx?$AAe?$AAm?$AAb?$AAo?$AAu?$AAr?$AAg?$AA?$AA@ 40096aa8     LIBCMTD:getqloc.obj
 0002:00014acc       ??_C@_1BK@LIMINNMN@?$AAg?$AAe?$AAr?$AAm?$AAa?$AAn?$AA?9?$AAs?$AAw?$AAi?$AAs?$AAs?$AA?$AA@ 40096acc     LIBCMTD:getqloc.obj
 0002:00014ae8       ??_C@_1BM@LGMDBEPD@?$AAi?$AAr?$AAi?$AAs?$AAh?$AA?9?$AAe?$AAn?$AAg?$AAl?$AAi?$AAs?$AAh?$AA?$AA@ 40096ae8     LIBCMTD:getqloc.obj
 0002:00014b04       ??_C@_1BM@NNCFBAEE@?$AAi?$AAt?$AAa?$AAl?$AAi?$AAa?$AAn?$AA?9?$AAs?$AAw?$AAi?$AAs?$AAs?$AA?$AA@ 40096b04     LIBCMTD:getqloc.obj
 0002:00014b20       ??_C@_1BE@FEDJNPIB@?$AAn?$AAo?$AAr?$AAw?$AAe?$AAg?$AAi?$AAa?$AAn?$AA?$AA@ 40096b20     LIBCMTD:getqloc.obj
 0002:00014b34       ??_C@_1CC@CILKDEIE@?$AAn?$AAo?$AAr?$AAw?$AAe?$AAg?$AAi?$AAa?$AAn?$AA?9?$AAb?$AAo?$AAk?$AAm?$AAa?$AAl?$AA?$AA@ 40096b34     LIBCMTD:getqloc.obj
 0002:00014b58       ??_C@_1CE@DHMMHEPL@?$AAn?$AAo?$AAr?$AAw?$AAe?$AAg?$AAi?$AAa?$AAn?$AA?9?$AAn?$AAy?$AAn?$AAo?$AAr?$AAs?$AAk?$AA?$AA@ 40096b58     LIBCMTD:getqloc.obj
 0002:00014b7c       ??_C@_1CK@OPNMHECD@?$AAp?$AAo?$AAr?$AAt?$AAu?$AAg?$AAu?$AAe?$AAs?$AAe?$AA?9?$AAb?$AAr?$AAa?$AAz?$AAi?$AAl?$AAi?$AAa?$AAn?$AA?$AA@ 40096b7c     LIBCMTD:getqloc.obj
 0002:00014ba8       ??_C@_1CE@KEEHCDB@?$AAs?$AAp?$AAa?$AAn?$AAi?$AAs?$AAh?$AA?9?$AAa?$AAr?$AAg?$AAe?$AAn?$AAt?$AAi?$AAn?$AAa?$AA?$AA@ 40096ba8     LIBCMTD:getqloc.obj
 0002:00014bcc       ??_C@_1CA@GIAOLHJD@?$AAs?$AAp?$AAa?$AAn?$AAi?$AAs?$AAh?$AA?9?$AAb?$AAo?$AAl?$AAi?$AAv?$AAi?$AAa?$AA?$AA@ 40096bcc     LIBCMTD:getqloc.obj
 0002:00014bec       ??_C@_1BM@OJNDFNPD@?$AAs?$AAp?$AAa?$AAn?$AAi?$AAs?$AAh?$AA?9?$AAc?$AAh?$AAi?$AAl?$AAe?$AA?$AA@ 40096bec     LIBCMTD:getqloc.obj
 0002:00014c08       ??_C@_1CC@OCOLPALL@?$AAs?$AAp?$AAa?$AAn?$AAi?$AAs?$AAh?$AA?9?$AAc?$AAo?$AAl?$AAo?$AAm?$AAb?$AAi?$AAa?$AA?$AA@ 40096c08     LIBCMTD:getqloc.obj
 0002:00014c2c       ??_C@_1CG@BPOFMKBB@?$AAs?$AAp?$AAa?$AAn?$AAi?$AAs?$AAh?$AA?9?$AAc?$AAo?$AAs?$AAt?$AAa?$AA?5?$AAr?$AAi?$AAc?$AAa?$AA?$AA@ 40096c2c     LIBCMTD:getqloc.obj
 0002:00014c54       ??_C@_1DG@IGOBAPBB@?$AAs?$AAp?$AAa?$AAn?$AAi?$AAs?$AAh?$AA?9?$AAd?$AAo?$AAm?$AAi?$AAn?$AAi?$AAc?$AAa?$AAn?$AA?5?$AAr?$AAe?$AAp?$AAu?$AAb?$AAl?$AAi?$AAc?$AA?$AA@ 40096c54     LIBCMTD:getqloc.obj
 0002:00014c8c       ??_C@_1CA@JHAPGEGI@?$AAs?$AAp?$AAa?$AAn?$AAi?$AAs?$AAh?$AA?9?$AAe?$AAc?$AAu?$AAa?$AAd?$AAo?$AAr?$AA?$AA@ 40096c8c     LIBCMTD:getqloc.obj
 0002:00014cac       ??_C@_1CI@LAPALJPP@?$AAs?$AAp?$AAa?$AAn?$AAi?$AAs?$AAh?$AA?9?$AAe?$AAl?$AA?5?$AAs?$AAa?$AAl?$AAv?$AAa?$AAd?$AAo?$AAr?$AA?$AA@ 40096cac     LIBCMTD:getqloc.obj
 0002:00014cd4       ??_C@_1CE@PDGBOFOM@?$AAs?$AAp?$AAa?$AAn?$AAi?$AAs?$AAh?$AA?9?$AAg?$AAu?$AAa?$AAt?$AAe?$AAm?$AAa?$AAl?$AAa?$AA?$AA@ 40096cd4     LIBCMTD:getqloc.obj
 0002:00014cf8       ??_C@_1CC@NBEBAODI@?$AAs?$AAp?$AAa?$AAn?$AAi?$AAs?$AAh?$AA?9?$AAh?$AAo?$AAn?$AAd?$AAu?$AAr?$AAa?$AAs?$AA?$AA@ 40096cf8     LIBCMTD:getqloc.obj
 0002:00014d1c       ??_C@_1CA@LLKGHBMF@?$AAs?$AAp?$AAa?$AAn?$AAi?$AAs?$AAh?$AA?9?$AAm?$AAe?$AAx?$AAi?$AAc?$AAa?$AAn?$AA?$AA@ 40096d1c     LIBCMTD:getqloc.obj
 0002:00014d3c       ??_C@_1BO@LKNDOIGD@?$AAs?$AAp?$AAa?$AAn?$AAi?$AAs?$AAh?$AA?9?$AAm?$AAo?$AAd?$AAe?$AAr?$AAn?$AA?$AA@ 40096d3c     LIBCMTD:getqloc.obj
 0002:00014d5c       ??_C@_1CE@NMDMOEEB@?$AAs?$AAp?$AAa?$AAn?$AAi?$AAs?$AAh?$AA?9?$AAn?$AAi?$AAc?$AAa?$AAr?$AAa?$AAg?$AAu?$AAa?$AA?$AA@ 40096d5c     LIBCMTD:getqloc.obj
 0002:00014d80       ??_C@_1BO@LLCBEJGB@?$AAs?$AAp?$AAa?$AAn?$AAi?$AAs?$AAh?$AA?9?$AAp?$AAa?$AAn?$AAa?$AAm?$AAa?$AA?$AA@ 40096d80     LIBCMTD:getqloc.obj
 0002:00014da0       ??_C@_1CC@FKPGGIHO@?$AAs?$AAp?$AAa?$AAn?$AAi?$AAs?$AAh?$AA?9?$AAp?$AAa?$AAr?$AAa?$AAg?$AAu?$AAa?$AAy?$AA?$AA@ 40096da0     LIBCMTD:getqloc.obj
 0002:00014dc4       ??_C@_1BK@CDEIHOOP@?$AAs?$AAp?$AAa?$AAn?$AAi?$AAs?$AAh?$AA?9?$AAp?$AAe?$AAr?$AAu?$AA?$AA@ 40096dc4     LIBCMTD:getqloc.obj
 0002:00014de0       ??_C@_1CI@GAHAKKGP@?$AAs?$AAp?$AAa?$AAn?$AAi?$AAs?$AAh?$AA?9?$AAp?$AAu?$AAe?$AAr?$AAt?$AAo?$AA?5?$AAr?$AAi?$AAc?$AAo?$AA?$AA@ 40096de0     LIBCMTD:getqloc.obj
 0002:00014e08       ??_C@_1CA@NKJBCAGP@?$AAs?$AAp?$AAa?$AAn?$AAi?$AAs?$AAh?$AA?9?$AAu?$AAr?$AAu?$AAg?$AAu?$AAa?$AAy?$AA?$AA@ 40096e08     LIBCMTD:getqloc.obj
 0002:00014e28       ??_C@_1CE@ODILCONM@?$AAs?$AAp?$AAa?$AAn?$AAi?$AAs?$AAh?$AA?9?$AAv?$AAe?$AAn?$AAe?$AAz?$AAu?$AAe?$AAl?$AAa?$AA?$AA@ 40096e28     LIBCMTD:getqloc.obj
 0002:00014e4c       ??_C@_1CA@OBNMCGFO@?$AAs?$AAw?$AAe?$AAd?$AAi?$AAs?$AAh?$AA?9?$AAf?$AAi?$AAn?$AAl?$AAa?$AAn?$AAd?$AA?$AA@ 40096e4c     LIBCMTD:getqloc.obj
 0002:00014e6c       ??_C@_1M@PIPDDPPI@?$AAs?$AAw?$AAi?$AAs?$AAs?$AA?$AA@ 40096e6c     LIBCMTD:getqloc.obj
 0002:00014e78       ??_C@_15GMFIMNFM@?$AAu?$AAs?$AA?$AA@ 40096e78     LIBCMTD:getqloc.obj
 0002:00014e80       ??_C@_17HAEBFAGL@?$AAu?$AAs?$AAa?$AA?$AA@ 40096e80     LIBCMTD:getqloc.obj
 0002:00014e88       ___rg_country              40096e88     LIBCMTD:getqloc.obj
 0002:00014f9c       ??_C@_1BA@DPFJEPHB@?$AAa?$AAm?$AAe?$AAr?$AAi?$AAc?$AAa?$AA?$AA@ 40096f9c     LIBCMTD:getqloc.obj
 0002:00014fac       ??_C@_1BA@ELOGGFK@?$AAb?$AAr?$AAi?$AAt?$AAa?$AAi?$AAn?$AA?$AA@ 40096fac     LIBCMTD:getqloc.obj
 0002:00014fbc       ??_C@_1M@GHBGIGDA@?$AAc?$AAh?$AAi?$AAn?$AAa?$AA?$AA@ 40096fbc     LIBCMTD:getqloc.obj
 0002:00014fc8       ??_C@_1M@NCHEJOPO@?$AAc?$AAz?$AAe?$AAc?$AAh?$AA?$AA@ 40096fc8     LIBCMTD:getqloc.obj
 0002:00014fd4       ??_C@_1BA@BKPAPBLA@?$AAe?$AAn?$AAg?$AAl?$AAa?$AAn?$AAd?$AA?$AA@ 40096fd4     LIBCMTD:getqloc.obj
 0002:00014fe4       ??_C@_1BM@HKBCKIPC@?$AAg?$AAr?$AAe?$AAa?$AAt?$AA?5?$AAb?$AAr?$AAi?$AAt?$AAa?$AAi?$AAn?$AA?$AA@ 40096fe4     LIBCMTD:getqloc.obj
 0002:00015000       ??_C@_1BA@PPCHPGJB@?$AAh?$AAo?$AAl?$AAl?$AAa?$AAn?$AAd?$AA?$AA@ 40097000     LIBCMTD:getqloc.obj
 0002:00015010       ??_C@_1BE@JBMPEGDG@?$AAh?$AAo?$AAn?$AAg?$AA?9?$AAk?$AAo?$AAn?$AAg?$AA?$AA@ 40097010     LIBCMTD:getqloc.obj
 0002:00015024       ??_C@_1BI@KOELBBPJ@?$AAn?$AAe?$AAw?$AA?9?$AAz?$AAe?$AAa?$AAl?$AAa?$AAn?$AAd?$AA?$AA@ 40097024     LIBCMTD:getqloc.obj
 0002:0001503c       ??_C@_15HIEBHAIO@?$AAn?$AAz?$AA?$AA@ 4009703c     LIBCMTD:getqloc.obj
 0002:00015044       ??_C@_1BC@CHBCPFPI@?$AAp?$AAr?$AA?5?$AAc?$AAh?$AAi?$AAn?$AAa?$AA?$AA@ 40097044     LIBCMTD:getqloc.obj
 0002:00015058       ??_C@_1BC@JAOIIFKD@?$AAp?$AAr?$AA?9?$AAc?$AAh?$AAi?$AAn?$AAa?$AA?$AA@ 40097058     LIBCMTD:getqloc.obj
 0002:0001506c       ??_C@_1BI@BEHPPHKC@?$AAp?$AAu?$AAe?$AAr?$AAt?$AAo?$AA?9?$AAr?$AAi?$AAc?$AAo?$AA?$AA@ 4009706c     LIBCMTD:getqloc.obj
 0002:00015084       ??_C@_1O@PAEOFKDI@?$AAs?$AAl?$AAo?$AAv?$AAa?$AAk?$AA?$AA@ 40097084     LIBCMTD:getqloc.obj
 0002:00015094       ??_C@_1BK@FIHMCKAM@?$AAs?$AAo?$AAu?$AAt?$AAh?$AA?5?$AAa?$AAf?$AAr?$AAi?$AAc?$AAa?$AA?$AA@ 40097094     LIBCMTD:getqloc.obj
 0002:000150b0       ??_C@_1BI@NAEOODKB@?$AAs?$AAo?$AAu?$AAt?$AAh?$AA?5?$AAk?$AAo?$AAr?$AAe?$AAa?$AA?$AA@ 400970b0     LIBCMTD:getqloc.obj
 0002:000150c8       ??_C@_1BK@FBDGGIFF@?$AAs?$AAo?$AAu?$AAt?$AAh?$AA?9?$AAa?$AAf?$AAr?$AAi?$AAc?$AAa?$AA?$AA@ 400970c8     LIBCMTD:getqloc.obj
 0002:000150e4       ??_C@_1BI@GHLEJDPK@?$AAs?$AAo?$AAu?$AAt?$AAh?$AA?9?$AAk?$AAo?$AAr?$AAe?$AAa?$AA?$AA@ 400970e4     LIBCMTD:getqloc.obj
 0002:000150fc       ??_C@_1CE@PLHLOMJF@?$AAt?$AAr?$AAi?$AAn?$AAi?$AAd?$AAa?$AAd?$AA?5?$AA?$CG?$AA?5?$AAt?$AAo?$AAb?$AAa?$AAg?$AAo?$AA?$AA@ 400970fc     LIBCMTD:getqloc.obj
 0002:00015120       ??_C@_1BO@MODIMHHI@?$AAu?$AAn?$AAi?$AAt?$AAe?$AAd?$AA?9?$AAk?$AAi?$AAn?$AAg?$AAd?$AAo?$AAm?$AA?$AA@ 40097120     LIBCMTD:getqloc.obj
 0002:00015140       ??_C@_1BM@FFHJONBJ@?$AAu?$AAn?$AAi?$AAt?$AAe?$AAd?$AA?9?$AAs?$AAt?$AAa?$AAt?$AAe?$AAs?$AA?$AA@ 40097140     LIBCMTD:getqloc.obj
 0002:0001515c       ___rg_language_count       4009715c     LIBCMTD:getqloc.obj
 0002:00015160       ___rg_country_count        40097160     LIBCMTD:getqloc.obj
 0002:00015168       ??_C@_1GC@FECJGAE@?$AAf?$AA?3?$AA?2?$AAd?$AAd?$AA?2?$AAv?$AAc?$AAt?$AAo?$AAo?$AAl?$AAs?$AA?2?$AAc?$AAr?$AAt?$AA_?$AAb?$AAl?$AAd?$AA?2?$AAs?$AAe?$AAl?$AAf?$AA_?$AAx?$AA8?$AA6?$AA?2?$AAc@ 40097168     LIBCMTD:getqloc.obj
 0002:000151cc       ??_C@_1CO@NJACLALJ@?$AA_?$AA_?$AAg?$AAe?$AAt?$AA_?$AAq?$AAu?$AAa?$AAl?$AAi?$AAf?$AAi?$AAe?$AAd?$AA_?$AAl?$AAo?$AAc?$AAa?$AAl?$AAe?$AA?$AA@ 400971cc     LIBCMTD:getqloc.obj
 0002:00015200       ??_C@_1BGM@FCCPEFDE@?$AAw?$AAc?$AAs?$AAn?$AAc?$AAp?$AAy?$AA_?$AAs?$AA?$CI?$AAl?$AAp?$AAO?$AAu?$AAt?$AAS?$AAt?$AAr?$AA?9?$AA?$DO?$AAs?$AAz?$AAL?$AAo?$AAc?$AAa?$AAl?$AAe?$AAN?$AAa?$AAm?$AAe@ 40097200     LIBCMTD:getqloc.obj
 0002:0001536c       ??_C@_1CM@OGEMFJNJ@?$AAL?$AAa?$AAn?$AAg?$AAC?$AAo?$AAu?$AAn?$AAt?$AAr?$AAy?$AAE?$AAn?$AAu?$AAm?$AAP?$AAr?$AAo?$AAc?$AAE?$AAx?$AA?$AA@ 4009736c     LIBCMTD:getqloc.obj
 0002:00015398       ??_C@_1BFO@LLJKJAIC@?$AAw?$AAc?$AAs?$AAn?$AAc?$AAp?$AAy?$AA_?$AAs?$AA?$CI?$AA_?$AAp?$AAs?$AAe?$AAt?$AAl?$AAo?$AAc?$AA_?$AAd?$AAa?$AAt?$AAa?$AA?9?$AA?$DO?$AA_?$AAc?$AAa?$AAc?$AAh?$AAe?$AAL@ 40097398     LIBCMTD:getqloc.obj
 0002:000154f8       ??_C@_1CG@PGLLICHO@?$AAL?$AAa?$AAn?$AAg?$AAu?$AAa?$AAg?$AAe?$AAE?$AAn?$AAu?$AAm?$AAP?$AAr?$AAo?$AAc?$AAE?$AAx?$AA?$AA@ 400974f8     LIBCMTD:getqloc.obj
 0002:00015520       ??_C@_1DC@CPKFANGP@?$AAG?$AAe?$AAt?$AAL?$AAo?$AAc?$AAa?$AAl?$AAe?$AAN?$AAa?$AAm?$AAe?$AAF?$AAr?$AAo?$AAm?$AAD?$AAe?$AAf?$AAa?$AAu?$AAl?$AAt?$AA?$AA@ 40097520     LIBCMTD:getqloc.obj
 0002:00015558       ??_C@_1BEO@EJBNGKHB@?$AAw?$AAc?$AAs?$AAn?$AAc?$AAp?$AAy?$AA_?$AAs?$AA?$CI?$AA_?$AAp?$AAs?$AAe?$AAt?$AAl?$AAo?$AAc?$AA_?$AAd?$AAa?$AAt?$AAa?$AA?9?$AA?$DO?$AA_?$AAc?$AAa?$AAc?$AAh?$AAe?$AAL@ 40097558     LIBCMTD:getqloc.obj
 0002:000156a8       ??_C@_17DNCLJFIF@?$AAA?$AAC?$AAP?$AA?$AA@ 400976a8     LIBCMTD:getqloc.obj
 0002:000156b0       ??_C@_17CIKBIHLH@?$AAO?$AAC?$AAP?$AA?$AA@ 400976b0     LIBCMTD:getqloc.obj
 0002:000156b8       ___rglangidNotDefault      400976b8     LIBCMTD:getqloc_downlevel.obj
 0002:000156cc       ??_C@_1BO@KFIJIAEA@?$AAp?$AAB?$AAl?$AAo?$AAc?$AAk?$AA?5?$AA?$CB?$AA?$DN?$AA?5?$AAN?$AAU?$AAL?$AAL?$AA?$AA@ 400976cc     LIBCMTD:expand.obj
 0002:000156f0       ??_C@_1GA@EBHFLDNH@?$AAf?$AA?3?$AA?2?$AAd?$AAd?$AA?2?$AAv?$AAc?$AAt?$AAo?$AAo?$AAl?$AAs?$AA?2?$AAc?$AAr?$AAt?$AA_?$AAb?$AAl?$AAd?$AA?2?$AAs?$AAe?$AAl?$AAf?$AA_?$AAx?$AA8?$AA6?$AA?2?$AAc@ 400976f0     LIBCMTD:expand.obj
 0002:00015750       ??_C@_1BK@JMCGJOCC@?$AA_?$AAe?$AAx?$AAp?$AAa?$AAn?$AAd?$AA_?$AAb?$AAa?$AAs?$AAe?$AA?$AA@ 40097750     LIBCMTD:expand.obj
 0002:00015770       ??_C@_1GC@BMNPEKNN@?$AAf?$AA?3?$AA?2?$AAd?$AAd?$AA?2?$AAv?$AAc?$AAt?$AAo?$AAo?$AAl?$AAs?$AA?2?$AAc?$AAr?$AAt?$AA_?$AAb?$AAl?$AAd?$AA?2?$AAs?$AAe?$AAl?$AAf?$AA_?$AAx?$AA8?$AA6?$AA?2?$AAc@ 40097770     LIBCMTD:sprintf.obj
 0002:000157d4       ??_C@_1BA@KBJJGFFE@?$AAs?$AAp?$AAr?$AAi?$AAn?$AAt?$AAf?$AA?$AA@ 400977d4     LIBCMTD:sprintf.obj
 0002:000157e4       __pDestructExceptionObject 400977e4     LIBCMTD:frame.obj
 0002:000157e8       ?value@?$_Sizeof@U_Nil@std@@U12@U12@U12@U12@U12@U12@U12@@std@@2IB 400977e8     LIBCMTD:frame.obj
 0002:000157ec       ?value@?$integral_constant@_N$0A@@std@@2_NB 400977ec     LIBCMTD:frame.obj
 0002:000157ed       ?value@?$integral_constant@_N$00@std@@2_NB 400977ed     LIBCMTD:frame.obj
 0002:000157f4       ??_7bad_exception@std@@6B@ 400977f4     LIBCMTD:frame.obj
 0002:000157fc       ??_C@_0O@DPKOEFFH@bad?5exception?$AA@ 400977fc     LIBCMTD:frame.obj
 0002:0001580c       ??_C@_1BK@EPLNBKAK@?$AA_?$AAv?$AAs?$AAw?$AAp?$AAr?$AAi?$AAn?$AAt?$AAf?$AA_?$AAl?$AA?$AA@ 4009780c     LIBCMTD:vswprint.obj
 0002:00015828       ??_C@_1CG@IMMIEPNA@?$AA_?$AAv?$AAs?$AAc?$AAw?$AAp?$AAr?$AAi?$AAn?$AAt?$AAf?$AA_?$AAh?$AAe?$AAl?$AAp?$AAe?$AAr?$AA?$AA@ 40097828     LIBCMTD:vswprint.obj
 0002:00015850       ??_C@_1BC@HGPNAKGC@?$AAs?$AAt?$AAr?$AAc?$AAa?$AAt?$AA_?$AAs?$AA?$AA@ 40097850     LIBCMTD:strcat_s.obj
 0002:00015864       ??_C@_1O@GIMBNLEI@?$AAx?$AAt?$AAo?$AAa?$AA_?$AAs?$AA?$AA@ 40097864     LIBCMTD:xtoas.obj
 0002:00015874       ??_C@_1BC@MJJNBNFN@?$AAx?$AA6?$AA4?$AAt?$AAo?$AAa?$AA_?$AAs?$AA?$AA@ 40097874     LIBCMTD:xtoas.obj
 0002:00015888       ??_C@_1BE@EEKACIGI@?$AAs?$AA?5?$AA?$CB?$AA?$DN?$AA?5?$AAN?$AAU?$AAL?$AAL?$AA?$AA@ 40097888     LIBCMTD:mbstowcs.obj
 0002:000158a0       ??_C@_1GE@LCCDHBMH@?$AAf?$AA?3?$AA?2?$AAd?$AAd?$AA?2?$AAv?$AAc?$AAt?$AAo?$AAo?$AAl?$AAs?$AA?2?$AAc?$AAr?$AAt?$AA_?$AAb?$AAl?$AAd?$AA?2?$AAs?$AAe?$AAl?$AAf?$AA_?$AAx?$AA8?$AA6?$AA?2?$AAc@ 400978a0     LIBCMTD:mbstowcs.obj
 0002:00015904       ??_C@_1CG@JEHFHLNG@?$AA_?$AAm?$AAb?$AAs?$AAt?$AAo?$AAw?$AAc?$AAs?$AA_?$AAl?$AA_?$AAh?$AAe?$AAl?$AAp?$AAe?$AAr?$AA?$AA@ 40097904     LIBCMTD:mbstowcs.obj
 0002:00015930       ??_C@_1JA@JKDFMOPO@?$AA?$CI?$AAp?$AAw?$AAc?$AAs?$AA?5?$AA?$DN?$AA?$DN?$AA?5?$AAN?$AAU?$AAL?$AAL?$AA?5?$AA?$CG?$AA?$CG?$AA?5?$AAs?$AAi?$AAz?$AAe?$AAI?$AAn?$AAW?$AAo?$AAr?$AAd?$AAs?$AA?5?$AA?$DN?$AA?$DN?$AA?5@ 40097930     LIBCMTD:mbstowcs.obj
 0002:000159c0       ??_C@_1BM@PHENIGHD@?$AA_?$AAm?$AAb?$AAs?$AAt?$AAo?$AAw?$AAc?$AAs?$AA_?$AAs?$AA_?$AAl?$AA?$AA@ 400979c0     LIBCMTD:mbstowcs.obj
 0002:000159dc       ??_C@_1CM@LLECFMFH@?$AAb?$AAu?$AAf?$AAf?$AAe?$AAr?$AAS?$AAi?$AAz?$AAe?$AA?5?$AA?$DM?$AA?$DN?$AA?5?$AAI?$AAN?$AAT?$AA_?$AAM?$AAA?$AAX?$AA?$AA@ 400979dc     LIBCMTD:mbstowcs.obj
 0002:00015a08       ??_C@_1CO@JNPEPJAL@?$AAr?$AAe?$AAt?$AAs?$AAi?$AAz?$AAe?$AA?5?$AA?$DM?$AA?$DN?$AA?5?$AAs?$AAi?$AAz?$AAe?$AAI?$AAn?$AAW?$AAo?$AAr?$AAd?$AAs?$AA?$AA@ 40097a08     LIBCMTD:mbstowcs.obj
 0002:00015a38       ??_C@_1BK@OIBENBPM@?$AAp?$AAw?$AAc?$AAs?$AA?5?$AA?$CB?$AA?$DN?$AA?5?$AAN?$AAU?$AAL?$AAL?$AA?$AA@ 40097a38     LIBCMTD:wcstombs.obj
 0002:00015a58       ??_C@_1GE@OAENIBOD@?$AAf?$AA?3?$AA?2?$AAd?$AAd?$AA?2?$AAv?$AAc?$AAt?$AAo?$AAo?$AAl?$AAs?$AA?2?$AAc?$AAr?$AAt?$AA_?$AAb?$AAl?$AAd?$AA?2?$AAs?$AAe?$AAl?$AAf?$AA_?$AAx?$AA8?$AA6?$AA?2?$AAc@ 40097a58     LIBCMTD:wcstombs.obj
 0002:00015abc       ??_C@_1CG@LLJCAOHF@?$AA_?$AAw?$AAc?$AAs?$AAt?$AAo?$AAm?$AAb?$AAs?$AA_?$AAl?$AA_?$AAh?$AAe?$AAl?$AAp?$AAe?$AAr?$AA?$AA@ 40097abc     LIBCMTD:wcstombs.obj
 0002:00015ae8       ??_C@_1IM@MFGKHGBP@?$AA?$CI?$AAd?$AAs?$AAt?$AA?5?$AA?$CB?$AA?$DN?$AA?5?$AAN?$AAU?$AAL?$AAL?$AA?5?$AA?$CG?$AA?$CG?$AA?5?$AAs?$AAi?$AAz?$AAe?$AAI?$AAn?$AAB?$AAy?$AAt?$AAe?$AAs?$AA?5?$AA?$DO?$AA?5?$AA0?$AA?$CJ@ 40097ae8     LIBCMTD:wcstombs.obj
 0002:00015b74       ??_C@_1BM@BDMCLLDL@?$AA_?$AAw?$AAc?$AAs?$AAt?$AAo?$AAm?$AAb?$AAs?$AA_?$AAs?$AA_?$AAl?$AA?$AA@ 40097b74     LIBCMTD:wcstombs.obj
 0002:00015b90       ??_C@_1CM@KEOGBFLI@?$AAs?$AAi?$AAz?$AAe?$AAI?$AAn?$AAB?$AAy?$AAt?$AAe?$AAs?$AA?5?$AA?$DO?$AA?5?$AAr?$AAe?$AAt?$AAs?$AAi?$AAz?$AAe?$AA?$AA@ 40097b90     LIBCMTD:wcstombs.obj
 0002:00015bbc       ??_C@_1CE@PCFPEIFI@?$AA_?$AAv?$AAs?$AAn?$AAp?$AAr?$AAi?$AAn?$AAt?$AAf?$AA_?$AAh?$AAe?$AAl?$AAp?$AAe?$AAr?$AA?$AA@ 40097bbc     LIBCMTD:vsnprnc.obj
 0002:00015be0       ??_C@_1BM@BLJALHEF@?$AA_?$AAv?$AAs?$AAp?$AAr?$AAi?$AAn?$AAt?$AAf?$AA_?$AAs?$AA_?$AAl?$AA?$AA@ 40097be0     LIBCMTD:vsnprnc.obj
 0002:00015c00       ??_C@_1EE@OKCKIGFK@?$AAs?$AAt?$AAr?$AAi?$AAn?$AAg?$AA?5?$AA?$CB?$AA?$DN?$AA?5?$AAN?$AAU?$AAL?$AAL?$AA?5?$AA?$CG?$AA?$CG?$AA?5?$AAs?$AAi?$AAz?$AAe?$AAI?$AAn?$AAB?$AAy?$AAt?$AAe?$AAs?$AA?5?$AA?$DO?$AA?5@ 40097c00     LIBCMTD:vsnprnc.obj
 0002:00015c44       ??_C@_1BO@MMPELNIM@?$AA_?$AAv?$AAs?$AAn?$AAp?$AAr?$AAi?$AAn?$AAt?$AAf?$AA_?$AAs?$AA_?$AAl?$AA?$AA@ 40097c44     LIBCMTD:vsnprnc.obj
 0002:00015c68       ??_C@_1GO@DHMODCKM@?$AAf?$AA?3?$AA?2?$AAd?$AAd?$AA?2?$AAv?$AAc?$AAt?$AAo?$AAo?$AAl?$AAs?$AA?2?$AAc?$AAr?$AAt?$AA_?$AAb?$AAl?$AAd?$AA?2?$AAs?$AAe?$AAl?$AAf?$AA_?$AAx?$AA8?$AA6?$AA?2?$AAc@ 40097c68     LIBCMTD:wmakepath_s.obj
 0002:00015cd8       ??_C@_1BK@KHBCJPCH@?$AA_?$AAw?$AAm?$AAa?$AAk?$AAe?$AAp?$AAa?$AAt?$AAh?$AA_?$AAs?$AA?$AA@ 40097cd8     LIBCMTD:wmakepath_s.obj
 0002:00015cf4       ??_C@_1CI@MLPLHPBP@?$AA?$CI?$AA?$CI?$AA?$CI?$AA_?$AAP?$AAa?$AAt?$AAh?$AA?$CJ?$AA?$CJ?$AA?$CJ?$AA?5?$AA?$CB?$AA?$DN?$AA?5?$AAN?$AAU?$AAL?$AAL?$AA?$AA@ 40097cf4     LIBCMTD:wsplitpath_s.obj
 0002:00015d20       ??_C@_1HA@GHKPFCBF@?$AAf?$AA?3?$AA?2?$AAd?$AAd?$AA?2?$AAv?$AAc?$AAt?$AAo?$AAo?$AAl?$AAs?$AA?2?$AAc?$AAr?$AAt?$AA_?$AAb?$AAl?$AAd?$AA?2?$AAs?$AAe?$AAl?$AAf?$AA_?$AAx?$AA8?$AA6?$AA?2?$AAc@ 40097d20     LIBCMTD:wsplitpath_s.obj
 0002:00015d90       ??_C@_1BM@OEAFIBCF@?$AA_?$AAw?$AAs?$AAp?$AAl?$AAi?$AAt?$AAp?$AAa?$AAt?$AAh?$AA_?$AAs?$AA?$AA@ 40097d90     LIBCMTD:wsplitpath_s.obj
 0002:00015dac       ??_C@_1DE@MLEJGPLF@?$AA?$CI?$AAL?$AA?$CC?$AAI?$AAn?$AAv?$AAa?$AAl?$AAi?$AAd?$AA?5?$AAp?$AAa?$AAr?$AAa?$AAm?$AAe?$AAt?$AAe?$AAr?$AA?$CC?$AA?0?$AA?5?$AA0?$AA?$CJ?$AA?$AA@ 40097dac     LIBCMTD:wsplitpath_s.obj
 0002:00015de0       ??_C@_1HG@HFJMHCFK@?$AAf?$AA?3?$AA?2?$AAd?$AAd?$AA?2?$AAv?$AAc?$AAt?$AAo?$AAo?$AAl?$AAs?$AA?2?$AAc?$AAr?$AAt?$AA_?$AAb?$AAl?$AAd?$AA?2?$AAs?$AAe?$AAl?$AAf?$AA_?$AAx?$AA8?$AA6?$AA?2?$AAc@ 40097de0     LIBCMTD:x10fout.obj
 0002:00015e58       ??_C@_1BI@ELMAAFLN@?$AA$?$AAI?$AA1?$AA0?$AA_?$AAO?$AAU?$AAT?$AAP?$AAU?$AAT?$AA?$AA@ 40097e58     LIBCMTD:x10fout.obj
 0002:00015e70       ??_C@_1EG@CDDBFNOB@?$AAs?$AAt?$AAr?$AAc?$AAp?$AAy?$AA_?$AAs?$AA?$CI?$AAf?$AAo?$AAs?$AA?9?$AA?$DO?$AAm?$AAa?$AAn?$AA?0?$AA?5?$AA2?$AA1?$AA?$CL?$AA1?$AA?0?$AA?5?$AA?$CC?$AA1?$AA?$CD?$AAS?$AAN?$AAA?$AAN@ 40097e70     LIBCMTD:x10fout.obj
 0002:00015eb8       ??_C@_06PGGFOGJG@1?$CDSNAN?$AA@ 40097eb8     LIBCMTD:x10fout.obj
 0002:00015ec0       ??_C@_1EE@MADEBIHF@?$AAs?$AAt?$AAr?$AAc?$AAp?$AAy?$AA_?$AAs?$AA?$CI?$AAf?$AAo?$AAs?$AA?9?$AA?$DO?$AAm?$AAa?$AAn?$AA?0?$AA?5?$AA2?$AA1?$AA?$CL?$AA1?$AA?0?$AA?5?$AA?$CC?$AA1?$AA?$CD?$AAI?$AAN?$AAD?$AA?$CC@ 40097ec0     LIBCMTD:x10fout.obj
 0002:00015f04       ??_C@_05PHHOCPM@1?$CDIND?$AA@ 40097f04     LIBCMTD:x10fout.obj
 0002:00015f10       ??_C@_1EE@ICBBBPAI@?$AAs?$AAt?$AAr?$AAc?$AAp?$AAy?$AA_?$AAs?$AA?$CI?$AAf?$AAo?$AAs?$AA?9?$AA?$DO?$AAm?$AAa?$AAn?$AA?0?$AA?5?$AA2?$AA1?$AA?$CL?$AA1?$AA?0?$AA?5?$AA?$CC?$AA1?$AA?$CD?$AAI?$AAN?$AAF?$AA?$CC@ 40097f10     LIBCMTD:x10fout.obj
 0002:00015f54       ??_C@_05DNEBIAHO@1?$CDINF?$AA@ 40097f54     LIBCMTD:x10fout.obj
 0002:00015f60       ??_C@_1EG@MCFPJJEM@?$AAs?$AAt?$AAr?$AAc?$AAp?$AAy?$AA_?$AAs?$AA?$CI?$AAf?$AAo?$AAs?$AA?9?$AA?$DO?$AAm?$AAa?$AAn?$AA?0?$AA?5?$AA2?$AA1?$AA?$CL?$AA1?$AA?0?$AA?5?$AA?$CC?$AA1?$AA?$CD?$AAQ?$AAN?$AAA?$AAN@ 40097f60     LIBCMTD:x10fout.obj
 0002:00015fa8       ??_C@_06IMKFLFPG@1?$CDQNAN?$AA@ 40097fa8     LIBCMTD:x10fout.obj
 0002:00015fb0       ?commonFlags@?1??_control87@@9@9 40097fb0     LIBCMTD:ieee87.obj
 0002:00015fb8       ??_C@_1HO@BFDKGHOI@?$AAf?$AA?3?$AA?2?$AAd?$AAd?$AA?2?$AAv?$AAc?$AAt?$AAo?$AAo?$AAl?$AAs?$AA?2?$AAc?$AAr?$AAt?$AA_?$AAb?$AAl?$AAd?$AA?2?$AAs?$AAe?$AAl?$AAf?$AA_?$AAx?$AA8?$AA6?$AA?2?$AAc@ 40097fb8     LIBCMTD:ieee87.obj
 0002:00016038       ??_C@_1BO@OFDNCLL@?$AA_?$AAs?$AAe?$AAt?$AA_?$AAc?$AAo?$AAn?$AAt?$AAr?$AAo?$AAl?$AAf?$AAp?$AA?$AA@ 40098038     LIBCMTD:ieee87.obj
 0002:00016058       ??_C@_1GO@OKJGOMCB@?$AA_?$AAc?$AAo?$AAn?$AAt?$AAr?$AAo?$AAl?$AAf?$AAp?$AA_?$AAs?$AA?$CI?$AA?$CI?$AA?$CI?$AAv?$AAo?$AAi?$AAd?$AA?5?$AA?$CK?$AA?$CJ?$AA0?$AA?$CJ?$AA?0?$AA?5?$AAn?$AAe?$AAw?$AAc?$AAt?$AAr@ 40098058     LIBCMTD:ieee87.obj
 0002:000160c8       ??_C@_1BE@NDMJHJJG@?$AAs?$AAt?$AAr?$AAn?$AAc?$AAp?$AAy?$AA_?$AAs?$AA?$AA@ 400980c8     LIBCMTD:strncpy_s.obj
 0002:000160e0       ??_C@_1GA@KMIDAPAP@?$AAf?$AA?3?$AA?2?$AAd?$AAd?$AA?2?$AAv?$AAc?$AAt?$AAo?$AAo?$AAl?$AAs?$AA?2?$AAc?$AAr?$AAt?$AA_?$AAb?$AAl?$AAd?$AA?2?$AAs?$AAe?$AAl?$AAf?$AA_?$AAx?$AA8?$AA6?$AA?2?$AAc@ 400980e0     LIBCMTD:fclose.obj
 0002:00016140       ??_C@_1O@EGMJNCOI@?$AAf?$AAc?$AAl?$AAo?$AAs?$AAe?$AA?$AA@ 40098140     LIBCMTD:fclose.obj
 0002:00016150       ??_C@_1BO@JINCABEC@?$AA_?$AAf?$AAc?$AAl?$AAo?$AAs?$AAe?$AA_?$AAn?$AAo?$AAl?$AAo?$AAc?$AAk?$AA?$AA@ 40098150     LIBCMTD:fclose.obj
 0002:00016170       ??_C@_0DB@KIKNCIEC@f?3?2dd?2vctools?2crt_bld?2self_x86?2c@ 40098170     LIBCMTD:osfinfo.obj
 0002:000161a8       ??_C@_1GC@MLKLDJJG@?$AAf?$AA?3?$AA?2?$AAd?$AAd?$AA?2?$AAv?$AAc?$AAt?$AAo?$AAo?$AAl?$AAs?$AA?2?$AAc?$AAr?$AAt?$AA_?$AAb?$AAl?$AAd?$AA?2?$AAs?$AAe?$AAl?$AAf?$AA_?$AAx?$AA8?$AA6?$AA?2?$AAc@ 400981a8     LIBCMTD:osfinfo.obj
 0002:0001620c       ??_C@_1BO@EMBOBGKE@?$AA_?$AAg?$AAe?$AAt?$AA_?$AAo?$AAs?$AAf?$AAh?$AAa?$AAn?$AAd?$AAl?$AAe?$AA?$AA@ 4009820c     LIBCMTD:osfinfo.obj
 0002:00016230       ??_C@_1NC@EINCOKCO@?$AA_?$AAl?$AAo?$AAc?$AA_?$AAu?$AAp?$AAd?$AAa?$AAt?$AAe?$AA?4?$AAG?$AAe?$AAt?$AAL?$AAo?$AAc?$AAa?$AAl?$AAe?$AAT?$AA?$CI?$AA?$CJ?$AA?9?$AA?$DO?$AAl?$AAo?$AAc?$AAi?$AAn?$AAf@ 40098230     LIBCMTD:mbtowc.obj
 0002:00016308       ??_C@_1GA@GFFDGGFH@?$AAf?$AA?3?$AA?2?$AAd?$AAd?$AA?2?$AAv?$AAc?$AAt?$AAo?$AAo?$AAl?$AAs?$AA?2?$AAc?$AAr?$AAt?$AA_?$AAb?$AAl?$AAd?$AA?2?$AAs?$AAe?$AAl?$AAf?$AA_?$AAx?$AA8?$AA6?$AA?2?$AAc@ 40098308     LIBCMTD:mbtowc.obj
 0002:00016368       ??_C@_1GA@BJIGKGEA@?$AAf?$AA?3?$AA?2?$AAd?$AAd?$AA?2?$AAv?$AAc?$AAt?$AAo?$AAo?$AAl?$AAs?$AA?2?$AAc?$AAr?$AAt?$AA_?$AAb?$AAl?$AAd?$AA?2?$AAs?$AAe?$AAl?$AAf?$AA_?$AAx?$AA8?$AA6?$AA?2?$AAc@ 40098368     LIBCMTD:fputwc.obj
 0002:000163c8       ??_C@_1O@HJNPHHHB@?$AAf?$AAp?$AAu?$AAt?$AAw?$AAc?$AA?$AA@ 400983c8     LIBCMTD:fputwc.obj
 0002:000163d8       ??_C@_1GA@CADFOND@?$AAf?$AA?3?$AA?2?$AAd?$AAd?$AA?2?$AAv?$AAc?$AAt?$AAo?$AAo?$AAl?$AAs?$AA?2?$AAc?$AAr?$AAt?$AA_?$AAb?$AAl?$AAd?$AA?2?$AAs?$AAe?$AAl?$AAf?$AA_?$AAx?$AA8?$AA6?$AA?2?$AAc@ 400983d8     LIBCMTD:wcstol.obj
 0002:00016438       ??_C@_1BA@PCFLFGNC@?$AAw?$AAc?$AAs?$AAt?$AAo?$AAx?$AAl?$AA?$AA@ 40098438     LIBCMTD:wcstol.obj
 0002:00016448       ??_C@_1GC@DHFFJKMC@?$AAf?$AA?3?$AA?2?$AAd?$AAd?$AA?2?$AAv?$AAc?$AAt?$AAo?$AAo?$AAl?$AAs?$AA?2?$AAc?$AAr?$AAt?$AA_?$AAb?$AAl?$AAd?$AA?2?$AAs?$AAe?$AAl?$AAf?$AA_?$AAx?$AA8?$AA6?$AA?2?$AAc@ 40098448     LIBCMTD:vprintf.obj
 0002:000164ac       ??_C@_1BO@JGFPDJCP@?$AAv?$AAp?$AAr?$AAi?$AAn?$AAt?$AAf?$AA_?$AAh?$AAe?$AAl?$AAp?$AAe?$AAr?$AA?$AA@ 400984ac     LIBCMTD:vprintf.obj
 0002:000164d0       ??_C@_1GC@MHLPCCAP@?$AAf?$AA?3?$AA?2?$AAd?$AAd?$AA?2?$AAv?$AAc?$AAt?$AAo?$AAo?$AAl?$AAs?$AA?2?$AAc?$AAr?$AAt?$AA_?$AAb?$AAl?$AAd?$AA?2?$AAs?$AAe?$AAl?$AAf?$AA_?$AAx?$AA8?$AA6?$AA?2?$AAc@ 400984d0     LIBCMTD:wcsicmp.obj
 0002:00016534       ??_C@_1BG@EELGPCPD@?$AA_?$AAw?$AAc?$AAs?$AAi?$AAc?$AAm?$AAp?$AA_?$AAl?$AA?$AA@ 40098534     LIBCMTD:wcsicmp.obj
 0002:0001654c       ??_C@_1BC@NHIBDOMC@?$AA_?$AAw?$AAc?$AAs?$AAi?$AAc?$AAm?$AAp?$AA?$AA@ 4009854c     LIBCMTD:wcsicmp.obj
 0002:00016560       ??_C@_1BM@CBACDFHA@?$AAf?$AAi?$AAr?$AAs?$AAt?$AA?5?$AA?$CB?$AA?$DN?$AA?5?$AAN?$AAU?$AAL?$AAL?$AA?$AA@ 40098560     LIBCMTD:wcsnicmp.obj
 0002:00016580       ??_C@_1GE@JMKOMBJH@?$AAf?$AA?3?$AA?2?$AAd?$AAd?$AA?2?$AAv?$AAc?$AAt?$AAo?$AAo?$AAl?$AAs?$AA?2?$AAc?$AAr?$AAt?$AA_?$AAb?$AAl?$AAd?$AA?2?$AAs?$AAe?$AAl?$AAf?$AA_?$AAx?$AA8?$AA6?$AA?2?$AAc@ 40098580     LIBCMTD:wcsnicmp.obj
 0002:000165e4       ??_C@_1BI@KLMFNDBC@?$AA_?$AAw?$AAc?$AAs?$AAn?$AAi?$AAc?$AAm?$AAp?$AA_?$AAl?$AA?$AA@ 400985e4     LIBCMTD:wcsnicmp.obj
 0002:000165fc       ??_C@_1BK@LKBOPAFJ@?$AAl?$AAa?$AAs?$AAt?$AA?5?$AA?$CB?$AA?$DN?$AA?5?$AAN?$AAU?$AAL?$AAL?$AA?$AA@ 400985fc     LIBCMTD:wcsnicmp.obj
 0002:00016618       ??_C@_1BE@JKOKKFEL@?$AA_?$AAw?$AAc?$AAs?$AAn?$AAi?$AAc?$AAm?$AAp?$AA?$AA@ 40098618     LIBCMTD:wcsnicmp.obj
 0002:00016630       ??_C@_1GE@BDAODJCD@?$AAf?$AA?3?$AA?2?$AAd?$AAd?$AA?2?$AAv?$AAc?$AAt?$AAo?$AAo?$AAl?$AAs?$AA?2?$AAc?$AAr?$AAt?$AA_?$AAb?$AAl?$AAd?$AA?2?$AAs?$AAe?$AAl?$AAf?$AA_?$AAx?$AA8?$AA6?$AA?2?$AAc@ 40098630     LIBCMTD:dbgdel.obj
 0002:00016698       ??_7type_info@@6B@         40098698     LIBCMTD:typinfo.obj
 0002:000166a0       ??_7exception@std@@6B@     400986a0     LIBCMTD:stdexcpt.obj
 0002:000166a8       ??_C@_0BC@EOODALEL@Unknown?5exception?$AA@ 400986a8     LIBCMTD:stdexcpt.obj
 0002:000166c0       ??_7bad_cast@std@@6B@      400986c0     LIBCMTD:stdexcpt.obj
 0002:000166cc       ??_7bad_typeid@std@@6B@    400986cc     LIBCMTD:stdexcpt.obj
 0002:000166d8       ??_7__non_rtti_object@std@@6B@ 400986d8     LIBCMTD:stdexcpt.obj
 0002:00016700       ??_C@_1FO@NNGNFGFH@?$AAf?$AA?3?$AA?2?$AAd?$AAd?$AA?2?$AAv?$AAc?$AAt?$AAo?$AAo?$AAl?$AAs?$AA?2?$AAc?$AAr?$AAt?$AA_?$AAb?$AAl?$AAd?$AA?2?$AAs?$AAe?$AAl?$AAf?$AA_?$AAx?$AA8?$AA6?$AA?2?$AAc@ 40098700     LIBCMTD:close.obj
 0002:00016760       ??_C@_1O@EDEJGJBM@?$AA_?$AAc?$AAl?$AAo?$AAs?$AAe?$AA?$AA@ 40098760     LIBCMTD:close.obj
 0002:00016770       ??_C@_1BA@BALFACEM@?$AAC?$AAO?$AAN?$AAO?$AAU?$AAT?$AA$?$AA?$AA@ 40098770     LIBCMTD:initcon.obj
 0002:00016780       ??_C@_1GA@OFLNHKCJ@?$AAf?$AA?3?$AA?2?$AAd?$AAd?$AA?2?$AAv?$AAc?$AAt?$AAo?$AAo?$AAl?$AAs?$AA?2?$AAc?$AAr?$AAt?$AA_?$AAb?$AAl?$AAd?$AA?2?$AAs?$AAe?$AAl?$AAf?$AA_?$AAx?$AA8?$AA6?$AA?2?$AAc@ 40098780     LIBCMTD:wcstoq.obj
 0002:000167e0       ??_C@_1BA@FACINJJA@?$AAw?$AAc?$AAs?$AAt?$AAo?$AAx?$AAq?$AA?$AA@ 400987e0     LIBCMTD:wcstoq.obj
 0002:000167f0       ??_C@_1CK@GELGGBDK@?$AAp?$AAN?$AAo?$AAd?$AAe?$AA?9?$AA?$DO?$AA_?$AAN?$AAe?$AAx?$AAt?$AA?5?$AA?$CB?$AA?$DN?$AA?5?$AAN?$AAU?$AAL?$AAL?$AA?$AA@ 400987f0     LIBCMTD:typname.obj
 0002:00016820       ??_C@_1HG@KNCBMCDD@?$AAf?$AA?3?$AA?2?$AAd?$AAd?$AA?2?$AAv?$AAc?$AAt?$AAo?$AAo?$AAl?$AAs?$AA?2?$AAc?$AAr?$AAt?$AA_?$AAb?$AAl?$AAd?$AA?2?$AAs?$AAe?$AAl?$AAf?$AA_?$AAx?$AA8?$AA6?$AA?2?$AAc@ 40098820     LIBCMTD:typname.obj
 0002:00016898       ??_C@_1CM@OOICDMK@?$AAt?$AAy?$AAp?$AAe?$AA_?$AAi?$AAn?$AAf?$AAo?$AA?3?$AA?3?$AA_?$AAN?$AAa?$AAm?$AAe?$AA_?$AAb?$AAa?$AAs?$AAe?$AA?$AA@ 40098898     LIBCMTD:typname.obj
 0002:000168c8       ??_C@_1JK@NAFNEPGC@?$AAs?$AAt?$AAr?$AAc?$AAp?$AAy?$AA_?$AAs?$AA?5?$AA?$CI?$AA?$CI?$AAc?$AAh?$AAa?$AAr?$AA?5?$AA?$CK?$AA?$CJ?$AA?$CI?$AA?$CI?$AAt?$AAy?$AAp?$AAe?$AA_?$AAi?$AAn?$AAf?$AAo?$AA?5?$AA?$CK?$AA?$CJ@ 400988c8     LIBCMTD:typname.obj
 0002:00016964       ??_C@_1DO@OJJLFJPE@?$AAt?$AAy?$AAp?$AAe?$AA_?$AAi?$AAn?$AAf?$AAo?$AA?3?$AA?3?$AA_?$AAN?$AAa?$AAm?$AAe?$AA_?$AAb?$AAa?$AAs?$AAe?$AA_?$AAi?$AAn?$AAt?$AAe?$AAr?$AAn?$AAa?$AAl?$AA?$AA@ 40098964     LIBCMTD:typname.obj
 0002:000169a8       ??_C@_1GI@EAJKJPED@?$AAs?$AAt?$AAr?$AAc?$AAp?$AAy?$AA_?$AAs?$AA?5?$AA?$CI?$AAp?$AAT?$AAm?$AAp?$AAT?$AAy?$AAp?$AAe?$AAN?$AAa?$AAm?$AAe?$AA?0?$AA?5?$AAl?$AAe?$AAn?$AA?$CL?$AA2?$AA?0?$AA?5?$AA?$CI@ 400989a8     LIBCMTD:typname.obj
 0002:00016b98       ??_C@_08EHJDFFNH@__based?$CI?$AA@ 40098b98     LIBCMTD:undname.obj
 0002:00016ba4       ??_C@_07KOLFKCDI@__cdecl?$AA@ 40098ba4     LIBCMTD:undname.obj
 0002:00016bac       ??_C@_08GHMPAG@__pascal?$AA@ 40098bac     LIBCMTD:undname.obj
 0002:00016bb8       ??_C@_09IFJBGAPI@__stdcall?$AA@ 40098bb8     LIBCMTD:undname.obj
 0002:00016bc4       ??_C@_0L@NPHFGOKO@__thiscall?$AA@ 40098bc4     LIBCMTD:undname.obj
 0002:00016bd0       ??_C@_0L@JMKHOMEK@__fastcall?$AA@ 40098bd0     LIBCMTD:undname.obj
 0002:00016bdc       ??_C@_09HIJEGCPM@__clrcall?$AA@ 40098bdc     LIBCMTD:undname.obj
 0002:00016be8       ??_C@_06GHPCKEAG@__eabi?$AA@ 40098be8     LIBCMTD:undname.obj
 0002:00016bf0       ??_C@_07JOMMBBKO@__ptr64?$AA@ 40098bf0     LIBCMTD:undname.obj
 0002:00016bf8       ??_C@_0L@PILCLIHE@__restrict?$AA@ 40098bf8     LIBCMTD:undname.obj
 0002:00016c04       ??_C@_0M@GFIIJFMG@__unaligned?$AA@ 40098c04     LIBCMTD:undname.obj
 0002:00016c10       ??_C@_09DHDLOLLB@restrict?$CI?$AA@ 40098c10     LIBCMTD:undname.obj
 0002:00016c1c       ??_C@_04NIHEBCM@?5new?$AA@ 40098c1c     LIBCMTD:undname.obj
 0002:00016c24       ??_C@_07FPCDHGMM@?5delete?$AA@ 40098c24     LIBCMTD:undname.obj
 0002:00016c2c       ??_C@_01NEMOKFLO@?$DN?$AA@ 40098c2c     LIBCMTD:undname.obj
 0002:00016c30       ??_C@_02GPIOPFAK@?$DO?$DO?$AA@ 40098c30     LIBCMTD:undname.obj
 0002:00016c34       ??_C@_02FODMEDOG@?$DM?$DM?$AA@ 40098c34     LIBCMTD:undname.obj
 0002:00016c38       ??_C@_01DCLJPIOD@?$CB?$AA@ 40098c38     LIBCMTD:undname.obj
 0002:00016c3c       ??_C@_02EGOFBIJA@?$DN?$DN?$AA@ 40098c3c     LIBCMTD:undname.obj
 0002:00016c40       ??_C@_02FDNJECIE@?$CB?$DN?$AA@ 40098c40     LIBCMTD:undname.obj
 0002:00016c44       ??_C@_02GPECMEKF@?$FL?$FN?$AA@ 40098c44     LIBCMTD:undname.obj
 0002:00016c48       ??_C@_08LHJFAFGD@operator?$AA@ 40098c48     LIBCMTD:undname.obj
 0002:00016c54       ??_C@_02HBOOOICD@?9?$DO?$AA@ 40098c54     LIBCMTD:undname.obj
 0002:00016c58       ??_C@_01NBENCBCI@?$CK?$AA@ 40098c58     LIBCMTD:undname.obj
 0002:00016c5c       ??_C@_02ECNGHCIF@?$CL?$CL?$AA@ 40098c5c     LIBCMTD:undname.obj
 0002:00016c60       ??_C@_02BAABKJLB@?9?9?$AA@ 40098c60     LIBCMTD:undname.obj
 0002:00016c64       ??_C@_01JOAMLHOP@?9?$AA@   40098c64     LIBCMTD:undname.obj
 0002:00016c68       ??_C@_01MIFGBAGJ@?$CL?$AA@ 40098c68     LIBCMTD:undname.obj
 0002:00016c6c       ??_C@_01HNPIGOCE@?$CG?$AA@ 40098c6c     LIBCMTD:undname.obj
 0002:00016c70       ??_C@_03MNHNFDLC@?9?$DO?$CK?$AA@ 40098c70     LIBCMTD:undname.obj
 0002:00016c74       ??_C@_01FGNFDNOH@?$CF?$AA@ 40098c74     LIBCMTD:undname.obj
 0002:00016c78       ??_C@_01MNNFJEPP@?$DM?$AA@ 40098c78     LIBCMTD:undname.obj
 0002:00016c7c       ??_C@_02EHCHHCKH@?$DM?$DN?$AA@ 40098c7c     LIBCMTD:undname.obj
 0002:00016c80       ??_C@_01PPODPGHN@?$DO?$AA@ 40098c80     LIBCMTD:undname.obj
 0002:00016c84       ??_C@_02EEKDKGMJ@?$DO?$DN?$AA@ 40098c84     LIBCMTD:undname.obj
 0002:00016c88       ??_C@_01IHBHIGKO@?0?$AA@   40098c88     LIBCMTD:undname.obj
 0002:00016c8c       ??_C@_02HCKGKOFO@?$CI?$CJ?$AA@ 40098c8c     LIBCMTD:undname.obj
 0002:00016c90       ??_C@_01PJKLJHI@?$HO?$AA@  40098c90     LIBCMTD:undname.obj
 0002:00016c94       ??_C@_01JKBOJNNK@?$FO?$AA@ 40098c94     LIBCMTD:undname.obj
 0002:00016c98       ??_C@_01DNKMNLPK@?$HM?$AA@ 40098c98     LIBCMTD:undname.obj
 0002:00016c9c       ??_C@_02PPKAJPJL@?$CG?$CG?$AA@ 40098c9c     LIBCMTD:undname.obj
 0002:00016ca0       ??_C@_02NONPIBCD@?$HM?$HM?$AA@ 40098ca0     LIBCMTD:undname.obj
 0002:00016ca4       ??_C@_02FPIMKNGF@?$CK?$DN?$AA@ 40098ca4     LIBCMTD:undname.obj
 0002:00016ca8       ??_C@_02FOEOMHFC@?$CL?$DN?$AA@ 40098ca8     LIBCMTD:undname.obj
 0002:00016cac       ??_C@_02FKMDLLOA@?9?$DN?$AA@ 40098cac     LIBCMTD:undname.obj
 0002:00016cb0       ??_C@_02FJEHGPIO@?1?$DN?$AA@ 40098cb0     LIBCMTD:undname.obj
 0002:00016cb4       ??_C@_02FENAOKFI@?$CF?$DN?$AA@ 40098cb4     LIBCMTD:undname.obj
 0002:00016cb8       ??_C@_03IKFCCPFF@?$DO?$DO?$DN?$AA@ 40098cb8     LIBCMTD:undname.obj
 0002:00016cbc       ??_C@_03CDNPDDLA@?$DM?$DM?$DN?$AA@ 40098cbc     LIBCMTD:undname.obj
 0002:00016cc0       ??_C@_02FGJGFEAB@?$CG?$DN?$AA@ 40098cc0     LIBCMTD:undname.obj
 0002:00016cc4       ??_C@_02DHLNPPGH@?$HM?$DN?$AA@ 40098cc4     LIBCMTD:undname.obj
 0002:00016cc8       ??_C@_02MHEGNOJ@?$FO?$DN?$AA@ 40098cc8     LIBCMTD:undname.obj
 0002:00016ccc       ??_C@_09IFPLHPGF@?$GAvftable?8?$AA@ 40098ccc     LIBCMTD:undname.obj
 0002:00016cd8       ??_C@_09BLBHBJP@?$GAvbtable?8?$AA@ 40098cd8     LIBCMTD:undname.obj
 0002:00016ce4       ??_C@_07FEEIOKP@?$GAvcall?8?$AA@ 40098ce4     LIBCMTD:undname.obj
 0002:00016cec       ??_C@_08LLFFHHDJ@?$GAtypeof?8?$AA@ 40098cec     LIBCMTD:undname.obj
 0002:00016cf8       ??_C@_0BF@KDPPACIK@?$GAlocal?5static?5guard?8?$AA@ 40098cf8     LIBCMTD:undname.obj
 0002:00016d10       ??_C@_08OBABFOLI@?$GAstring?8?$AA@ 40098d10     LIBCMTD:undname.obj
 0002:00016d1c       ??_C@_0BD@JDLKDPAB@?$GAvbase?5destructor?8?$AA@ 40098d1c     LIBCMTD:undname.obj
 0002:00016d30       ??_C@_0BN@DEGPLNFK@?$GAvector?5deleting?5destructor?8?$AA@ 40098d30     LIBCMTD:undname.obj
 0002:00016d50       ??_C@_0BO@OBMKPJIG@?$GAdefault?5constructor?5closure?8?$AA@ 40098d50     LIBCMTD:undname.obj
 0002:00016d70       ??_C@_0BN@IMDCHIKM@?$GAscalar?5deleting?5destructor?8?$AA@ 40098d70     LIBCMTD:undname.obj
 0002:00016d90       ??_C@_0BO@PFGOCPJJ@?$GAvector?5constructor?5iterator?8?$AA@ 40098d90     LIBCMTD:undname.obj
 0002:00016db0       ??_C@_0BN@LFPFMEDL@?$GAvector?5destructor?5iterator?8?$AA@ 40098db0     LIBCMTD:undname.obj
 0002:00016dd0       ??_C@_0CE@IKBNEHA@?$GAvector?5vbase?5constructor?5iterat@ 40098dd0     LIBCMTD:undname.obj
 0002:00016df4       ??_C@_0BL@NILFHHPC@?$GAvirtual?5displacement?5map?8?$AA@ 40098df4     LIBCMTD:undname.obj
 0002:00016e10       ??_C@_0CB@JONCMFFK@?$GAeh?5vector?5constructor?5iterator?8@ 40098e10     LIBCMTD:undname.obj
 0002:00016e34       ??_C@_0CA@GCEOPDGL@?$GAeh?5vector?5destructor?5iterator?8?$AA@ 40098e34     LIBCMTD:undname.obj
 0002:00016e54       ??_C@_0CH@OOJPLCPH@?$GAeh?5vector?5vbase?5constructor?5ite@ 40098e54     LIBCMTD:undname.obj
 0002:00016e7c       ??_C@_0BL@LLKPOHJI@?$GAcopy?5constructor?5closure?8?$AA@ 40098e7c     LIBCMTD:undname.obj
 0002:00016e98       ??_C@_0BA@KBCDOMBN@?$GAudt?5returning?8?$AA@ 40098e98     LIBCMTD:undname.obj
 0002:00016ea8       ??_C@_03KLGMFNMG@?$GAEH?$AA@ 40098ea8     LIBCMTD:undname.obj
 0002:00016eac       ??_C@_05KHLCHHI@?$GARTTI?$AA@ 40098eac     LIBCMTD:undname.obj
 0002:00016eb4       ??_C@_0BA@KKLDJDLB@?$GAlocal?5vftable?8?$AA@ 40098eb4     LIBCMTD:undname.obj
 0002:00016ec4       ??_C@_0CE@IIHCMGGL@?$GAlocal?5vftable?5constructor?5closu@ 40098ec4     LIBCMTD:undname.obj
 0002:00016ee8       ??_C@_06FHBGPFGH@?5new?$FL?$FN?$AA@ 40098ee8     LIBCMTD:undname.obj
 0002:00016ef0       ??_C@_09LBNFPBCA@?5delete?$FL?$FN?$AA@ 40098ef0     LIBCMTD:undname.obj
 0002:00016efc       ??_C@_0P@HJKNJFNN@?$GAomni?5callsig?8?$AA@ 40098efc     LIBCMTD:undname.obj
 0002:00016f0c       ??_C@_0BL@CNOONJFP@?$GAplacement?5delete?5closure?8?$AA@ 40098f0c     LIBCMTD:undname.obj
 0002:00016f28       ??_C@_0BN@CKNJLHMB@?$GAplacement?5delete?$FL?$FN?5closure?8?$AA@ 40098f28     LIBCMTD:undname.obj
 0002:00016f48       ??_C@_0CG@CFDHKGGD@?$GAmanaged?5vector?5constructor?5iter@ 40098f48     LIBCMTD:undname.obj
 0002:00016f70       ??_C@_0CF@IMGKMJNO@?$GAmanaged?5vector?5destructor?5itera@ 40098f70     LIBCMTD:undname.obj
 0002:00016f98       ??_C@_0CG@HLDDJMAG@?$GAeh?5vector?5copy?5constructor?5iter@ 40098f98     LIBCMTD:undname.obj
 0002:00016fc0       ??_C@_0CM@FCBBDIGB@?$GAeh?5vector?5vbase?5copy?5constructo@ 40098fc0     LIBCMTD:undname.obj
 0002:00016fec       ??_C@_0BL@CLIPGLGB@?$GAdynamic?5initializer?5for?5?8?$AA@ 40098fec     LIBCMTD:undname.obj
 0002:00017008       ??_C@_0CB@PDBIFEP@?$GAdynamic?5atexit?5destructor?5for?5?8@ 40099008     LIBCMTD:undname.obj
 0002:0001702c       ??_C@_0CD@CGAJBKEJ@?$GAvector?5copy?5constructor?5iterato@ 4009902c     LIBCMTD:undname.obj
 0002:00017050       ??_C@_0CJ@GJELGAMM@?$GAvector?5vbase?5copy?5constructor?5i@ 40099050     LIBCMTD:undname.obj
 0002:0001707c       ??_C@_0CL@FGIJHLCE@?$GAmanaged?5vector?5copy?5constructor@ 4009907c     LIBCMTD:undname.obj
 0002:000170a8       ??_C@_0BM@PMGGMLDN@?$GAlocal?5static?5thread?5guard?8?$AA@ 400990a8     LIBCMTD:undname.obj
 0002:000170c4       ??_C@_0BC@DAFEJGAK@?5Type?5Descriptor?8?$AA@ 400990c4     LIBCMTD:undname.obj
 0002:000170d8       ??_C@_0BM@LDKODKLH@?5Base?5Class?5Descriptor?5at?5?$CI?$AA@ 400990d8     LIBCMTD:undname.obj
 0002:000170f4       ??_C@_0BD@LGICGFMM@?5Base?5Class?5Array?8?$AA@ 400990f4     LIBCMTD:undname.obj
 0002:00017108       ??_C@_0BN@MECKDCOJ@?5Class?5Hierarchy?5Descriptor?8?$AA@ 40099108     LIBCMTD:undname.obj
 0002:00017128       ??_C@_0BK@CFCOFLF@?5Complete?5Object?5Locator?8?$AA@ 40099128     LIBCMTD:undname.obj
 0002:00017144       ??_C@_04HEJADOOB@CV?3?5?$AA@ 40099144     LIBCMTD:undname.obj
 0002:0001714c       ??_C@_02MOLJINC@?3?3?$AA@  4009914c     LIBCMTD:undname.obj
 0002:00017150       ??_C@_0BE@JAEOCHPE@template?9parameter?9?$AA@ 40099150     LIBCMTD:undname.obj
 0002:00017164       ??_C@_0O@KHGCOMHP@generic?9type?9?$AA@ 40099164     LIBCMTD:undname.obj
 0002:00017174       ??_C@_01NLNLIGKH@?$GA?$AA@ 40099174     LIBCMTD:undname.obj
 0002:00017178       ??_C@_01GEODFPGF@?8?$AA@   40099178     LIBCMTD:undname.obj
 0002:0001717c       ??_C@_0BG@JNJLAMPM@?$GAanonymous?5namespace?8?$AA@ 4009917c     LIBCMTD:undname.obj
 0002:00017194       ??_C@_02OHHJMEON@?8?8?$AA@ 40099194     LIBCMTD:undname.obj
 0002:00017198       ??_C@_0BN@IBLMMFAP@?$GAnon?9type?9template?9parameter?$AA@ 40099198     LIBCMTD:undname.obj
 0002:000171b8       ??_C@_04GKJNKENE@void?$AA@ 400991b8     LIBCMTD:undname.obj
 0002:000171c0       ??_C@_0BE@EODMJLIF@?$GAtemplate?9parameter?$AA@ 400991c0     LIBCMTD:undname.obj
 0002:000171d4       ??_C@_04HIBGFPH@NULL?$AA@  400991d4     LIBCMTD:undname.obj
 0002:000171dc       ??_C@_03OPGICMGF@?$HN?8?5?$AA@ 400991dc     LIBCMTD:undname.obj
 0002:000171e0       ??_C@_02IGFCGPIL@?$HN?8?$AA@ 400991e0     LIBCMTD:undname.obj
 0002:000171e4       ??_C@_01CLKCMJKC@?5?$AA@   400991e4     LIBCMTD:undname.obj
 0002:000171e8       ??_C@_0N@CBHHHENL@?$GAvtordispex?$HL?$AA@ 400991e8     LIBCMTD:undname.obj
 0002:000171f8       ??_C@_0L@GHPFDFH@?$GAvtordisp?$HL?$AA@ 400991f8     LIBCMTD:undname.obj
 0002:00017204       ??_C@_0L@HNGCOGAE@?$GAadjustor?$HL?$AA@ 40099204     LIBCMTD:undname.obj
 0002:00017210       ??_C@_0CB@KJDOOODE@?$GAlocal?5static?5destructor?5helper?8@ 40099210     LIBCMTD:undname.obj
 0002:00017234       ??_C@_0DB@ILEFOCIJ@?$GAtemplate?5static?5data?5member?5con@ 40099234     LIBCMTD:undname.obj
 0002:00017268       ??_C@_0DA@HGFJFBBE@?$GAtemplate?5static?5data?5member?5des@ 40099268     LIBCMTD:undname.obj
 0002:00017298       ??_C@_07PGOEDBHP@static?5?$AA@ 40099298     LIBCMTD:undname.obj
 0002:000172a0       ??_C@_08NIEOINHE@virtual?5?$AA@ 400992a0     LIBCMTD:undname.obj
 0002:000172ac       ??_C@_09LAPHOOG@private?3?5?$AA@ 400992ac     LIBCMTD:undname.obj
 0002:000172b8       ??_C@_0M@GAIFPFIP@protected?3?5?$AA@ 400992b8     LIBCMTD:undname.obj
 0002:000172c4       ??_C@_08GPDDCMKI@public?3?5?$AA@ 400992c4     LIBCMTD:undname.obj
 0002:000172d0       ??_C@_08KJLFOPNE@?$FLthunk?$FN?3?$AA@ 400992d0     LIBCMTD:undname.obj
 0002:000172dc       ??_C@_0M@DHNBOJMP@extern?5?$CCC?$CC?5?$AA@ 400992dc     LIBCMTD:undname.obj
 0002:000172e8       ??_C@_02KCKGHPCA@?$CJ?5?$AA@ 400992e8     LIBCMTD:undname.obj
 0002:000172ec       ??_C@_05CIHEBHNO@char?5?$AA@ 400992ec     LIBCMTD:undname.obj
 0002:000172f4       ??_C@_06EHJMALKF@short?5?$AA@ 400992f4     LIBCMTD:undname.obj
 0002:000172fc       ??_C@_04LAHKHJMA@int?5?$AA@ 400992fc     LIBCMTD:undname.obj
 0002:00017304       ??_C@_05CJIMAING@long?5?$AA@ 40099304     LIBCMTD:undname.obj
 0002:0001730c       ??_C@_09EBBEKKIH@unsigned?5?$AA@ 4009930c     LIBCMTD:undname.obj
 0002:00017318       ??_C@_05BEFAKPML@void?5?$AA@ 40099318     LIBCMTD:undname.obj
 0002:00017320       ??_C@_08PABEKFH@volatile?$AA@ 40099320     LIBCMTD:undname.obj
 0002:0001732c       ??_C@_0P@GCOCNKDM@std?3?3nullptr_t?$AA@ 4009932c     LIBCMTD:undname.obj
 0002:0001733c       ??_C@_0L@EGPHHEKN@?$DMellipsis?$DO?$AA@ 4009933c     LIBCMTD:undname.obj
 0002:00017348       ??_C@_04EENFHACM@?0?4?4?4?$AA@ 40099348     LIBCMTD:undname.obj
 0002:00017350       ??_C@_0M@ELJOJFFH@?0?$DMellipsis?$DO?$AA@ 40099350     LIBCMTD:undname.obj
 0002:0001735c       ??_C@_07HDJPLPEK@?5throw?$CI?$AA@ 4009935c     LIBCMTD:undname.obj
 0002:00017364       ??_C@_03PBJBJNON@cpu?$AA@  40099364     LIBCMTD:undname.obj
 0002:00017368       ??_C@_03DCBBJBAA@amp?$AA@  40099368     LIBCMTD:undname.obj
 0002:0001736c       ??_C@_02KEGNLNML@?0?5?$AA@ 4009936c     LIBCMTD:undname.obj
 0002:00017370       ??_C@_04ENMBGAPA@char?$AA@ 40099370     LIBCMTD:undname.obj
 0002:00017378       ??_C@_05BFKKPKCG@short?$AA@ 40099378     LIBCMTD:undname.obj
 0002:00017380       ??_C@_03JBIPMCLC@int?$AA@  40099380     LIBCMTD:undname.obj
 0002:00017384       ??_C@_04GOKPGOLB@long?$AA@ 40099384     LIBCMTD:undname.obj
 0002:0001738c       ??_C@_05KNFBNCOH@float?$AA@ 4009938c     LIBCMTD:undname.obj
 0002:00017394       ??_C@_06BNJCAIGJ@double?$AA@ 40099394     LIBCMTD:undname.obj
 0002:0001739c       ??_C@_04DDKJGDCM@bool?$AA@ 4009939c     LIBCMTD:undname.obj
 0002:000173a4       ??_C@_06EBGKOKIG@__int8?$AA@ 400993a4     LIBCMTD:undname.obj
 0002:000173ac       ??_C@_07ICFHOGAF@__int16?$AA@ 400993ac     LIBCMTD:undname.obj
 0002:000173b4       ??_C@_07OFLPPHGP@__int32?$AA@ 400993b4     LIBCMTD:undname.obj
 0002:000173bc       ??_C@_07LFCOJCAC@__int64?$AA@ 400993bc     LIBCMTD:undname.obj
 0002:000173c4       ??_C@_08GAHOLHEO@__int128?$AA@ 400993c4     LIBCMTD:undname.obj
 0002:000173d0       ??_C@_09EEKGDCPH@?$DMunknown?$DO?$AA@ 400993d0     LIBCMTD:undname.obj
 0002:000173dc       ??_C@_07CLGGIAMF@wchar_t?$AA@ 400993dc     LIBCMTD:undname.obj
 0002:000173e4       ??_C@_06GCICPBLB@__w64?5?$AA@ 400993e4     LIBCMTD:undname.obj
 0002:000173ec       ??_C@_07NFANNNEC@UNKNOWN?$AA@ 400993ec     LIBCMTD:undname.obj
 0002:000173f4       ??_C@_07EDHNAJHC@signed?5?$AA@ 400993f4     LIBCMTD:undname.obj
 0002:000173fc       ??_C@_05BNCCCJPP@const?$AA@ 400993fc     LIBCMTD:undname.obj
 0002:00017404       ??_C@_09EFNPDFFP@?5volatile?$AA@ 40099404     LIBCMTD:undname.obj
 0002:00017410       ??_C@_0P@GCIFDJCJ@?$GAunknown?5ecsu?8?$AA@ 40099410     LIBCMTD:undname.obj
 0002:00017420       ??_C@_06MOJHIBMG@union?5?$AA@ 40099420     LIBCMTD:undname.obj
 0002:00017428       ??_C@_07DIBCDNGL@struct?5?$AA@ 40099428     LIBCMTD:undname.obj
 0002:00017430       ??_C@_06LJBABKPM@class?5?$AA@ 40099430     LIBCMTD:undname.obj
 0002:00017438       ??_C@_08KOFANOFK@coclass?5?$AA@ 40099438     LIBCMTD:undname.obj
 0002:00017444       ??_C@_0N@DLIEFKNA@cointerface?5?$AA@ 40099444     LIBCMTD:undname.obj
 0002:00017454       ??_C@_05LJGMCFOG@enum?5?$AA@ 40099454     LIBCMTD:undname.obj
 0002:0001745c       ??_C@_09GAIEOBLP@volatile?5?$AA@ 4009945c     LIBCMTD:undname.obj
 0002:00017468       ??_C@_06LIJLOJAG@const?5?$AA@ 40099468     LIBCMTD:undname.obj
 0002:00017470       ??_C@_0M@EALIELKG@cli?3?3array?$DM?$AA@ 40099470     LIBCMTD:undname.obj
 0002:0001747c       ??_C@_0O@GKABPPIF@cli?3?3pin_ptr?$DM?$AA@ 4009947c     LIBCMTD:undname.obj
 0002:0001748c       ??_C@_02GOGNNPBN@?$CJ?$FL?$AA@ 4009948c     LIBCMTD:undname.obj
 0002:00017490       ??_C@_06EEGAIFAK@?$HLflat?$HN?$AA@ 40099490     LIBCMTD:undname.obj
 0002:00017498       ??_C@_05JIBOFOHK@?$HLfor?5?$AA@ 40099498     LIBCMTD:undname.obj
 0002:000174a0       ??_C@_02MDINNEEG@s?5?$AA@  400994a0     LIBCMTD:undname.obj
 0002:000174a8       ??_7DNameNode@@6B@         400994a8     LIBCMTD:undname.obj
 0002:000174b8       ??_7charNode@@6B@          400994b8     LIBCMTD:undname.obj
 0002:000174c8       ??_7pcharNode@@6B@         400994c8     LIBCMTD:undname.obj
 0002:000174d8       ??_7pDNameNode@@6B@        400994d8     LIBCMTD:undname.obj
 0002:000174e8       ??_7DNameStatusNode@@6B@   400994e8     LIBCMTD:undname.obj
 0002:000174f8       ??_7pairNode@@6B@          400994f8     LIBCMTD:undname.obj
 0002:00017504       ??_C@_04OKOHEJBO@?5?$DP?$DP?5?$AA@ 40099504     LIBCMTD:undname.obj
 0002:00017510       __load_config_used         40099510     LIBCMTD:loadcfg.obj
 0002:000175c4       ??_R4bad_exception@std@@6B@ 400995c4     LIBCMTD:frame.obj
 0002:000175d8       ??_R3bad_exception@std@@8  400995d8     LIBCMTD:frame.obj
 0002:000175e8       ??_R2bad_exception@std@@8  400995e8     LIBCMTD:frame.obj
 0002:000175f4       ??_R1A@?0A@EA@bad_exception@std@@8 400995f4     LIBCMTD:frame.obj
 0002:00017610       ??_R1A@?0A@EA@exception@std@@8 40099610     LIBCMTD:frame.obj
 0002:0001762c       ??_R3exception@std@@8      4009962c     LIBCMTD:frame.obj
 0002:0001763c       ??_R2exception@std@@8      4009963c     LIBCMTD:frame.obj
 0002:00017644       ??_R4type_info@@6B@        40099644     LIBCMTD:typinfo.obj
 0002:00017658       ??_R3type_info@@8          40099658     LIBCMTD:typinfo.obj
 0002:00017668       ??_R2type_info@@8          40099668     LIBCMTD:typinfo.obj
 0002:00017670       ??_R1A@?0A@EA@type_info@@8 40099670     LIBCMTD:typinfo.obj
 0002:0001768c       ??_R4exception@std@@6B@    4009968c     LIBCMTD:stdexcpt.obj
 0002:000176a0       ??_R4bad_cast@std@@6B@     400996a0     LIBCMTD:stdexcpt.obj
 0002:000176b4       ??_R3bad_cast@std@@8       400996b4     LIBCMTD:stdexcpt.obj
 0002:000176c4       ??_R2bad_cast@std@@8       400996c4     LIBCMTD:stdexcpt.obj
 0002:000176d0       ??_R1A@?0A@EA@bad_cast@std@@8 400996d0     LIBCMTD:stdexcpt.obj
 0002:000176ec       ??_R4bad_typeid@std@@6B@   400996ec     LIBCMTD:stdexcpt.obj
 0002:00017700       ??_R3bad_typeid@std@@8     40099700     LIBCMTD:stdexcpt.obj
 0002:00017710       ??_R2bad_typeid@std@@8     40099710     LIBCMTD:stdexcpt.obj
 0002:0001771c       ??_R1A@?0A@EA@bad_typeid@std@@8 4009971c     LIBCMTD:stdexcpt.obj
 0002:00017738       ??_R4__non_rtti_object@std@@6B@ 40099738     LIBCMTD:stdexcpt.obj
 0002:0001774c       ??_R3__non_rtti_object@std@@8 4009974c     LIBCMTD:stdexcpt.obj
 0002:0001775c       ??_R2__non_rtti_object@std@@8 4009975c     LIBCMTD:stdexcpt.obj
 0002:0001776c       ??_R1A@?0A@EA@__non_rtti_object@std@@8 4009976c     LIBCMTD:stdexcpt.obj
 0002:00017788       ??_R4DNameNode@@6B@        40099788     LIBCMTD:undname.obj
 0002:0001779c       ??_R3DNameNode@@8          4009979c     LIBCMTD:undname.obj
 0002:000177ac       ??_R2DNameNode@@8          400997ac     LIBCMTD:undname.obj
 0002:000177b4       ??_R1A@?0A@EA@DNameNode@@8 400997b4     LIBCMTD:undname.obj
 0002:000177d0       ??_R4charNode@@6B@         400997d0     LIBCMTD:undname.obj
 0002:000177e4       ??_R3charNode@@8           400997e4     LIBCMTD:undname.obj
 0002:000177f4       ??_R2charNode@@8           400997f4     LIBCMTD:undname.obj
 0002:00017800       ??_R1A@?0A@EA@charNode@@8  40099800     LIBCMTD:undname.obj
 0002:0001781c       ??_R4pcharNode@@6B@        4009981c     LIBCMTD:undname.obj
 0002:00017830       ??_R3pcharNode@@8          40099830     LIBCMTD:undname.obj
 0002:00017840       ??_R2pcharNode@@8          40099840     LIBCMTD:undname.obj
 0002:0001784c       ??_R1A@?0A@EA@pcharNode@@8 4009984c     LIBCMTD:undname.obj
 0002:00017868       ??_R4pDNameNode@@6B@       40099868     LIBCMTD:undname.obj
 0002:0001787c       ??_R3pDNameNode@@8         4009987c     LIBCMTD:undname.obj
 0002:0001788c       ??_R2pDNameNode@@8         4009988c     LIBCMTD:undname.obj
 0002:00017898       ??_R1A@?0A@EA@pDNameNode@@8 40099898     LIBCMTD:undname.obj
 0002:000178b4       ??_R4DNameStatusNode@@6B@  400998b4     LIBCMTD:undname.obj
 0002:000178c8       ??_R3DNameStatusNode@@8    400998c8     LIBCMTD:undname.obj
 0002:000178d8       ??_R2DNameStatusNode@@8    400998d8     LIBCMTD:undname.obj
 0002:000178e4       ??_R1A@?0A@EA@DNameStatusNode@@8 400998e4     LIBCMTD:undname.obj
 0002:00017900       ??_R4pairNode@@6B@         40099900     LIBCMTD:undname.obj
 0002:00017914       ??_R3pairNode@@8           40099914     LIBCMTD:undname.obj
 0002:00017924       ??_R2pairNode@@8           40099924     LIBCMTD:undname.obj
 0002:00017930       ??_R1A@?0A@EA@pairNode@@8  40099930     LIBCMTD:undname.obj
 0002:00017950       ___safe_se_handler_table   40099950     <linker-defined>
 0002:00017980       ___rtc_iaa                 40099980     LIBCMTD:initsect.obj
 0002:00017a2c       ___rtc_izz                 40099a2c     LIBCMTD:initsect.obj
 0002:00017a30       ___rtc_taa                 40099a30     LIBCMTD:initsect.obj
 0002:00017adc       ___rtc_tzz                 40099adc     LIBCMTD:initsect.obj
 0002:0001833c       __TI2?AVbad_exception@std@@ 4009a33c     LIBCMTD:frame.obj
 0002:0001834c       __CTA2?AVbad_exception@std@@ 4009a34c     LIBCMTD:frame.obj
 0002:00018358       __CT??_R0?AVbad_exception@std@@@8??0bad_exception@std@@QAE@ABV01@@Z12 4009a358     LIBCMTD:frame.obj
 0002:00018374       __CT??_R0?AVexception@std@@@8??0exception@std@@QAE@ABV01@@Z12 4009a374     LIBCMTD:frame.obj
 0002:000185e8       __IMPORT_DESCRIPTOR_KERNEL32 4009a5e8     kernel32:KERNEL32.dll
 0002:000185fc       __NULL_IMPORT_DESCRIPTOR   4009a5fc     kernel32:KERNEL32.dll
 0003:00000000       _eventnames                4009b000     bg_misc.obj
 0003:00000130       _bg_itemlist               4009b130     bg_misc.obj
 0003:000008b4       _bg_numItems               4009b8b4     bg_misc.obj
 0003:000008b8       _bytedirs                  4009b8b8     q_math.obj
 0003:00001050       _colorBlack                4009c050     q_math.obj
 0003:00001060       _colorRed                  4009c060     q_math.obj
 0003:00001070       _colorGreen                4009c070     q_math.obj
 0003:00001080       _colorBlue                 4009c080     q_math.obj
 0003:00001090       _colorYellow               4009c090     q_math.obj
 0003:000010a0       _colorMagenta              4009c0a0     q_math.obj
 0003:000010b0       _colorCyan                 4009c0b0     q_math.obj
 0003:000010c0       _colorWhite                4009c0c0     q_math.obj
 0003:000010d0       _colorLtGrey               4009c0d0     q_math.obj
 0003:000010e0       _colorMdGrey               4009c0e0     q_math.obj
 0003:000010f0       _colorDkGrey               4009c0f0     q_math.obj
 0003:00001100       _g_color_table             4009c100     q_math.obj
 0003:00001180       _axisDefault               4009c180     q_math.obj
 0003:000011a4       ?__LINE__Var@?1??ProjectPointOnPlane@@9@9 4009c1a4     q_math.obj
 0003:00001938       _passwordNeeded            4009c938     ui_connect.obj
 0003:000022f8       _color_lightOrange         4009d2f8     ui_qmenu.obj
 0003:00002308       _pulse_color               4009d308     ui_qmenu.obj
 0003:00002318       _text_color_status         4009d318     ui_qmenu.obj
 0003:00002328       _menu_text_color           4009d328     ui_qmenu.obj
 0003:00002338       _menu_dim_color            4009d338     ui_qmenu.obj
 0003:00002348       _color_black               4009d348     ui_qmenu.obj
 0003:00002358       _color_white               4009d358     ui_qmenu.obj
 0003:00002368       _color_yellow              4009d368     ui_qmenu.obj
 0003:00002378       _color_blue                4009d378     ui_qmenu.obj
 0003:00002388       _color_orange              4009d388     ui_qmenu.obj
 0003:00002398       _color_red                 4009d398     ui_qmenu.obj
 0003:000023a8       _color_dim                 4009d3a8     ui_qmenu.obj
 0003:000023b8       _listbar_color             4009d3b8     ui_qmenu.obj
 0003:000023c8       _text_color_disabled       4009d3c8     ui_qmenu.obj
 0003:000023d8       _text_color_normal         4009d3d8     ui_qmenu.obj
 0003:000023e8       _text_color_highlight      4009d3e8     ui_qmenu.obj
 0003:000024d0       _punkbuster_items          4009d4d0     ui_servers2.obj
 0003:000024dc       _punkbuster_msg            4009d4dc     ui_servers2.obj
 0003:00002518       _ui_medalNames             4009d518     ui_sppostgame.obj
 0003:00002530       _ui_medalPicNames          4009d530     ui_sppostgame.obj
 0003:00002548       _ui_medalSounds            4009d548     ui_sppostgame.obj
 0003:00002828       ___security_cookie         4009d828     LIBCMTD:gs_cookie.obj
 0003:0000282c       ___security_cookie_complement 4009d82c     LIBCMTD:gs_cookie.obj
 0003:00002830       __fltused                  4009d830     LIBCMTD:fpinit.obj
 0003:00002834       __ldused                   4009d834     LIBCMTD:fpinit.obj
 0003:000029a8       __d_inf                    4009d9a8     LIBCMTD:util.obj
 0003:000029b0       __d_ind                    4009d9b0     LIBCMTD:util.obj
 0003:000029b8       __d_max                    4009d9b8     LIBCMTD:util.obj
 0003:000029c0       __d_min                    4009d9c0     LIBCMTD:util.obj
 0003:000029c8       __d_mzero                  4009d9c8     LIBCMTD:util.obj
 0003:00002b64       ___ptmbcinfo               4009db64     LIBCMTD:mbctype.obj
 0003:00002c58       __mbctype                  4009dc58     LIBCMTD:mbctype.obj
 0003:00002d60       __mbcasemap                4009dd60     LIBCMTD:mbctype.obj
 0003:00002e60       ___initialmbcinfo          4009de60     LIBCMTD:mbctype.obj
 0003:00003080       ___flsindex                4009e080     LIBCMTD:tidtable.obj
 0003:00003088       ___wclocalestr             4009e088     LIBCMTD:nlsdata.obj
 0003:00003090       ___lc_time_c               4009e090     LIBCMTD:nlsdata.obj
 0003:000031f4       ___ptlocinfo               4009e1f4     LIBCMTD:nlsdata.obj
 0003:000031f8       ___initiallocinfo          4009e1f8     LIBCMTD:nlsdata.obj
 0003:000032b0       ___initiallocalestructinfo 4009e2b0     LIBCMTD:nlsdata.obj
 0003:000032b8       ___mb_cur_max              4009e2b8     LIBCMTD:nlsdata.obj
 0003:000032bc       ___globallocalestatus      4009e2bc     LIBCMTD:glstatus.obj
 0003:000032c0       ?_RTC_ErrorLevels@@3PAHA   4009e2c0     LIBCMTD:error.obj
 0003:000032d4       __cfltcvt_tab              4009e2d4     LIBCMTD:cmiscdat.obj
 0003:000032fc       ___abort_behavior          4009e2fc     LIBCMTD:abort.obj
 0003:00003300       __iob                      4009e300     LIBCMTD:_file.obj
 0003:00003580       ___isa_enabled             4009e580     LIBCMTD:cpu_disp.obj
 0003:00003584       __pfnAllocHook             4009e584     LIBCMTD:dbghook.obj
 0003:0000358c       ___nullstring              4009e58c     LIBCMTD:output.obj
 0003:00003590       ___wnullstring             4009e590     LIBCMTD:output.obj
 0003:000035a0       ___badioinfo               4009e5a0     LIBCMTD:ioinit.obj
 0003:000035e8       __crtDbgFlag               4009e5e8     LIBCMTD:dbgheap.obj
 0003:000035ec       __crtBreakAlloc            4009e5ec     LIBCMTD:dbgheap.obj
 0003:000035f0       ___crtDebugFillThreshold   4009e5f0     LIBCMTD:dbgheap.obj
 0003:000035f4       __matherr_flag             4009e5f4     LIBCMTD:matherr.obj
 0003:00003628       __pow10pos                 4009e628     LIBCMTD:constpow.obj
 0003:00003788       __pow10neg                 4009e788     LIBCMTD:constpow.obj
 0003:00003a08       ___lconv                   4009ea08     LIBCMTD:lconv.obj
 0003:00003a0c       ___lconv_static_decimal    4009ea0c     LIBCMTD:lconv.obj
 0003:00003a10       ___lconv_c                 4009ea10     LIBCMTD:lconv.obj
 0003:00003a60       ___lconv_static_W_decimal  4009ea60     LIBCMTD:lconv.obj
 0003:00003a64       __CrtDbgMode               4009ea64     LIBCMTD:dbgrptt.obj
 0003:00003a70       __CrtDbgFile               4009ea70     LIBCMTD:dbgrptt.obj
 0003:00003a7c       __crtAssertBusy            4009ea7c     LIBCMTD:dbgrptt.obj
 0003:00003a80       __pctype                   4009ea80     LIBCMTD:ctype.obj
 0003:00003a84       __pwctype                  4009ea84     LIBCMTD:ctype.obj
 0003:00003a90       ??_R0?AVbad_exception@std@@@8 4009ea90     LIBCMTD:frame.obj
 0003:00003ab0       ??_R0?AVexception@std@@@8  4009eab0     LIBCMTD:frame.obj
 0003:00003ad0       __NLG_Destination          4009ead0     LIBCMTD:exsup.obj
 0003:00003ae0       ??_R0?AVtype_info@@@8      4009eae0     LIBCMTD:typinfo.obj
 0003:00003af8       ??_R0?AVbad_cast@std@@@8   4009eaf8     LIBCMTD:stdexcpt.obj
 0003:00003b14       ??_R0?AVbad_typeid@std@@@8 4009eb14     LIBCMTD:stdexcpt.obj
 0003:00003b34       ??_R0?AV__non_rtti_object@std@@@8 4009eb34     LIBCMTD:stdexcpt.obj
 0003:00003b58       __confh                    4009eb58     LIBCMTD:initcon.obj
 0003:00003b5c       ??_R0?AVDNameNode@@@8      4009eb5c     LIBCMTD:undname.obj
 0003:00003b74       ??_R0?AVcharNode@@@8       4009eb74     LIBCMTD:undname.obj
 0003:00003b8c       ??_R0?AVpcharNode@@@8      4009eb8c     LIBCMTD:undname.obj
 0003:00003ba4       ??_R0?AVpDNameNode@@@8     4009eba4     LIBCMTD:undname.obj
 0003:00003bc0       ??_R0?AVDNameStatusNode@@@8 4009ebc0     LIBCMTD:undname.obj
 0003:00003be0       ??_R0?AVpairNode@@@8       4009ebe0     LIBCMTD:undname.obj
 0003:00003c00       _vec3_origin               4009ec00     q_math.obj
 0003:0006bc30       ___fastflag                40106c30     LIBCMTD:fpinit.obj
 0003:0006bf58       __aenvptr                  40106f58     LIBCMTD:dllcrt0.obj
 0003:0006bf5c       __wenvptr                  40106f5c     LIBCMTD:dllcrt0.obj
 0003:0006bf64       ___pInvalidArgHandler      40106f64     LIBCMTD:invarg.obj
 0003:0006bf68       ___mblocalename            40106f68     LIBCMTD:mbctype.obj
 0003:0006bf6c       ___mbcodepage              40106f6c     LIBCMTD:mbctype.obj
 0003:0006bf70       ___ismbcodepage            40106f70     LIBCMTD:mbctype.obj
 0003:0006bf74       ___mbulinfo                40106f74     LIBCMTD:mbctype.obj
 0003:0006bf84       ?wsprintffp@@3P6AHPADPBDZZA 40106f84     LIBCMTD:error.obj
 0003:0006bf90       __umaskval                 40106f90     LIBCMTD:crt0dat.obj
 0003:0006bf94       __exitflag                 40106f94     LIBCMTD:crt0dat.obj
 0003:0006bf98       __C_Termination_Done       40106f98     LIBCMTD:crt0dat.obj
 0003:0006bf9c       ___winitenv                40106f9c     LIBCMTD:crt0dat.obj
 0003:0006bfa0       ___initenv                 40106fa0     LIBCMTD:crt0dat.obj
 0003:0006bfa4       __C_Exit_Done              40106fa4     LIBCMTD:crt0dat.obj
 0003:0006bfac       ___argc                    40106fac     LIBCMTD:crt0dat.obj
 0003:0006bfb0       ___argv                    40106fb0     LIBCMTD:crt0dat.obj
 0003:0006bfb4       ___wargv                   40106fb4     LIBCMTD:crt0dat.obj
 0003:0006bfb8       __environ                  40106fb8     LIBCMTD:crt0dat.obj
 0003:0006bfbc       __wenviron                 40106fbc     LIBCMTD:crt0dat.obj
 0003:0006bfc0       __pgmptr                   40106fc0     LIBCMTD:crt0dat.obj
 0003:0006bfc4       __wpgmptr                  40106fc4     LIBCMTD:crt0dat.obj
 0003:0006bfc8       ___error_mode              40106fc8     LIBCMTD:errmode.obj
 0003:0006bfcc       __cflush                   40106fcc     LIBCMTD:_file.obj
 0003:0006bff8       ___app_type                40106ff8     LIBCMTD:crt0msg.obj
 0003:0006c628       ___isa_available           40107628     LIBCMTD:cpu_disp.obj
 0003:0006c62c       ___favor                   4010762c     LIBCMTD:cpu_disp.obj
 0003:0006c630       ___locale_changed          40107630     LIBCMTD:wsetloca.obj
 0003:0006c634       __crtheap                  40107634     LIBCMTD:heapinit.obj
 0003:0006c638       ___pioinfo                 40107638     LIBCMTD:ioinit.obj
 0003:0006c840       ___crtDebugCheckCount      40107840     LIBCMTD:dbgheap.obj
 0003:0006c848       ?_pfnDumpClient@@3P6AXPAXI@ZA 40107848     LIBCMTD:dbgheap.obj
 0003:0006c9d0       ___lconv_static_null       401079d0     LIBCMTD:lconv.obj
 0003:0006c9d4       ___lconv_static_W_null     401079d4     LIBCMTD:lconv.obj
 0003:0006c9e0       __outputformat             401079e0     LIBCMTD:outputformat.obj
 0003:0006c9e4       ?__pInconsistency@@3P6AXXZA 401079e4     LIBCMTD:hooks.obj
 0003:0006c9e8       ?_pnhHeap@@3P6AHI@ZA       401079e8     LIBCMTD:handler.obj
 0003:0006c9ec       ___pPurecall               401079ec     LIBCMTD:inithelp.obj
 0003:0006c9f4       __stdbuf                   401079f4     LIBCMTD:_sftbuf.obj
 0003:0006ca04       __newmode                  40107a04     LIBCMTD:_newmode.obj
 0003:0006ca10       ?pArgList@UnDecorator@@0PAVReplicator@@A 40107a10     LIBCMTD:undname.obj
 0003:0006ca14       ?pZNameList@UnDecorator@@0PAVReplicator@@A 40107a14     LIBCMTD:undname.obj
 0003:0006ca18       ?pTemplateArgList@UnDecorator@@0PAVReplicator@@A 40107a18     LIBCMTD:undname.obj
 0003:0006ca1c       ?gName@UnDecorator@@0PBDB  40107a1c     LIBCMTD:undname.obj
 0003:0006ca20       ?name@UnDecorator@@0PBDB   40107a20     LIBCMTD:undname.obj
 0003:0006ca24       ?outputString@UnDecorator@@0PADA 40107a24     LIBCMTD:undname.obj
 0003:0006ca28       ?maxStringLength@UnDecorator@@0HA 40107a28     LIBCMTD:undname.obj
 0003:0006ca2c       ?disableFlags@UnDecorator@@0KA 40107a2c     LIBCMTD:undname.obj
 0003:0006ca30       ?fExplicitTemplateParams@UnDecorator@@0_NA 40107a30     LIBCMTD:undname.obj
 0003:0006ca31       ?fGetTemplateArgumentList@UnDecorator@@0_NA 40107a31     LIBCMTD:undname.obj
 0003:0006ca34       ?m_pGetParameter@UnDecorator@@0P6APADJ@ZA 40107a34     LIBCMTD:undname.obj
 0003:0006caa0       ?nodes@?1??make@DNameStatusNode@@SAPAV2@W4DNameStatus@@@Z@4PAV2@A 40107aa0     LIBCMTD:undname.obj
 0003:0006cad0       ??_B?1??make@DNameStatusNode@@SAPAV1@W4DNameStatus@@@Z@51 40107ad0     LIBCMTD:undname.obj
 0003:0006cad4       _weaponChangeSound         40107ad4     <common>
 0003:0006cad8       _menu_null_sound           40107ad8     <common>
 0003:0006cadc       _menu_buzz_sound           40107adc     <common>
 0003:0006cae0       _menu_out_sound            40107ae0     <common>
 0003:0006cae4       _menu_move_sound           40107ae4     <common>
 0003:0006cae8       _menu_in_sound             40107ae8     <common>
 0003:0006cb00       _ui_cdkeychecked           40107b00     <common>
 0003:0006cc20       _ui_server16               40107c20     <common>
 0003:0006cd40       _ui_server15               40107d40     <common>
 0003:0006ce60       _ui_server14               40107e60     <common>
 0003:0006cf80       _ui_server13               40107f80     <common>
 0003:0006d0a0       _ui_server12               401080a0     <common>
 0003:0006d1c0       _ui_server11               401081c0     <common>
 0003:0006d2e0       _ui_server10               401082e0     <common>
 0003:0006d400       _ui_server9                40108400     <common>
 0003:0006d520       _ui_server8                40108520     <common>
 0003:0006d640       _ui_server7                40108640     <common>
 0003:0006d760       _ui_server6                40108760     <common>
 0003:0006d880       _ui_server5                40108880     <common>
 0003:0006d9a0       _ui_server4                401089a0     <common>
 0003:0006dac0       _ui_server3                40108ac0     <common>
 0003:0006dbe0       _ui_server2                40108be0     <common>
 0003:0006dd00       _ui_server1                40108d00     <common>
 0003:0006de20       _ui_marks                  40108e20     <common>
 0003:0006df40       _ui_drawCrosshairNames     40108f40     <common>
 0003:0006e060       _ui_drawCrosshair          40109060     <common>
 0003:0006e180       _ui_brassTime              40109180     <common>
 0003:0006e2a0       _ui_browserShowEmpty       401092a0     <common>
 0003:0006e3c0       _ui_browserShowFull        401093c0     <common>
 0003:0006e4e0       _ui_browserSortKey         401094e0     <common>
 0003:0006e600       _ui_browserGameType        40109600     <common>
 0003:0006e720       _ui_browserMaster          40109720     <common>
 0003:0006e840       _ui_spSelection            40109840     <common>
 0003:0006e960       _ui_spSkill                40109960     <common>
 0003:0006ea80       _ui_spVideos               40109a80     <common>
 0003:0006eba0       _ui_spAwards               40109ba0     <common>
 0003:0006ecc0       _ui_spScores5              40109cc0     <common>
 0003:0006ede0       _ui_spScores4              40109de0     <common>
 0003:0006ef00       _ui_spScores3              40109f00     <common>
 0003:0006f020       _ui_spScores2              4010a020     <common>
 0003:0006f140       _ui_spScores1              4010a140     <common>
 0003:0006f260       _ui_botsFile               4010a260     <common>
 0003:0006f380       _ui_arenasFile             4010a380     <common>
 0003:0006f4a0       _ui_ctf_friendly           4010a4a0     <common>
 0003:0006f5c0       _ui_ctf_timelimit          4010a5c0     <common>
 0003:0006f6e0       _ui_ctf_capturelimit       4010a6e0     <common>
 0003:0006f800       _ui_team_friendly          4010a800     <common>
 0003:0006f920       _ui_team_timelimit         4010a920     <common>
 0003:0006fa40       _ui_team_fraglimit         4010aa40     <common>
 0003:0006fb60       _ui_tourney_timelimit      4010ab60     <common>
 0003:0006fc80       _ui_tourney_fraglimit      4010ac80     <common>
 0003:0006fda0       _ui_ffa_timelimit          4010ada0     <common>
 0003:0006fec0       _ui_ffa_fraglimit          4010aec0     <common>
 0003:0006ffd0       _ui_numBots                4010afd0     <common>
 0003:0006ffe0       _passwordField             4010afe0     <common>
 0003:00070140       _uis                       4010b140     <common>
 0003:00072df8       _m_entersound              4010ddf8     <common>
 0003:00072dfc       __pReportHookListW         4010ddfc     <common>
 0003:00072e00       __pReportHookList          4010de00     <common>
 0003:00072e04       __pfnReportHook            4010de04     <common>
 0003:00072e08       __nhandle                  4010de08     <common>
 0003:00072e0c       ___unguarded_readlc_active 4010de0c     <common>
 0003:00072e10       ___setlc_active            4010de10     <common>
 0003:00072e20       _encodedKERNEL32Functions  4010de20     <common>
 0003:00072e94       __debugger_hook_dummy      4010de94     <common>
 0003:00072e98       ___piob                    4010de98     <common>
 0003:00072e9c       __nstream                  4010de9c     <common>
 0003:00072ea0       __bufin                    4010dea0     <common>
 0003:00073ea0       ___dyn_tls_init_callback   4010eea0     <common>
 0003:00073ea4       ___onexitend               4010eea4     <common>
 0003:00073ea8       ___onexitbegin             4010eea8     <common>
 0003:00073eac       ___mbctype_initialized     4010eeac     <common>
 0003:00073eb0       ___env_initialized         4010eeb0     <common>
 0003:00073eb4       ___use_sse2_mathfcns       4010eeb4     <common>
 0003:00073eb8       __acmdln                   4010eeb8     <common>

 entry point at        0001:000379f0

 Static symbols

 0000:ffee6000       .debug$S                   40000000     kernel32:KERNEL32.dll
 0000:ffee6000       .debug$S                   40000000     kernel32:KERNEL32.dll
 0000:ffee6000       .debug$S                   40000000     kernel32:KERNEL32.dll
 0000:ffee6000       .debug$S                   40000000     kernel32:KERNEL32.dll
 0000:ffee6000       .debug$S                   40000000     kernel32:KERNEL32.dll
 0000:ffee6000       .debug$S                   40000000     kernel32:KERNEL32.dll
 0000:ffee6000       .debug$S                   40000000     kernel32:KERNEL32.dll
 0000:ffee6000       .debug$S                   40000000     kernel32:KERNEL32.dll
 0000:ffee6000       .debug$S                   40000000     kernel32:KERNEL32.dll
 0000:ffee6000       .debug$S                   40000000     kernel32:KERNEL32.dll
 0000:ffee6000       .debug$S                   40000000     kernel32:KERNEL32.dll
 0000:ffee6000       .debug$S                   40000000     kernel32:KERNEL32.dll
 0000:ffee6000       .debug$S                   40000000     kernel32:KERNEL32.dll
 0000:ffee6000       .debug$S                   40000000     kernel32:KERNEL32.dll
 0000:ffee6000       .debug$S                   40000000     kernel32:KERNEL32.dll
 0000:ffee6000       .debug$S                   40000000     kernel32:KERNEL32.dll
 0000:ffee6000       .debug$S                   40000000     kernel32:KERNEL32.dll
 0000:ffee6000       .debug$S                   40000000     kernel32:KERNEL32.dll
 0000:ffee6000       .debug$S                   40000000     kernel32:KERNEL32.dll
 0000:ffee6000       .debug$S                   40000000     kernel32:KERNEL32.dll
 0000:ffee6000       .debug$S                   40000000     kernel32:KERNEL32.dll
 0000:ffee6000       .debug$S                   40000000     kernel32:KERNEL32.dll
 0000:ffee6000       .debug$S                   40000000     kernel32:KERNEL32.dll
 0000:ffee6000       .debug$S                   40000000     kernel32:KERNEL32.dll
 0000:ffee6000       .debug$S                   40000000     kernel32:KERNEL32.dll
 0000:ffee6000       .debug$S                   40000000     kernel32:KERNEL32.dll
 0000:ffee6000       .debug$S                   40000000     kernel32:KERNEL32.dll
 0000:ffee6000       .debug$S                   40000000     kernel32:KERNEL32.dll
 0000:ffee6000       .debug$S                   40000000     kernel32:KERNEL32.dll
 0000:ffee6000       .debug$S                   40000000     kernel32:KERNEL32.dll
 0000:ffee6000       .debug$S                   40000000     kernel32:KERNEL32.dll
 0000:ffee6000       .debug$S                   40000000     kernel32:KERNEL32.dll
 0000:ffee6000       .debug$S                   40000000     kernel32:KERNEL32.dll
 0000:ffee6000       .debug$S                   40000000     kernel32:KERNEL32.dll
 0000:ffee6000       .debug$S                   40000000     kernel32:KERNEL32.dll
 0000:ffee6000       .debug$S                   40000000     kernel32:KERNEL32.dll
 0000:ffee6000       .debug$S                   40000000     kernel32:KERNEL32.dll
 0000:ffee6000       .debug$S                   40000000     kernel32:KERNEL32.dll
 0000:ffee6000       .debug$S                   40000000     kernel32:KERNEL32.dll
 0000:ffee6000       .debug$S                   40000000     kernel32:KERNEL32.dll
 0000:ffee6000       .debug$S                   40000000     kernel32:KERNEL32.dll
 0000:ffee6000       .debug$S                   40000000     kernel32:KERNEL32.dll
 0000:ffee6000       .debug$S                   40000000     kernel32:KERNEL32.dll
 0000:ffee6000       .debug$S                   40000000     kernel32:KERNEL32.dll
 0000:ffee6000       .debug$S                   40000000     kernel32:KERNEL32.dll
 0000:ffee6000       .debug$S                   40000000     kernel32:KERNEL32.dll
 0000:ffee6000       .debug$S                   40000000     kernel32:KERNEL32.dll
 0000:ffee6000       .debug$S                   40000000     kernel32:KERNEL32.dll
 0000:ffee6000       .debug$S                   40000000     kernel32:KERNEL32.dll
 0000:ffee6000       .debug$S                   40000000     kernel32:KERNEL32.dll
 0000:ffee6000       .debug$S                   40000000     kernel32:KERNEL32.dll
 0000:ffee6000       .debug$S                   40000000     kernel32:KERNEL32.dll
 0000:ffee6000       .debug$S                   40000000     kernel32:KERNEL32.dll
 0000:ffee6000       .debug$S                   40000000     kernel32:KERNEL32.dll
 0000:ffee6000       .debug$S                   40000000     kernel32:KERNEL32.dll
 0000:ffee6000       .debug$S                   40000000     kernel32:KERNEL32.dll
 0000:ffee6000       .debug$S                   40000000     kernel32:KERNEL32.dll
 0000:ffee6000       .debug$S                   40000000     kernel32:KERNEL32.dll
 0000:ffee6000       .debug$S                   40000000     kernel32:KERNEL32.dll
 0000:ffee6000       .debug$S                   40000000     kernel32:KERNEL32.dll
 0000:ffee6000       .debug$S                   40000000     kernel32:KERNEL32.dll
 0000:ffee6000       .debug$S                   40000000     kernel32:KERNEL32.dll
 0000:ffee6000       .debug$S                   40000000     kernel32:KERNEL32.dll
 0000:ffee6000       .debug$S                   40000000     kernel32:KERNEL32.dll
 0000:ffee6000       .debug$S                   40000000     kernel32:KERNEL32.dll
 0000:ffee6000       .debug$S                   40000000     kernel32:KERNEL32.dll
 0000:ffee6000       .debug$S                   40000000     kernel32:KERNEL32.dll
 0000:ffee6000       .debug$S                   40000000     kernel32:KERNEL32.dll
 0000:ffee6000       .debug$S                   40000000     kernel32:KERNEL32.dll
 0000:ffee6000       .debug$S                   40000000     kernel32:KERNEL32.dll
 0000:ffee6000       .debug$S                   40000000     kernel32:KERNEL32.dll
 0000:ffee6000       .debug$S                   40000000     kernel32:KERNEL32.dll
 0000:ffee6000       .debug$S                   40000000     kernel32:KERNEL32.dll
 0000:ffee6000       .debug$S                   40000000     kernel32:KERNEL32.dll
 0000:ffee6000       .debug$S                   40000000     kernel32:KERNEL32.dll
 0000:ffee6000       .debug$S                   40000000     kernel32:KERNEL32.dll
 0000:ffee6000       .debug$S                   40000000     kernel32:KERNEL32.dll
 0000:ffee6000       .debug$S                   40000000     kernel32:KERNEL32.dll
 0000:ffee6000       .debug$S                   40000000     kernel32:KERNEL32.dll
 0000:ffee6000       .debug$S                   40000000     kernel32:KERNEL32.dll
 0000:ffee6000       .debug$S                   40000000     kernel32:KERNEL32.dll
 0000:ffee6000       .debug$S                   40000000     kernel32:KERNEL32.dll
 0000:ffee6000       .debug$S                   40000000     kernel32:KERNEL32.dll
 0000:ffee6000       .debug$S                   40000000     kernel32:KERNEL32.dll
 0000:ffee6000       .debug$S                   40000000     kernel32:KERNEL32.dll
 0001:00000100       $LN6                       40001100     bg_misc.obj
 0001:00000108       $LN5                       40001108     bg_misc.obj
 0001:00000114       $LN4                       40001114     bg_misc.obj
 0001:000003b8       $LN33                      400013b8     bg_misc.obj
 0001:000008ac       $LN13                      400018ac     bg_misc.obj
 0001:00000c24       $LN12                      40001c24     bg_misc.obj
 0001:000018e8       $LN7                       400028e8     bg_misc.obj
 0001:000018f0       $LN6                       400028f0     bg_misc.obj
 0001:000018fc       $LN5                       400028fc     bg_misc.obj
 0001:00001a84       $LN10                      40002a84     bg_misc.obj
 0001:00001a8c       $LN9                       40002a8c     bg_misc.obj
 0001:00001a98       $LN8                       40002a98     bg_misc.obj
 0001:000023a0       $LN5                       400033a0     q_math.obj
 0001:000023a8       $LN4                       400033a8     q_math.obj
 0001:000023b4       $LN3                       400033b4     q_math.obj
 0001:00002bc0       $LN5                       40003bc0     q_math.obj
 0001:00002bc8       $LN4                       40003bc8     q_math.obj
 0001:00002bd4       $LN3                       40003bd4     q_math.obj
 0001:00002c8c       $LN5                       40003c8c     q_math.obj
 0001:00002c94       $LN4                       40003c94     q_math.obj
 0001:00002ca0       $LN3                       40003ca0     q_math.obj
 0001:00002cb0       _CrossProduct              40003cb0 f   q_math.obj
 0001:00003a40       $LN9                       40004a40     q_math.obj
 0001:00003a48       $LN8                       40004a48     q_math.obj
 0001:00003a54       $LN7                       40004a54     q_math.obj
 0001:00003ca0       $LN7                       40004ca0     q_math.obj
 0001:00003ca8       $LN6                       40004ca8     q_math.obj
 0001:00003cc0       $LN5                       40004cc0     q_math.obj
 0001:00003cc3       $LN4                       40004cc3     q_math.obj
 0001:00003f68       $LN6                       40004f68     q_math.obj
 0001:00003f70       $LN5                       40004f70     q_math.obj
 0001:00003f7c       $LN4                       40004f7c     q_math.obj
 0001:000042c4       $LN10                      400052c4     q_math.obj
 0001:000042cc       $LN9                       400052cc     q_math.obj
 0001:000042d8       $LN8                       400052d8     q_math.obj
 0001:0000442c       $LN6                       4000542c     q_math.obj
 0001:00004434       $LN5                       40005434     q_math.obj
 0001:00004440       $LN4                       40005440     q_math.obj
 0001:00004a14       $LN15                      40005a14     q_math.obj
 0001:00004a1c       $LN14                      40005a1c     q_math.obj
 0001:00004a7c       $LN13                      40005a7c     q_math.obj
 0001:00004a7f       $LN12                      40005a7f     q_math.obj
 0001:00004a83       $LN11                      40005a83     q_math.obj
 0001:00004a86       $LN10                      40005a86     q_math.obj
 0001:00004a8a       $LN9                       40005a8a     q_math.obj
 0001:00004a91       $LN8                       40005a91     q_math.obj
 0001:00004a96       $LN7                       40005a96     q_math.obj
 0001:00004a99       $LN6                       40005a99     q_math.obj
 0001:00004be0       _VectorLength              40005be0 f   q_math.obj
 0001:00005b68       $LN8                       40006b68     q_shared.obj
 0001:00005b70       $LN7                       40006b70     q_shared.obj
 0001:00005b7c       $LN6                       40006b7c     q_shared.obj
 0001:00005fd8       $LN38                      40006fd8     q_shared.obj
 0001:00005fe0       $LN37                      40006fe0     q_shared.obj
 0001:00005fec       $LN36                      40006fec     q_shared.obj
 0001:00006260       $LN7                       40007260     q_shared.obj
 0001:00006268       $LN6                       40007268     q_shared.obj
 0001:00006274       $LN5                       40007274     q_shared.obj
 0001:00006310       $LN5                       40007310     q_shared.obj
 0001:00006318       $LN4                       40007318     q_shared.obj
 0001:00006324       $LN3                       40007324     q_shared.obj
 0001:000065e0       $LN19                      400075e0     q_shared.obj
 0001:000065e8       $LN18                      400075e8     q_shared.obj
 0001:00006600       $LN17                      40007600     q_shared.obj
 0001:00006606       $LN16                      40007606     q_shared.obj
 0001:000067c4       $LN19                      400077c4     q_shared.obj
 0001:000067cc       $LN18                      400077cc     q_shared.obj
 0001:000067e4       $LN17                      400077e4     q_shared.obj
 0001:000067ea       $LN16                      400077ea     q_shared.obj
 0001:000069b0       $LN15                      400079b0     q_shared.obj
 0001:000069b8       $LN14                      400079b8     q_shared.obj
 0001:000069c4       $LN13                      400079c4     q_shared.obj
 0001:00006b84       $LN15                      40007b84     q_shared.obj
 0001:00006b8c       $LN14                      40007b8c     q_shared.obj
 0001:00006b98       $LN13                      40007b98     q_shared.obj
 0001:00006dd4       $LN18                      40007dd4     q_shared.obj
 0001:00006ddc       $LN17                      40007ddc     q_shared.obj
 0001:00006de8       $LN16                      40007de8     q_shared.obj
 0001:00006e8c       $LN5                       40007e8c     q_shared.obj
 0001:00006e94       $LN4                       40007e94     q_shared.obj
 0001:00006ea0       $LN3                       40007ea0     q_shared.obj
 0001:000079e0       _SkipWhitespace            400089e0 f   q_shared.obj
 0001:00007b20       _UI_AddBotsMenu_BackEvent  40008b20 f   ui_addbots.obj
 0001:00007b60       _UI_AddBotsMenu_BotEvent   40008b60 f   ui_addbots.obj
 0001:00007bc0       _UI_AddBotsMenu_DownEvent  40008bc0 f   ui_addbots.obj
 0001:00007c20       _UI_AddBotsMenu_Draw       40008c20 f   ui_addbots.obj
 0001:00007cc0       _UI_AddBotsMenu_FightEvent 40008cc0 f   ui_addbots.obj
 0001:00007d60       _UI_AddBotsMenu_GetSortedBotNums 40008d60 f   ui_addbots.obj
 0001:00007de0       _UI_AddBotsMenu_Init       40008de0 f   ui_addbots.obj
 0001:00008364       $LN15                      40009364     ui_addbots.obj
 0001:0000836c       $LN14                      4000936c     ui_addbots.obj
 0001:00008378       $LN13                      40009378     ui_addbots.obj
 0001:00008380       _UI_AddBotsMenu_SetBotNames 40009380 f   ui_addbots.obj
 0001:00008410       _UI_AddBotsMenu_SortCompare 40009410 f   ui_addbots.obj
 0001:000084b0       _UI_AddBotsMenu_UpEvent    400094b0 f   ui_addbots.obj
 0001:00008648       $LN5                       40009648     ui_atoms.obj
 0001:00008650       $LN4                       40009650     ui_atoms.obj
 0001:0000865c       $LN3                       4000965c     ui_atoms.obj
 0001:00008708       $LN5                       40009708     ui_atoms.obj
 0001:00008710       $LN4                       40009710     ui_atoms.obj
 0001:0000871c       $LN3                       4000971c     ui_atoms.obj
 0001:00008730       _NeedCDAction              40009730 f   ui_atoms.obj
 0001:00008780       _NeedCDKeyAction           40009780 f   ui_atoms.obj
 0001:00008d80       $LN16                      40009d80     ui_atoms.obj
 0001:00008d88       $LN15                      40009d88     ui_atoms.obj
 0001:00008d94       $LN14                      40009d94     ui_atoms.obj
 0001:00008da0       _UI_DrawBannerString2      40009da0 f   ui_atoms.obj
 0001:00009074       $LN7                       4000a074     ui_atoms.obj
 0001:0000907c       $LN6                       4000a07c     ui_atoms.obj
 0001:00009088       $LN5                       4000a088     ui_atoms.obj
 0001:000096c4       $LN13                      4000a6c4     ui_atoms.obj
 0001:000096cc       $LN12                      4000a6cc     ui_atoms.obj
 0001:000096d8       $LN11                      4000a6d8     ui_atoms.obj
 0001:000096f0       _UI_DrawProportionalString2 4000a6f0 f   ui_atoms.obj
 0001:00009b1c       $LN19                      4000ab1c     ui_atoms.obj
 0001:00009b24       $LN18                      4000ab24     ui_atoms.obj
 0001:00009b30       $LN17                      4000ab30     ui_atoms.obj
 0001:0000a084       $LN21                      4000b084     ui_atoms.obj
 0001:0000a08c       $LN20                      4000b08c     ui_atoms.obj
 0001:0000a0b0       $LN19                      4000b0b0     ui_atoms.obj
 0001:0000a0ba       $LN18                      4000b0ba     ui_atoms.obj
 0001:0000a0c3       $LN17                      4000b0c3     ui_atoms.obj
 0001:0000a0d0       _UI_DrawString2            4000b0d0 f   ui_atoms.obj
 0001:0000a344       $LN12                      4000b344     ui_atoms.obj
 0001:0000a34c       $LN11                      4000b34c     ui_atoms.obj
 0001:0000a358       $LN10                      4000b358     ui_atoms.obj
 0001:0000afec       $LN11                      4000bfec     ui_atoms.obj
 0001:0000b1d0       _UI_CDKeyMenu_DrawKey      4000c1d0 f   ui_cdkey.obj
 0001:0000b3a0       _UI_CDKeyMenu_Event        4000c3a0 f   ui_cdkey.obj
 0001:0000b430       _UI_CDKeyMenu_Init         4000c430 f   ui_cdkey.obj
 0001:0000b6e0       _UI_CDKeyMenu_PreValidateKey 4000c6e0 f   ui_cdkey.obj
 0001:0000b790       $LN11                      4000c790     ui_cdkey.obj
 0001:0000b798       $LN10                      4000c798     ui_cdkey.obj
 0001:0000b870       _UI_CinematicsMenu_BackEvent 4000c870 f   ui_cinematics.obj
 0001:0000b920       _UI_CinematicsMenu_Event   4000c920 f   ui_cinematics.obj
 0001:0000b9e0       _UI_CinematicsMenu_Init    4000c9e0 f   ui_cinematics.obj
 0001:0000c1e0       _ConfirmMenu_Draw          4000d1e0 f   ui_confirm.obj
 0001:0000c2d0       _ConfirmMenu_Event         4000d2d0 f   ui_confirm.obj
 0001:0000c350       _ConfirmMenu_Key           4000d350 f   ui_confirm.obj
 0001:0000c3f4       $LN9                       4000d3f4     ui_confirm.obj
 0001:0000c404       $LN8                       4000d404     ui_confirm.obj
 0001:0000c460       _MessageMenu_Draw          4000d460 f   ui_confirm.obj
 0001:0000c80c       $LN7                       4000d80c     ui_confirm.obj
 0001:0000c814       $LN6                       4000d814     ui_confirm.obj
 0001:0000c820       $LN5                       4000d820     ui_confirm.obj
 0001:0000c9b8       $LN7                       4000d9b8     ui_confirm.obj
 0001:0000c9c0       $LN6                       4000d9c0     ui_confirm.obj
 0001:0000c9cc       $LN5                       4000d9cc     ui_confirm.obj
 0001:0000c9e0       _UI_DisplayDownloadInfo    4000d9e0 f   ui_connect.obj
 0001:0000cf0c       $LN22                      4000df0c     ui_connect.obj
 0001:0000cf14       $LN21                      4000df14     ui_connect.obj
 0001:0000cf44       $LN20                      4000df44     ui_connect.obj
 0001:0000cf4e       $LN19                      4000df4e     ui_connect.obj
 0001:0000cf5a       $LN18                      4000df5a     ui_connect.obj
 0001:0000cf67       $LN17                      4000df67     ui_connect.obj
 0001:0000d270       $LN24                      4000e270     ui_connect.obj
 0001:0000d278       $LN23                      4000e278     ui_connect.obj
 0001:0000d29c       $LN22                      4000e29c     ui_connect.obj
 0001:0000d2a9       $LN21                      4000e2a9     ui_connect.obj
 0001:0000d2ae       $LN20                      4000e2ae     ui_connect.obj
 0001:0000d310       _UI_PrintTime              4000e310 f   ui_connect.obj
 0001:0000d3e0       _UI_ReadableSize           4000e3e0 f   ui_connect.obj
 0001:0000d560       _Controls_ActionEvent      4000e560 f   ui_controls2.obj
 0001:0000d660       _Controls_DrawKeyBinding   4000e660 f   ui_controls2.obj
 0001:0000d9a0       $LN17                      4000e9a0     ui_controls2.obj
 0001:0000d9a8       $LN16                      4000e9a8     ui_controls2.obj
 0001:0000d9c0       $LN15                      4000e9c0     ui_controls2.obj
 0001:0000d9c6       $LN14                      4000e9c6     ui_controls2.obj
 0001:0000d9d0       _Controls_DrawPlayer       4000e9d0 f   ui_controls2.obj
 0001:0000dad4       $LN6                       4000ead4     ui_controls2.obj
 0001:0000dadc       $LN5                       4000eadc     ui_controls2.obj
 0001:0000dae8       $LN4                       4000eae8     ui_controls2.obj
 0001:0000daf0       _Controls_GetConfig        4000eaf0 f   ui_controls2.obj
 0001:0000dd74       $LN11                      4000ed74     ui_controls2.obj
 0001:0000dd7c       $LN10                      4000ed7c     ui_controls2.obj
 0001:0000dd88       $LN9                       4000ed88     ui_controls2.obj
 0001:0000dd90       _Controls_GetCvarDefault   4000ed90 f   ui_controls2.obj
 0001:0000de20       _Controls_GetCvarValue     4000ee20 f   ui_controls2.obj
 0001:0000deb0       _Controls_GetKeyAssignment 4000eeb0 f   ui_controls2.obj
 0001:0000dfb4       $LN11                      4000efb4     ui_controls2.obj
 0001:0000dfbc       $LN10                      4000efbc     ui_controls2.obj
 0001:0000dfc8       $LN9                       4000efc8     ui_controls2.obj
 0001:0000dfd0       _Controls_InitCvars        4000efd0 f   ui_controls2.obj
 0001:0000e090       _Controls_InitModel        4000f090 f   ui_controls2.obj
 0001:0000e100       _Controls_InitWeapons      4000f100 f   ui_controls2.obj
 0001:0000e180       _Controls_MenuEvent        4000f180 f   ui_controls2.obj
 0001:0000e2bc       $LN25                      4000f2bc     ui_controls2.obj
 0001:0000e2e4       $LN24                      4000f2e4     ui_controls2.obj
 0001:0000e350       _Controls_MenuInit         4000f350 f   ui_controls2.obj
 0001:0000f3f0       _Controls_MenuKey          400103f0 f   ui_controls2.obj
 0001:0000f69c       $LN38                      4001069c     ui_controls2.obj
 0001:0000f6a8       $LN37                      400106a8     ui_controls2.obj
 0001:0000f750       _Controls_ResetDefaults_Action 40010750 f   ui_controls2.obj
 0001:0000f7a0       _Controls_ResetDefaults_Draw 400107a0 f   ui_controls2.obj
 0001:0000f810       _Controls_SetConfig        40010810 f   ui_controls2.obj
 0001:0000fa00       _Controls_SetDefaults      40010a00 f   ui_controls2.obj
 0001:0000fb60       _Controls_StatusBar        40010b60 f   ui_controls2.obj
 0001:0000fbb0       _Controls_Update           40010bb0 f   ui_controls2.obj
 0001:0000fed8       $LN28                      40010ed8     ui_controls2.obj
 0001:0000fef0       _Controls_UpdateModel      40010ef0 f   ui_controls2.obj
 0001:00010284       $LN31                      40011284     ui_controls2.obj
 0001:000103c0       _UI_CreditMenu_Draw        400113c0 f   ui_credits.obj
 0001:000107b0       _UI_CreditMenu_Key         400117b0 f   ui_credits.obj
 0001:000108c0       _Demos_MenuEvent           400118c0 f   ui_demo2.obj
 0001:0001098c       $LN10                      4001198c     ui_demo2.obj
 0001:000109a0       _Demos_MenuInit            400119a0 f   ui_demo2.obj
 0001:00010ed4       $LN12                      40011ed4     ui_demo2.obj
 0001:00010edc       $LN11                      40011edc     ui_demo2.obj
 0001:00010ee8       $LN10                      40011ee8     ui_demo2.obj
 0001:00010f50       _UI_DemosMenu_Key          40011f50 f   ui_demo2.obj
 0001:00011080       _UI_DisplayOptionsMenu_Event 40012080 f   ui_display.obj
 0001:00011168       $LN13                      40012168     ui_display.obj
 0001:00011190       _UI_DisplayOptionsMenu_Init 40012190 f   ui_display.obj
 0001:000117d0       $LN9                       400127d0     ui_gameinfo.obj
 0001:000117d8       $LN8                       400127d8     ui_gameinfo.obj
 0001:000117f0       $LN7                       400127f0     ui_gameinfo.obj
 0001:000117f7       $LN6                       400127f7     ui_gameinfo.obj
 0001:00011a04       $LN6                       40012a04     ui_gameinfo.obj
 0001:00011a0c       $LN5                       40012a0c     ui_gameinfo.obj
 0001:00011a24       $LN4                       40012a24     ui_gameinfo.obj
 0001:00011a2e       $LN3                       40012a2e     ui_gameinfo.obj
 0001:00011b84       $LN17                      40012b84     ui_gameinfo.obj
 0001:00011b8c       $LN16                      40012b8c     ui_gameinfo.obj
 0001:00011ba4       $LN15                      40012ba4     ui_gameinfo.obj
 0001:00011bab       $LN14                      40012bab     ui_gameinfo.obj
 0001:00011dd4       $LN15                      40012dd4     ui_gameinfo.obj
 0001:00011ddc       $LN14                      40012ddc     ui_gameinfo.obj
 0001:00011df4       $LN13                      40012df4     ui_gameinfo.obj
 0001:00011dfa       $LN12                      40012dfa     ui_gameinfo.obj
 0001:00012040       _UI_LoadArenas             40013040 f   ui_gameinfo.obj
 0001:00012528       $LN29                      40013528     ui_gameinfo.obj
 0001:00012530       $LN28                      40013530     ui_gameinfo.obj
 0001:00012554       $LN27                      40013554     ui_gameinfo.obj
 0001:0001255c       $LN26                      4001355c     ui_gameinfo.obj
 0001:00012565       $LN25                      40013565     ui_gameinfo.obj
 0001:00012570       _UI_LoadArenasFromFile     40013570 f   ui_gameinfo.obj
 0001:000126c4       $LN10                      400136c4     ui_gameinfo.obj
 0001:000126cc       $LN9                       400136cc     ui_gameinfo.obj
 0001:000126e4       $LN8                       400136e4     ui_gameinfo.obj
 0001:000126e8       $LN7                       400136e8     ui_gameinfo.obj
 0001:000126f0       _UI_LoadBots               400136f0 f   ui_gameinfo.obj
 0001:0001287c       $LN12                      4001387c     ui_gameinfo.obj
 0001:00012884       $LN11                      40013884     ui_gameinfo.obj
 0001:000128a8       $LN10                      400138a8     ui_gameinfo.obj
 0001:000128b0       $LN9                       400138b0     ui_gameinfo.obj
 0001:000128b9       $LN8                       400138b9     ui_gameinfo.obj
 0001:000128d0       _UI_LoadBotsFromFile       400138d0 f   ui_gameinfo.obj
 0001:00012a38       $LN11                      40013a38     ui_gameinfo.obj
 0001:00012a40       $LN10                      40013a40     ui_gameinfo.obj
 0001:00012a58       $LN9                       40013a58     ui_gameinfo.obj
 0001:00012a5c       $LN8                       40013a5c     ui_gameinfo.obj
 0001:00012b78       $LN8                       40013b78     ui_gameinfo.obj
 0001:00012b80       $LN7                       40013b80     ui_gameinfo.obj
 0001:00012b98       $LN6                       40013b98     ui_gameinfo.obj
 0001:00012ba2       $LN5                       40013ba2     ui_gameinfo.obj
 0001:00012eb0       $LN19                      40013eb0     ui_gameinfo.obj
 0001:00012eb8       $LN18                      40013eb8     ui_gameinfo.obj
 0001:00012ed0       $LN17                      40013ed0     ui_gameinfo.obj
 0001:00012ed5       $LN16                      40013ed5     ui_gameinfo.obj
 0001:00012fbc       $LN9                       40013fbc     ui_gameinfo.obj
 0001:00012fc4       $LN8                       40013fc4     ui_gameinfo.obj
 0001:00012fdc       $LN7                       40013fdc     ui_gameinfo.obj
 0001:00012fe6       $LN6                       40013fe6     ui_gameinfo.obj
 0001:00013120       $LN12                      40014120     ui_gameinfo.obj
 0001:00013128       $LN11                      40014128     ui_gameinfo.obj
 0001:00013140       $LN10                      40014140     ui_gameinfo.obj
 0001:00013147       $LN9                       40014147     ui_gameinfo.obj
 0001:00013290       $LN11                      40014290     ui_gameinfo.obj
 0001:00013298       $LN10                      40014298     ui_gameinfo.obj
 0001:000132b0       $LN9                       400142b0     ui_gameinfo.obj
 0001:000132b7       $LN8                       400142b7     ui_gameinfo.obj
 0001:000133b4       $LN8                       400143b4     ui_gameinfo.obj
 0001:000133bc       $LN7                       400143bc     ui_gameinfo.obj
 0001:000133d4       $LN6                       400143d4     ui_gameinfo.obj
 0001:000133db       $LN5                       400143db     ui_gameinfo.obj
 0001:00013508       $LN14                      40014508     ui_gameinfo.obj
 0001:00013510       $LN13                      40014510     ui_gameinfo.obj
 0001:00013528       $LN12                      40014528     ui_gameinfo.obj
 0001:0001352e       $LN11                      4001452e     ui_gameinfo.obj
 0001:0001365c       $LN16                      4001465c     ui_ingame.obj
 0001:00013dd4       $LN14                      40014dd4     ui_ingame.obj
 0001:00013ddc       $LN13                      40014ddc     ui_ingame.obj
 0001:00013df4       $LN12                      40014df4     ui_ingame.obj
 0001:00013df9       $LN11                      40014df9     ui_ingame.obj
 0001:00013e00       _InGame_QuitAction         40014e00 f   ui_ingame.obj
 0001:00013e50       _InGame_RestartAction      40014e50 f   ui_ingame.obj
 0001:000140fc       $LN16                      400150fc     ui_main.obj
 0001:000141d0       _MainMenu_ExitAction       400151d0 f   ui_menu.obj
 0001:00014220       _Main_MenuDraw             40015220 f   ui_menu.obj
 0001:000146d4       $LN17                      400156d4     ui_menu.obj
 0001:000146dc       $LN16                      400156dc     ui_menu.obj
 0001:00014748       $LN15                      40015748     ui_menu.obj
 0001:0001474e       $LN14                      4001574e     ui_menu.obj
 0001:00014750       $LN13                      40015750     ui_menu.obj
 0001:00014752       $LN12                      40015752     ui_menu.obj
 0001:00014754       $LN11                      40015754     ui_menu.obj
 0001:00014756       $LN10                      40015756     ui_menu.obj
 0001:0001475d       $LN9                       4001575d     ui_menu.obj
 0001:00014764       $LN8                       40015764     ui_menu.obj
 0001:00014768       $LN7                       40015768     ui_menu.obj
 0001:00014840       $LN14                      40015840     ui_menu.obj
 0001:00014da8       $LN10                      40015da8     ui_menu.obj
 0001:00014db0       $LN9                       40015db0     ui_menu.obj
 0001:00014dbc       $LN8                       40015dbc     ui_menu.obj
 0001:00014dc0       _UI_TeamArenaExists        40015dc0 f   ui_menu.obj
 0001:00014ee0       $LN9                       40015ee0     ui_menu.obj
 0001:00014ee8       $LN8                       40015ee8     ui_menu.obj
 0001:00014ef4       $LN7                       40015ef4     ui_menu.obj
 0001:000153c8       $LN23                      400163c8     ui_mfield.obj
 0001:000153d0       $LN22                      400163d0     ui_mfield.obj
 0001:000153dc       $LN21                      400163dc     ui_mfield.obj
 0001:000156e8       $LN8                       400166e8     ui_mfield.obj
 0001:000156f0       $LN7                       400166f0     ui_mfield.obj
 0001:000156fc       $LN6                       400166fc     ui_mfield.obj
 0001:00015adc       $LN16                      40016adc     ui_mfield.obj
 0001:00015ae8       $LN15                      40016ae8     ui_mfield.obj
 0001:00015c70       _UI_Mods_LoadMods          40016c70 f   ui_mods.obj
 0001:00015e20       $LN9                       40016e20     ui_mods.obj
 0001:00015e28       $LN8                       40016e28     ui_mods.obj
 0001:00015e34       $LN7                       40016e34     ui_mods.obj
 0001:00015e40       _UI_Mods_MenuEvent         40016e40 f   ui_mods.obj
 0001:00015ed0       _UI_Mods_MenuInit          40016ed0 f   ui_mods.obj
 0001:00016180       _UI_Mods_ParseInfos        40017180 f   ui_mods.obj
 0001:00016330       _UI_NetworkOptionsMenu_Event 40017330 f   ui_network.obj
 0001:0001649c       $LN21                      4001749c     ui_network.obj
 0001:000164c0       _UI_NetworkOptionsMenu_Init 400174c0 f   ui_network.obj
 0001:00016930       _Options_Event             40017930 f   ui_options.obj
 0001:000169bc       $LN11                      400179bc     ui_options.obj
 0001:00016dc0       $LN7                       40017dc0     ui_options.obj
 0001:00016dc8       $LN6                       40017dc8     ui_options.obj
 0001:00016dd4       $LN5                       40017dd4     ui_options.obj
 0001:00016ea0       _PlayerModel_BuildList     40017ea0 f   ui_playermodel.obj
 0001:000171a0       $LN19                      400181a0     ui_playermodel.obj
 0001:000171a8       $LN18                      400181a8     ui_playermodel.obj
 0001:000171cc       $LN17                      400181cc     ui_playermodel.obj
 0001:000171d5       $LN16                      400181d5     ui_playermodel.obj
 0001:000171de       $LN15                      400181de     ui_playermodel.obj
 0001:00017290       _PlayerModel_DrawPlayer    40018290 f   ui_playermodel.obj
 0001:00017360       _PlayerModel_MenuEvent     40018360 f   ui_playermodel.obj
 0001:00017410       _PlayerModel_MenuInit      40018410 f   ui_playermodel.obj
 0001:00017b10       _PlayerModel_MenuKey       40018b10 f   ui_playermodel.obj
 0001:00017ce8       $LN19                      40018ce8     ui_playermodel.obj
 0001:00017cf8       $LN18                      40018cf8     ui_playermodel.obj
 0001:00017da0       _PlayerModel_PicEvent      40018da0 f   ui_playermodel.obj
 0001:00017f90       _PlayerModel_SaveChanges   40018f90 f   ui_playermodel.obj
 0001:00018010       _PlayerModel_SetMenuItems  40019010 f   ui_playermodel.obj
 0001:000181e8       $LN13                      400191e8     ui_playermodel.obj
 0001:000181f0       $LN12                      400191f0     ui_playermodel.obj
 0001:000181fc       $LN11                      400191fc     ui_playermodel.obj
 0001:00018210       _PlayerModel_UpdateGrid    40019210 f   ui_playermodel.obj
 0001:00018410       _PlayerModel_UpdateModel   40019410 f   ui_playermodel.obj
 0001:0001852c       $LN6                       4001952c     ui_playermodel.obj
 0001:00018534       $LN5                       40019534     ui_playermodel.obj
 0001:0001854c       $LN4                       4001954c     ui_playermodel.obj
 0001:00018557       $LN3                       40019557     ui_playermodel.obj
 0001:00019314       $LN32                      4001a314     ui_players.obj
 0001:0001931c       $LN31                      4001a31c     ui_players.obj
 0001:000193a0       $LN30                      4001a3a0     ui_players.obj
 0001:000193a7       $LN29                      4001a3a7     ui_players.obj
 0001:000193ac       $LN28                      4001a3ac     ui_players.obj
 0001:000193b1       $LN27                      4001a3b1     ui_players.obj
 0001:000193b8       $LN26                      4001a3b8     ui_players.obj
 0001:000193be       $LN25                      4001a3be     ui_players.obj
 0001:000193c5       $LN24                      4001a3c5     ui_players.obj
 0001:000193c9       $LN23                      4001a3c9     ui_players.obj
 0001:000193ce       $LN22                      4001a3ce     ui_players.obj
 0001:000193d4       $LN21                      4001a3d4     ui_players.obj
 0001:000193d9       $LN20                      4001a3d9     ui_players.obj
 0001:000193e0       _UI_ForceLegsAnim          4001a3e0 f   ui_players.obj
 0001:00019440       _UI_ForceTorsoAnim         4001a440 f   ui_players.obj
 0001:000194c0       _UI_LegsSequencing         4001a4c0 f   ui_players.obj
 0001:00019730       _UI_MovedirAdjustment      4001a730 f   ui_players.obj
 0001:00019a84       $LN15                      4001aa84     ui_players.obj
 0001:00019a8c       $LN14                      4001aa8c     ui_players.obj
 0001:00019aa4       $LN13                      4001aaa4     ui_players.obj
 0001:00019aaf       $LN12                      4001aaaf     ui_players.obj
 0001:00019ac0       _UI_ParseAnimationFile     4001aac0 f   ui_players.obj
 0001:00019ea0       $LN40                      4001aea0     ui_players.obj
 0001:00019ea8       $LN39                      4001aea8     ui_players.obj
 0001:00019ecc       $LN38                      4001aecc     ui_players.obj
 0001:00019ece       $LN37                      4001aece     ui_players.obj
 0001:00019ed3       $LN36                      4001aed3     ui_players.obj
 0001:00019ee0       _UI_PlayerAngles           4001aee0 f   ui_players.obj
 0001:0001a2c4       $LN11                      4001b2c4     ui_players.obj
 0001:0001a2cc       $LN10                      4001b2cc     ui_players.obj
 0001:0001a2f0       $LN9                       4001b2f0     ui_players.obj
 0001:0001a2fb       $LN8                       4001b2fb     ui_players.obj
 0001:0001a307       $LN7                       4001b307     ui_players.obj
 0001:0001a320       _UI_PlayerAnimation        4001b320 f   ui_players.obj
 0001:0001a480       _UI_PlayerFloatSprite      4001b480 f   ui_players.obj
 0001:0001a594       $LN5                       4001b594     ui_players.obj
 0001:0001a59c       $LN4                       4001b59c     ui_players.obj
 0001:0001a5a8       $LN3                       4001b5a8     ui_players.obj
 0001:0001aad0       _UI_PlayerInfo_SetWeapon   4001bad0 f   ui_players.obj
 0001:0001b0a0       $LN30                      4001c0a0     ui_players.obj
 0001:0001b0a8       $LN29                      4001c0a8     ui_players.obj
 0001:0001b0b4       $LN28                      4001c0b4     ui_players.obj
 0001:0001b0bc       $LN31                      4001c0bc     ui_players.obj
 0001:0001b0f0       _UI_PositionEntityOnTag    4001c0f0 f   ui_players.obj
 0001:0001b308       $LN8                       4001c308     ui_players.obj
 0001:0001b310       $LN7                       4001c310     ui_players.obj
 0001:0001b31c       $LN6                       4001c31c     ui_players.obj
 0001:0001b330       _UI_PositionRotatedEntityOnTag 4001c330 f   ui_players.obj
 0001:0001b554       $LN9                       4001c554     ui_players.obj
 0001:0001b55c       $LN8                       4001c55c     ui_players.obj
 0001:0001b574       $LN7                       4001c574     ui_players.obj
 0001:0001b57d       $LN6                       4001c57d     ui_players.obj
 0001:0001b818       $LN16                      4001c818     ui_players.obj
 0001:0001b820       $LN15                      4001c820     ui_players.obj
 0001:0001b844       $LN14                      4001c844     ui_players.obj
 0001:0001b84d       $LN13                      4001c84d     ui_players.obj
 0001:0001b856       $LN12                      4001c856     ui_players.obj
 0001:0001b860       _UI_RegisterClientSkin     4001c860 f   ui_players.obj
 0001:0001b964       $LN7                       4001c964     ui_players.obj
 0001:0001b96c       $LN6                       4001c96c     ui_players.obj
 0001:0001b978       $LN5                       4001c978     ui_players.obj
 0001:0001b990       _UI_RunLerpFrame           4001c990 f   ui_players.obj
 0001:0001bb80       _UI_SetLegsAnim            4001cb80 f   ui_players.obj
 0001:0001bbf0       _UI_SetLerpFrameAnimation  4001cbf0 f   ui_players.obj
 0001:0001bc90       _UI_SetTorsoAnim           4001cc90 f   ui_players.obj
 0001:0001bd00       _UI_SwingAngles            4001cd00 f   ui_players.obj
 0001:0001bf80       _UI_TorsoSequencing        4001cf80 f   ui_players.obj
 0001:0001c1e0       _PlayerSettings_DrawEffects 4001d1e0 f   ui_playersettings.obj
 0001:0001c350       _PlayerSettings_DrawHandicap 4001d350 f   ui_playersettings.obj
 0001:0001c440       _PlayerSettings_DrawName   4001d440 f   ui_playersettings.obj
 0001:0001c698       $LN16                      4001d698     ui_playersettings.obj
 0001:0001c6a0       $LN15                      4001d6a0     ui_playersettings.obj
 0001:0001c6ac       $LN14                      4001d6ac     ui_playersettings.obj
 0001:0001c6c0       _PlayerSettings_DrawPlayer 4001d6c0 f   ui_playersettings.obj
 0001:0001c81c       $LN7                       4001d81c     ui_playersettings.obj
 0001:0001c824       $LN6                       4001d824     ui_playersettings.obj
 0001:0001c83c       $LN5                       4001d83c     ui_playersettings.obj
 0001:0001c840       $LN4                       4001d840     ui_playersettings.obj
 0001:0001c850       _PlayerSettings_MenuEvent  4001d850 f   ui_playersettings.obj
 0001:0001c900       _PlayerSettings_MenuInit   4001d900 f   ui_playersettings.obj
 0001:0001cda0       _PlayerSettings_MenuKey    4001dda0 f   ui_playersettings.obj
 0001:0001ce00       _PlayerSettings_SaveChanges 4001de00 f   ui_playersettings.obj
 0001:0001ce90       _PlayerSettings_SetMenuItems 4001de90 f   ui_playersettings.obj
 0001:0001d034       $LN7                       4001e034     ui_playersettings.obj
 0001:0001d03c       $LN6                       4001e03c     ui_playersettings.obj
 0001:0001d048       $LN5                       4001e048     ui_playersettings.obj
 0001:0001d0b0       _Crosshair_Draw            4001e0b0 f   ui_preferences.obj
 0001:0001d340       _Preferences_Event         4001e340 f   ui_preferences.obj
 0001:0001d580       $LN23                      4001e580     ui_preferences.obj
 0001:0001d5b0       _Preferences_MenuInit      4001e5b0 f   ui_preferences.obj
 0001:0001dc00       _Preferences_SetMenuItems  4001ec00 f   ui_preferences.obj
 0001:0001df80       _Action_Draw               4001ef80 f   ui_qmenu.obj
 0001:0001e0b0       _Action_Init               4001f0b0 f   ui_qmenu.obj
 0001:0001e140       _BText_Draw                4001f140 f   ui_qmenu.obj
 0001:0001e1d0       _BText_Init                4001f1d0 f   ui_qmenu.obj
 0001:0001e624       $LN24                      4001f624     ui_qmenu.obj
 0001:0001e62c       $LN23                      4001f62c     ui_qmenu.obj
 0001:0001e638       $LN22                      4001f638     ui_qmenu.obj
 0001:0001e950       $LN18                      4001f950     ui_qmenu.obj
 0001:0001efe0       $LN32                      4001ffe0     ui_qmenu.obj
 0001:0001f000       $LN33                      40020000     ui_qmenu.obj
 0001:0001f01c       $LN31                      4002001c     ui_qmenu.obj
 0001:0001f38c       $LN27                      4002038c     ui_qmenu.obj
 0001:0001f500       _PText_Draw                40020500 f   ui_qmenu.obj
 0001:0001f5d0       _PText_Init                400205d0 f   ui_qmenu.obj
 0001:0001f6f0       _RadioButton_Draw          400206f0 f   ui_qmenu.obj
 0001:0001f930       _RadioButton_Init          40020930 f   ui_qmenu.obj
 0001:0001f9d0       _RadioButton_Key           400209d0 f   ui_qmenu.obj
 0001:0001faa4       $LN12                      40020aa4     ui_qmenu.obj
 0001:0001fab0       $LN11                      40020ab0     ui_qmenu.obj
 0001:0001fd50       _ScrollList_Init           40020d50 f   ui_qmenu.obj
 0001:00020674       $LN65                      40021674     ui_qmenu.obj
 0001:0002069c       $LN64                      4002169c     ui_qmenu.obj
 0001:000206d0       _Slider_Draw               400216d0 f   ui_qmenu.obj
 0001:00020920       _Slider_Init               40021920 f   ui_qmenu.obj
 0001:000209c0       _Slider_Key                400219c0 f   ui_qmenu.obj
 0001:00020b94       $LN20                      40021b94     ui_qmenu.obj
 0001:00020ba4       $LN19                      40021ba4     ui_qmenu.obj
 0001:00020be0       _SpinControl_Draw          40021be0 f   ui_qmenu.obj
 0001:00020d80       _SpinControl_Init          40021d80 f   ui_qmenu.obj
 0001:00020e70       _SpinControl_Key           40021e70 f   ui_qmenu.obj
 0001:00020fa0       $LN15                      40021fa0     ui_qmenu.obj
 0001:00020fb0       $LN14                      40021fb0     ui_qmenu.obj
 0001:00020ff0       _Text_Draw                 40021ff0 f   ui_qmenu.obj
 0001:00021114       $LN11                      40022114     ui_qmenu.obj
 0001:0002111c       $LN10                      4002211c     ui_qmenu.obj
 0001:00021128       $LN9                       40022128     ui_qmenu.obj
 0001:00021130       _Text_Init                 40022130 f   ui_qmenu.obj
 0001:000211c0       _UI_RemoveBotsMenu_BackEvent 400221c0 f   ui_removebots.obj
 0001:00021200       _UI_RemoveBotsMenu_BotEvent 40022200 f   ui_removebots.obj
 0001:00021260       _UI_RemoveBotsMenu_DeleteEvent 40022260 f   ui_removebots.obj
 0001:000212d0       _UI_RemoveBotsMenu_DownEvent 400222d0 f   ui_removebots.obj
 0001:00021330       _UI_RemoveBotsMenu_GetBots 40022330 f   ui_removebots.obj
 0001:00021448       $LN9                       40022448     ui_removebots.obj
 0001:00021450       $LN8                       40022450     ui_removebots.obj
 0001:0002145c       $LN7                       4002245c     ui_removebots.obj
 0001:00021470       _UI_RemoveBotsMenu_Init    40022470 f   ui_removebots.obj
 0001:000218f0       _UI_RemoveBotsMenu_SetBotNames 400228f0 f   ui_removebots.obj
 0001:000219e4       $LN8                       400229e4     ui_removebots.obj
 0001:000219ec       $LN7                       400229ec     ui_removebots.obj
 0001:000219f8       $LN6                       400229f8     ui_removebots.obj
 0001:00021a00       _UI_RemoveBotsMenu_UpEvent 40022a00 f   ui_removebots.obj
 0001:00021c58       $LN14                      40022c58     ui_serverinfo.obj
 0001:00021c60       $LN13                      40022c60     ui_serverinfo.obj
 0001:00021c78       $LN12                      40022c78     ui_serverinfo.obj
 0001:00021c83       $LN11                      40022c83     ui_serverinfo.obj
 0001:00021d00       _ServerInfo_Event          40022d00 f   ui_serverinfo.obj
 0001:00021d80       _ServerInfo_MenuDraw       40022d80 f   ui_serverinfo.obj
 0001:00021eb4       $LN10                      40022eb4     ui_serverinfo.obj
 0001:00021ebc       $LN9                       40022ebc     ui_serverinfo.obj
 0001:00021ee0       $LN8                       40022ee0     ui_serverinfo.obj
 0001:00021ee6       $LN7                       40022ee6     ui_serverinfo.obj
 0001:00021eea       $LN6                       40022eea     ui_serverinfo.obj
 0001:00021ef0       _ServerInfo_MenuKey        40022ef0 f   ui_serverinfo.obj
 0001:0002227c       $LN12                      4002327c     ui_serverinfo.obj
 0001:00022284       $LN11                      40023284     ui_serverinfo.obj
 0001:000222a8       $LN10                      400232a8     ui_serverinfo.obj
 0001:000222ae       $LN9                       400232ae     ui_serverinfo.obj
 0001:000222b2       $LN8                       400232b2     ui_serverinfo.obj
 0001:000223c0       _ArenaServers_Compare      400233c0 f   ui_servers2.obj
 0001:00022554       $LN18                      40023554     ui_servers2.obj
 0001:00022570       _ArenaServers_DoRefresh    40023570 f   ui_servers2.obj
 0001:000228d4       $LN42                      400238d4     ui_servers2.obj
 0001:000228dc       $LN41                      400238dc     ui_servers2.obj
 0001:00022900       $LN40                      40023900     ui_servers2.obj
 0001:00022905       $LN39                      40023905     ui_servers2.obj
 0001:0002290c       $LN38                      4002390c     ui_servers2.obj
 0001:00022920       _ArenaServers_Event        40023920 f   ui_servers2.obj
 0001:00022b54       $LN25                      40023b54     ui_servers2.obj
 0001:00022b90       _ArenaServers_Go           40023b90 f   ui_servers2.obj
 0001:00022c00       _ArenaServers_Insert       40023c00 f   ui_servers2.obj
 0001:00022fe8       $LN15                      40023fe8     ui_servers2.obj
 0001:00022ff0       $LN14                      40023ff0     ui_servers2.obj
 0001:00022ffc       $LN13                      40023ffc     ui_servers2.obj
 0001:00023274       $LN22                      40024274     ui_servers2.obj
 0001:0002327c       $LN21                      4002427c     ui_servers2.obj
 0001:000232a0       $LN20                      400242a0     ui_servers2.obj
 0001:000232a9       $LN19                      400242a9     ui_servers2.obj
 0001:000232b0       $LN18                      400242b0     ui_servers2.obj
 0001:000232c0       _ArenaServers_MaxPing      400242c0 f   ui_servers2.obj
 0001:00023320       _ArenaServers_MenuDraw     40024320 f   ui_servers2.obj
 0001:00023370       _ArenaServers_MenuInit     40024370 f   ui_servers2.obj
 0001:00023e80       _ArenaServers_MenuKey      40024e80 f   ui_servers2.obj
 0001:00023f40       _ArenaServers_Remove       40024f40 f   ui_servers2.obj
 0001:00024380       _ArenaServers_StartRefresh 40025380 f   ui_servers2.obj
 0001:00024640       $LN29                      40025640     ui_servers2.obj
 0001:00024648       $LN28                      40025648     ui_servers2.obj
 0001:00024660       $LN27                      40025660     ui_servers2.obj
 0001:00024669       $LN26                      40025669     ui_servers2.obj
 0001:00024670       $LN30                      40025670     ui_servers2.obj
 0001:00024680       _ArenaServers_StopRefresh  40025680 f   ui_servers2.obj
 0001:00024720       _ArenaServers_UpdateMenu   40025720 f   ui_servers2.obj
 0001:00024c54       $LN43                      40025c54     ui_servers2.obj
 0001:00024c70       _ArenaServers_UpdatePicture 40025c70 f   ui_servers2.obj
 0001:00024d00       _Punkbuster_ConfirmDisable 40025d00 f   ui_servers2.obj
 0001:00024d90       _Punkbuster_ConfirmEnable  40025d90 f   ui_servers2.obj
 0001:00024e60       _Setup_ResetDefaults_Action 40025e60 f   ui_setup.obj
 0001:00024ed0       _Setup_ResetDefaults_Draw  40025ed0 f   ui_setup.obj
 0001:00025000       _UI_SetupMenu_Event        40026000 f   ui_setup.obj
 0001:000250ac       $LN13                      400260ac     ui_setup.obj
 0001:000250d0       _UI_SetupMenu_Init         400260d0 f   ui_setup.obj
 0001:00025680       _UI_SoundOptionsMenu_Event 40026680 f   ui_sound.obj
 0001:00025808       $LN16                      40026808     ui_sound.obj
 0001:00025830       _UI_SoundOptionsMenu_Init  40026830 f   ui_sound.obj
 0001:00025f80       _SpecifyServer_Event       40026f80 f   ui_specifyserver.obj
 0001:000260a0       $LN13                      400270a0     ui_specifyserver.obj
 0001:000260a8       $LN12                      400270a8     ui_specifyserver.obj
 0001:000260b4       $LN11                      400270b4     ui_specifyserver.obj
 0001:00026430       _PlayerIcon                40027430 f   ui_splevel.obj
 0001:00026524       $LN8                       40027524     ui_splevel.obj
 0001:0002652c       $LN7                       4002752c     ui_splevel.obj
 0001:00026538       $LN6                       40027538     ui_splevel.obj
 0001:00026540       _PlayerIconHandle          40027540 f   ui_splevel.obj
 0001:000265b8       $LN5                       400275b8     ui_splevel.obj
 0001:000265c0       $LN4                       400275c0     ui_splevel.obj
 0001:000265cc       $LN3                       400275cc     ui_splevel.obj
 0001:00026760       _UI_SPLevelMenu_AwardEvent 40027760 f   ui_splevel.obj
 0001:000267c0       _UI_SPLevelMenu_BackEvent  400277c0 f   ui_splevel.obj
 0001:00026a40       _UI_SPLevelMenu_CustomEvent 40027a40 f   ui_splevel.obj
 0001:00026a90       _UI_SPLevelMenu_Init       40027a90 f   ui_splevel.obj
 0001:000274f0       $LN21                      400284f0     ui_splevel.obj
 0001:000274f8       $LN20                      400284f8     ui_splevel.obj
 0001:00027504       $LN19                      40028504     ui_splevel.obj
 0001:00027510       _UI_SPLevelMenu_LeftArrowEvent 40028510 f   ui_splevel.obj
 0001:00027570       _UI_SPLevelMenu_LevelEvent 40028570 f   ui_splevel.obj
 0001:00027620       _UI_SPLevelMenu_MenuDraw   40028620 f   ui_splevel.obj
 0001:00027d84       $LN37                      40028d84     ui_splevel.obj
 0001:00027d8c       $LN36                      40028d8c     ui_splevel.obj
 0001:00027db0       $LN35                      40028db0     ui_splevel.obj
 0001:00027db7       $LN34                      40028db7     ui_splevel.obj
 0001:00027dbb       $LN33                      40028dbb     ui_splevel.obj
 0001:00027dd0       _UI_SPLevelMenu_NextEvent  40028dd0 f   ui_splevel.obj
 0001:00027e40       _UI_SPLevelMenu_PlayerEvent 40028e40 f   ui_splevel.obj
 0001:00027eb0       _UI_SPLevelMenu_ResetAction 40028eb0 f   ui_splevel.obj
 0001:00027f20       _UI_SPLevelMenu_ResetDraw  40028f20 f   ui_splevel.obj
 0001:00027fd0       _UI_SPLevelMenu_ResetEvent 40028fd0 f   ui_splevel.obj
 0001:00028030       _UI_SPLevelMenu_RightArrowEvent 40029030 f   ui_splevel.obj
 0001:00028090       _UI_SPLevelMenu_SetBots    40029090 f   ui_splevel.obj
 0001:00028284       $LN16                      40029284     ui_splevel.obj
 0001:0002828c       $LN15                      4002928c     ui_splevel.obj
 0001:00028298       $LN14                      40029298     ui_splevel.obj
 0001:000282a0       _UI_SPLevelMenu_SetMenuArena 400292a0 f   ui_splevel.obj
 0001:00028454       $LN9                       40029454     ui_splevel.obj
 0001:0002845c       $LN8                       4002945c     ui_splevel.obj
 0001:00028468       $LN7                       40029468     ui_splevel.obj
 0001:00028470       _UI_SPLevelMenu_SetMenuItems 40029470 f   ui_splevel.obj
 0001:000289b0       _Prepname                  400299b0 f   ui_sppostgame.obj
 0001:00028ad0       $LN10                      40029ad0     ui_sppostgame.obj
 0001:00028ad8       $LN9                       40029ad8     ui_sppostgame.obj
 0001:00028af0       $LN8                       40029af0     ui_sppostgame.obj
 0001:00028af5       $LN7                       40029af5     ui_sppostgame.obj
 0001:00028b00       _UI_SPPostgameMenu_AgainEvent 40029b00 f   ui_sppostgame.obj
 0001:00028c60       _UI_SPPostgameMenu_DrawAwardsMedals 40029c60 f   ui_sppostgame.obj
 0001:00028db0       $LN11                      40029db0     ui_sppostgame.obj
 0001:00028db8       $LN10                      40029db8     ui_sppostgame.obj
 0001:00028dc4       $LN9                       40029dc4     ui_sppostgame.obj
 0001:00028dd0       _UI_SPPostgameMenu_DrawAwardsPresentation 40029dd0 f   ui_sppostgame.obj
 0001:00028f20       $LN6                       40029f20     ui_sppostgame.obj
 0001:00028f28       $LN5                       40029f28     ui_sppostgame.obj
 0001:00028f34       $LN4                       40029f34     ui_sppostgame.obj
 0001:00028f40       _UI_SPPostgameMenu_Init    40029f40 f   ui_sppostgame.obj
 0001:00029110       _UI_SPPostgameMenu_MenuDraw 4002a110 f   ui_sppostgame.obj
 0001:000294d0       $LN23                      4002a4d0     ui_sppostgame.obj
 0001:000294d8       $LN22                      4002a4d8     ui_sppostgame.obj
 0001:000294e4       $LN21                      4002a4e4     ui_sppostgame.obj
 0001:000294f0       _UI_SPPostgameMenu_MenuDrawScoreLine 4002a4f0 f   ui_sppostgame.obj
 0001:00029644       $LN9                       4002a644     ui_sppostgame.obj
 0001:0002964c       $LN8                       4002a64c     ui_sppostgame.obj
 0001:00029664       $LN7                       4002a664     ui_sppostgame.obj
 0001:00029669       $LN6                       4002a669     ui_sppostgame.obj
 0001:00029670       _UI_SPPostgameMenu_MenuEvent 4002a670 f   ui_sppostgame.obj
 0001:000296c0       _UI_SPPostgameMenu_MenuKey 4002a6c0 f   ui_sppostgame.obj
 0001:000297a0       _UI_SPPostgameMenu_NextEvent 4002a7a0 f   ui_sppostgame.obj
 0001:00029ee0       $LN26                      4002aee0     ui_sppostgame.obj
 0001:00029ee8       $LN25                      4002aee8     ui_sppostgame.obj
 0001:00029f0c       $LN24                      4002af0c     ui_sppostgame.obj
 0001:00029f11       $LN23                      4002af11     ui_sppostgame.obj
 0001:00029f15       $LN22                      4002af15     ui_sppostgame.obj
 0001:00029f80       _Reset_MenuDraw            4002af80 f   ui_spreset.obj
 0001:0002a140       _Reset_MenuKey             4002b140 f   ui_spreset.obj
 0001:0002a1e4       $LN9                       4002b1e4     ui_spreset.obj
 0001:0002a1f4       $LN8                       4002b1f4     ui_spreset.obj
 0001:0002a48c       $LN7                       4002b48c     ui_spreset.obj
 0001:0002a494       $LN6                       4002b494     ui_spreset.obj
 0001:0002a4a0       $LN5                       4002b4a0     ui_spreset.obj
 0001:0002a4b0       _SetSkillColor             4002b4b0 f   ui_spskill.obj
 0001:0002a534       $LN11                      4002b534     ui_spskill.obj
 0001:0002a5b0       _UI_SPSkillMenu_BackEvent  4002b5b0 f   ui_spskill.obj
 0001:0002a730       _UI_SPSkillMenu_FightEvent 4002b730 f   ui_spskill.obj
 0001:0002a780       _UI_SPSkillMenu_Init       4002b780 f   ui_spskill.obj
 0001:0002ac60       _UI_SPSkillMenu_Key        4002bc60 f   ui_spskill.obj
 0001:0002acd0       _UI_SPSkillMenu_SkillEvent 4002bcd0 f   ui_spskill.obj
 0001:0002ada0       _BotAlreadySelected        4002bda0 f   ui_startserver.obj
 0001:0002ae50       _GametypeBits              4002be50 f   ui_startserver.obj
 0001:0002af88       $LN18                      4002bf88     ui_startserver.obj
 0001:0002af90       $LN17                      4002bf90     ui_startserver.obj
 0001:0002af9c       $LN16                      4002bf9c     ui_startserver.obj
 0001:0002afa0       _PlayerName_Draw           4002bfa0 f   ui_startserver.obj
 0001:0002b1c0       _ServerOptions_Event       4002c1c0 f   ui_startserver.obj
 0001:0002b260       $LN14                      4002c260     ui_startserver.obj
 0001:0002b280       _ServerOptions_InitBotNames 4002c280 f   ui_startserver.obj
 0001:0002b5dc       $LN28                      4002c5dc     ui_startserver.obj
 0001:0002b5e4       $LN27                      4002c5e4     ui_startserver.obj
 0001:0002b5f0       $LN26                      4002c5f0     ui_startserver.obj
 0001:0002b600       _ServerOptions_InitPlayerItems 4002c600 f   ui_startserver.obj
 0001:0002b7b0       _ServerOptions_LevelshotDraw 4002c7b0 f   ui_startserver.obj
 0001:0002b8f0       _ServerOptions_MenuInit    4002c8f0 f   ui_startserver.obj
 0001:0002c2b0       _ServerOptions_PlayerNameEvent 4002d2b0 f   ui_startserver.obj
 0001:0002c310       _ServerOptions_SetMenuItems 4002d310 f   ui_startserver.obj
 0001:0002c710       _ServerOptions_SetPlayerItems 4002d710 f   ui_startserver.obj
 0001:0002c860       _ServerOptions_Start       4002d860 f   ui_startserver.obj
 0001:0002cd80       $LN25                      4002dd80     ui_startserver.obj
 0001:0002cd88       $LN24                      4002dd88     ui_startserver.obj
 0001:0002cd94       $LN23                      4002dd94     ui_startserver.obj
 0001:0002cda0       _ServerOptions_StatusBar   4002dda0 f   ui_startserver.obj
 0001:0002ce00       _ServerPlayerIcon          4002de00 f   ui_startserver.obj
 0001:0002cef4       $LN8                       4002def4     ui_startserver.obj
 0001:0002cefc       $LN7                       4002defc     ui_startserver.obj
 0001:0002cf08       $LN6                       4002df08     ui_startserver.obj
 0001:0002d100       $LN9                       4002e100     ui_startserver.obj
 0001:0002d108       $LN8                       4002e108     ui_startserver.obj
 0001:0002d114       $LN7                       4002e114     ui_startserver.obj
 0001:0002d120       _StartServer_GametypeEvent 4002e120 f   ui_startserver.obj
 0001:0002d290       _StartServer_LevelshotDraw 4002e290 f   ui_startserver.obj
 0001:0002d4d0       _StartServer_MapEvent      4002e4d0 f   ui_startserver.obj
 0001:0002d530       _StartServer_MenuEvent     4002e530 f   ui_startserver.obj
 0001:0002d61c       $LN12                      4002e61c     ui_startserver.obj
 0001:0002d630       _StartServer_MenuInit      4002e630 f   ui_startserver.obj
 0001:0002dce0       _StartServer_Update        4002ece0 f   ui_startserver.obj
 0001:0002df90       _UI_BotSelectMenu_BackEvent 4002ef90 f   ui_startserver.obj
 0001:0002dfd0       _UI_BotSelectMenu_BotEvent 4002efd0 f   ui_startserver.obj
 0001:0002e0b0       _UI_BotSelectMenu_BuildList 4002f0b0 f   ui_startserver.obj
 0001:0002e230       _UI_BotSelectMenu_Default  4002f230 f   ui_startserver.obj
 0001:0002e320       _UI_BotSelectMenu_Init     4002f320 f   ui_startserver.obj
 0001:0002e8c0       _UI_BotSelectMenu_LeftEvent 4002f8c0 f   ui_startserver.obj
 0001:0002e930       _UI_BotSelectMenu_RightEvent 4002f930 f   ui_startserver.obj
 0001:0002e9a0       _UI_BotSelectMenu_SelectEvent 4002f9a0 f   ui_startserver.obj
 0001:0002ea20       _UI_BotSelectMenu_SortCompare 4002fa20 f   ui_startserver.obj
 0001:0002eac0       _UI_BotSelectMenu_UpdateGrid 4002fac0 f   ui_startserver.obj
 0001:0002ed80       _UI_ServerOptionsMenu      4002fd80 f   ui_startserver.obj
 0001:00030ce0       _TeamMain_MenuEvent        40031ce0 f   ui_team.obj
 0001:00030da4       $LN10                      40031da4     ui_team.obj
 0001:00031104       $LN9                       40032104     ui_team.obj
 0001:0003110c       $LN8                       4003210c     ui_team.obj
 0001:00031118       $LN7                       40032118     ui_team.obj
 0001:000311c0       _UI_TeamOrdersMenu_BackEvent 400321c0 f   ui_teamorders.obj
 0001:00031200       _UI_TeamOrdersMenu_BuildBotList 40032200 f   ui_teamorders.obj
 0001:0003147c       $LN15                      4003247c     ui_teamorders.obj
 0001:00031484       $LN14                      40032484     ui_teamorders.obj
 0001:0003149c       $LN13                      4003249c     ui_teamorders.obj
 0001:000314a1       $LN12                      400324a1     ui_teamorders.obj
 0001:00031510       _UI_TeamOrdersMenu_Init    40032510 f   ui_teamorders.obj
 0001:000318c4       $LN16                      400328c4     ui_teamorders.obj
 0001:000318d4       $LN15                      400328d4     ui_teamorders.obj
 0001:00031910       _UI_TeamOrdersMenu_ListDraw 40032910 f   ui_teamorders.obj
 0001:00031a10       _UI_TeamOrdersMenu_ListEvent 40032a10 f   ui_teamorders.obj
 0001:00031b3c       $LN11                      40032b3c     ui_teamorders.obj
 0001:00031b44       $LN10                      40032b44     ui_teamorders.obj
 0001:00031b50       $LN9                       40032b50     ui_teamorders.obj
 0001:00031b60       _UI_TeamOrdersMenu_SetList 40032b60 f   ui_teamorders.obj
 0001:00031d14       $LN8                       40032d14     ui_teamorders.obj
 0001:00031d1c       $LN7                       40032d1c     ui_teamorders.obj
 0001:00031d34       $LN6                       40032d34     ui_teamorders.obj
 0001:00031d39       $LN5                       40032d39     ui_teamorders.obj
 0001:00031db0       _DriverInfo_Event          40032db0 f   ui_video.obj
 0001:00031e10       _DriverInfo_MenuDraw       40032e10 f   ui_video.obj
 0001:00031ff0       _GraphicsOptions_ApplyChanges 40032ff0 f   ui_video.obj
 0001:000323e0       _GraphicsOptions_CheckConfig 400333e0 f   ui_video.obj
 0001:00032500       _GraphicsOptions_Event     40033500 f   ui_video.obj
 0001:00032650       $LN18                      40033650     ui_video.obj
 0001:00032680       _GraphicsOptions_GetInitialVideo 40033680 f   ui_video.obj
 0001:00033040       _GraphicsOptions_SetMenuItems 40034040 f   ui_video.obj
 0001:000332e0       _GraphicsOptions_TQEvent   400342e0 f   ui_video.obj
 0001:00033330       _GraphicsOptions_UpdateMenuItems 40034330 f   ui_video.obj
 0001:00033530       _UI_DriverInfo_Menu        40034530 f   ui_video.obj
 0001:00033890       $$000000                   40034890     LIBCMTD:cos.obj
 0001:00033ac0       $$000000                   40034ac0     LIBCMTD:sin.obj
 0001:00034e60       _swprintf                  40035e60 f   LIBCMTD:wassert.obj
 0001:00034ea0       $$000000                   40035ea0     LIBCMTD:87ctriga.obj
 0001:00034ec0       $$000000                   40035ec0     LIBCMTD:sqrt.obj
 0001:00034f80       $$000000                   40035f80     LIBCMTD:memcpy.obj
 0001:000351d0       LeadUpVec                  400361d0     LIBCMTD:memcpy.obj
 0001:0003524c       UnwindUpVec                4003624c     LIBCMTD:memcpy.obj
 0001:000352b8       TrailUpVec                 400362b8     LIBCMTD:memcpy.obj
 0001:0003535c       LeadDownVec                4003635c     LIBCMTD:memcpy.obj
 0001:000353e8       UnwindDownVec              400363e8     LIBCMTD:memcpy.obj
 0001:00035454       TrailDownVec               40036454     LIBCMTD:memcpy.obj
 0001:000355d0       $$000000                   400365d0     LIBCMTD:memset.obj
 0001:00035d30       $$000000                   40036d30     LIBCMTD:strcat.obj
 0001:00035e30       $$000000                   40036e30     LIBCMTD:strcmp.obj
 0001:00035ec0       $$000000                   40036ec0     LIBCMTD:strlen.obj
 0001:00035f50       $$000000                   40036f50     LIBCMTD:strchr.obj
 0001:00036080       $$000000                   40037080     LIBCMTD:strncpy.obj
 0001:000366f0       $$000000                   400376f0     LIBCMTD:chkstk.obj
 0001:00036c00       _shortsort                 40037c00 f   LIBCMTD:qsort.obj
 0001:00036c70       _swap                      40037c70 f   LIBCMTD:qsort.obj
 0001:00036cd0       $$000000                   40037cd0     LIBCMTD:ftol2.obj
 0001:00036d80       $$000000                   40037d80     LIBCMTD:strstr.obj
 0001:00036ff0       $$000000                   40037ff0     LIBCMTD:memmove.obj
 0001:00037240       LeadUpVec                  40038240     LIBCMTD:memmove.obj
 0001:000372bc       UnwindUpVec                400382bc     LIBCMTD:memmove.obj
 0001:00037328       TrailUpVec                 40038328     LIBCMTD:memmove.obj
 0001:000373cc       LeadDownVec                400383cc     LIBCMTD:memmove.obj
 0001:00037458       UnwindDownVec              40038458     LIBCMTD:memmove.obj
 0001:000374c4       TrailDownVec               400384c4     LIBCMTD:memmove.obj
 0001:00037640       $$000000                   40038640     LIBCMTD:tan.obj
 0001:00037a20       ___DllMainCRTStartup       40038a20 f   LIBCMTD:dllcrt0.obj
 0001:00037c80       $$000000                   40038c80     LIBCMTD:cos_pentium4.obj
 0001:00037e30       $$000000                   40038e30     LIBCMTD:87disp.obj
 0001:00038000       $$000000                   40039000     LIBCMTD:common.obj
 0001:00038190       $$000000                   40039190     LIBCMTD:genexcep.obj
 0001:00038470       __get_fname                40039470 f   LIBCMTD:fpexcept.obj
 0001:00038e2c       $LN55                      40039e2c     LIBCMTD:fpexcept.obj
 0001:000394c0       $$000000                   4003a4c0     LIBCMTD:sin_pentium4.obj
 0001:0003ad34       $LN137                     4003bd34     LIBCMTD:strgtold.obj
 0001:0003ad64       $LN138                     4003bd64     LIBCMTD:strgtold.obj
 0001:0003ad74       $LN134                     4003bd74     LIBCMTD:strgtold.obj
 0001:0003adb0       $LN139                     4003bdb0     LIBCMTD:strgtold.obj
 0001:0003adbc       $LN135                     4003bdbc     LIBCMTD:strgtold.obj
 0001:0003adf8       $LN140                     4003bdf8     LIBCMTD:strgtold.obj
 0001:0003ae04       $LN136                     4003be04     LIBCMTD:strgtold.obj
 0001:0003b4f0       ?CPtoLocaleName@@YAPB_WH@Z 4003c4f0 f   LIBCMTD:mbctype.obj
 0001:0003b564       $LN10                      4003c564     LIBCMTD:mbctype.obj
 0001:0003b578       $LN9                       4003c578     LIBCMTD:mbctype.obj
 0001:0003b590       ?getSystemCP@@YAHH@Z       4003c590 f   LIBCMTD:mbctype.obj
 0001:0003b6a0       ?setSBCS@@YAXPAUthreadmbcinfostruct@@@Z 4003c6a0 f   LIBCMTD:mbctype.obj
 0001:0003b780       ?setSBUpLow@@YAXPAUthreadmbcinfostruct@@@Z 4003c780 f   LIBCMTD:mbctype.obj
 0001:0003d3a0       ?DebuggerProbe@@YAHK@Z     4003e3a0 f   LIBCMTD:error.obj
 0001:0003d440       ?DebuggerRuntime@@YAHKHPAXPB_W@Z 4003e440 f   LIBCMTD:error.obj
 0001:0003d7b0       ?_getMemBlockDataString@@YAXPAD00I@Z 4003e7b0 f   LIBCMTD:error.obj
 0001:0003d820       ?failwithmessage@@YAXPAXHHPBD@Z 4003e820 f   LIBCMTD:error.obj
 0001:0003e610       __cftoe2_l                 4003f610 f   LIBCMTD:cvt.obj
 0001:0003ec70       __cftof2_l                 4003fc70 f   LIBCMTD:cvt.obj
 0001:0003f690       __shift                    40040690 f   LIBCMTD:cvt.obj
 0001:00040d40       __initterm                 40041d40 f   LIBCMTD:crt0dat.obj
 0001:00040dd0       _doexit                    40041dd0 f   LIBCMTD:crt0dat.obj
 0001:00041160       @x64tow_s@24               40042160 f   LIBCMTD:xtows.obj
 0001:000416d0       _xtow_s@20                 400426d0 f   LIBCMTD:xtows.obj
 0001:00041f10       _flsall                    40042f10 f   LIBCMTD:fflush.obj
 0001:00043130       _ctrlevent_capture@4       40044130 f   LIBCMTD:winsig.obj
 0001:00043500       $LN41                      40044500     LIBCMTD:winsig.obj
 0001:00043518       $LN39                      40044518     LIBCMTD:winsig.obj
 0001:00043530       _siglookup                 40044530 f   LIBCMTD:winsig.obj
 0001:000438f0       $LN49                      400448f0     LIBCMTD:winsig.obj
 0001:00043904       $LN46                      40044904     LIBCMTD:winsig.obj
 0001:0004391c       $LN50                      4004491c     LIBCMTD:winsig.obj
 0001:00043924       $LN47                      40044924     LIBCMTD:winsig.obj
 0001:000440e0       $$000000                   400450e0     LIBCMTD:87triga.obj
 0001:00044190       $$000000                   40045190     LIBCMTD:87cdisp.obj
 0001:00044700       ___IsPackagedAppHelper     40045700 f   LIBCMTD:winapisupp.obj
 0001:000468e0       $LN171                     400478e0     LIBCMTD:output.obj
 0001:00046900       $LN172                     40047900     LIBCMTD:output.obj
 0001:00046918       $LN167                     40047918     LIBCMTD:output.obj
 0001:0004692c       $LN173                     4004792c     LIBCMTD:output.obj
 0001:00046940       $LN168                     40047940     LIBCMTD:output.obj
 0001:00046970       $LN174                     40047970     LIBCMTD:output.obj
 0001:000469ac       $LN169                     400479ac     LIBCMTD:output.obj
 0001:00046a50       _write_char                40047a50 f   LIBCMTD:output.obj
 0001:00046af0       _write_multi_char          40047af0 f   LIBCMTD:output.obj
 0001:00046b30       _write_string              40047b30 f   LIBCMTD:output.obj
 0001:0004a8d8       $LN424                     4004b8d8     LIBCMTD:outputp.obj
 0001:0004a8f8       $LN425                     4004b8f8     LIBCMTD:outputp.obj
 0001:0004a910       $LN420                     4004b910     LIBCMTD:outputp.obj
 0001:0004a924       $LN426                     4004b924     LIBCMTD:outputp.obj
 0001:0004a938       $LN421                     4004b938     LIBCMTD:outputp.obj
 0001:0004a968       $LN427                     4004b968     LIBCMTD:outputp.obj
 0001:0004a9a4       $LN422                     4004b9a4     LIBCMTD:outputp.obj
 0001:0004a9dc       $LN428                     4004b9dc     LIBCMTD:outputp.obj
 0001:0004ad10       _write_char                4004bd10 f   LIBCMTD:outputp.obj
 0001:0004adb0       _write_multi_char          4004bdb0 f   LIBCMTD:outputp.obj
 0001:0004adf0       _write_string              4004bdf0 f   LIBCMTD:outputp.obj
 0001:0004b310       ?__crtLCMapStringA_stat@@YAHPAUlocaleinfo_struct@@PB_WKPBDHPADHHH@Z 4004c310 f   LIBCMTD:a_map.obj
 0001:0004b5b0       ?strncnt@@YAHPBDH@Z        4004c5b0 f   LIBCMTD:a_map.obj
 0001:0004bc78       $LN16                      4004cc78     LIBCMTD:wsetloca.obj
 0001:0004bc90       __copytlocinfo_nolock      4004cc90 f   LIBCMTD:wsetloca.obj
 0001:0004c940       __wsetlocale_get_all       4004d940 f   LIBCMTD:wsetloca.obj
 0001:0004cd00       __wsetlocale_nolock        4004dd00 f   LIBCMTD:wsetloca.obj
 0001:0004d150       __wsetlocale_set_cat       4004e150 f   LIBCMTD:wsetloca.obj
 0001:0004d730       _sync_legacy_variables_lk  4004e730 f   LIBCMTD:wsetloca.obj
 0001:0004d770       ?strtoxq@@YA_KPAUlocaleinfo_struct@@PBDPAPBDHH@Z 4004e770 f   LIBCMTD:strtoq.obj
 0001:0004dd80       ?strtoxl@@YAKPAUlocaleinfo_struct@@PBDPAPBDHH@Z 4004ed80 f   LIBCMTD:strtol.obj
 0001:0004e360       $$000000                   4004f360     LIBCMTD:tan_pentium4.obj
 0001:0004e7f0       _xcptlookup                4004f7f0 f   LIBCMTD:winxfltr.obj
 0001:0004efa0       _parse_cmdline             4004ffa0 f   LIBCMTD:stdargv.obj
 0001:0004f4d0       ?_CrtMemDumpAllObjectsSince_stat@@YAXPBU_CrtMemState@@PAUlocaleinfo_struct@@@Z 400504d0 f   LIBCMTD:dbgheap.obj
 0001:0004f7e0       ?__crtIsBadReadPtr@@YAHPBXI@Z 400507e0 f   LIBCMTD:dbgheap.obj
 0001:0004f910       _CheckBytes                40050910 f   LIBCMTD:dbgheap.obj
 0001:0004fda4       $LN51                      40050da4     LIBCMTD:dbgheap.obj
 0001:00051c20       __heap_alloc_dbg_impl      40052c20 f   LIBCMTD:dbgheap.obj
 0001:000522c0       __nh_malloc_dbg_impl       400532c0 f   LIBCMTD:dbgheap.obj
 0001:00052340       __printMemBlockData        40053340 f   LIBCMTD:dbgheap.obj
 0001:00052660       _realloc_help              40053660 f   LIBCMTD:dbgheap.obj
 0001:00052ec0       _ValidateLocalCookies      40053ec0 f   LIBCMTD:chandler4.obj
 0001:000532b4       $LN19                      400542b4     LIBCMTD:87except.obj
 0001:000546f0       _fix_grouping              400556f0 f   LIBCMTD:initmon.obj
 0001:00054b70       _fix_grouping              40055b70 f   LIBCMTD:initnum.obj
 0001:00055630       __get_lc_time              40056630 f   LIBCMTD:inittime.obj
 0001:00056570       ?__crtGetStringTypeA_stat@@YAHPAUlocaleinfo_struct@@KPBDHPAGHH@Z 40057570 f   LIBCMTD:a_str.obj
 0001:000566d0       ?CatchGuardHandler@@YA?AW4_EXCEPTION_DISPOSITION@@PAUEHExceptionRecord@@PAUCatchGuardRN@@PAX2@Z 400576d0 f   LIBCMTD:_trnsctrl_.obj
 0001:00056720       ?TranslatorGuardHandler@@YA?AW4_EXCEPTION_DISPOSITION@@PAUEHExceptionRecord@@PAUTranslatorGuardRN@@PAX2@Z 40057720 f   LIBCMTD:_trnsctrl_.obj
 0001:00058520       ?GetPdbDll@@YAPAUHINSTANCE__@@XZ 40059520 f   LIBCMTD:pdblkup.obj
 0001:00058660       ?GetPdbDllFromInstallPath@@YAPAUHINSTANCE__@@XZ 40059660 f   LIBCMTD:pdblkup.obj
 0001:00058880       ?GetPdbDllPathFromFilePath@@YAHPB_WPA_WI@Z 40059880 f   LIBCMTD:pdblkup.obj
 0001:0005a090       $$000000                   4005b090     LIBCMTD:strrchr.obj
 0001:0005aa60       $$000000                   4005ba60     LIBCMTD:lldiv.obj
 0001:0005ab10       $$000000                   4005bb10     LIBCMTD:llrem.obj
 0001:0005abd0       $$000000                   4005bbd0     LIBCMTD:llshl.obj
 0001:0005abf0       $$000000                   4005bbf0     LIBCMTD:ullshr.obj
 0001:0005b0b0       __onexit_nolock            4005c0b0 f   LIBCMTD:onexit.obj
 0001:0005bc00       $$000000                   4005cc00     LIBCMTD:ulldiv.obj
 0001:0005bc70       $$000000                   4005cc70     LIBCMTD:ullrem.obj
 0001:0005e760       $LN160                     4005f760     LIBCMTD:woutput.obj
 0001:0005e780       $LN161                     4005f780     LIBCMTD:woutput.obj
 0001:0005e798       $LN156                     4005f798     LIBCMTD:woutput.obj
 0001:0005e7ac       $LN162                     4005f7ac     LIBCMTD:woutput.obj
 0001:0005e7c0       $LN157                     4005f7c0     LIBCMTD:woutput.obj
 0001:0005e7f0       $LN163                     4005f7f0     LIBCMTD:woutput.obj
 0001:0005e82c       $LN158                     4005f82c     LIBCMTD:woutput.obj
 0001:0005e870       _write_char                4005f870 f   LIBCMTD:woutput.obj
 0001:0005e8d0       _write_multi_char          4005f8d0 f   LIBCMTD:woutput.obj
 0001:0005e910       _write_string              4005f910 f   LIBCMTD:woutput.obj
 0001:0005fea8       $LN169                     40060ea8     LIBCMTD:woutputs.obj
 0001:0005fec8       $LN170                     40060ec8     LIBCMTD:woutputs.obj
 0001:0005fee0       $LN165                     40060ee0     LIBCMTD:woutputs.obj
 0001:0005fef4       $LN171                     40060ef4     LIBCMTD:woutputs.obj
 0001:0005ff08       $LN166                     40060f08     LIBCMTD:woutputs.obj
 0001:0005ff38       $LN172                     40060f38     LIBCMTD:woutputs.obj
 0001:0005ff74       $LN167                     40060f74     LIBCMTD:woutputs.obj
 0001:0005ffb0       _write_char                40060fb0 f   LIBCMTD:woutputs.obj
 0001:00060010       _write_multi_char          40061010 f   LIBCMTD:woutputs.obj
 0001:00060050       _write_string              40061050 f   LIBCMTD:woutputs.obj
 0001:00063c58       $LN398                     40064c58     LIBCMTD:woutputp.obj
 0001:00063c78       $LN399                     40064c78     LIBCMTD:woutputp.obj
 0001:00063c90       $LN394                     40064c90     LIBCMTD:woutputp.obj
 0001:00063ca4       $LN400                     40064ca4     LIBCMTD:woutputp.obj
 0001:00063cb8       $LN395                     40064cb8     LIBCMTD:woutputp.obj
 0001:00063ce8       $LN401                     40064ce8     LIBCMTD:woutputp.obj
 0001:00063d24       $LN396                     40064d24     LIBCMTD:woutputp.obj
 0001:00063d5c       $LN402                     40064d5c     LIBCMTD:woutputp.obj
 0001:00063d80       _write_char                40064d80 f   LIBCMTD:woutputp.obj
 0001:00063de0       _write_multi_char          40064de0 f   LIBCMTD:woutputp.obj
 0001:00063e20       _write_string              40064e20 f   LIBCMTD:woutputp.obj
 0001:000665e8       $LN180                     400675e8     LIBCMTD:outputs.obj
 0001:00066608       $LN181                     40067608     LIBCMTD:outputs.obj
 0001:00066620       $LN176                     40067620     LIBCMTD:outputs.obj
 0001:00066634       $LN182                     40067634     LIBCMTD:outputs.obj
 0001:00066648       $LN177                     40067648     LIBCMTD:outputs.obj
 0001:00066678       $LN183                     40067678     LIBCMTD:outputs.obj
 0001:000666b4       $LN178                     400676b4     LIBCMTD:outputs.obj
 0001:000666f0       _write_char                400676f0 f   LIBCMTD:outputs.obj
 0001:00066790       _write_multi_char          40067790 f   LIBCMTD:outputs.obj
 0001:000667d0       _write_string              400677d0 f   LIBCMTD:outputs.obj
 0001:00066c00       ___crtEnumLocalesProc@4    40067c00 f   LIBCMTD:winapinls.obj
 0001:00067760       _cmpBYTE                   40068760 f   LIBCMTD:memcmp.obj
 0001:00067790       _cmpDWORD                  40068790 f   LIBCMTD:memcmp.obj
 0001:00067860       _cmpResult                 40068860 f   LIBCMTD:memcmp.obj
 0001:00067890       _cmpWORD                   40068890 f   LIBCMTD:memcmp.obj
 0001:00067ab4       $LN22                      40068ab4     LIBCMTD:memcmp.obj
 0001:00067ad0       _unaligned_memcmp          40068ad0 f   LIBCMTD:memcmp.obj
 0001:00068154       $LN79                      40069154     LIBCMTD:memcmp.obj
 0001:000683b0       _GetLocaleNameFromDefault  400693b0 f   LIBCMTD:getqloc.obj
 0001:00068450       _GetLocaleNameFromLangCountry 40069450 f   LIBCMTD:getqloc.obj
 0001:00068530       _GetLocaleNameFromLanguage 40069530 f   LIBCMTD:getqloc.obj
 0001:000685c0       _GetPrimaryLen             400695c0 f   LIBCMTD:getqloc.obj
 0001:00068640       _LangCountryEnumProcEx@12  40069640 f   LIBCMTD:getqloc.obj
 0001:00068ba0       _LanguageEnumProcEx@12     40069ba0 f   LIBCMTD:getqloc.obj
 0001:00068ce0       _ProcessCodePage           40069ce0 f   LIBCMTD:getqloc.obj
 0001:00068d90       _TestDefaultCountry        40069d90 f   LIBCMTD:getqloc.obj
 0001:00068df0       _TestDefaultLanguage       40069df0 f   LIBCMTD:getqloc.obj
 0001:00068e40       _TranslateName             40069e40 f   LIBCMTD:getqloc.obj
 0001:000691b0       _CountryEnumProc@4         4006a1b0 f   LIBCMTD:getqloc_downlevel.obj
 0001:000692f0       _GetLcidFromCountry        4006a2f0 f   LIBCMTD:getqloc_downlevel.obj
 0001:00069360       _GetLcidFromDefault        4006a360 f   LIBCMTD:getqloc_downlevel.obj
 0001:000693a0       _GetLcidFromLangCountry    4006a3a0 f   LIBCMTD:getqloc_downlevel.obj
 0001:00069480       _GetLcidFromLanguage       4006a480 f   LIBCMTD:getqloc_downlevel.obj
 0001:00069510       _GetPrimaryLen             4006a510 f   LIBCMTD:getqloc_downlevel.obj
 0001:00069580       _LangCountryEnumProc@4     4006a580 f   LIBCMTD:getqloc_downlevel.obj
 0001:00069a20       _LanguageEnumProc@4        4006aa20 f   LIBCMTD:getqloc_downlevel.obj
 0001:00069c00       _LcidFromHexString         4006ac00 f   LIBCMTD:getqloc_downlevel.obj
 0001:00069c90       _ProcessCodePage           4006ac90 f   LIBCMTD:getqloc_downlevel.obj
 0001:00069d40       _TestDefaultCountry        4006ad40 f   LIBCMTD:getqloc_downlevel.obj
 0001:00069d90       _TestDefaultLanguage       4006ad90 f   LIBCMTD:getqloc_downlevel.obj
 0001:00069e20       _TranslateName             4006ae20 f   LIBCMTD:getqloc_downlevel.obj
 0001:0006a1a0       $$000000                   4006b1a0     LIBCMTD:llmul.obj
 0001:0006a1e0       $$000000                   4006b1e0     LIBCMTD:exsup4.obj
 0001:0006a270       __unwind_handler4          4006b270 f   LIBCMTD:exsup4.obj
 0001:0006a340       ?x_ismbbtype_l@@YAHPAUlocaleinfo_struct@@IHH@Z 4006b340 f   LIBCMTD:ismbbyte.obj
 0001:0006a980       __is_LFH_enabled           4006b980 f   LIBCMTD:expand.obj
 0001:0006aeb0       $$000000                   4006beb0     LIBCMTD:lowhelpr.obj
 0001:0006b0d0       ?CallCatchBlock@@YAPAXPAUEHExceptionRecord@@PAUEHRegistrationNode@@PAU_CONTEXT@@PBU_s_FuncInfo@@PAXHK@Z 4006c0d0 f   LIBCMTD:frame.obj
 0001:0006b370       ?CallUnexpected@@YAXPBU_s_ESTypeList@@@Z 4006c370 f   LIBCMTD:frame.obj
 0001:0006b3ba       __catch$?CallUnexpected@@YAXPBU_s_ESTypeList@@@Z$0 4006c3ba f   LIBCMTD:frame.obj
 0001:0006b400       ?CatchIt@@YAXPAUEHExceptionRecord@@PAUEHRegistrationNode@@PAU_CONTEXT@@PAXPBU_s_FuncInfo@@PBU_s_HandlerType@@PBU_s_CatchableType@@PBU_s_TryBlockMapEntry@@H1E@Z 4006c400 f   LIBCMTD:frame.obj
 0001:0006b4c0       ?ExFilterRethrow@@YAHPAU_EXCEPTION_POINTERS@@@Z 4006c4c0 f   LIBCMTD:frame.obj
 0001:0006b530       ?FindHandler@@YAXPAUEHExceptionRecord@@PAUEHRegistrationNode@@PAU_CONTEXT@@PAXPBU_s_FuncInfo@@EH1@Z 4006c530 f   LIBCMTD:frame.obj
 0001:0006ba00       ?FindHandlerForForeignException@@YAXPAUEHExceptionRecord@@PAUEHRegistrationNode@@PAU_CONTEXT@@PAXPBU_s_FuncInfo@@HH1@Z 4006ca00 f   LIBCMTD:frame.obj
 0001:0006bb90       ?IsInExceptionSpec@@YAEPAUEHExceptionRecord@@PBU_s_ESTypeList@@@Z 4006cb90 f   LIBCMTD:frame.obj
 0001:0006bc50       ?Is_bad_exception_allowed@@YAEPBU_s_ESTypeList@@@Z 4006cc50 f   LIBCMTD:frame.obj
 0001:0006d2e0       @x64toa_s@24               4006e2e0 f   LIBCMTD:xtoas.obj
 0001:0006d840       _xtoa_s@20                 4006e840 f   LIBCMTD:xtoas.obj
 0001:0006e410       ?wcsncnt@@YAIPB_WI@Z       4006f410 f   LIBCMTD:wcstombs.obj
 0001:00070740       ___abstract_cw_sse2        40071740 f   LIBCMTD:ieee87.obj
 0001:00070890       ___abstract_sw_sse2        40071890 f   LIBCMTD:ieee87.obj
 0001:00070920       ___clearfp_sse2            40071920 f   LIBCMTD:ieee87.obj
 0001:000709f0       ___control87_sse2          400719f0 f   LIBCMTD:ieee87.obj
 0001:00070a70       ___fpreset_sse2            40071a70 f   LIBCMTD:ieee87.obj
 0001:00070a90       ___hw_cw_sse2              40071a90 f   LIBCMTD:ieee87.obj
 0001:00070be0       ___statusfp_sse2           40071be0 f   LIBCMTD:ieee87.obj
 0001:00070c00       __abstract_cw              40071c00 f   LIBCMTD:ieee87.obj
 0001:00070d50       __abstract_sw              40071d50 f   LIBCMTD:ieee87.obj
 0001:00070f50       __hw_cw                    40071f50 f   LIBCMTD:ieee87.obj
 0001:000715e0       ?__crtGetLocaleInfoA_stat@@YAHPAUlocaleinfo_struct@@PB_WKPADH@Z 400725e0 f   LIBCMTD:a_loc.obj
 0001:00072a20       ?wcstoxl@@YAKPB_WPAPB_WHH@Z 40073a20 f   LIBCMTD:wcstol.obj
 0001:00073b30       $$000000                   40074b30     LIBCMTD:exsup.obj
 0001:00073b50       __unwind_handler           40074b50 f   LIBCMTD:exsup.obj
 0001:00074df0       ?wcstoxq@@YA_KPAUlocaleinfo_struct@@PB_WPAPB_WHH@Z 40075df0 f   LIBCMTD:wcstoq.obj
 0001:0007a25c       $LN57                      4007b25c     LIBCMTD:undname.obj
 0001:0007a288       $LN53                      4007b288     LIBCMTD:undname.obj
 0001:0007a2a8       $LN58                      4007b2a8     LIBCMTD:undname.obj
 0001:0007a2dc       $LN54                      4007b2dc     LIBCMTD:undname.obj
 0001:0007a338       $LN59                      4007b338     LIBCMTD:undname.obj
 0001:0007a348       $LN55                      4007b348     LIBCMTD:undname.obj
 0001:0007a368       $LN60                      4007b368     LIBCMTD:undname.obj
 0001:0007a370       $LN56                      4007b370     LIBCMTD:undname.obj
 0001:0007a4e0       $LN18                      4007b4e0     LIBCMTD:undname.obj
 0001:0007a500       $LN17                      4007b500     LIBCMTD:undname.obj
 0001:0007b570       $LN16                      4007c570     LIBCMTD:undname.obj
 0001:0007b590       $LN15                      4007c590     LIBCMTD:undname.obj
 0001:0007b724       $LN17                      4007c724     LIBCMTD:undname.obj
 0001:0007b744       $LN18                      4007c744     LIBCMTD:undname.obj
 0001:0007b74c       $LN16                      4007c74c     LIBCMTD:undname.obj
 0001:0007cab0       $LN62                      4007dab0     LIBCMTD:undname.obj
 0001:0007cacc       $LN59                      4007dacc     LIBCMTD:undname.obj
 0001:0007cb2c       $LN63                      4007db2c     LIBCMTD:undname.obj
 0001:0007cb60       $LN60                      4007db60     LIBCMTD:undname.obj
 0001:0007cbc0       $LN64                      4007dbc0     LIBCMTD:undname.obj
 0001:0007cbd4       $LN65                      4007dbd4     LIBCMTD:undname.obj
 0001:0007cbdc       $LN61                      4007dbdc     LIBCMTD:undname.obj
 0001:0007cf18       $LN28                      4007df18     LIBCMTD:undname.obj
 0001:0007cf2c       $LN26                      4007df2c     LIBCMTD:undname.obj
 0001:0007cf70       $LN29                      4007df70     LIBCMTD:undname.obj
 0001:0007cf94       $LN27                      4007df94     LIBCMTD:undname.obj
 0001:0007d904       $LN40                      4007e904     LIBCMTD:undname.obj
 0001:0007d91c       $LN39                      4007e91c     LIBCMTD:undname.obj
 0001:0007e5c4       $LN34                      4007f5c4     LIBCMTD:undname.obj
 0001:0007e5e8       $LN33                      4007f5e8     LIBCMTD:undname.obj
 0001:0007e63c       $LN35                      4007f63c     LIBCMTD:undname.obj
 0001:0007f224       $LN118                     40080224     LIBCMTD:undname.obj
 0001:0007f240       $LN119                     40080240     LIBCMTD:undname.obj
 0001:0007f268       $LN116                     40080268     LIBCMTD:undname.obj
 0001:0007f2bc       $LN120                     400802bc     LIBCMTD:undname.obj
 0001:0007f2d0       $LN117                     400802d0     LIBCMTD:undname.obj
 0001:0007f324       $LN121                     40080324     LIBCMTD:undname.obj
 0001:0007fd60       ?und_memcpy@@YAXPADPBDI@Z  40080d60 f   LIBCMTD:undname.obj
 0001:0007fda0       ?und_strlen@@YAIPBD@Z      40080da0 f   LIBCMTD:undname.obj
 0001:0007fde0       ?und_strncmp@@YAIPBD0I@Z   40080de0 f   LIBCMTD:undname.obj
 0001:00080280       __unwindfunclet$?getSystemCP@@YAHH@Z$0 40081280 f   LIBCMTD:mbctype.obj
 0001:00080288       __ehhandler$?getSystemCP@@YAHH@Z 40081288 f   LIBCMTD:mbctype.obj
 0001:000802b0       __unwindfunclet$?strtoxq@@YA_KPAUlocaleinfo_struct@@PBDPAPBDHH@Z$0 400812b0 f   LIBCMTD:strtoq.obj
 0001:000802b8       __ehhandler$?strtoxq@@YA_KPAUlocaleinfo_struct@@PBDPAPBDHH@Z 400812b8 f   LIBCMTD:strtoq.obj
 0001:000802e0       __unwindfunclet$?strtoxl@@YAKPAUlocaleinfo_struct@@PBDPAPBDHH@Z$0 400812e0 f   LIBCMTD:strtol.obj
 0001:000802e8       __ehhandler$?strtoxl@@YAKPAUlocaleinfo_struct@@PBDPAPBDHH@Z 400812e8 f   LIBCMTD:strtol.obj
 0001:00080310       __unwindfunclet$?x_ismbbtype_l@@YAHPAUlocaleinfo_struct@@IHH@Z$0 40081310 f   LIBCMTD:ismbbyte.obj
 0001:00080318       __ehhandler$?x_ismbbtype_l@@YAHPAUlocaleinfo_struct@@IHH@Z 40081318 f   LIBCMTD:ismbbyte.obj
 0001:00080340       __ehhandler$?CallUnexpected@@YAXPBU_s_ESTypeList@@@Z 40081340 f   LIBCMTD:frame.obj
 0001:00080360       __unwindfunclet$?wcstoxq@@YA_KPAUlocaleinfo_struct@@PB_WPAPB_WHH@Z$0 40081360 f   LIBCMTD:wcstoq.obj
 0001:00080368       __ehhandler$?wcstoxq@@YA_KPAUlocaleinfo_struct@@PB_WPAPB_WHH@Z 40081368 f   LIBCMTD:wcstoq.obj
 0001:00080390       __unwindfunclet$?make@DNameStatusNode@@SAPAV1@W4DNameStatus@@@Z$0 40081390 f   LIBCMTD:undname.obj
 0001:0008039e       __ehhandler$?make@DNameStatusNode@@SAPAV1@W4DNameStatus@@@Z 4008139e f   LIBCMTD:undname.obj
 0002:00000164       _pinit                     40082164     LIBCMTD:mathfcns.obj
 0002:00000168       _pinit                     40082168     LIBCMTD:mbctype.obj
 0002:0000016c       _pinit                     4008216c     LIBCMTD:_file.obj
 0002:00000170       _pinit                     40082170     LIBCMTD:cpu_disp.obj
 0002:00000174       _pinit                     40082174     LIBCMTD:onexit.obj
 0002:00000180       _pterm                     40082180     LIBCMTD:wsetloca.obj
 0002:00000184       _pterm                     40082184     LIBCMTD:initcon.obj
 0002:00000188       _pterm                     40082188     LIBCMTD:_file.obj
 0002:00005eec       _GS_ExceptionPointers      40087eec     LIBCMTD:gs_report.obj
 0002:000060f0       Ctable                     400880f0     LIBCMTD:cos_pentium4.obj
 0002:000068f0       SC_1                       400888f0     LIBCMTD:cos_pentium4.obj
 0002:00006900       SC_2                       40088900     LIBCMTD:cos_pentium4.obj
 0002:00006910       SC_3                       40088910     LIBCMTD:cos_pentium4.obj
 0002:00006920       SC_4                       40088920     LIBCMTD:cos_pentium4.obj
 0002:00006930       PI32INV                    40088930     LIBCMTD:cos_pentium4.obj
 0002:00006938       SHIFTER                    40088938     LIBCMTD:cos_pentium4.obj
 0002:00006940       P_2                        40088940     LIBCMTD:cos_pentium4.obj
 0002:00006950       P_1                        40088950     LIBCMTD:cos_pentium4.obj
 0002:00006958       P_3                        40088958     LIBCMTD:cos_pentium4.obj
 0002:00006960       TWO_POW_55                 40088960     LIBCMTD:cos_pentium4.obj
 0002:00006968       TWO_POW_M55                40088968     LIBCMTD:cos_pentium4.obj
 0002:00006970       ALL_ONES                   40088970     LIBCMTD:cos_pentium4.obj
 0002:00006978       NEG_ZERO                   40088978     LIBCMTD:cos_pentium4.obj
 0002:00006980       ONE                        40088980     LIBCMTD:cos_pentium4.obj
 0002:00006990       SIGN_MASK                  40088990     LIBCMTD:cos_pentium4.obj
 0002:000069b4       One                        400889b4     LIBCMTD:87disp.obj
 0002:000069bc       XAMtoTagTab                400889bc     LIBCMTD:87disp.obj
 0002:000069d0       One                        400889d0     LIBCMTD:common.obj
 0002:000069e4       DblMax                     400889e4     LIBCMTD:common.obj
 0002:000069ec       DblMin                     400889ec     LIBCMTD:common.obj
 0002:000069f4       IeeeAdjO                   400889f4     LIBCMTD:common.obj
 0002:000069fc       IeeeAdjU                   400889fc     LIBCMTD:common.obj
 0002:00006a04       _infinity                  40088a04     LIBCMTD:common.obj
 0002:00006a0c       _zero                      40088a0c     LIBCMTD:common.obj
 0002:00006ae0       Ctable                     40088ae0     LIBCMTD:sin_pentium4.obj
 0002:000072e0       SC_1                       400892e0     LIBCMTD:sin_pentium4.obj
 0002:000072f0       SC_2                       400892f0     LIBCMTD:sin_pentium4.obj
 0002:00007300       SC_3                       40089300     LIBCMTD:sin_pentium4.obj
 0002:00007310       SC_4                       40089310     LIBCMTD:sin_pentium4.obj
 0002:00007320       PI32INV                    40089320     LIBCMTD:sin_pentium4.obj
 0002:00007328       SHIFTER                    40089328     LIBCMTD:sin_pentium4.obj
 0002:00007330       P_2                        40089330     LIBCMTD:sin_pentium4.obj
 0002:00007340       P_1                        40089340     LIBCMTD:sin_pentium4.obj
 0002:00007348       P_3                        40089348     LIBCMTD:sin_pentium4.obj
 0002:00007350       TWO_POW_55                 40089350     LIBCMTD:sin_pentium4.obj
 0002:00007358       TWO_POW_M55                40089358     LIBCMTD:sin_pentium4.obj
 0002:00007360       ALL_ONES                   40089360     LIBCMTD:sin_pentium4.obj
 0002:00007368       NEG_ZERO                   40089368     LIBCMTD:sin_pentium4.obj
 0002:00007370       ONE                        40089370     LIBCMTD:sin_pentium4.obj
 0002:00007704       __mb_locale_names          40089704     LIBCMTD:mbctype.obj
 0002:00007838       __CrtDbgModeMsg            40089838     LIBCMTD:dbgrptw.obj
 0002:000081dc       __RTC_ErrorMessages        4008a1dc     LIBCMTD:error.obj
 0002:000081f4       __RTC_NoFalsePositives     4008a1f4     LIBCMTD:error.obj
 0002:0000820c       _stack_premsg              4008a20c     LIBCMTD:error.obj
 0002:00008228       _stack_postmsg             4008a228     LIBCMTD:error.obj
 0002:0000823c       _uninit_premsg             4008a23c     LIBCMTD:error.obj
 0002:0000824c       _uninit_postmsg            4008a24c     LIBCMTD:error.obj
 0002:000087b4       __RTC_errlist              4008a7b4     LIBCMTD:userapi.obj
 0002:00009a10       _rterrs                    4008ba10     LIBCMTD:crt0msg.obj
 0002:0000a770       DblMax                     4008c770     LIBCMTD:87cdisp.obj
 0002:0000a778       DblMin                     4008c778     LIBCMTD:87cdisp.obj
 0002:0000a780       IeeeAdjO                   4008c780     LIBCMTD:87cdisp.obj
 0002:0000a788       IeeeAdjU                   4008c788     LIBCMTD:87cdisp.obj
 0002:0000a790       _infinity                  4008c790     LIBCMTD:87cdisp.obj
 0002:0000a798       _zero                      4008c798     LIBCMTD:87cdisp.obj
 0002:0000b740       __first_127char            4008d740     LIBCMTD:wsetloca.obj
 0002:0000c9a0       Ctable                     4008e9a0     LIBCMTD:tan_pentium4.obj
 0002:0000dfa0       PI32INV                    4008ffa0     LIBCMTD:tan_pentium4.obj
 0002:0000dfb0       SHIFTER                    4008ffb0     LIBCMTD:tan_pentium4.obj
 0002:0000dfc0       P_1                        4008ffc0     LIBCMTD:tan_pentium4.obj
 0002:0000dfd0       P_2                        4008ffd0     LIBCMTD:tan_pentium4.obj
 0002:0000dfe0       P_3                        4008ffe0     LIBCMTD:tan_pentium4.obj
 0002:0000dff0       QQ_2                       4008fff0     LIBCMTD:tan_pentium4.obj
 0002:0000dff8       ONE                        4008fff8     LIBCMTD:tan_pentium4.obj
 0002:0000e000       MASK_35                    40090000     LIBCMTD:tan_pentium4.obj
 0002:0000e010       sign_mask                  40090010     LIBCMTD:tan_pentium4.obj
 0002:0000e018       TWO_POW_55                 40090018     LIBCMTD:tan_pentium4.obj
 0002:0000e020       TWO_POW_M55                40090020     LIBCMTD:tan_pentium4.obj
 0002:0000e028       TWO_POW_M53                40090028     LIBCMTD:tan_pentium4.obj
 0002:0000e030       INF                        40090030     LIBCMTD:tan_pentium4.obj
 0002:0000e2a4       _szBlockUseName            400902a4     LIBCMTD:dbgheap.obj
 0002:00010e34       _mspdbName                 40092e34     LIBCMTD:pdblkup.obj
 0002:00010e50       _msvcrdFilename            40092e50     LIBCMTD:pdblkup.obj
 0002:00010f40       ?dllExt@?1??GetPdbDllPathFromFilePath@@YAHPB_WPA_WI@Z@4QB_WB 40092f40     LIBCMTD:pdblkup.obj
 0002:00010f48       ?mspdbFilename@?1??GetPdbDllPathFromFilePath@@YAHPB_WPA_WI@Z@4QB_WB 40092f48     LIBCMTD:pdblkup.obj
 0002:00010f88       __CrtDbgModeMsg            40092f88     LIBCMTD:dbgrpt.obj
 0002:000166e0       ?ExceptionTemplate@?1??_CxxThrowException@@9@8@4UEHExceptionRecord@@B 400986e0     LIBCMTD:throw.obj
 0002:00016a10       _tokenTable                40098a10     LIBCMTD:undname.obj
 0002:00016a44       _rttiTable                 40098a44     LIBCMTD:undname.obj
 0002:00016a58       _nameTable                 40098a58     LIBCMTD:undname.obj
 0002:00017984       __RTC_InitBase.rtc$IMZ     40099984     bg_misc.obj
 0002:00017988       __RTC_InitBase.rtc$IMZ     40099988     q_math.obj
 0002:0001798c       __RTC_InitBase.rtc$IMZ     4009998c     q_shared.obj
 0002:00017990       __RTC_InitBase.rtc$IMZ     40099990     ui_addbots.obj
 0002:00017994       __RTC_InitBase.rtc$IMZ     40099994     ui_atoms.obj
 0002:00017998       __RTC_InitBase.rtc$IMZ     40099998     ui_cdkey.obj
 0002:0001799c       __RTC_InitBase.rtc$IMZ     4009999c     ui_cinematics.obj
 0002:000179a0       __RTC_InitBase.rtc$IMZ     400999a0     ui_confirm.obj
 0002:000179a4       __RTC_InitBase.rtc$IMZ     400999a4     ui_connect.obj
 0002:000179a8       __RTC_InitBase.rtc$IMZ     400999a8     ui_controls2.obj
 0002:000179ac       __RTC_InitBase.rtc$IMZ     400999ac     ui_credits.obj
 0002:000179b0       __RTC_InitBase.rtc$IMZ     400999b0     ui_demo2.obj
 0002:000179b4       __RTC_InitBase.rtc$IMZ     400999b4     ui_display.obj
 0002:000179b8       __RTC_InitBase.rtc$IMZ     400999b8     ui_gameinfo.obj
 0002:000179bc       __RTC_InitBase.rtc$IMZ     400999bc     ui_ingame.obj
 0002:000179c0       __RTC_InitBase.rtc$IMZ     400999c0     ui_main.obj
 0002:000179c4       __RTC_InitBase.rtc$IMZ     400999c4     ui_menu.obj
 0002:000179c8       __RTC_InitBase.rtc$IMZ     400999c8     ui_mfield.obj
 0002:000179cc       __RTC_InitBase.rtc$IMZ     400999cc     ui_mods.obj
 0002:000179d0       __RTC_InitBase.rtc$IMZ     400999d0     ui_network.obj
 0002:000179d4       __RTC_InitBase.rtc$IMZ     400999d4     ui_options.obj
 0002:000179d8       __RTC_InitBase.rtc$IMZ     400999d8     ui_playermodel.obj
 0002:000179dc       __RTC_InitBase.rtc$IMZ     400999dc     ui_players.obj
 0002:000179e0       __RTC_InitBase.rtc$IMZ     400999e0     ui_playersettings.obj
 0002:000179e4       __RTC_InitBase.rtc$IMZ     400999e4     ui_preferences.obj
 0002:000179e8       __RTC_InitBase.rtc$IMZ     400999e8     ui_qmenu.obj
 0002:000179ec       __RTC_InitBase.rtc$IMZ     400999ec     ui_removebots.obj
 0002:000179f0       __RTC_InitBase.rtc$IMZ     400999f0     ui_serverinfo.obj
 0002:000179f4       __RTC_InitBase.rtc$IMZ     400999f4     ui_servers2.obj
 0002:000179f8       __RTC_InitBase.rtc$IMZ     400999f8     ui_setup.obj
 0002:000179fc       __RTC_InitBase.rtc$IMZ     400999fc     ui_sound.obj
 0002:00017a00       __RTC_InitBase.rtc$IMZ     40099a00     ui_sparena.obj
 0002:00017a04       __RTC_InitBase.rtc$IMZ     40099a04     ui_specifyserver.obj
 0002:00017a08       __RTC_InitBase.rtc$IMZ     40099a08     ui_splevel.obj
 0002:00017a0c       __RTC_InitBase.rtc$IMZ     40099a0c     ui_sppostgame.obj
 0002:00017a10       __RTC_InitBase.rtc$IMZ     40099a10     ui_spreset.obj
 0002:00017a14       __RTC_InitBase.rtc$IMZ     40099a14     ui_spskill.obj
 0002:00017a18       __RTC_InitBase.rtc$IMZ     40099a18     ui_startserver.obj
 0002:00017a1c       __RTC_InitBase.rtc$IMZ     40099a1c     ui_syscalls.obj
 0002:00017a20       __RTC_InitBase.rtc$IMZ     40099a20     ui_team.obj
 0002:00017a24       __RTC_InitBase.rtc$IMZ     40099a24     ui_teamorders.obj
 0002:00017a28       __RTC_InitBase.rtc$IMZ     40099a28     ui_video.obj
 0002:00017a34       __RTC_Shutdown.rtc$TMZ     40099a34     bg_misc.obj
 0002:00017a38       __RTC_Shutdown.rtc$TMZ     40099a38     q_math.obj
 0002:00017a3c       __RTC_Shutdown.rtc$TMZ     40099a3c     q_shared.obj
 0002:00017a40       __RTC_Shutdown.rtc$TMZ     40099a40     ui_addbots.obj
 0002:00017a44       __RTC_Shutdown.rtc$TMZ     40099a44     ui_atoms.obj
 0002:00017a48       __RTC_Shutdown.rtc$TMZ     40099a48     ui_cdkey.obj
 0002:00017a4c       __RTC_Shutdown.rtc$TMZ     40099a4c     ui_cinematics.obj
 0002:00017a50       __RTC_Shutdown.rtc$TMZ     40099a50     ui_confirm.obj
 0002:00017a54       __RTC_Shutdown.rtc$TMZ     40099a54     ui_connect.obj
 0002:00017a58       __RTC_Shutdown.rtc$TMZ     40099a58     ui_controls2.obj
 0002:00017a5c       __RTC_Shutdown.rtc$TMZ     40099a5c     ui_credits.obj
 0002:00017a60       __RTC_Shutdown.rtc$TMZ     40099a60     ui_demo2.obj
 0002:00017a64       __RTC_Shutdown.rtc$TMZ     40099a64     ui_display.obj
 0002:00017a68       __RTC_Shutdown.rtc$TMZ     40099a68     ui_gameinfo.obj
 0002:00017a6c       __RTC_Shutdown.rtc$TMZ     40099a6c     ui_ingame.obj
 0002:00017a70       __RTC_Shutdown.rtc$TMZ     40099a70     ui_main.obj
 0002:00017a74       __RTC_Shutdown.rtc$TMZ     40099a74     ui_menu.obj
 0002:00017a78       __RTC_Shutdown.rtc$TMZ     40099a78     ui_mfield.obj
 0002:00017a7c       __RTC_Shutdown.rtc$TMZ     40099a7c     ui_mods.obj
 0002:00017a80       __RTC_Shutdown.rtc$TMZ     40099a80     ui_network.obj
 0002:00017a84       __RTC_Shutdown.rtc$TMZ     40099a84     ui_options.obj
 0002:00017a88       __RTC_Shutdown.rtc$TMZ     40099a88     ui_playermodel.obj
 0002:00017a8c       __RTC_Shutdown.rtc$TMZ     40099a8c     ui_players.obj
 0002:00017a90       __RTC_Shutdown.rtc$TMZ     40099a90     ui_playersettings.obj
 0002:00017a94       __RTC_Shutdown.rtc$TMZ     40099a94     ui_preferences.obj
 0002:00017a98       __RTC_Shutdown.rtc$TMZ     40099a98     ui_qmenu.obj
 0002:00017a9c       __RTC_Shutdown.rtc$TMZ     40099a9c     ui_removebots.obj
 0002:00017aa0       __RTC_Shutdown.rtc$TMZ     40099aa0     ui_serverinfo.obj
 0002:00017aa4       __RTC_Shutdown.rtc$TMZ     40099aa4     ui_servers2.obj
 0002:00017aa8       __RTC_Shutdown.rtc$TMZ     40099aa8     ui_setup.obj
 0002:00017aac       __RTC_Shutdown.rtc$TMZ     40099aac     ui_sound.obj
 0002:00017ab0       __RTC_Shutdown.rtc$TMZ     40099ab0     ui_sparena.obj
 0002:00017ab4       __RTC_Shutdown.rtc$TMZ     40099ab4     ui_specifyserver.obj
 0002:00017ab8       __RTC_Shutdown.rtc$TMZ     40099ab8     ui_splevel.obj
 0002:00017abc       __RTC_Shutdown.rtc$TMZ     40099abc     ui_sppostgame.obj
 0002:00017ac0       __RTC_Shutdown.rtc$TMZ     40099ac0     ui_spreset.obj
 0002:00017ac4       __RTC_Shutdown.rtc$TMZ     40099ac4     ui_spskill.obj
 0002:00017ac8       __RTC_Shutdown.rtc$TMZ     40099ac8     ui_startserver.obj
 0002:00017acc       __RTC_Shutdown.rtc$TMZ     40099acc     ui_syscalls.obj
 0002:00017ad0       __RTC_Shutdown.rtc$TMZ     40099ad0     ui_team.obj
 0002:00017ad4       __RTC_Shutdown.rtc$TMZ     40099ad4     ui_teamorders.obj
 0002:00017ad8       __RTC_Shutdown.rtc$TMZ     40099ad8     ui_video.obj
 0002:00017ae0       __sehtable$__CRT_INIT@12   40099ae0     LIBCMTD:dllcrt0.obj
 0002:00017b00       __sehtable$___DllMainCRTStartup 40099b00     LIBCMTD:dllcrt0.obj
 0002:00017b20       __sehtable$___set_fpsr_sse2 40099b20     LIBCMTD:fpctrl.obj
 0002:00017b40       __sehtable$___updatetlocinfo 40099b40     LIBCMTD:localref.obj
 0002:00017b60       __sehtable$___updatetmbcinfo 40099b60     LIBCMTD:mbctype.obj
 0002:00017b80       __sehtable$__setmbcp       40099b80     LIBCMTD:mbctype.obj
 0002:00017b9c       __unwindtable$?getSystemCP@@YAHH@Z 40099b9c     LIBCMTD:mbctype.obj
 0002:00017ba4       __ehfuncinfo$?getSystemCP@@YAHH@Z 40099ba4     LIBCMTD:mbctype.obj
 0002:00017bc8       __sehtable$__freefls@4     40099bc8     LIBCMTD:tidtable.obj
 0002:00017bf0       __sehtable$__initptd       40099bf0     LIBCMTD:tidtable.obj
 0002:00017c18       __sehtable$__CrtSetReportHookW2 40099c18     LIBCMTD:dbgrptw.obj
 0002:00017c38       __sehtable$?DebuggerProbe@@YAHK@Z 40099c38     LIBCMTD:error.obj
 0002:00017c58       __sehtable$?DebuggerRuntime@@YAHKHPAXPB_W@Z 40099c58     LIBCMTD:error.obj
 0002:00017c78       __sehtable$_doexit         40099c78     LIBCMTD:crt0dat.obj
 0002:00017c98       __sehtable$_fflush         40099c98     LIBCMTD:fflush.obj
 0002:00017cb8       __sehtable$_flsall         40099cb8     LIBCMTD:fflush.obj
 0002:00017ce0       __sehtable$_setvbuf        40099ce0     LIBCMTD:setvbuf.obj
 0002:00017d00       __sehtable$_fwprintf       40099d00     LIBCMTD:fwprintf.obj
 0002:00017d20       __sehtable$_signal         40099d20     LIBCMTD:winsig.obj
 0002:00017d40       __sehtable$_raise          40099d40     LIBCMTD:winsig.obj
 0002:00017d60       __sehtable$_ctrlevent_capture@4 40099d60     LIBCMTD:winsig.obj
 0002:00017d80       __sehtable$__get_current_locale 40099d80     LIBCMTD:wsetloca.obj
 0002:00017da8       __sehtable$__free_locale   40099da8     LIBCMTD:wsetloca.obj
 0002:00017dd0       __sehtable$__wsetlocale    40099dd0     LIBCMTD:wsetloca.obj
 0002:00017e08       __sehtable$__locterm       40099e08     LIBCMTD:wsetloca.obj
 0002:00017e24       __unwindtable$?strtoxq@@YA_KPAUlocaleinfo_struct@@PBDPAPBDHH@Z 40099e24     LIBCMTD:strtoq.obj
 0002:00017e2c       __ehfuncinfo$?strtoxq@@YA_KPAUlocaleinfo_struct@@PBDPAPBDHH@Z 40099e2c     LIBCMTD:strtoq.obj
 0002:00017e50       __unwindtable$?strtoxl@@YAKPAUlocaleinfo_struct@@PBDPAPBDHH@Z 40099e50     LIBCMTD:strtol.obj
 0002:00017e58       __ehfuncinfo$?strtoxl@@YAKPAUlocaleinfo_struct@@PBDPAPBDHH@Z 40099e58     LIBCMTD:strtol.obj
 0002:00017e80       __sehtable$__ioinit        40099e80     LIBCMTD:ioinit.obj
 0002:00017ea0       __sehtable$__realloc_dbg   40099ea0     LIBCMTD:dbgheap.obj
 0002:00017ec0       __sehtable$__expand_dbg    40099ec0     LIBCMTD:dbgheap.obj
 0002:00017ee0       __sehtable$__free_dbg      40099ee0     LIBCMTD:dbgheap.obj
 0002:00017f00       __sehtable$__msize_dbg     40099f00     LIBCMTD:dbgheap.obj
 0002:00017f20       __sehtable$__CrtCheckMemory 40099f20     LIBCMTD:dbgheap.obj
 0002:00017f40       __sehtable$__CrtSetDbgFlag 40099f40     LIBCMTD:dbgheap.obj
 0002:00017f60       __sehtable$__CrtDoForAllClientObjects 40099f60     LIBCMTD:dbgheap.obj
 0002:00017f80       __sehtable$__CrtIsMemoryBlock 40099f80     LIBCMTD:dbgheap.obj
 0002:00017fa0       __sehtable$__CrtMemCheckpoint 40099fa0     LIBCMTD:dbgheap.obj
 0002:00017fc0       __sehtable$__CrtSetDbgBlockType 40099fc0     LIBCMTD:dbgheap.obj
 0002:00017fe0       __sehtable$__heap_alloc_dbg_impl 40099fe0     LIBCMTD:dbgheap.obj
 0002:00018000       __sehtable$?__crtIsBadReadPtr@@YAHPBXI@Z 4009a000     LIBCMTD:dbgheap.obj
 0002:00018020       __sehtable$?_CrtMemDumpAllObjectsSince_stat@@YAXPBU_CrtMemState@@PAUlocaleinfo_struct@@@Z 4009a020     LIBCMTD:dbgheap.obj
 0002:00018040       __sehtable$__mtinitlocknum 4009a040     LIBCMTD:mlock.obj
 0002:00018060       __sehtable$__VCrtDbgReportA 4009a060     LIBCMTD:dbgrptt.obj
 0002:00018088       __sehtable$__VCrtDbgReportW 4009a088     LIBCMTD:dbgrptt.obj
 0002:000180b0       __sehtable$__CrtSetReportHook2 4009a0b0     LIBCMTD:dbgrpt.obj
 0002:000180d0       __sehtable$__IsNonwritableInCurrentImage 4009a0d0     LIBCMTD:pesect.obj
 0002:000180f0       __sehtable$__onexit        4009a0f0     LIBCMTD:onexit.obj
 0002:00018110       __sehtable$?terminate@@YAXXZ 4009a110     LIBCMTD:hooks.obj
 0002:00018130       __sehtable$?_inconsistency@@YAXXZ 4009a130     LIBCMTD:hooks.obj
 0002:00018150       __sehtable$__fcloseall     4009a150     LIBCMTD:closeall.obj
 0002:00018170       __sehtable$__commit        4009a170     LIBCMTD:commit.obj
 0002:00018190       __sehtable$__write         4009a190     LIBCMTD:write.obj
 0002:000181b0       __sehtable$_vfwprintf_helper 4009a1b0     LIBCMTD:vfwprint.obj
 0002:000181d0       __sehtable$__lseeki64      4009a1d0     LIBCMTD:lseeki64.obj
 0002:000181f0       __sehtable$_printf         4009a1f0     LIBCMTD:printf.obj
 0002:0001820c       __unwindtable$?x_ismbbtype_l@@YAHPAUlocaleinfo_struct@@IHH@Z 4009a20c     LIBCMTD:ismbbyte.obj
 0002:00018214       __ehfuncinfo$?x_ismbbtype_l@@YAHPAUlocaleinfo_struct@@IHH@Z 4009a214     LIBCMTD:ismbbyte.obj
 0002:00018238       __sehtable$___FrameUnwindToState 4009a238     LIBCMTD:frame.obj
 0002:00018260       __sehtable$?CallCatchBlock@@YAPAXPAUEHExceptionRecord@@PAUEHRegistrationNode@@PAU_CONTEXT@@PBU_s_FuncInfo@@PAXHK@Z 4009a260     LIBCMTD:frame.obj
 0002:00018288       __sehtable$___BuildCatchObject 4009a288     LIBCMTD:frame.obj
 0002:000182a8       __sehtable$___DestructExceptionObject 4009a2a8     LIBCMTD:frame.obj
 0002:000182c4       __catchsym$?CallUnexpected@@YAXPBU_s_ESTypeList@@@Z$2 4009a2c4     LIBCMTD:frame.obj
 0002:000182d4       __unwindtable$?CallUnexpected@@YAXPBU_s_ESTypeList@@@Z 4009a2d4     LIBCMTD:frame.obj
 0002:000182e4       __tryblocktable$?CallUnexpected@@YAXPBU_s_ESTypeList@@@Z 4009a2e4     LIBCMTD:frame.obj
 0002:000182f8       __ehfuncinfo$?CallUnexpected@@YAXPBU_s_ESTypeList@@@Z 4009a2f8     LIBCMTD:frame.obj
 0002:00018320       __sehtable$___BuildCatchObjectHelper 4009a320     LIBCMTD:frame.obj
 0002:00018390       __sehtable$_fclose         4009a390     LIBCMTD:fclose.obj
 0002:000183b0       __sehtable$__alloc_osfhnd  4009a3b0     LIBCMTD:osfinfo.obj
 0002:000183d8       __sehtable$___lock_fhandle 4009a3d8     LIBCMTD:osfinfo.obj
 0002:000183f8       __sehtable$__open_osfhandle 4009a3f8     LIBCMTD:osfinfo.obj
 0002:00018418       __sehtable$__putwch        4009a418     LIBCMTD:putwch.obj
 0002:00018438       __sehtable$_fputwc         4009a438     LIBCMTD:fputwc.obj
 0002:00018458       __sehtable$_vprintf_helper 4009a458     LIBCMTD:vprintf.obj
 0002:00018478       __sehtable$??3@YAXPAX@Z    4009a478     LIBCMTD:dbgdel.obj
 0002:00018498       __sehtable$__close         4009a498     LIBCMTD:close.obj
 0002:000184b4       __unwindtable$?wcstoxq@@YA_KPAUlocaleinfo_struct@@PB_WPAPB_WHH@Z 4009a4b4     LIBCMTD:wcstoq.obj
 0002:000184bc       __ehfuncinfo$?wcstoxq@@YA_KPAUlocaleinfo_struct@@PB_WPAPB_WHH@Z 4009a4bc     LIBCMTD:wcstoq.obj
 0002:000184e0       __sehtable$?_Name_base@type_info@@CAPBDPBV1@PAU__type_info_node@@@Z 4009a4e0     LIBCMTD:typname.obj
 0002:00018500       __sehtable$?_Type_info_dtor@type_info@@CAXPAV1@@Z 4009a500     LIBCMTD:typname.obj
 0002:00018520       __sehtable$?_Name_base_internal@type_info@@CAPBDPBV1@PAU__type_info_node@@@Z 4009a520     LIBCMTD:typname.obj
 0002:00018540       __sehtable$?_Type_info_dtor_internal@type_info@@CAXPAV1@@Z 4009a540     LIBCMTD:typname.obj
 0002:00018560       __sehtable$___clean_type_info_names_internal 4009a560     LIBCMTD:typname.obj
 0002:00018580       __sehtable$___unDName      4009a580     LIBCMTD:undname.obj
 0002:000185a0       __sehtable$___unDNameEx    4009a5a0     LIBCMTD:undname.obj
 0002:000185bc       __unwindtable$?make@DNameStatusNode@@SAPAV1@W4DNameStatus@@@Z 4009a5bc     LIBCMTD:undname.obj
 0002:000185c4       __ehfuncinfo$?make@DNameStatusNode@@SAPAV1@W4DNameStatus@@@Z 4009a5c4     LIBCMTD:undname.obj
 0002:00018da2       .idata$6                   4009ada2     kernel32:KERNEL32.dll
 0002:00018db0       .edata                     4009adb0     uix86.exp
 0002:00018dd8       rgpv                       4009add8     uix86.exp
 0002:00018de0       rgszName                   4009ade0     uix86.exp
 0002:00018de8       rgwOrd                     4009ade8     uix86.exp
 0002:00018dec       szName                     4009adec     uix86.exp
 0002:00018df6       $N00001                    4009adf6     uix86.exp
 0002:00018dff       $N00002                    4009adff     uix86.exp
 0003:000011a8       _skillNames                4009c1a8     ui_addbots.obj
 0003:000011c0       _teamNames1                4009c1c0     ui_addbots.obj
 0003:000011c8       _teamNames2                4009c1c8     ui_addbots.obj
 0003:000011d8       _propMap                   4009c1d8     ui_atoms.obj
 0003:000017d8       _propMapB                  4009c7d8     ui_atoms.obj
 0003:00001910       _cinematics                4009c910     ui_cinematics.obj
 0003:0000193c       ?dlText@?1??UI_DisplayDownloadInfo@@9@9 4009c93c     ui_connect.obj
 0003:0000194c       ?etaText@?1??UI_DisplayDownloadInfo@@9@9 4009c94c     ui_connect.obj
 0003:00001964       ?xferText@?1??UI_DisplayDownloadInfo@@9@9 4009c964     ui_connect.obj
 0003:00001978       _controls_binding_color    4009c978     ui_controls2.obj
 0003:00001988       _g_bindings                4009c988     ui_controls2.obj
 0003:00001de8       _g_configcvars             4009cde8     ui_controls2.obj
 0003:00001e54       _g_movement_controls       4009ce54     ui_controls2.obj
 0003:00001e84       _g_weapons_controls        4009ce84     ui_controls2.obj
 0003:00001ebc       _g_looking_controls        4009cebc     ui_controls2.obj
 0003:00001eec       _g_misc_controls           4009ceec     ui_controls2.obj
 0003:00001f0c       _g_controls                4009cf0c     ui_controls2.obj
 0003:00001f20       _cvarTable                 4009cf20     ui_main.obj
 0003:00002210       _cvarTableSize             4009d210     ui_main.obj
 0003:00002214       _rate_items                4009d214     ui_network.obj
 0003:0000222c       _playermodel_artlist       4009d22c     ui_playermodel.obj
 0003:00002258       _gamecodetoui              4009d258     ui_playersettings.obj
 0003:00002274       _uitogamecode              4009d274     ui_playersettings.obj
 0003:00002290       _handicap_items            4009d290     ui_playersettings.obj
 0003:000022e4       _teamoverlay_names         4009d2e4     ui_preferences.obj
 0003:000023f8       _serverinfo_artlist        4009d3f8     ui_serverinfo.obj
 0003:0000240c       _master_items              4009d40c     ui_servers2.obj
 0003:0000241c       _servertype_items          4009d41c     ui_servers2.obj
 0003:00002434       _sortkey_items             4009d434     ui_servers2.obj
 0003:0000244c       _gamenames                 4009d44c     ui_servers2.obj
 0003:00002484       _netnames                  4009d484     ui_servers2.obj
 0003:00002494       _quake3worldMessage        4009d494     ui_servers2.obj
 0003:000024f0       _quality_items             4009d4f0     ui_sound.obj
 0003:000024fc       _specifyserver_artlist     4009d4fc     ui_specifyserver.obj
 0003:00002560       _medalLocations            4009d560     ui_sppostgame.obj
 0003:00002578       _gametype_items            4009d578     ui_startserver.obj
 0003:0000258c       _gametype_remap            4009d58c     ui_startserver.obj
 0003:0000259c       _gametype_remap2           4009d59c     ui_startserver.obj
 0003:000025b0       _dedicated_list            4009d5b0     ui_startserver.obj
 0003:000025c0       _playerType_list           4009d5c0     ui_startserver.obj
 0003:000025d0       _playerTeam_list           4009d5d0     ui_startserver.obj
 0003:000025dc       _botSkill_list             4009d5dc     ui_startserver.obj
 0003:000025f4       _syscall                   4009d5f4     ui_syscalls.obj
 0003:000025f8       _ctfOrders                 4009d5f8     ui_teamorders.obj
 0003:00002618       _ctfMessages               4009d618     ui_teamorders.obj
 0003:00002638       _teamOrders                4009d638     ui_teamorders.obj
 0003:00002654       _teamMessages              4009d654     ui_teamorders.obj
 0003:00002670       _driverinfo_artlist        4009d670     ui_video.obj
 0003:00002684       _s_drivers                 4009d684     ui_video.obj
 0003:00002690       _s_ivo_templates           4009d690     ui_video.obj
 0003:00002758       ?s_driver_names@?1??GraphicsOptions_MenuInit@@9@9 4009d758     ui_video.obj
 0003:00002764       ?tq_names@?1??GraphicsOptions_MenuInit@@9@9 4009d764     ui_video.obj
 0003:00002774       ?s_graphics_options_names@?1??GraphicsOptions_MenuInit@@9@9 4009d774     ui_video.obj
 0003:0000278c       ?lighting_names@?1??GraphicsOptions_MenuInit@@9@9 4009d78c     ui_video.obj
 0003:00002798       ?colordepth_names@?1??GraphicsOptions_MenuInit@@9@9 4009d798     ui_video.obj
 0003:000027a8       ?resolutions@?1??GraphicsOptions_MenuInit@@9@9 4009d7a8     ui_video.obj
 0003:000027dc       ?filter_names@?1??GraphicsOptions_MenuInit@@9@9 4009d7dc     ui_video.obj
 0003:000027e8       ?quality_names@?1??GraphicsOptions_MenuInit@@9@9 4009d7e8     ui_video.obj
 0003:000027f8       ?enabled_names@?1??GraphicsOptions_MenuInit@@9@9 4009d7f8     ui_video.obj
 0003:00002810       _NAME_                     4009d810     LIBCMTD:cos.obj
 0003:00002820       _NAME_                     4009d820     LIBCMTD:sin.obj
 0003:00002838       __assertstring             4009d838     LIBCMTD:wassert.obj
 0003:00002888       _dotdotdot                 4009d888     LIBCMTD:wassert.obj
 0003:0000288c       _newline                   4009d88c     LIBCMTD:wassert.obj
 0003:00002890       _dblnewline                4009d890     LIBCMTD:wassert.obj
 0003:000028a0       _NAME_                     4009d8a0     LIBCMTD:sqrt.obj
 0003:000028b0       _NAME_                     4009d8b0     LIBCMTD:tan.obj
 0003:000028c0       ?_names@?1??_get_fname@@9@9 4009d8c0     LIBCMTD:fpexcept.obj
 0003:000029d0       _over                      4009d9d0     LIBCMTD:fpctrl.obj
 0003:000029dc       _under                     4009d9dc     LIBCMTD:fpctrl.obj
 0003:000029e8       ?__DAZ_ENABLED@?1??__set_fpsr_sse2@@9@9 4009d9e8     LIBCMTD:fpctrl.obj
 0003:000029f0       _errtable                  4009d9f0     LIBCMTD:dosmap.obj
 0003:00002b58       _ErrnoNoMem                4009db58     LIBCMTD:dosmap.obj
 0003:00002b5c       _DoserrorNoMem             4009db5c     LIBCMTD:dosmap.obj
 0003:00002b60       ___rgctypeflag             4009db60     LIBCMTD:mbctype.obj
 0003:00002b68       ___rgcode_page_info        4009db68     LIBCMTD:mbctype.obj
 0003:00003084       _dotdotdot                 4009e084     LIBCMTD:dbgrptw.obj
 0003:00003588       ?isPackaged@?1??__crtIsPackagedApp@@9@9 4009e588     LIBCMTD:winapisupp.obj
 0003:00003594       __ctype_loc_style          4009e594     LIBCMTD:wsetloca.obj
 0003:000035e0       __lRequestCurr             4009e5e0     LIBCMTD:dbgheap.obj
 0003:000035e4       __bNoMansLandFill          4009e5e4     LIBCMTD:dbgheap.obj
 0003:000035e5       __bAlignLandFill           4009e5e5     LIBCMTD:dbgheap.obj
 0003:000035e6       __bDeadLandFill            4009e5e6     LIBCMTD:dbgheap.obj
 0003:000035e7       __bCleanLandFill           4009e5e7     LIBCMTD:dbgheap.obj
 0003:000035f8       _DoubleFormat              4009e5f8     LIBCMTD:intrncvt.obj
 0003:00003610       _FloatFormat               4009e610     LIBCMTD:intrncvt.obj
 0003:000038e8       __locktable                4009e8e8     LIBCMTD:mlock.obj
 0003:00003a88       _dotdotdot                 4009ea88     LIBCMTD:dbgrpt.obj
 0003:00003c0c       ?bops_initialized@?1??BoxOnPlaneSide@@9@9 4009ec0c     q_math.obj
 0003:00003c10       ?Ljmptab@?1??BoxOnPlaneSide@@9@9 4009ec10     q_math.obj
 0003:00003c30       ?sr@?1??AngleVectors@@9@9  4009ec30     q_math.obj
 0003:00003c34       ?sp@?1??AngleVectors@@9@9  4009ec34     q_math.obj
 0003:00003c38       ?sy@?1??AngleVectors@@9@9  4009ec38     q_math.obj
 0003:00003c3c       ?cr@?1??AngleVectors@@9@9  4009ec3c     q_math.obj
 0003:00003c40       ?cp@?1??AngleVectors@@9@9  4009ec40     q_math.obj
 0003:00003c44       ?cy@?1??AngleVectors@@9@9  4009ec44     q_math.obj
 0003:00003c48       ?index@?1??va@@9@9         4009ec48     q_shared.obj
 0003:00003c4c       ?valueindex@?1??Info_ValueForKey@@9@9 4009ec4c     q_shared.obj
 0003:00003c50       _com_token                 4009ec50     q_shared.obj
 0003:00004050       _com_parsename             4009f050     q_shared.obj
 0003:00004450       _com_lines                 4009f450     q_shared.obj
 0003:00004458       ?string@?1??COM_ParseError@@9@9 4009f458     q_shared.obj
 0003:00005458       ?string@?1??COM_ParseWarning@@9@9 400a0458     q_shared.obj
 0003:00006458       ?string@?1??va@@9@9        400a1458     q_shared.obj
 0003:00015e58       ?value@?1??Info_ValueForKey@@9@9 400b0e58     q_shared.obj
 0003:00019e58       _addBotsMenuInfo           400b4e58     ui_addbots.obj
 0003:0001b4d8       ?buffer@?1??UI_Argv@@9@9   400b64d8     ui_atoms.obj
 0003:0001b8d8       ?buffer@?1??UI_Cvar_VariableString@@9@9 400b68d8     ui_atoms.obj
 0003:0001bcd8       _cdkeyMenuInfo             400b6cd8     ui_cdkey.obj
 0003:0001c098       _cinematicsMenuInfo        400b7098     ui_cinematics.obj
 0003:0001c5d8       _s_confirm                 400b75d8     ui_confirm.obj
 0003:0001c7a0       _lastConnState             400b77a0     ui_connect.obj
 0003:0001c7a8       _lastLoadingText           400b77a8     ui_connect.obj
 0003:0001cba8       _s_controls                400b7ba8     ui_controls2.obj
 0003:0001deb0       ?playername@?1??Controls_MenuInit@@9@9 400b8eb0     ui_controls2.obj
 0003:0001ded0       _s_credits                 400b8ed0     ui_credits.obj
 0003:0001dff0       _s_demos                   400b8ff0     ui_demo2.obj
 0003:0001ee28       _displayOptionsInfo        400b9e28     ui_display.obj
 0003:0001f250       _ui_botInfos               400ba250     ui_gameinfo.obj
 0003:00020250       _ui_numArenas              400bb250     ui_gameinfo.obj
 0003:00020254       _ui_numSinglePlayerArenas  400bb254     ui_gameinfo.obj
 0003:00020258       _ui_arenaInfos             400bb258     ui_gameinfo.obj
 0003:00021258       _ui_numSpecialSinglePlayerArenas 400bc258     ui_gameinfo.obj
 0003:0002125c       _allocPoint                400bc25c     ui_gameinfo.obj
 0003:00021260       _memoryPool                400bc260     ui_gameinfo.obj
 0003:00041260       _outOfMemory               400dc260     ui_gameinfo.obj
 0003:00041268       _s_ingame                  400dc268     ui_ingame.obj
 0003:000416b0       _s_main                    400dc6b0     ui_menu.obj
 0003:00041a18       _s_errorMessage            400dca18     ui_menu.obj
 0003:00042b38       _s_mods                    400ddb38     ui_mods.obj
 0003:00044068       _networkOptionsInfo        400df068     ui_network.obj
 0003:00044458       _s_options                 400df458     ui_options.obj
 0003:000447e8       _s_playermodel             400df7e8     ui_playermodel.obj
 0003:0004dc8c       ?playername@?1??PlayerModel_MenuInit@@9@9 400e8c8c     ui_playermodel.obj
 0003:0004dcac       ?modelname@?1??PlayerModel_MenuInit@@9@9 400e8cac     ui_playermodel.obj
 0003:0004dccc       ?skinname@?1??PlayerModel_MenuInit@@9@9 400e8ccc     ui_playermodel.obj
 0003:0004dcec       _dp_realtime               400e8cec     ui_players.obj
 0003:0004dcf0       _jumpHeight                400e8cf0     ui_players.obj
 0003:0004dcf8       _s_playersettings          400e8cf8     ui_playersettings.obj
 0003:0004e738       _s_preferences             400e9738     ui_preferences.obj
 0003:0004ecd0       _sliderBar                 400e9cd0     ui_qmenu.obj
 0003:0004ecd4       _sliderButton_0            400e9cd4     ui_qmenu.obj
 0003:0004ecd8       _sliderButton_1            400e9cd8     ui_qmenu.obj
 0003:0004ece0       _removeBotsMenuInfo        400e9ce0     ui_removebots.obj
 0003:00050340       _s_serverinfo              400eb340     ui_serverinfo.obj
 0003:00050a00       _g_arenaservers            400eba00     ui_servers2.obj
 0003:000544c4       _g_numglobalservers        400ef4c4     ui_servers2.obj
 0003:000544c8       _g_globalserverlist        400ef4c8     ui_servers2.obj
 0003:000590c8       _g_localserverlist         400f40c8     ui_servers2.obj
 0003:0005dcc8       _g_numlocalservers         400f8cc8     ui_servers2.obj
 0003:0005dccc       _g_numfavoriteservers      400f8ccc     ui_servers2.obj
 0003:0005dcd0       _g_favoriteserverlist      400f8cd0     ui_servers2.obj
 0003:0005e650       _g_mplayerserverlist       400f9650     ui_servers2.obj
 0003:00063250       _g_nummplayerservers       400fe250     ui_servers2.obj
 0003:00063254       _g_servertype              400fe254     ui_servers2.obj
 0003:00063258       _g_gametype                400fe258     ui_servers2.obj
 0003:0006325c       _g_sortkey                 400fe25c     ui_servers2.obj
 0003:00063260       _g_emptyservers            400fe260     ui_servers2.obj
 0003:00063264       _g_fullservers             400fe264     ui_servers2.obj
 0003:00063268       ?picname@?1??ArenaServers_UpdatePicture@@9@9 400fe268     ui_servers2.obj
 0003:000632a8       ?statusbuffer@?1??ArenaServers_MenuInit@@9@9 400fe2a8     ui_servers2.obj
 0003:000632e8       _setupMenuInfo             400fe2e8     ui_setup.obj
 0003:00063708       _soundOptionsInfo          400fe708     ui_sound.obj
 0003:00063b90       _s_specifyserver           400feb90     ui_specifyserver.obj
 0003:000640f0       _levelMenuInfo             400ff0f0     ui_splevel.obj
 0003:00064b28       _selectedArenaSet          400ffb28     ui_splevel.obj
 0003:00064b2c       _selectedArena             400ffb2c     ui_splevel.obj
 0003:00064b30       _currentSet                400ffb30     ui_splevel.obj
 0003:00064b34       _currentGame               400ffb34     ui_splevel.obj
 0003:00064b38       _trainingTier              400ffb38     ui_splevel.obj
 0003:00064b3c       _finalTier                 400ffb3c     ui_splevel.obj
 0003:00064b40       _minTier                   400ffb40     ui_splevel.obj
 0003:00064b44       _maxTier                   400ffb44     ui_splevel.obj
 0003:00064b48       _postgameMenuInfo          400ffb48     ui_sppostgame.obj
 0003:00064f08       _arenainfo                 400fff08     ui_sppostgame.obj
 0003:00065308       _s_reset                   40100308     ui_spreset.obj
 0003:000654c0       _skillMenuInfo             401004c0     ui_spskill.obj
 0003:00065910       _s_startserver             40100910     ui_startserver.obj
 0003:000665b8       ?picname@?1??StartServer_Update@@9@9 401015b8     ui_startserver.obj
 0003:000666b8       ?mapnamebuffer@?1??StartServer_MenuInit@@9@9 401016b8     ui_startserver.obj
 0003:000666f8       _s_serveroptions           401016f8     ui_startserver.obj
 0003:00067e90       ?picname@?1??ServerOptions_SetMenuItems@@9@9 40102e90     ui_startserver.obj
 0003:00067ed0       _botSelectInfo             40102ed0     ui_startserver.obj
 0003:0006a680       _s_teammain                40105680     ui_team.obj
 0003:0006a918       _teamOrdersMenuInfo        40105918     ui_teamorders.obj
 0003:0006ac50       _s_driverinfo              40105c50     ui_video.obj
 0003:0006b3c4       _s_ivo                     401063c4     ui_video.obj
 0003:0006b3f0       _s_graphicsoptions         401063f0     ui_video.obj
 0003:0006bc2c       ?init@?1??_RTC_InitBase@@9@4_NA 40106c2c     LIBCMTD:init.obj
 0003:0006bc38       _GS_ExceptionRecord        40106c38     LIBCMTD:gs_report.obj
 0003:0006bc88       _GS_ContextRecord          40106c88     LIBCMTD:gs_report.obj
 0003:0006bf54       _DebuggerWasPresent        40106f54     LIBCMTD:gs_report.obj
 0003:0006bf60       ___proc_attached           40106f60     LIBCMTD:dllcrt0.obj
 0003:0006bf80       _fSystemSet                40106f80     LIBCMTD:mbctype.obj
 0003:0006bf88       __RTC_ErrorReportFunc      40106f88     LIBCMTD:userapi.obj
 0003:0006bf8c       __RTC_ErrorReportFuncW     40106f8c     LIBCMTD:userapi.obj
 0003:0006bfa8       ?fExit@?1??doexit@@9@9     40106fa8     LIBCMTD:crt0dat.obj
 0003:0006bfd0       _ctrlc_action              40106fd0     LIBCMTD:winsig.obj
 0003:0006bfd4       _ctrlbreak_action          40106fd4     LIBCMTD:winsig.obj
 0003:0006bfd8       _abort_action              40106fd8     LIBCMTD:winsig.obj
 0003:0006bfdc       _term_action               40106fdc     LIBCMTD:winsig.obj
 0003:0006bfe0       _ConsoleCtrlHandler_Installed 40106fe0     LIBCMTD:winsig.obj
 0003:0006bfe4       ?pfnMessageBox@?1??__crtMessageBoxW@@9@9 40106fe4     LIBCMTD:crtmboxw.obj
 0003:0006bfe8       ?pfnGetActiveWindow@?1??__crtMessageBoxW@@9@9 40106fe8     LIBCMTD:crtmboxw.obj
 0003:0006bfec       ?pfnGetLastActivePopup@?1??__crtMessageBoxW@@9@9 40106fec     LIBCMTD:crtmboxw.obj
 0003:0006bff0       ?pfnGetProcessWindowStation@?1??__crtMessageBoxW@@9@9 40106ff0     LIBCMTD:crtmboxw.obj
 0003:0006bff4       ?pfnGetUserObjectInformation@?1??__crtMessageBoxW@@9@9 40106ff4     LIBCMTD:crtmboxw.obj
 0003:0006c000       ?outmsg@?L@??_NMSG_WRITE@@9@9 40107000     LIBCMTD:crt0msg.obj
 0003:0006c738       ?_pgmname@?1??_setargv@@9@9 40107738     LIBCMTD:stdargv.obj
 0003:0006c844       _check_frequency           40107844     LIBCMTD:dbgheap.obj
 0003:0006c84c       _check_counter             4010784c     LIBCMTD:dbgheap.obj
 0003:0006c850       __lTotalAlloc              40107850     LIBCMTD:dbgheap.obj
 0003:0006c854       __lCurAlloc                40107854     LIBCMTD:dbgheap.obj
 0003:0006c858       __lMaxAlloc                40107858     LIBCMTD:dbgheap.obj
 0003:0006c85c       __pFirstBlock              4010785c     LIBCMTD:dbgheap.obj
 0003:0006c860       __pLastBlock               40107860     LIBCMTD:dbgheap.obj
 0003:0006c868       _lclcritsects              40107868     LIBCMTD:mlock.obj
 0003:0006c9d8       _mspdb                     401079d8     LIBCMTD:pdblkup.obj
 0003:0006c9dc       ?alreadyTried@?1??GetPdbDll@@YAPAUHINSTANCE__@@XZ@4_NA 401079dc     LIBCMTD:pdblkup.obj
 0003:0006c9dd       ?PDBOK@?BM@??_RTC_GetSrcLine@@YAHPAEPA_WKPAH1K@Z@4_NA 401079dd     LIBCMTD:pdblkup.obj
 0003:0006c9f0       _g_pfnRtlGenRandom         401079f0     LIBCMTD:rand_s.obj
 0003:0006c9fc       ___enable_percent_n        401079fc     LIBCMTD:printf.obj
 0003:0006ca00       ___crtCallProc             40107a00     LIBCMTD:winapinls.obj
 0003:0006ca08       ___type_info_root_node     40107a08     LIBCMTD:typname.obj
 0003:0006ca38       _heap                      40107a38     LIBCMTD:undname.obj
 0003:0006ca50       ?buf@?1??dbGetString@DName@@QBEPADXZ@4PADA 40107a50     LIBCMTD:undname.obj
 0004:00000060       $R000000                   4010f060     * linker generated manifest res *
